                            MasterStackPointer:           
ram:00026000    38530020        addr        DAT_20005338                            
                            Reset:                        ;XREF[1,0]:   Entry Point
ram:00026004    c1630200        addr        FUNC_Reset_000263c0+1                   
                            NMI:                          ;XREF[1,0]:   Entry Point
ram:00026008    c9630200        addr        FUNC_NMI_000263c8+1                     
                            HardFault:                    ;XREF[1,0]:   Entry Point
ram:0002600c    cb630200        addr        FUNC_HardFault_000263ca+1               
                            MemManage:                    ;XREF[1,0]:   Entry Point
ram:00026010    cd630200        addr        FUNC_MemManage_000263cc+1               
                            BusFault:                     ;XREF[1,0]:   Entry Point
ram:00026014    cf630200        addr        FUNC_BusFault_000263ce+1                
                            UsageFault:                   ;XREF[1,0]:   Entry Point
ram:00026018    d1630200        addr        FUNC_UsageFault_000263d0+1              
                            Reserved1:                    ;XREF[1,0]:   Entry Point
ram:0002601c    00000000        addr        00000000                                
                            Reserved2:                    ;XREF[1,0]:   Entry Point
ram:00026020    00000000        addr        00000000                                
                            Reserved3:                    ;XREF[1,0]:   Entry Point
ram:00026024    00000000        addr        00000000                                
                            Reserved5:                    ;XREF[1,0]:   Entry Point
                            Reserved6:                    
                            Reserved4:                    
ram:00026028    00000000        addr        00000000                                
                            SVCall:                       ;XREF[1,0]:   Entry Point
ram:0002602c    d3630200        addr        FUNC_SVCall_000263d2+1                  
ram:00026030    d5630200        addr        FUNC_VT_000263d4+1                      
ram:00026034    00000000        addr        00000000                                
                            PendSV:                       ;XREF[1,0]:   Entry Point
ram:00026038    d7630200        addr        FUNC_PendSV_000263d6+1                  
                            SysTick:                      ;XREF[1,0]:   Entry Point
ram:0002603c    d9630200        addr        FUNC_SysTick_000263d8+1                 
                            IRQ:                          ;XREF[1,0]:   Entry Point
ram:00026040    996a0200        addr        FUNC_IRQ_00026a98+1                     
ram:00026044    db630200        addr        FUNC_VT_000263da+1                      
ram:00026048    01700200        addr        FUNC_VT_00027000+1                      
ram:0002604c    db630200        addr        FUNC_VT_000263da+1                      
ram:00026050    db630200        addr        FUNC_VT_000263da+1                      
ram:00026054    db630200        addr        FUNC_VT_000263da+1                      
ram:00026058    11650200        addr        FUNC_VT_00026510+1                      
ram:0002605c    db630200        addr        FUNC_VT_000263da+1                      
ram:00026060    f56e0200        addr        FUNC_VT_00026ef4+1                      
ram:00026064    096f0200        addr        FUNC_VT_00026f08+1                      
ram:00026068    1d6f0200        addr        FUNC_VT_00026f1c+1                      
ram:0002606c    db630200        addr        FUNC_VT_000263da+1                      
ram:00026070    db630200        addr        FUNC_VT_000263da+1                      
ram:00026074    db630200        addr        FUNC_VT_000263da+1                      
ram:00026078    db630200        addr        FUNC_VT_000263da+1                      
ram:0002607c    db630200        addr        FUNC_VT_000263da+1                      
ram:00026080    db630200        addr        FUNC_VT_000263da+1                      
ram:00026084    3d6b0200        addr        FUNC_VT_00026b3c+1                      
ram:00026088    db630200        addr        FUNC_VT_000263da+1                      
ram:0002608c    db630200        addr        FUNC_VT_000263da+1                      
ram:00026090    616b0200        addr        thunk_FUN_0002a0ac+1                    
ram:00026094    db630200        addr        FUNC_VT_000263da+1                      
ram:00026098    656b0200        addr        thunk_FUN_00029750+1                    
ram:0002609c    db630200        addr        FUNC_VT_000263da+1                      
ram:000260a0    db630200        addr        FUNC_VT_000263da+1                      
ram:000260a4    db630200        addr        FUNC_VT_000263da+1                      
ram:000260a8    316f0200        addr        FUNC_VT_00026f30+1                      
ram:000260ac    456f0200        addr        FUNC_VT_00026f44+1                      
ram:000260b0    db630200        addr        FUNC_VT_000263da+1                      
ram:000260b4    db630200        addr        FUNC_VT_000263da+1                      
ram:000260b8    00000000        addr        00000000                                
ram:000260bc    00000000        addr        00000000                                
ram:000260c0    db630200        addr        FUNC_VT_000263da+1                      
ram:000260c4    db630200        addr        FUNC_VT_000263da+1                      
ram:000260c8    db630200        addr        FUNC_VT_000263da+1                      
ram:000260cc    db630200        addr        FUNC_VT_000263da+1                      
ram:000260d0    db630200        addr        FUNC_VT_000263da+1                      
ram:000260d4    db630200        addr        FUNC_VT_000263da+1                      
ram:000260d8    db630200        addr        FUNC_VT_000263da+1                      
ram:000260dc    00000000        addr        00000000                                
ram:000260e0    00000000        addr        00000000                                
ram:000260e4    00000000        addr        00000000                                
ram:000260e8    00000000        addr        00000000                                
ram:000260ec    00000000        addr        00000000                                
                            ;************************************************************************************************
                            ;*                                           FUNCTION                                           *
                            ;************************************************************************************************
                            ;undefined LAB_00026200+1(undefined4 param_1, undefined4 param_2, undefined * param_3, undefined * * param_4)
          ;param_1       undefined4          r0                      
          ;param_2       undefined4          r1                      
          ;param_3       undefined *         r2                      
          ;param_4       undefined * *       r3                      
                                                          ;XREF[1,1]:   000263c6,000263e0
ram:00026200    dff80cd0        ldr.w       sp,[DAT_00026210]                       ;= 20005338h
ram:00026204    00f062f9        bl          FUN_000264cc                            ;undefined FUN_000264cc(undefined4 pa...
                            ;************************************************************************************************
                            ;*                                           FUNCTION                                           *
                            ;************************************************************************************************
                            ;undefined thunk_FUN_00028908(undefined4 param_1, undefined4 param_2, uint param_3, undefined * * param_4)
          ;param_1       undefined4          r0                      
          ;param_2       undefined4          r1                      
          ;param_3       uint                r2                      
          ;param_4       undefined * *       r3                      
                                                          ;XREF[1,0]:   000264e4
ram:00026208    0048            ldr         param_1,[DAT_0002620c]                  ;= 00028909h
ram:0002620a    0047            bx          param_1=>FUN_00028908                   ;undefined FUN_00028908(undefined4 pa...
                            DAT_0002620c:                 ;XREF[1,0]:   00026208
ram:0002620c    09890200        undefined4  00028909h                               ;?  ->  00028909
                            DAT_00026210:                 ;XREF[1,0]:   00026200
ram:00026210    38530020        undefined4  20005338h                               
                            ;************************************************************************************************
                            ;*                                           FUNCTION                                           *
                            ;************************************************************************************************
                            ;undefined4 FUN_00026214(int param_1, uint * param_2)
          ;param_1       int                 r0                      
          ;param_2       uint *              r1                      
                                                          ;XREF[1,0]:   00028df2
ram:00026214    30b4            push        {r4,r5}                                 
                            LAB_00026216:                 ;XREF[1,0]:   00026240
ram:00026216    50e8012f        ldrex       r2,param_1,#0x4                         
ram:0002621a    93b2            uxth        r3,r2                                   
ram:0002621c    c489            ldrh        r4,[param_1,#0xe]                       
ram:0002621e    2344            add         r3,r4                                   
ram:00026220    8489            ldrh        r4,[param_1,#0xc]                       
ram:00026222    a342            cmp         r3,r4                                   
ram:00026224    28bf            it          cs                                      
ram:00026226    1b1b            sub.cs      r3,r3,r4                                
ram:00026228    0489            ldrh        r4,[param_1,#0x8]                       
ram:0002622a    a342            cmp         r3,r4                                   
ram:0002622c    02bf            ittt        eq                                      
ram:0002622e    bff32f8f        clrex.eq                                             
ram:00026232    0020            mov.eq      param_1,#0x0                            
ram:00026234    07e0            b.eq        LAB_00026246                            
ram:00026236    c3ea0203        pkhbt.w     r3,r3,r2                                
ram:0002623a    40e80134        strex       r4,r3,param_1,#0x4                      
ram:0002623e    002c            cmp         r4,#0x0                                 
ram:00026240    e9d1            bne         LAB_00026216                            
ram:00026242    4ff00100        mov.w       param_1,#0x1                            
                            LAB_00026246:                 ;XREF[1,0]:   00026234
ram:00026246    0a60            str         r2,[param_2,#0x0]                       
ram:00026248    30bc            pop         {r4,r5}                                 
ram:0002624a    7047            bx          lr                                      
                            ;************************************************************************************************
                            ;*                                           FUNCTION                                           *
                            ;************************************************************************************************
                            ;undefined FUN_0002624c(int param_1)
          ;param_1       int                 r0                      
                                                          ;XREF[2,0]:   0002625a,00028e38
ram:0002624c    50e8012f        ldrex       r2,param_1,#0x4                         
ram:00026250    c2ea0242        pkhbt.w     r2,r2,r2, lsl #0x10                     
ram:00026254    40e80121        strex       r1,r2,param_1,#0x4                      
ram:00026258    0029            cmp         r1,#0x0                                 
ram:0002625a    f7d1            bne         FUN_0002624c                            
ram:0002625c    7047            bx          lr                                      
                            ;************************************************************************************************
                            ;*                                           FUNCTION                                           *
                            ;************************************************************************************************
                            ;undefined4 FUN_0002625e(int param_1, uint * param_2)
          ;param_1       int                 r0                      
          ;param_2       uint *              r1                      
                                                          ;XREF[1,0]:   00028e1e
ram:0002625e    30b4            push        {r4,r5}                                 
                            LAB_00026260:                 ;XREF[1,0]:   0002628c
ram:00026260    50e8022f        ldrex       r2,param_1,#DAT_00000008                
ram:00026264    1ffaa2f3        uxth.w      r3,r2,#0x10                             
ram:00026268    c488            ldrh        r4,[param_1,#DAT_00000006]              
ram:0002626a    a342            cmp         r3,r4                                   
ram:0002626c    02bf            ittt        eq                                      
ram:0002626e    bff32f8f        clrex.eq                                             
ram:00026272    0020            mov.eq      param_1,#0x0                            
ram:00026274    0de0            b.eq        LAB_00026292                            
ram:00026276    c489            ldrh        r4,[param_1,#DAT_0000000e]              
ram:00026278    2344            add         r3,r4                                   
ram:0002627a    8489            ldrh        r4,[param_1,#DAT_0000000c]              
ram:0002627c    a342            cmp         r3,r4                                   
ram:0002627e    28bf            it          cs                                      
ram:00026280    1b1b            sub.cs      r3,r3,r4                                
ram:00026282    c2ea0343        pkhbt.w     r3,r2,r3, lsl #0x10                     
ram:00026286    40e80234        strex       r4,r3,param_1,#DAT_00000008             
ram:0002628a    002c            cmp         r4,#0x0                                 
ram:0002628c    e8d1            bne         LAB_00026260                            
ram:0002628e    4ff00100        mov.w       param_1,#0x1                            
                            LAB_00026292:                 ;XREF[1,0]:   00026274
ram:00026292    0a60            str         r2,[param_2,#0x0]                       
ram:00026294    30bc            pop         {r4,r5}                                 
ram:00026296    7047            bx          lr                                      
                            ;************************************************************************************************
                            ;*                                           FUNCTION                                           *
                            ;************************************************************************************************
                            ;undefined FUN_00026298(int param_1)
          ;param_1       int                 r0                      
                                                          ;XREF[2,0]:   000262a6,00028e0c
ram:00026298    50e8022f        ldrex       r2,param_1,#0x8                         
ram:0002629c    c2ea2242        pkhtb.w     r2,r2,r2, asr #0x10                     
ram:000262a0    40e80221        strex       r1,r2,param_1,#0x8                      
ram:000262a4    0029            cmp         r1,#0x0                                 
ram:000262a6    f7d1            bne         FUN_00026298                            
ram:000262a8    7047            bx          lr                                      
                            ;************************************************************************************************
                            ;*                                           FUNCTION                                           *
                            ;************************************************************************************************
                            ;undefined4 FUN_000262aa(int param_1)
          ;param_1       int                 r0                      
                                                          ;XREF[1,0]:   00028db8
ram:000262aa    0346            mov         r3,param_1                              
                            LAB_000262ac:                 ;XREF[1,0]:   000262d8
ram:000262ac    53e8022f        ldrex       r2,r3,#0x8                              
ram:000262b0    d988            ldrh        r1,[r3,#0x6]                            
ram:000262b2    b2eb324f        cmp.w       r2,r2, ror #0x10                        
ram:000262b6    4ff00000        mov.w       param_1,#0x0                            
ram:000262ba    17bf            itett       ne                                      
ram:000262bc    92b2            uxth.ne     r2,r2                                   
ram:000262be    41ea0141        orr.eq.w    r1,r1,r1, lsl #0x10                     
ram:000262c2    42ea0141        orr.ne.w    r1,r2,r1, lsl #0x10                     
ram:000262c6    04e0            b.ne        LAB_000262d2                            
ram:000262c8    5a68            ldr         r2,[r3,#0x4]                            
ram:000262ca    b2eb324f        cmp.w       r2,r2, ror #0x10                        
ram:000262ce    08bf            it          eq                                      
ram:000262d0    0120            mov.eq      param_1,#0x1                            
                            LAB_000262d2:                 ;XREF[1,0]:   000262c6
ram:000262d2    43e80212        strex       r2,r1,r3,#0x8                           
ram:000262d6    002a            cmp         r2,#0x0                                 
ram:000262d8    e8d1            bne         LAB_000262ac                            
ram:000262da    7047            bx          lr                                      
ram:000262dc    30b4            push        {r4,r5}                                 
ram:000262de    0446            mov         r4,r0                                   
                            ;************************************************************************************************
                            ;*                                           FUNCTION                                           *
                            ;************************************************************************************************
                            ;undefined4 FUN_000262e0(undefined4 param_1, undefined4 param_2, undefined4 * param_3)
          ;param_1       undefined4          r0                      
          ;param_2       undefined4          r1                      
          ;param_3       undefined4 *        r2                      
                                                          ;XREF[1,0]:   000262ec
ram:000262e0    54e8000f        ldrex       param_1,r4,#0x0                         
ram:000262e4    0d46            mov         r5,param_2                              
ram:000262e6    44e80053        strex       r3,r5,r4,#0x0                           
ram:000262ea    002b            cmp         r3,#0x0                                 
ram:000262ec    f8d1            bne         FUN_000262e0                            
ram:000262ee    1560            str         r5,[param_3,#0x0]                       
ram:000262f0    30bc            pop         {r4,r5}                                 
ram:000262f2    7047            bx          lr                                      
                            ;************************************************************************************************
                            ;*                                           FUNCTION                                           *
                            ;************************************************************************************************
                            ;undefined FUN_000262f4(uint * param_1, uint param_2, uint * param_3)
          ;param_1       uint *              r0                      
          ;param_2       uint                r1                      
          ;param_3       uint *              r2                      
                                                          ;XREF[2,0]:   00028e9a,00028ea4
ram:000262f4    30b4            push        {r4,r5}                                 
ram:000262f6    0446            mov         r4,param_1                              
                            LAB_000262f8:                 ;XREF[1,0]:   00026306
ram:000262f8    54e8000f        ldrex       param_1,r4,#0x0                         
ram:000262fc    40ea0105        orr.w       r5,param_1,param_2                      
ram:00026300    44e80053        strex       r3,r5,r4,#0x0                           
ram:00026304    002b            cmp         r3,#0x0                                 
ram:00026306    f7d1            bne         LAB_000262f8                            
ram:00026308    1560            str         r5,[param_3,#0x0]                       
ram:0002630a    30bc            pop         {r4,r5}                                 
ram:0002630c    7047            bx          lr                                      
                            ;************************************************************************************************
                            ;*                                           FUNCTION                                           *
                            ;************************************************************************************************
                            ;undefined FUN_0002630e(uint * param_1, uint param_2, uint * param_3)
          ;param_1       uint *              r0                      
          ;param_2       uint                r1                      
          ;param_3       uint *              r2                      
                                                          ;XREF[1,0]:   00028e8e
ram:0002630e    30b4            push        {r4,r5}                                 
ram:00026310    0446            mov         r4,param_1                              
                            LAB_00026312:                 ;XREF[1,0]:   00026320
ram:00026312    54e8000f        ldrex       param_1,r4,#0x0                         
ram:00026316    00ea0105        and.w       r5,param_1,param_2                      
ram:0002631a    44e80053        strex       r3,r5,r4,#0x0                           
ram:0002631e    002b            cmp         r3,#0x0                                 
ram:00026320    f7d1            bne         LAB_00026312                            
ram:00026322    1560            str         r5,[param_3,#0x0]                       
ram:00026324    30bc            pop         {r4,r5}                                 
ram:00026326    7047            bx          lr                                      
ram:00026328    30b4            push        {r4,r5}                                 
ram:0002632a    0446            mov         r4,r0                                   
                            ;************************************************************************************************
                            ;*                                           FUNCTION                                           *
                            ;************************************************************************************************
                            ;undefined FUN_0002632c(undefined4 param_1, uint param_2, uint * param_3)
          ;param_1       undefined4          r0                      
          ;param_2       uint                r1                      
          ;param_3       uint *              r2                      
                                                          ;XREF[1,0]:   0002633a
ram:0002632c    54e8000f        ldrex       param_1,r4,#0x0                         
ram:00026330    80ea0105        eor.w       r5,param_1,param_2                      
ram:00026334    44e80053        strex       r3,r5,r4,#0x0                           
ram:00026338    002b            cmp         r3,#0x0                                 
ram:0002633a    f7d1            bne         FUN_0002632c                            
ram:0002633c    1560            str         r5,[param_3,#0x0]                       
ram:0002633e    30bc            pop         {r4,r5}                                 
ram:00026340    7047            bx          lr                                      
ram:00026342    30b4            push        {r4,r5}                                 
ram:00026344    0446            mov         r4,r0                                   
                            ;************************************************************************************************
                            ;*                                           FUNCTION                                           *
                            ;************************************************************************************************
                            ;undefined FUN_00026346(undefined4 param_1, int param_2, int * param_3)
          ;param_1       undefined4          r0                      
          ;param_2       int                 r1                      
          ;param_3       int *               r2                      
                                                          ;XREF[1,0]:   00026354
ram:00026346    54e8000f        ldrex       param_1,r4,#0x0                         
ram:0002634a    00eb0105        add.w       r5,param_1,param_2                      
ram:0002634e    44e80053        strex       r3,r5,r4,#0x0                           
ram:00026352    002b            cmp         r3,#0x0                                 
ram:00026354    f7d1            bne         FUN_00026346                            
ram:00026356    1560            str         r5,[param_3,#0x0]                       
ram:00026358    30bc            pop         {r4,r5}                                 
ram:0002635a    7047            bx          lr                                      
ram:0002635c    30b4            push        {r4,r5}                                 
ram:0002635e    0446            mov         r4,r0                                   
                            ;************************************************************************************************
                            ;*                                           FUNCTION                                           *
                            ;************************************************************************************************
                            ;undefined FUN_00026360(undefined4 param_1, int param_2, int * param_3)
          ;param_1       undefined4          r0                      
          ;param_2       int                 r1                      
          ;param_3       int *               r2                      
                                                          ;XREF[1,0]:   0002636e
ram:00026360    54e8000f        ldrex       param_1,r4,#0x0                         
ram:00026364    a0eb0105        sub.w       r5,param_1,param_2                      
ram:00026368    44e80053        strex       r3,r5,r4,#0x0                           
ram:0002636c    002b            cmp         r3,#0x0                                 
ram:0002636e    f7d1            bne         FUN_00026360                            
ram:00026370    1560            str         r5,[param_3,#0x0]                       
ram:00026372    30bc            pop         {r4,r5}                                 
ram:00026374    7047            bx          lr                                      
ram:00026376    70b4            push        {r4,r5,r6}                              
ram:00026378    0446            mov         r4,r0                                   
ram:0002637a    4ff00000        mov.w       r0,#0x0                                 
                            ;************************************************************************************************
                            ;*                                           FUNCTION                                           *
                            ;************************************************************************************************
                            ;undefined4 FUN_0002637e(undefined4 param_1, int * param_2, int param_3, int param_4)
          ;param_1       undefined4          r0                      
          ;param_2       int *               r1                      
          ;param_3       int                 r2                      
          ;param_4       int                 r3                      
                                                          ;XREF[1,0]:   0002639a
ram:0002637e    54e8006f        ldrex       r6,r4,#0x0                              
ram:00026382    0d68            ldr         r5,[param_2,#0x0]                       
ram:00026384    ae42            cmp         r6,r5                                   
ram:00026386    07bf            ittee       eq                                      
ram:00026388    44e80023        strex.eq    param_4,param_3,r4,#0x0                 
ram:0002638c    0120            mov.eq      param_1,#0x1                            
ram:0002638e    44e80063        strex.ne    param_4,r6,r4,#0x0                      
ram:00026392    0e60            str.ne      r6,[param_2,#0x0]                       
ram:00026394    002b            cmp         param_4,#0x0                            
ram:00026396    1cbf            itt         ne                                      
ram:00026398    0020            mov.ne      param_1,#0x0                            
ram:0002639a    f0e7            b.ne        FUN_0002637e                            
ram:0002639c    70bc            pop         {r4,r5,r6}                              
ram:0002639e    7047            bx          lr                                      
ram:000263a0    30b4            push        {r4,r5}                                 
ram:000263a2    0446            mov         r4,r0                                   
                            ;************************************************************************************************
                            ;*                                           FUNCTION                                           *
                            ;************************************************************************************************
                            ;undefined FUN_000263a4(undefined4 param_1, uint param_2, uint * param_3)
          ;param_1       undefined4          r0                      
          ;param_2       uint                r1                      
          ;param_3       uint *              r2                      
                                                          ;XREF[1,0]:   000263b6
ram:000263a4    54e8000f        ldrex       param_1,r4,#0x0                         
ram:000263a8    8842            cmp         param_1,param_2                         
ram:000263aa    2cbf            ite         cs                                      
ram:000263ac    451a            sub.cs      r5,param_1,param_2                      
ram:000263ae    0546            mov.cc      r5,param_1                              
ram:000263b0    44e80053        strex       r3,r5,r4,#0x0                           
ram:000263b4    002b            cmp         r3,#0x0                                 
ram:000263b6    f5d1            bne         FUN_000263a4                            
ram:000263b8    1560            str         r5,[param_3,#0x0]                       
ram:000263ba    30bc            pop         {r4,r5}                                 
ram:000263bc    7047            bx          lr                                      
ram:000263be    0000            movs        r0,r0                                   
                            ;************************************************************************************************
                            ;*                                           FUNCTION                                           *
                            ;************************************************************************************************
                            ;undefined FUNC_Reset_000263c0(void)
                                                          ;XREF[0,1]:   00026004
ram:000263c0    0648            ldr         r0,[PTR_FUN_00026bc4+1_000263dc]        ;= 00026bc5
ram:000263c2    8047            blx         r0=>FUN_00026bc4                        ;undefined FUN_00026bc4(void)
ram:000263c4    0648            ldr         r0,[PTR_LAB_00026200+1+1_000263e0]      ;= 00026201
ram:000263c6    0047            bx          r0=>LAB_00026200+1                      ;undefined LAB_00026200+1(undefined4 ...
                            ;************************************************************************************************
                            ;*                                           FUNCTION                                           *
                            ;************************************************************************************************
                            ;undefined FUNC_NMI_000263c8(void)
                                                          ;XREF[1,1]:   000263c8,00026008
ram:000263c8    fee7            b           FUNC_NMI_000263c8                       
                            ;************************************************************************************************
                            ;*                                           FUNCTION                                           *
                            ;************************************************************************************************
                            ;undefined FUNC_HardFault_000263ca(void)
                                                          ;XREF[1,1]:   000263ca,0002600c
ram:000263ca    fee7            b           FUNC_HardFault_000263ca                 
                            ;************************************************************************************************
                            ;*                                           FUNCTION                                           *
                            ;************************************************************************************************
                            ;undefined FUNC_MemManage_000263cc(void)
                                                          ;XREF[1,1]:   000263cc,00026010
ram:000263cc    fee7            b           FUNC_MemManage_000263cc                 
                            ;************************************************************************************************
                            ;*                                           FUNCTION                                           *
                            ;************************************************************************************************
                            ;undefined FUNC_BusFault_000263ce(void)
                                                          ;XREF[1,1]:   000263ce,00026014
ram:000263ce    fee7            b           FUNC_BusFault_000263ce                  
                            ;************************************************************************************************
                            ;*                                           FUNCTION                                           *
                            ;************************************************************************************************
                            ;undefined FUNC_UsageFault_000263d0(void)
                                                          ;XREF[1,1]:   000263d0,00026018
ram:000263d0    fee7            b           FUNC_UsageFault_000263d0                
                            ;************************************************************************************************
                            ;*                                           FUNCTION                                           *
                            ;************************************************************************************************
                            ;undefined FUNC_SVCall_000263d2(void)
                                                          ;XREF[1,1]:   000263d2,0002602c
ram:000263d2    fee7            b           FUNC_SVCall_000263d2                    
                            ;************************************************************************************************
                            ;*                                           FUNCTION                                           *
                            ;************************************************************************************************
                            ;undefined FUNC_VT_000263d4(void)
                                                          ;XREF[1,1]:   000263d4,00026030
ram:000263d4    fee7            b           FUNC_VT_000263d4                        
                            ;************************************************************************************************
                            ;*                                           FUNCTION                                           *
                            ;************************************************************************************************
                            ;undefined FUNC_PendSV_000263d6(void)
                                                          ;XREF[1,1]:   000263d6,00026038
ram:000263d6    fee7            b           FUNC_PendSV_000263d6                    
                            ;************************************************************************************************
                            ;*                                           FUNCTION                                           *
                            ;************************************************************************************************
                            ;undefined FUNC_SysTick_000263d8(void)
                                                          ;XREF[1,1]:   000263d8,0002603c
ram:000263d8    fee7            b           FUNC_SysTick_000263d8                   
                            ;************************************************************************************************
                            ;*                                           FUNCTION                                           *
                            ;************************************************************************************************
                            ;undefined FUNC_VT_000263da(void)
                                                          ;XREF[1,26]:  000263da,00026044,0002604c,00026050
                                                          ;             00026054,0002605c,0002606c,00026070
                                                          ;             00026074,00026078,0002607c,00026080
                                                          ;             00026088,0002608c,00026094,0002609c
                                                          ;             000260a0,000260a4,000260b0,000260b4
                                                          ;             000260c0,000260c4,000260c8,000260cc
                                                          ;             000260d0,000260d4,000260d8
ram:000263da    fee7            b           FUNC_VT_000263da                        
                            PTR_FUN_00026bc4+1_000263dc:  ;XREF[1,0]:   000263c0
ram:000263dc    c56b0200        addr        FUN_00026bc4+1                          
                            PTR_LAB_00026200+1+1_000263e0:;XREF[1,0]:   000263c4
ram:000263e0    01620200        addr        LAB_00026200+1+1                        
                            ;************************************************************************************************
                            ;*                                           FUNCTION                                           *
                            ;************************************************************************************************
                            ;longlong FUN_000263e4(uint param_1, uint param_2, uint param_3, uint param_4)
          ;param_1       uint                r0                      
          ;param_2       uint                r1                      
          ;param_3       uint                r2                      
          ;param_4       uint                r3                      
                                                          ;XREF[2,0]:   0002808e,0002816c
ram:000263e4    2de9f05f        push        {r4,r5,r6,r7,r8,r9,r10,r11,r12,lr}      
ram:000263e8    0546            mov         r5,param_1                              
ram:000263ea    0020            movs        param_1,#0x0                            
ram:000263ec    9246            mov         r10,param_3                             
ram:000263ee    9b46            mov         r11,param_4                             
ram:000263f0    8846            mov         r8,param_2                              
ram:000263f2    0646            mov         r6,param_1                              
ram:000263f4    8146            mov         r9,param_1                              
ram:000263f6    4024            movs        r4,#0x40                                
ram:000263f8    1be0            b           LAB_00026432                            
                            LAB_000263fa:                 ;XREF[1,0]:   00026438
ram:000263fa    2846            mov         param_1,r5                              
ram:000263fc    4146            mov         param_2,r8                              
ram:000263fe    4746            mov         r7,r8                                   
ram:00026400    2246            mov         param_3,r4                              
ram:00026402    00f02ff8        bl          FUN_00026464                            ;ulonglong FUN_00026464(uint param_1,...
ram:00026406    5346            mov         param_4,r10                             
ram:00026408    5a46            mov         param_3,r11                             
ram:0002640a    c01a            subs        param_1,param_1,param_4                 
ram:0002640c    9141            sbcs        param_2,param_3                         
ram:0002640e    10d3            bcc         LAB_00026432                            
ram:00026410    1146            mov         param_2,param_3                         
ram:00026412    1846            mov         param_1,param_4                         
ram:00026414    2246            mov         param_3,r4                              
ram:00026416    00f016f8        bl          FUN_00026446                            ;longlong FUN_00026446(uint param_1, ...
ram:0002641a    2d1a            subs        r5,r5,param_1                           
ram:0002641c    67eb0108        sbc.w       r8,r7,param_2                           
ram:00026420    4f46            mov         r7,r9                                   
ram:00026422    2246            mov         param_3,r4                              
ram:00026424    0120            movs        param_1,#0x1                            
ram:00026426    0021            movs        param_2,#0x0                            
ram:00026428    00f00df8        bl          FUN_00026446                            ;longlong FUN_00026446(uint param_1, ...
ram:0002642c    17eb0009        adds.w      r9,r7,param_1                           
ram:00026430    4e41            adcs        r6,param_2                              
                            LAB_00026432:                 ;XREF[2,0]:   000263f8,0002640e
ram:00026432    201e            subs        param_1,r4,#0x0                         
ram:00026434    a4f10104        sub.w       r4,r4,#0x1                              
ram:00026438    dfdc            bgt         LAB_000263fa                            
ram:0002643a    4846            mov         param_1,r9                              
ram:0002643c    3146            mov         param_2,r6                              
ram:0002643e    2a46            mov         param_3,r5                              
ram:00026440    4346            mov         param_4,r8                              
ram:00026442    bde8f09f        pop.w       {r4,r5,r6,r7,r8,r9,r10,r11,r12,pc}      
                            ;************************************************************************************************
                            ;*                                           FUNCTION                                           *
                            ;************************************************************************************************
                            ;longlong FUN_00026446(uint param_1, int param_2, uint param_3)
          ;param_1       uint                r0                      
          ;param_2       int                 r1                      
          ;param_3       uint                r2                      
                                                          ;XREF[2,0]:   00026416,00026428
ram:00026446    202a            cmp         param_3,#0x20                           
ram:00026448    04db            blt         LAB_00026454                            
ram:0002644a    203a            subs        param_3,#0x20                           
ram:0002644c    00fa02f1        lsl.w       param_2,param_1,param_3                 
ram:00026450    0020            movs        param_1,#0x0                            
ram:00026452    7047            bx          lr                                      
                            LAB_00026454:                 ;XREF[1,0]:   00026448
ram:00026454    9140            lsls        param_2,param_3                         
ram:00026456    c2f12003        rsb.w       r3,param_3,#0x20                        
ram:0002645a    20fa03f3        lsr.w       r3,param_1,r3                           
ram:0002645e    1943            orrs        param_2,r3                              
ram:00026460    9040            lsls        param_1,param_3                         
ram:00026462    7047            bx          lr                                      
                            ;************************************************************************************************
                            ;*                                           FUNCTION                                           *
                            ;************************************************************************************************
                            ;ulonglong FUN_00026464(uint param_1, uint param_2, uint param_3)
          ;param_1       uint                r0                      
          ;param_2       uint                r1                      
          ;param_3       uint                r2                      
                                                          ;XREF[3,0]:   00026402,00026f84,00026fd8
ram:00026464    202a            cmp         param_3,#0x20                           
ram:00026466    04db            blt         LAB_00026472                            
ram:00026468    203a            subs        param_3,#0x20                           
ram:0002646a    21fa02f0        lsr.w       param_1,param_2,param_3                 
ram:0002646e    0021            movs        param_2,#0x0                            
ram:00026470    7047            bx          lr                                      
                            LAB_00026472:                 ;XREF[1,0]:   00026466
ram:00026472    21fa02f3        lsr.w       r3,param_2,param_3                      
ram:00026476    d040            lsrs        param_1,param_3                         
ram:00026478    c2f12002        rsb.w       param_3,param_3,#0x20                   
ram:0002647c    9140            lsls        param_2,param_3                         
ram:0002647e    0843            orrs        param_1,param_2                         
ram:00026480    1946            mov         param_2,r3                              
ram:00026482    7047            bx          lr                                      
                            ;************************************************************************************************
                            ;*                                           FUNCTION                                           *
                            ;************************************************************************************************
                            ;undefined FUN_00026484(undefined4 * param_1, undefined4 * param_2, uint param_3)
          ;param_1       undefined4 *        r0                      
          ;param_2       undefined4 *        r1                      
          ;param_3       uint                r2                      
                                                          ;XREF[8,0]:   000274fc,0002786c,00027bbe,0002848e
                                                          ;             00028cfc,00029028,00029cd2,00029ed6
ram:00026484    40ea0103        orr.w       r3,param_1,param_2                      
ram:00026488    9b07            lsls        r3,r3,#0x1e                             
ram:0002648a    03d0            beq         LAB_00026494                            
ram:0002648c    09e0            b           LAB_000264a2                            
                            LAB_0002648e:                 ;XREF[1,0]:   00026496
ram:0002648e    08c9            ldmia       param_2!,{r3}                           
ram:00026490    121f            subs        param_3,param_3,#0x4                    
ram:00026492    08c0            stmia       param_1!,{r3}                           
                            LAB_00026494:                 ;XREF[1,0]:   0002648a
ram:00026494    042a            cmp         param_3,#0x4                            
ram:00026496    fad2            bcs         LAB_0002648e                            
ram:00026498    03e0            b           LAB_000264a2                            
                            LAB_0002649a:                 ;XREF[1,0]:   000264a4
ram:0002649a    11f8013b        ldrb.w      r3,[param_2],#0x1                       
ram:0002649e    00f8013b        strb.w      r3,[param_1],#0x1                       
                            LAB_000264a2:                 ;XREF[2,0]:   0002648c,00026498
ram:000264a2    521e            subs        param_3,param_3,#0x1                    
ram:000264a4    f9d2            bcs         LAB_0002649a                            
ram:000264a6    7047            bx          lr                                      
                            ;************************************************************************************************
                            ;*                                           FUNCTION                                           *
                            ;************************************************************************************************
                            ;undefined FUN_000264a8(undefined * param_1, int param_2, undefined param_3)
          ;param_1       undefined *         r0                      
          ;param_2       int                 r1                      
          ;param_3       undefined           r2                      
                                                          ;XREF[2,0]:   000264b8,000264c4
ram:000264a8    d2b2            uxtb        param_3,param_3                         
ram:000264aa    01e0            b           LAB_000264b0                            
                            LAB_000264ac:                 ;XREF[1,0]:   000264b2
ram:000264ac    00f8012b        strb.w      param_3,[param_1],#0x1                  
                            LAB_000264b0:                 ;XREF[1,0]:   000264aa
ram:000264b0    491e            subs        param_2,param_2,#0x1                    
ram:000264b2    fbd2            bcs         LAB_000264ac                            
ram:000264b4    7047            bx          lr                                      
                            ;************************************************************************************************
                            ;*                                           FUNCTION                                           *
                            ;************************************************************************************************
                            ;undefined FUN_000264b6(undefined * param_1, int param_2)
          ;param_1       undefined *         r0                      
          ;param_2       int                 r1                      
                                                          ;XREF[14,0]:  000276fe,00027d20,00027d6a,00027df6
                                                          ;             0002825c,000282aa,000285e8,0002862c
                                                          ;             000289c6,00028a12,00029b42,00029b76
                                                          ;             0002a2d2,0002a4ec
ram:000264b6    0022            movs        r2,#0x0                                 
ram:000264b8    f6e7            b           FUN_000264a8                            ;undefined FUN_000264a8(undefined * p...
                            ;************************************************************************************************
                            ;*                                           FUNCTION                                           *
                            ;************************************************************************************************
                            ;undefined * FUN_000264ba(undefined * param_1, undefined param_2, int param_3)
          ;param_1       undefined *         r0                      
          ;param_2       undefined           r1                      
          ;param_3       int                 r2                      
ram:000264ba    10b5            push        {r4,lr}                                 
ram:000264bc    1346            mov         r3,param_3                              
ram:000264be    0a46            mov         param_3,param_2                         
ram:000264c0    0446            mov         r4,param_1                              
ram:000264c2    1946            mov         param_2,r3                              
ram:000264c4    fff7f0ff        bl          FUN_000264a8                            ;undefined FUN_000264a8(undefined * p...
ram:000264c8    2046            mov         param_1,r4                              
ram:000264ca    10bd            pop         {r4,pc}                                 
                            ;************************************************************************************************
                            ;*                                           FUNCTION                                           *
                            ;************************************************************************************************
                            ;undefined FUN_000264cc(undefined4 param_1, undefined4 param_2, undefined * param_3, undefined * * param_4)
          ;param_1       undefined4          r0                      
          ;param_2       undefined4          r1                      
          ;param_3       undefined *         r2                      
          ;param_4       undefined * *       r3                      
                                                          ;XREF[1,0]:   00026204
ram:000264cc    064c            ldr         r4,[LAB_000264e8]                       
ram:000264ce    074d            ldr         r5,[LAB_000264ec]                       
ram:000264d0    06e0            b           LAB_000264e0                            
                            LAB_000264d2:                 ;XREF[1,0]:   000264e2
ram:000264d2    e068            ldr         param_1,[r4,#0xc]=>->thunk_FUN_00027014 ;= 0002700c
ram:000264d4    40f00103        orr         param_4,param_1,#0x1                    
                                                          ; FWD[4,0]:   0002a6c0,0002a6c4,0002a6c8,0002a760
ram:000264d8    94e80700        ldm.w       r4,{param_1,param_2,param_3}=>PTR_DAT...;= 0002a760
                                                                                    ;= 20002A98h
                                                                                    ;= 000000D8h
                                                                                    ;= D0h
ram:000264dc    9847            blx         param_4=>thunk_FUN_00027014             ;undefined thunk_FUN_00027014(undefin...
ram:000264de    1034            adds        r4,#0x10                                
                            LAB_000264e0:                 ;XREF[1,0]:   000264d0
ram:000264e0    ac42            cmp         r4,r5                                   
ram:000264e2    f6d3            bcc         LAB_000264d2                            
ram:000264e4    fff790fe        bl          thunk_FUN_00028908                      ;undefined thunk_FUN_00028908(undefin...
                            LAB_000264e8:                 ;XREF[1,0]:   000264cc
ram:000264e8    c0a6            adr         r6,[LAB_000267ec]                       
ram:000264ea    0200            movs        param_3,param_1                         
                            LAB_000264ec:                 ;XREF[1,0]:   000264ce
ram:000264ec    e0a6            adr         r6,[LAB_00026870]                       
ram:000264ee    0200            movs        param_3,param_1                         
                            ;************************************************************************************************
                            ;*                                           FUNCTION                                           *
                            ;************************************************************************************************
                            ;undefined FUN_000264f0(void)
                                                          ;XREF[1,0]:   0002890a
ram:000264f0    0648            ldr         r0,[DAT_0002650c]                       ;= 40000518h
ram:000264f2    0121            movs        r1,#0x1                                 
ram:000264f4    0160            str         r1,[r0,#0x0]=>DAT_40000518              
ram:000264f6    0022            movs        r2,#0x0                                 
ram:000264f8    8807            lsls        r0,r1,#0x1e                             
ram:000264fa    c0f80421        str.w       r2,[r0,#offset DAT_40000104 &0xffff]    
ram:000264fe    8160            str         r1,[r0,#offset DAT_40000008 &0xff]      
                            LAB_00026500:                 ;XREF[1,0]:   00026506
ram:00026500    d0f80411        ldr.w       r1,[r0,#offset DAT_40000104 &0xffff]    
ram:00026504    0029            cmp         r1,#0x0                                 
ram:00026506    fbd0            beq         LAB_00026500                            
ram:00026508    7047            bx          lr                                      
ram:0002650a    0000            movs        r0,r0                                   
                            DAT_0002650c:                 ;XREF[1,0]:   000264f0
ram:0002650c    18050040        undefined4  40000518h                               
                            ;************************************************************************************************
                            ;*                                           FUNCTION                                           *
                            ;************************************************************************************************
                            ;undefined FUNC_VT_00026510(void)
          ;local_2c      undefined4         -2c                      ;XREF[1,0]:   0002665c
          ;local_30      undefined4         -30                      ;XREF[3,0]:   00026526,0002664c,00026654
          ;local_38      undefined4         -38                      ;XREF[2,0]:   000265a8,00026656
          ;local_48      undefined4         -48                      ;XREF[1,0]:   0002664e
                                                          ;XREF[0,1]:   00026058
ram:00026510    2de9f047        push        {r4,r5,r6,r7,r8,r9,r10,lr}              
ram:00026514    0026            movs        r6,#0x0                                 
ram:00026516    8ab0            sub         sp,#0x28                                
ram:00026518    dff85091        ldr.w       r9,[DAT_0002666c]                       ;= 40006000h
ram:0002651c    b046            mov         r8,r6                                   
ram:0002651e    4ff48075        mov.w       r5,#0x100                               
ram:00026522    0124            movs        r4,#0x1                                 
ram:00026524    3746            mov         r7,r6                                   
ram:00026526    0696            str         r6,[sp,#local_30+0x48]                  
                            LAB_00026528:                 ;XREF[1,0]:   0002654a
ram:00026528    2846            mov         r0,r5                                   
ram:0002652a    02f0dbff        bl          FUN_000294e4                            ;int FUN_000294e4(int param_1)
ram:0002652e    38b1            cbz         r0,LAB_00026540                         
ram:00026530    d9f80403        ldr.w       r0,[r9,#0x304]=>DAT_40006304            
ram:00026534    2042            tst         r0,r4                                   
ram:00026536    03d0            beq         LAB_00026540                            
ram:00026538    2846            mov         r0,r5                                   
ram:0002653a    02f0c9ff        bl          FUN_000294d0                            ;undefined FUN_000294d0(int param_1)
ram:0002653e    2643            orrs        r6,r4                                   
                            LAB_00026540:                 ;XREF[2,0]:   0002652e,00026536
ram:00026540    2d1d            adds        r5,r5,#0x4                              
ram:00026542    6400            lsls        r4,r4,#0x1                              
ram:00026544    7f1c            adds        r7,r7,#0x1                              
ram:00026546    adb2            uxth        r5,r5                                   
ram:00026548    082f            cmp         r7,#0x8                                 
ram:0002654a    edd3            bcc         LAB_00026528                            
ram:0002654c    4ff4be74        mov.w       r4,#0x17c                               
ram:00026550    2046            mov         r0,r4                                   
ram:00026552    02f0c7ff        bl          FUN_000294e4                            ;int FUN_000294e4(int param_1)
ram:00026556    48b1            cbz         r0,LAB_0002656c                         
ram:00026558    2046            mov         r0,r4                                   
ram:0002655a    02f0b9ff        bl          FUN_000294d0                            ;undefined FUN_000294d0(int param_1)
ram:0002655e    46f00046        orr         r6,r6,#0x80000000                       
ram:00026562    06aa            add         r2,sp,#0x18                             
ram:00026564    0121            movs        r1,#0x1                                 
ram:00026566    0020            movs        r0,#0x0                                 
ram:00026568    02f09eff        bl          FUN_000294a8                            ;undefined FUN_000294a8(uint param_1,...
                            LAB_0002656c:                 ;XREF[1,0]:   00026556
ram:0002656c    404d            ldr         r5,[DAT_00026670]                       ;= 200030C8h
ram:0002656e    16f0ff0f        tst         r6,#0xff                                
ram:00026572    15d0            beq         LAB_000265a0                            
ram:00026574    0127            movs        r7,#0x1                                 
ram:00026576    0024            movs        r4,#0x0                                 
                            LAB_00026578:                 ;XREF[1,0]:   0002659e
ram:00026578    3742            tst         r7,r6                                   
ram:0002657a    0dd0            beq         LAB_00026598                            
ram:0002657c    09eb8401        add.w       r1,r9,r4, lsl #0x2                      
ram:00026580    d1f81005        ldr.w       r0,[r1,#0x510]=>DAT_40006510            
ram:00026584    d1f81015        ldr.w       r1,[r1,#0x510]=>DAT_40006510            
ram:00026588    c0f30420        ubfx        r0,r0,#0x8,#0x5                         
ram:0002658c    55f82420        ldr.w       r2,r5=>DAT_200030c8,r4,0x2              
ram:00026590    c1f30141        ubfx        r1,r1,#0x10,#0x2                        
ram:00026594    02b1            cbz         r2,LAB_00026598                         
ram:00026596    9047            blx         r2                                      
                            LAB_00026598:                 ;XREF[2,0]:   0002657a,00026594
ram:00026598    7f00            lsls        r7,r7,#0x1                              
ram:0002659a    641c            adds        r4,r4,#0x1                              
ram:0002659c    082c            cmp         r4,#0x8                                 
ram:0002659e    ebd3            bcc         LAB_00026578                            
                            LAB_000265a0:                 ;XREF[1,0]:   00026572
ram:000265a0    002e            cmp         r6,#0x0                                 
ram:000265a2    5fda            bge         LAB_00026664                            
ram:000265a4    4ff0ff30        mov.w       r0,#0xffffffff                          
ram:000265a8    cdf81080        str.w       r8,[sp,#local_38+0x48]                  
ram:000265ac    54e0            b           LAB_00026658                            
                            LAB_000265ae:                 ;XREF[2,0]:   0002663c,0002665e
ram:000265ae    2819            adds        r0,r5,r4                                
                                                          ; FWD[2,0]:   20003118,20003119
ram:000265b0    10f8507f        ldrb.w      r7,[r0,#0x50]!=>DAT_20003118            
                                                          ; FWD[2,0]:   20003118,20003119
ram:000265b4    90f90000        ldrsb.w     r0,[r0,#0x0]=>DAT_20003118              
ram:000265b8    27f0c008        bic         r8,r7,#0xc0                             
ram:000265bc    401c            adds        r0,r0,#0x1                              
ram:000265be    3bd0            beq         LAB_00026638                            
ram:000265c0    07a9            add         r1,sp,#0x1c                             
ram:000265c2    4046            mov         r0,r8                                   
ram:000265c4    02f072fc        bl          FUN_00028eac                            ;uint FUN_00028eac(uint param_1, int ...
ram:000265c8    10b3            cbz         r0,LAB_00026610                         
ram:000265ca    4fea9719        lsr.w       r9,r7,#0x6                              
ram:000265ce    4046            mov         r0,r8                                   
ram:000265d0    01f0fafd        bl          FUN_000281c8                            ;int FUN_000281c8(int param_1)
ram:000265d4    55f82070        ldr.w       r7,r5=>DAT_200030c8,r0,0x2              
ram:000265d8    1fb1            cbz         r7,LAB_000265e2                         
ram:000265da    b9f1030f        cmp.w       r9,#0x3                                 
ram:000265de    03d0            beq         LAB_000265e8                            
ram:000265e0    06e0            b           LAB_000265f0                            
                            LAB_000265e2:                 ;XREF[1,0]:   000265d8
ram:000265e2    b9f1030f        cmp.w       r9,#0x3                                 
ram:000265e6    27d1            bne         LAB_00026638                            
                            LAB_000265e8:                 ;XREF[1,0]:   000265de
ram:000265e8    04a9            add         r1,sp,#0x10                             
ram:000265ea    4046            mov         r0,r8                                   
ram:000265ec    02f066fc        bl          FUN_00028ebc                            ;undefined FUN_00028ebc(uint param_1,...
                            LAB_000265f0:                 ;XREF[1,0]:   000265e0
ram:000265f0    4ff0a041        mov.w       r1,#0x50000000                          
ram:000265f4    01eb8800        add.w       r0,r1,r8, lsl #0x2                      
ram:000265f8    d0f80007        ldr.w       r0,[r0,#0x700]                          
ram:000265fc    06a9            add         r1,sp,#0x18                             
ram:000265fe    c0f3014a        ubfx        r10,r0,#0x10,#0x2                       
ram:00026602    4046            mov         r0,r8                                   
ram:00026604    02f052fc        bl          FUN_00028eac                            ;uint FUN_00028eac(uint param_1, int ...
ram:00026608    18b1            cbz         r0,LAB_00026612                         
ram:0002660a    baf1020f        cmp.w       r10,#0x2                                
ram:0002660e    03d0            beq         LAB_00026618                            
                            LAB_00026610:                 ;XREF[1,0]:   000265c8
ram:00026610    12e0            b           LAB_00026638                            
                            LAB_00026612:                 ;XREF[1,0]:   00026608
ram:00026612    baf1030f        cmp.w       r10,#0x3                                
ram:00026616    0fd1            bne         LAB_00026638                            
                            LAB_00026618:                 ;XREF[1,0]:   0002660e
ram:00026618    b9f1030f        cmp.w       r9,#0x3                                 
ram:0002661c    08d1            bne         LAB_00026630                            
ram:0002661e    baf1020f        cmp.w       r10,#0x2                                
ram:00026622    1dd0            beq         LAB_00026660                            
ram:00026624    0221            movs        r1,#0x2                                 
                            LAB_00026626:                 ;XREF[1,0]:   00026662
ram:00026626    4046            mov         r0,r8                                   
ram:00026628    02f004ff        bl          FUN_00029434                            ;undefined FUN_00029434(int param_1, ...
ram:0002662c    761c            adds        r6,r6,#0x1                              
ram:0002662e    f6b2            uxtb        r6,r6                                   
                            LAB_00026630:                 ;XREF[1,0]:   0002661c
ram:00026630    17b1            cbz         r7,LAB_00026638                         
ram:00026632    4946            mov         r1,r9                                   
ram:00026634    4046            mov         r0,r8                                   
ram:00026636    b847            blx         r7                                      
                            LAB_00026638:                 ;XREF[5,0]:   000265be,000265e6,00026610,00026616
                                                          ;             00026630
ram:00026638    641c            adds        r4,r4,#0x1                              
ram:0002663a    042c            cmp         r4,#0x4                                 
ram:0002663c    b7d3            bcc         LAB_000265ae                            
ram:0002663e    002e            cmp         r6,#0x0                                 
ram:00026640    10d0            beq         LAB_00026664                            
ram:00026642    6a46            mov         r2,sp                                   
ram:00026644    0121            movs        r1,#0x1                                 
ram:00026646    0020            movs        r0,#0x0                                 
ram:00026648    02f02eff        bl          FUN_000294a8                            ;undefined FUN_000294a8(uint param_1,...
ram:0002664c    0699            ldr         r1,[sp,#local_30+0x48]                  
ram:0002664e    0098            ldr         r0,[sp,#0x0]=>local_48                  
ram:00026650    8842            cmp         r0,r1                                   
ram:00026652    07d0            beq         LAB_00026664                            
ram:00026654    0690            str         r0,[sp,#local_30+0x48]                  
ram:00026656    0498            ldr         r0,[sp,#local_38+0x48]                  
                            LAB_00026658:                 ;XREF[1,0]:   000265ac
ram:00026658    0026            movs        r6,#0x0                                 
ram:0002665a    3446            mov         r4,r6                                   
ram:0002665c    0790            str         r0,[sp,#local_2c+0x48]                  
ram:0002665e    a6e7            b           LAB_000265ae                            
                            LAB_00026660:                 ;XREF[1,0]:   00026622
ram:00026660    0321            movs        r1,#0x3                                 
ram:00026662    e0e7            b           LAB_00026626                            
                            LAB_00026664:                 ;XREF[3,0]:   000265a2,00026640,00026652
ram:00026664    0ab0            add         sp,#0x28                                
ram:00026666    bde8f087        pop.w       {r4,r5,r6,r7,r8,r9,r10,pc}              
                            DAT_0002666c:                 ;XREF[1,0]:   00026518
ram:0002666c    00600040        undefined4  40006000h                               
                            DAT_00026670:                 ;XREF[1,0]:   0002656c
ram:00026670    c8300020        undefined4  200030C8h                               
                            ;************************************************************************************************
                            ;*                                           FUNCTION                                           *
                            ;************************************************************************************************
                            ;undefined FUN_00026674(void)
                                                          ;XREF[1,0]:   00028912
ram:00026674    10b5            push        {r4,lr}                                 
ram:00026676    0321            movs        r1,#0x3                                 
ram:00026678    1020            movs        r0,#0x10                                
ram:0002667a    02f0c8fe        bl          FUN_0002940e                            ;undefined FUN_0002940e(int param_1, ...
ram:0002667e    0321            movs        r1,#0x3                                 
ram:00026680    1120            movs        r0,#0x11                                
ram:00026682    02f0c4fe        bl          FUN_0002940e                            ;undefined FUN_0002940e(int param_1, ...
ram:00026686    0321            movs        r1,#0x3                                 
ram:00026688    1220            movs        r0,#0x12                                
ram:0002668a    02f0c0fe        bl          FUN_0002940e                            ;undefined FUN_0002940e(int param_1, ...
ram:0002668e    0321            movs        r1,#0x3                                 
ram:00026690    1320            movs        r0,#0x13                                
ram:00026692    02f0bcfe        bl          FUN_0002940e                            ;undefined FUN_0002940e(int param_1, ...
ram:00026696    0321            movs        r1,#0x3                                 
ram:00026698    1420            movs        r0,#0x14                                
ram:0002669a    02f0b8fe        bl          FUN_0002940e                            ;undefined FUN_0002940e(int param_1, ...
ram:0002669e    0321            movs        r1,#0x3                                 
ram:000266a0    1620            movs        r0,#0x16                                
ram:000266a2    02f0b4fe        bl          FUN_0002940e                            ;undefined FUN_0002940e(int param_1, ...
ram:000266a6    0321            movs        r1,#0x3                                 
ram:000266a8    1720            movs        r0,#0x17                                
ram:000266aa    02f0b0fe        bl          FUN_0002940e                            ;undefined FUN_0002940e(int param_1, ...
ram:000266ae    0420            movs        r0,#0x4                                 
ram:000266b0    02f0b6fe        bl          FUN_00029420                            ;undefined FUN_00029420(int param_1)
ram:000266b4    0520            movs        r0,#0x5                                 
ram:000266b6    02f0b3fe        bl          FUN_00029420                            ;undefined FUN_00029420(int param_1)
ram:000266ba    0620            movs        r0,#0x6                                 
ram:000266bc    02f0b0fe        bl          FUN_00029420                            ;undefined FUN_00029420(int param_1)
ram:000266c0    0720            movs        r0,#0x7                                 
ram:000266c2    02f0adfe        bl          FUN_00029420                            ;undefined FUN_00029420(int param_1)
ram:000266c6    0820            movs        r0,#0x8                                 
ram:000266c8    02f0aafe        bl          FUN_00029420                            ;undefined FUN_00029420(int param_1)
ram:000266cc    0920            movs        r0,#0x9                                 
ram:000266ce    02f0a7fe        bl          FUN_00029420                            ;undefined FUN_00029420(int param_1)
ram:000266d2    0a20            movs        r0,#0xa                                 
ram:000266d4    02f0a4fe        bl          FUN_00029420                            ;undefined FUN_00029420(int param_1)
ram:000266d8    0b20            movs        r0,#0xb                                 
ram:000266da    02f0a1fe        bl          FUN_00029420                            ;undefined FUN_00029420(int param_1)
ram:000266de    0c20            movs        r0,#0xc                                 
ram:000266e0    02f09efe        bl          FUN_00029420                            ;undefined FUN_00029420(int param_1)
ram:000266e4    0d20            movs        r0,#0xd                                 
ram:000266e6    02f09bfe        bl          FUN_00029420                            ;undefined FUN_00029420(int param_1)
ram:000266ea    0e20            movs        r0,#0xe                                 
ram:000266ec    02f098fe        bl          FUN_00029420                            ;undefined FUN_00029420(int param_1)
ram:000266f0    0f20            movs        r0,#0xf                                 
ram:000266f2    02f095fe        bl          FUN_00029420                            ;undefined FUN_00029420(int param_1)
ram:000266f6    0420            movs        r0,#0x4                                 
ram:000266f8    02f0c3fe        bl          FUN_00029482                            ;undefined FUN_00029482(uint param_1)
ram:000266fc    0520            movs        r0,#0x5                                 
ram:000266fe    02f0c0fe        bl          FUN_00029482                            ;undefined FUN_00029482(uint param_1)
ram:00026702    0620            movs        r0,#0x6                                 
ram:00026704    02f0bdfe        bl          FUN_00029482                            ;undefined FUN_00029482(uint param_1)
ram:00026708    0720            movs        r0,#0x7                                 
ram:0002670a    02f0bafe        bl          FUN_00029482                            ;undefined FUN_00029482(uint param_1)
ram:0002670e    0820            movs        r0,#0x8                                 
ram:00026710    02f0b7fe        bl          FUN_00029482                            ;undefined FUN_00029482(uint param_1)
ram:00026714    0920            movs        r0,#0x9                                 
ram:00026716    02f0b4fe        bl          FUN_00029482                            ;undefined FUN_00029482(uint param_1)
ram:0002671a    0a20            movs        r0,#0xa                                 
ram:0002671c    02f0b1fe        bl          FUN_00029482                            ;undefined FUN_00029482(uint param_1)
ram:00026720    0b20            movs        r0,#0xb                                 
ram:00026722    02f0aefe        bl          FUN_00029482                            ;undefined FUN_00029482(uint param_1)
ram:00026726    0c20            movs        r0,#0xc                                 
ram:00026728    02f0abfe        bl          FUN_00029482                            ;undefined FUN_00029482(uint param_1)
ram:0002672c    0d20            movs        r0,#0xd                                 
ram:0002672e    02f0a8fe        bl          FUN_00029482                            ;undefined FUN_00029482(uint param_1)
ram:00026732    0e20            movs        r0,#0xe                                 
ram:00026734    02f0a5fe        bl          FUN_00029482                            ;undefined FUN_00029482(uint param_1)
ram:00026738    0f20            movs        r0,#0xf                                 
ram:0002673a    02f0a2fe        bl          FUN_00029482                            ;undefined FUN_00029482(uint param_1)
ram:0002673e    1920            movs        r0,#0x19                                
ram:00026740    02f06efe        bl          FUN_00029420                            ;undefined FUN_00029420(int param_1)
ram:00026744    1a20            movs        r0,#0x1a                                
ram:00026746    02f06bfe        bl          FUN_00029420                            ;undefined FUN_00029420(int param_1)
ram:0002674a    0321            movs        r1,#0x3                                 
ram:0002674c    1b20            movs        r0,#0x1b                                
ram:0002674e    02f05efe        bl          FUN_0002940e                            ;undefined FUN_0002940e(int param_1, ...
ram:00026752    4ff01021        mov.w       r1,#0x10001000                          
ram:00026756    0020            movs        r0,#0x0                                 
ram:00026758    c1f80802        str.w       r0,[r1,#0x208]=>DAT_10001208            
ram:0002675c    1920            movs        r0,#0x19                                
ram:0002675e    02f090fe        bl          FUN_00029482                            ;undefined FUN_00029482(uint param_1)
ram:00026762    bde81040        pop.w       {r4,lr}                                 
ram:00026766    1a20            movs        r0,#0x1a                                
ram:00026768    02f08bbe        b.w         FUN_00029482                            ;undefined FUN_00029482(uint param_1)
                            ;************************************************************************************************
                            ;*                                           FUNCTION                                           *
                            ;************************************************************************************************
                            ;undefined FUN_0002676c(void)
                                                          ;XREF[1,0]:   00028b46
ram:0002676c    0548            ldr         r0=>DAT_20002afc,[DAT_00026784]         ;= 20002AFCh
ram:0002676e    0178            ldrb        r1,[r0,#0x0]=>DAT_20002afc              
ram:00026770    0129            cmp         r1,#0x1                                 
ram:00026772    05d1            bne         LAB_00026780                            
ram:00026774    0021            movs        r1,#0x0                                 
ram:00026776    0170            strb        r1,[r0,#0x0]=>DAT_20002afc              
ram:00026778    0349            ldr         r1,[DAT_00026788]                       ;= 20002AECh
ram:0002677a    48f6b800        movw        r0,#0x88b8                              
ram:0002677e    0860            str         r0,[r1,#0x0]=>DAT_20002aec              
                            LAB_00026780:                 ;XREF[1,0]:   00026772
ram:00026780    7047            bx          lr                                      
ram:00026782    0000            movs        r0,r0                                   
                            DAT_00026784:                 ;XREF[1,0]:   0002676c
ram:00026784    fc2a0020        undefined4  20002AFCh                               
                            DAT_00026788:                 ;XREF[1,0]:   00026778
ram:00026788    ec2a0020        undefined4  20002AECh                               
                            ;************************************************************************************************
                            ;*                                           FUNCTION                                           *
                            ;************************************************************************************************
                            ;undefined FUN_0002678c(void)
                                                          ;XREF[1,0]:   0002a29e
ram:0002678c    2de9f047        push        {r4,r5,r6,r7,r8,r9,r10,lr}              
ram:00026790    0620            movs        r0,#0x6                                 
ram:00026792    02f067fe        bl          FUN_00029464                            ;undefined FUN_00029464(uint param_1)
ram:00026796    0a20            movs        r0,#0xa                                 
ram:00026798    03f090f8        bl          FUN_000298bc                            ;undefined FUN_000298bc(int param_1)
ram:0002679c    834d            ldr         r5,[DAT_000269ac]                       ;= 20002ADCh
ram:0002679e    0027            movs        r7,#0x0                                 
ram:000267a0    05f11404        add.w       r4,r5,#0x14                             
ram:000267a4    6f61            str         r7,[r5,#0x14]=>DAT_20002af0             
ram:000267a6    2f83            strh        r7,[r5,#0x18]=>DAT_20002af4             
ram:000267a8    af76            strb        r7,[r5,#0x1a]=>DAT_20002af6             
ram:000267aa    3220            movs        r0,#0x32                                
ram:000267ac    2070            strb        r0,[r4,#0x0]=>DAT_20002af0              
ram:000267ae    2e26            movs        r6,#0x2e                                
ram:000267b0    6670            strb        r6,[r4,#0x1]=>DAT_20002af1              
ram:000267b2    7fa0            adr         r0=>DAT_000269b0,[DAT_000269b0]         ;= 31h    1
ram:000267b4    03f010fb        bl          FUN_00029dd8                            ;undefined FUN_00029dd8(void)
ram:000267b8    0620            movs        r0,#0x6                                 
ram:000267ba    02f062fe        bl          FUN_00029482                            ;undefined FUN_00029482(uint param_1)
ram:000267be    6868            ldr         r0,[r5,#0x4]=>DAT_20002ae0              
ram:000267c0    0028            cmp         r0,#0x0                                 
ram:000267c2    7dd1            bne         LAB_000268c0                            
ram:000267c4    0820            movs        r0,#0x8                                 
ram:000267c6    02f04dfe        bl          FUN_00029464                            ;undefined FUN_00029464(uint param_1)
ram:000267ca    6f61            str         r7,[r5,#0x14]=>DAT_20002af0             
ram:000267cc    2f83            strh        r7,[r5,#0x18]=>DAT_20002af4             
ram:000267ce    af76            strb        r7,[r5,#0x1a]=>DAT_20002af6             
ram:000267d0    0a20            movs        r0,#0xa                                 
ram:000267d2    03f073f8        bl          FUN_000298bc                            ;undefined FUN_000298bc(int param_1)
ram:000267d6    3420            movs        r0,#0x34                                
ram:000267d8    2070            strb        r0,[r4,#0x0]=>DAT_20002af0              
ram:000267da    6670            strb        r6,[r4,#0x1]=>DAT_20002af1              
ram:000267dc    75a0            adr         r0=>DAT_000269b4,[DAT_000269b4]         ;= 32h    2
ram:000267de    03f0fbfa        bl          FUN_00029dd8                            ;undefined FUN_00029dd8(void)
ram:000267e2    0820            movs        r0,#0x8                                 
ram:000267e4    02f04dfe        bl          FUN_00029482                            ;undefined FUN_00029482(uint param_1)
ram:000267e8    6868            ldr         r0,[r5,#0x4]=>DAT_20002ae0              
ram:000267ea    0028            cmp         r0,#0x0                                 
                            LAB_000267ec:                 ;XREF[1,0]:   000264e8
ram:000267ec    68d1            bne         LAB_000268c0                            
ram:000267ee    0a20            movs        r0,#0xa                                 
ram:000267f0    02f038fe        bl          FUN_00029464                            ;undefined FUN_00029464(uint param_1)
ram:000267f4    6f61            str         r7,[r5,#0x14]=>DAT_20002af0             
ram:000267f6    2f83            strh        r7,[r5,#0x18]=>DAT_20002af4             
ram:000267f8    af76            strb        r7,[r5,#0x1a]=>DAT_20002af6             
ram:000267fa    0a20            movs        r0,#0xa                                 
ram:000267fc    03f05ef8        bl          FUN_000298bc                            ;undefined FUN_000298bc(int param_1)
ram:00026800    3820            movs        r0,#0x38                                
ram:00026802    2070            strb        r0,[r4,#0x0]=>DAT_20002af0              
ram:00026804    6670            strb        r6,[r4,#0x1]=>DAT_20002af1              
ram:00026806    6ca0            adr         r0=>DAT_000269b8,[DAT_000269b8]         ;= 33h    3
ram:00026808    03f0e6fa        bl          FUN_00029dd8                            ;undefined FUN_00029dd8(void)
ram:0002680c    0a20            movs        r0,#0xa                                 
ram:0002680e    02f038fe        bl          FUN_00029482                            ;undefined FUN_00029482(uint param_1)
ram:00026812    6868            ldr         r0,[r5,#0x4]=>DAT_20002ae0              
ram:00026814    0028            cmp         r0,#0x0                                 
ram:00026816    53d1            bne         LAB_000268c0                            
ram:00026818    0f20            movs        r0,#0xf                                 
ram:0002681a    02f023fe        bl          FUN_00029464                            ;undefined FUN_00029464(uint param_1)
ram:0002681e    0a20            movs        r0,#0xa                                 
ram:00026820    03f04cf8        bl          FUN_000298bc                            ;undefined FUN_000298bc(int param_1)
ram:00026824    6f61            str         r7,[r5,#0x14]=>DAT_20002af0             
ram:00026826    2f83            strh        r7,[r5,#0x18]=>DAT_20002af4             
ram:00026828    af76            strb        r7,[r5,#0x1a]=>DAT_20002af6             
ram:0002682a    4ff03108        mov.w       r8,#0x31                                
ram:0002682e    84f80080        strb.w      r8,[r4,#0x0]=>DAT_20002af0              
ram:00026832    84f80180        strb.w      r8,[r4,#0x1]=>DAT_20002af1              
ram:00026836    a670            strb        r6,[r4,#0x2]=>DAT_20002af2              
ram:00026838    60a0            adr         r0=>DAT_000269bc,[DAT_000269bc]         ;= 34h    4
ram:0002683a    03f0cdfa        bl          FUN_00029dd8                            ;undefined FUN_00029dd8(void)
ram:0002683e    0f20            movs        r0,#0xf                                 
ram:00026840    02f01ffe        bl          FUN_00029482                            ;undefined FUN_00029482(uint param_1)
ram:00026844    6868            ldr         r0,[r5,#0x4]=>DAT_20002ae0              
ram:00026846    20b1            cbz         r0,LAB_00026852                         
ram:00026848    bde8f047        pop.w       {r4,r5,r6,r7,r8,r9,r10,lr}              
ram:0002684c    0f20            movs        r0,#0xf                                 
ram:0002684e    02f018be        b.w         FUN_00029482                            ;undefined FUN_00029482(uint param_1)
                            LAB_00026852:                 ;XREF[1,0]:   00026846
ram:00026852    0e20            movs        r0,#0xe                                 
ram:00026854    02f006fe        bl          FUN_00029464                            ;undefined FUN_00029464(uint param_1)
ram:00026858    0a20            movs        r0,#0xa                                 
ram:0002685a    03f02ff8        bl          FUN_000298bc                            ;undefined FUN_000298bc(int param_1)
ram:0002685e    6f61            str         r7,[r5,#0x14]=>DAT_20002af0             
ram:00026860    2f83            strh        r7,[r5,#0x18]=>DAT_20002af4             
ram:00026862    af76            strb        r7,[r5,#0x1a]=>DAT_20002af6             
ram:00026864    3620            movs        r0,#0x36                                
ram:00026866    2070            strb        r0,[r4,#0x0]=>DAT_20002af0              
ram:00026868    6670            strb        r6,[r4,#0x1]=>DAT_20002af1              
ram:0002686a    55a0            adr         r0=>DAT_000269c0,[DAT_000269c0]         ;= 35h    5
ram:0002686c    03f0b4fa        bl          FUN_00029dd8                            ;undefined FUN_00029dd8(void)
                            LAB_00026870:                 ;XREF[1,0]:   000264ec
ram:00026870    0e20            movs        r0,#0xe                                 
ram:00026872    02f006fe        bl          FUN_00029482                            ;undefined FUN_00029482(uint param_1)
ram:00026876    6868            ldr         r0,[r5,#0x4]=>DAT_20002ae0              
ram:00026878    0028            cmp         r0,#0x0                                 
ram:0002687a    21d1            bne         LAB_000268c0                            
ram:0002687c    0d20            movs        r0,#0xd                                 
ram:0002687e    02f0f1fd        bl          FUN_00029464                            ;undefined FUN_00029464(uint param_1)
ram:00026882    0a20            movs        r0,#0xa                                 
ram:00026884    03f01af8        bl          FUN_000298bc                            ;undefined FUN_000298bc(int param_1)
ram:00026888    6f61            str         r7,[r5,#0x14]=>DAT_20002af0             
ram:0002688a    2f83            strh        r7,[r5,#0x18]=>DAT_20002af4             
ram:0002688c    af76            strb        r7,[r5,#0x1a]=>DAT_20002af6             
ram:0002688e    3720            movs        r0,#0x37                                
ram:00026890    2070            strb        r0,[r4,#0x0]=>DAT_20002af0              
ram:00026892    6670            strb        r6,[r4,#0x1]=>DAT_20002af1              
ram:00026894    4ba0            adr         r0=>DAT_000269c4,[DAT_000269c4]         ;= 36h    6
ram:00026896    03f09ffa        bl          FUN_00029dd8                            ;undefined FUN_00029dd8(void)
ram:0002689a    0d20            movs        r0,#0xd                                 
ram:0002689c    02f0f1fd        bl          FUN_00029482                            ;undefined FUN_00029482(uint param_1)
ram:000268a0    6868            ldr         r0,[r5,#0x4]=>DAT_20002ae0              
ram:000268a2    0028            cmp         r0,#0x0                                 
ram:000268a4    0cd1            bne         LAB_000268c0                            
ram:000268a6    0b20            movs        r0,#0xb                                 
ram:000268a8    02f0dcfd        bl          FUN_00029464                            ;undefined FUN_00029464(uint param_1)
ram:000268ac    0a20            movs        r0,#0xa                                 
ram:000268ae    03f005f8        bl          FUN_000298bc                            ;undefined FUN_000298bc(int param_1)
ram:000268b2    6f61            str         r7,[r5,#0x14]=>DAT_20002af0             
ram:000268b4    2f83            strh        r7,[r5,#0x18]=>DAT_20002af4             
ram:000268b6    af76            strb        r7,[r5,#0x1a]=>DAT_20002af6             
ram:000268b8    3920            movs        r0,#0x39                                
ram:000268ba    2070            strb        r0,[r4,#0x0]=>DAT_20002af0              
ram:000268bc    6670            strb        r6,[r4,#0x1]=>DAT_20002af1              
ram:000268be    00e0            b           LAB_000268c2                            
                            LAB_000268c0:                 ;XREF[5,0]:   000267c2,000267ec,00026816,0002687a
                                                          ;             000268a4
ram:000268c0    72e0            b           LAB_000269a8                            
                            LAB_000268c2:                 ;XREF[1,0]:   000268be
ram:000268c2    41a0            adr         r0=>DAT_000269c8,[DAT_000269c8]         ;= 37h    7
ram:000268c4    03f088fa        bl          FUN_00029dd8                            ;undefined FUN_00029dd8(void)
ram:000268c8    0b20            movs        r0,#0xb                                 
ram:000268ca    02f0dafd        bl          FUN_00029482                            ;undefined FUN_00029482(uint param_1)
ram:000268ce    6868            ldr         r0,[r5,#0x4]=>DAT_20002ae0              
ram:000268d0    0028            cmp         r0,#0x0                                 
ram:000268d2    69d1            bne         LAB_000269a8                            
ram:000268d4    0420            movs        r0,#0x4                                 
ram:000268d6    02f0c5fd        bl          FUN_00029464                            ;undefined FUN_00029464(uint param_1)
ram:000268da    0a20            movs        r0,#0xa                                 
ram:000268dc    02f0eeff        bl          FUN_000298bc                            ;undefined FUN_000298bc(int param_1)
ram:000268e0    6f61            str         r7,[r5,#0x14]=>DAT_20002af0             
ram:000268e2    2f83            strh        r7,[r5,#0x18]=>DAT_20002af4             
ram:000268e4    af76            strb        r7,[r5,#0x1a]=>DAT_20002af6             
ram:000268e6    4ff03009        mov.w       r9,#0x30                                
ram:000268ea    84f80090        strb.w      r9,[r4,#0x0]=>DAT_20002af0              
ram:000268ee    6670            strb        r6,[r4,#0x1]=>DAT_20002af1              
ram:000268f0    36a0            adr         r0=>DAT_000269cc,[DAT_000269cc]         ;= 38h    8
ram:000268f2    03f071fa        bl          FUN_00029dd8                            ;undefined FUN_00029dd8(void)
ram:000268f6    0420            movs        r0,#0x4                                 
ram:000268f8    02f0c3fd        bl          FUN_00029482                            ;undefined FUN_00029482(uint param_1)
ram:000268fc    6868            ldr         r0,[r5,#0x4]=>DAT_20002ae0              
ram:000268fe    0028            cmp         r0,#0x0                                 
ram:00026900    52d1            bne         LAB_000269a8                            
ram:00026902    0c20            movs        r0,#0xc                                 
ram:00026904    02f0aefd        bl          FUN_00029464                            ;undefined FUN_00029464(uint param_1)
ram:00026908    0a20            movs        r0,#0xa                                 
ram:0002690a    02f0d7ff        bl          FUN_000298bc                            ;undefined FUN_000298bc(int param_1)
ram:0002690e    6f61            str         r7,[r5,#0x14]=>DAT_20002af0             
ram:00026910    2f83            strh        r7,[r5,#0x18]=>DAT_20002af4             
ram:00026912    af76            strb        r7,[r5,#0x1a]=>DAT_20002af6             
ram:00026914    84f80080        strb.w      r8,[r4,#0x0]=>DAT_20002af0              
ram:00026918    84f80190        strb.w      r9,[r4,#0x1]=>DAT_20002af1              
ram:0002691c    a670            strb        r6,[r4,#0x2]=>DAT_20002af2              
ram:0002691e    2ca0            adr         r0=>DAT_000269d0,[DAT_000269d0]         ;= 39h    9
ram:00026920    03f05afa        bl          FUN_00029dd8                            ;undefined FUN_00029dd8(void)
ram:00026924    0c20            movs        r0,#0xc                                 
ram:00026926    02f0acfd        bl          FUN_00029482                            ;undefined FUN_00029482(uint param_1)
ram:0002692a    6868            ldr         r0,[r5,#0x4]=>DAT_20002ae0              
ram:0002692c    0028            cmp         r0,#0x0                                 
ram:0002692e    3bd1            bne         LAB_000269a8                            
ram:00026930    0920            movs        r0,#0x9                                 
ram:00026932    02f097fd        bl          FUN_00029464                            ;undefined FUN_00029464(uint param_1)
ram:00026936    0a20            movs        r0,#0xa                                 
ram:00026938    02f0c0ff        bl          FUN_000298bc                            ;undefined FUN_000298bc(int param_1)
ram:0002693c    6f61            str         r7,[r5,#0x14]=>DAT_20002af0             
ram:0002693e    2f83            strh        r7,[r5,#0x18]=>DAT_20002af4             
ram:00026940    af76            strb        r7,[r5,#0x1a]=>DAT_20002af6             
ram:00026942    3520            movs        r0,#0x35                                
ram:00026944    2070            strb        r0,[r4,#0x0]=>DAT_20002af0              
ram:00026946    6670            strb        r6,[r4,#0x1]=>DAT_20002af1              
ram:00026948    22a0            adr         r0=>DAT_000269d4,[DAT_000269d4]         ;= 31h    1
ram:0002694a    03f045fa        bl          FUN_00029dd8                            ;undefined FUN_00029dd8(void)
ram:0002694e    0920            movs        r0,#0x9                                 
ram:00026950    02f097fd        bl          FUN_00029482                            ;undefined FUN_00029482(uint param_1)
ram:00026954    6868            ldr         r0,[r5,#0x4]=>DAT_20002ae0              
ram:00026956    0028            cmp         r0,#0x0                                 
ram:00026958    26d1            bne         LAB_000269a8                            
ram:0002695a    0720            movs        r0,#0x7                                 
ram:0002695c    02f082fd        bl          FUN_00029464                            ;undefined FUN_00029464(uint param_1)
ram:00026960    0a20            movs        r0,#0xa                                 
ram:00026962    02f0abff        bl          FUN_000298bc                            ;undefined FUN_000298bc(int param_1)
ram:00026966    6f61            str         r7,[r5,#0x14]=>DAT_20002af0             
ram:00026968    2f83            strh        r7,[r5,#0x18]=>DAT_20002af4             
ram:0002696a    af76            strb        r7,[r5,#0x1a]=>DAT_20002af6             
ram:0002696c    3320            movs        r0,#0x33                                
ram:0002696e    2070            strb        r0,[r4,#0x0]=>DAT_20002af0              
ram:00026970    6670            strb        r6,[r4,#0x1]=>DAT_20002af1              
ram:00026972    19a0            adr         r0=>DAT_000269d8,[DAT_000269d8]         ;= 31h    1
ram:00026974    03f030fa        bl          FUN_00029dd8                            ;undefined FUN_00029dd8(void)
ram:00026978    0720            movs        r0,#0x7                                 
ram:0002697a    02f082fd        bl          FUN_00029482                            ;undefined FUN_00029482(uint param_1)
ram:0002697e    6868            ldr         r0,[r5,#0x4]=>DAT_20002ae0              
ram:00026980    0028            cmp         r0,#0x0                                 
ram:00026982    11d1            bne         LAB_000269a8                            
ram:00026984    0520            movs        r0,#0x5                                 
ram:00026986    02f06dfd        bl          FUN_00029464                            ;undefined FUN_00029464(uint param_1)
ram:0002698a    0a20            movs        r0,#0xa                                 
ram:0002698c    02f096ff        bl          FUN_000298bc                            ;undefined FUN_000298bc(int param_1)
ram:00026990    6f61            str         r7,[r5,#0x14]=>DAT_20002af0             
ram:00026992    2f83            strh        r7,[r5,#0x18]=>DAT_20002af4             
ram:00026994    af76            strb        r7,[r5,#0x1a]=>DAT_20002af6             
ram:00026996    84f80080        strb.w      r8,[r4,#0x0]=>DAT_20002af0              
ram:0002699a    6670            strb        r6,[r4,#0x1]=>DAT_20002af1              
ram:0002699c    0fa0            adr         r0=>FUN_000269dc,[FUN_000269dc]         
ram:0002699e    03f01bfa        bl          FUN_00029dd8                            ;undefined FUN_00029dd8(void)
ram:000269a2    0520            movs        r0,#0x5                                 
ram:000269a4    02f06dfd        bl          FUN_00029482                            ;undefined FUN_00029482(uint param_1)
                            LAB_000269a8:                 ;XREF[6,0]:   000268c0,000268d2,00026900,0002692e
                                                          ;             00026958,00026982
ram:000269a8    bde8f087        pop.w       {r4,r5,r6,r7,r8,r9,r10,pc}              
                            DAT_000269ac:                 ;XREF[1,0]:   0002679c
ram:000269ac    dc2a0020        undefined4  20002ADCh                               
                            DAT_000269b0:                 ;XREF[2,0]:   000267b2,000267b2
                            DAT_000269b4:                 ;XREF[2,0]:   000267dc,000267dc
                            DAT_000269b8:                 ;XREF[2,0]:   00026806,00026806
                            DAT_000269bc:                 ;XREF[2,0]:   00026838,00026838
                            DAT_000269c0:                 ;XREF[2,0]:   0002686a,0002686a
                            DAT_000269c4:                 ;XREF[2,0]:   00026894,00026894
                            DAT_000269c8:                 ;XREF[2,0]:   000268c2,000268c2
                            DAT_000269cc:                 ;XREF[2,0]:   000268f0,000268f0
                            DAT_000269d0:                 ;XREF[2,0]:   0002691e,0002691e
                            DAT_000269d4:                 ;XREF[2,0]:   00026948,00026948
                            DAT_000269d8:                 ;XREF[2,0]:   00026972,00026972
                            ;************************************************************************************************
                            ;*                                           FUNCTION                                           *
                            ;************************************************************************************************
                            ;undefined FUN_000269dc(void)
                                                          ;XREF[2,0]:   0002699c,0002699c
ram:000269dc    3132            adds        r2,#0x31                                
ram:000269de    0000            movs        r0,r0                                   
                            LAB_000269e0:                 ;XREF[1,0]:   0002a2ac
ram:000269e0    10b5            push        {r4,lr}                                 
ram:000269e2    1b20            movs        r0,#0x1b                                
ram:000269e4    02f045fd        bl          FUN_00029472                            ;uint FUN_00029472(uint param_1)
ram:000269e8    0028            cmp         r0,#0x0                                 
ram:000269ea    0ed1            bne         LAB_00026a0a                            
ram:000269ec    0748            ldr         r0,[DAT_00026a0c]                       ;= 20002AF0h
ram:000269ee    4221            movs        r1,#0x42                                
ram:000269f0    0170            strb        r1,[r0,#0x0]=>DAT_20002af0              
ram:000269f2    5421            movs        r1,#0x54                                
ram:000269f4    4170            strb        r1,[r0,#0x1]=>DAT_20002af1              
ram:000269f6    4e21            movs        r1,#0x4e                                
ram:000269f8    8170            strb        r1,[r0,#0x2]=>DAT_20002af2              
ram:000269fa    4021            movs        r1,#0x40                                
ram:000269fc    c170            strb        r1,[r0,#0x3]=>DAT_20002af3              
ram:000269fe    1438            subs        r0=>DAT_20002adc,#0x14                  
ram:00026a00    0421            movs        r1,#0x4                                 
ram:00026a02    0170            strb        r1,[r0,#0x0]=>DAT_20002adc              
ram:00026a04    c168            ldr         r1,[r0,#0xc]=>DAT_20002ae8              
ram:00026a06    491d            adds        r1,r1,#0x5                              
ram:00026a08    8160            str         r1,[r0,#0x8]=>DAT_20002ae4              
                            LAB_00026a0a:                 ;XREF[1,0]:   000269ea
ram:00026a0a    10bd            pop         {r4,pc}                                 
                            DAT_00026a0c:                 ;XREF[1,0]:   000269ec
ram:00026a0c    f02a0020        undefined4  20002AF0h                               
                            ;************************************************************************************************
                            ;*                                           FUNCTION                                           *
                            ;************************************************************************************************
                            ;undefined FUN_00026a10(uint param_1)
          ;param_1       uint                r0                      
                                                          ;XREF[2,0]:   00027134,000283e2
ram:00026a10    00f01f02        and         r2,param_1,#0x1f                        
ram:00026a14    0121            movs        r1,#0x1                                 
ram:00026a16    9140            lsls        r1,r2                                   
ram:00026a18    4009            lsrs        param_1,param_1,#0x5                    
ram:00026a1a    8000            lsls        param_1,param_1,#0x2                    
ram:00026a1c    00f1e020        add.w       param_1,param_1,#0xe000e000             
ram:00026a20    c0f88012        str.w       r1,[param_1,#0x280]                     
ram:00026a24    7047            bx          lr                                      
                            ;************************************************************************************************
                            ;*                                           FUNCTION                                           *
                            ;************************************************************************************************
                            ;undefined FUN_00026a26(uint param_1)
          ;param_1       uint                r0                      
                                                          ;XREF[2,0]:   00027142,000283e8
ram:00026a26    00f01f02        and         r2,param_1,#0x1f                        
ram:00026a2a    0121            movs        r1,#0x1                                 
ram:00026a2c    9140            lsls        r1,r2                                   
ram:00026a2e    4009            lsrs        param_1,param_1,#0x5                    
ram:00026a30    8000            lsls        param_1,param_1,#0x2                    
ram:00026a32    00f1e020        add.w       param_1,param_1,#0xe000e000             
ram:00026a36    c0f80011        str.w       r1,[param_1,#0x100]=>DAT_e000e100       
ram:00026a3a    7047            bx          lr                                      
                            ;************************************************************************************************
                            ;*                                           FUNCTION                                           *
                            ;************************************************************************************************
                            ;undefined FUN_00026a3c(uint param_1)
          ;param_1       uint                r0                      
                                                          ;XREF[4,0]:   000271d0,0002843c,0002a1f8,0002a272
ram:00026a3c    00f01f02        and         r2,param_1,#0x1f                        
ram:00026a40    0121            movs        r1,#0x1                                 
ram:00026a42    9140            lsls        r1,r2                                   
ram:00026a44    4009            lsrs        param_1,param_1,#0x5                    
ram:00026a46    8000            lsls        param_1,param_1,#0x2                    
ram:00026a48    00f1e020        add.w       param_1,param_1,#0xe000e000             
ram:00026a4c    c0f80012        str.w       r1,[param_1,#0x200]                     
ram:00026a50    7047            bx          lr                                      
                            ;************************************************************************************************
                            ;*                                           FUNCTION                                           *
                            ;************************************************************************************************
                            ;undefined FUN_00026a52(uint param_1, int param_2)
          ;param_1       uint                r0                      
          ;param_2       int                 r1                      
                                                          ;XREF[2,0]:   0002713c,0002714e
ram:00026a52    4907            lsls        param_2,param_2,#0x1d                   
ram:00026a54    090e            lsrs        param_2,param_2,#0x18                   
ram:00026a56    0028            cmp         param_1,#0x0                            
ram:00026a58    06da            bge         LAB_00026a68                            
ram:00026a5a    00f00f00        and         param_1,param_1,#0xf                    
ram:00026a5e    00f1e020        add.w       param_1,param_1,#0xe000e000             
ram:00026a62    80f8141d        strb.w      param_2,[param_1,#0xd14]                
ram:00026a66    7047            bx          lr                                      
                            LAB_00026a68:                 ;XREF[1,0]:   00026a58
ram:00026a68    00f1e020        add.w       param_1,param_1,#0xe000e000             
ram:00026a6c    80f80014        strb.w      param_2,[param_1,#0x400]=>DAT_e000e400  
ram:00026a70    7047            bx          lr                                      
ram:00026a72    0000            movs        r0,r0                                   
                            ;************************************************************************************************
                            ;*                                           FUNCTION                                           *
                            ;************************************************************************************************
                            ;undefined FUN_00026a74(void)
                                                          ;XREF[1,0]:   00026ea4
ram:00026a74    bff34f8f        dsb         0xf                                     
ram:00026a78    0548            ldr         r0,[DAT_00026a90]                       ;= E000ED0Ch
ram:00026a7a    0168            ldr         r1,[r0,#0x0]=>DAT_e000ed0c              
ram:00026a7c    054a            ldr         r2,[DAT_00026a94]                       ;= 05FA0004h
ram:00026a7e    01f4e061        and         r1,r1,#0x700                            
ram:00026a82    1143            orrs        r1,r2                                   
ram:00026a84    0160            str         r1,[r0,#0x0]=>DAT_e000ed0c              
ram:00026a86    bff34f8f        dsb         0xf                                     
                            LAB_00026a8a:                 ;XREF[1,0]:   00026a8c
ram:00026a8a    00bf            nop                                                  
ram:00026a8c    fde7            b           LAB_00026a8a                            
ram:00026a8e    0000            movs        r0,r0                                   
                            DAT_00026a90:                 ;XREF[1,0]:   00026a78
ram:00026a90    0ced00e0        undefined4  E000ED0Ch                               
                            DAT_00026a94:                 ;XREF[1,0]:   00026a7c
ram:00026a94    0400fa05        undefined4  05FA0004h                               
                            ;************************************************************************************************
                            ;*                                           FUNCTION                                           *
                            ;************************************************************************************************
                            ;undefined FUNC_IRQ_00026a98(void)
                                                          ;XREF[0,1]:   00026040
ram:00026a98    2de9f041        push        {r4,r5,r6,r7,r8,lr}                     
ram:00026a9c    4ff48076        mov.w       r6,#0x100                               
ram:00026aa0    3046            mov         r0,r6                                   
ram:00026aa2    02f065fb        bl          FUN_00029170                            ;int FUN_00029170(int param_1)
ram:00026aa6    234c            ldr         r4,[DAT_00026b34]                       ;= 20002B20h
ram:00026aa8    b505            lsls        r5,r6,#0x16                             
ram:00026aaa    60b1            cbz         r0,LAB_00026ac6                         
ram:00026aac    3046            mov         r0,r6                                   
ram:00026aae    02f066fb        bl          FUN_0002917e                            ;undefined FUN_0002917e(int param_1)
ram:00026ab2    0120            movs        r0,#0x1                                 
ram:00026ab4    c5f80803        str.w       r0,[r5,#offset DAT_40000308 &0xffff]    
ram:00026ab8    6079            ldrb        r0,[r4,#0x5]=>DAT_20002b25              
ram:00026aba    20b9            cbnz        r0,LAB_00026ac6                         
ram:00026abc    0120            movs        r0,#0x1                                 
ram:00026abe    6071            strb        r0,[r4,#0x5]=>DAT_20002b25              
ram:00026ac0    2168            ldr         r1,[r4,#0x0]=>DAT_20002b20              
ram:00026ac2    0020            movs        r0,#0x0                                 
ram:00026ac4    8847            blx         r1                                      
                            LAB_00026ac6:                 ;XREF[2,0]:   00026aaa,00026aba
ram:00026ac6    4ff48276        mov.w       r6,#0x104                               
ram:00026aca    3046            mov         r0,r6                                   
ram:00026acc    02f050fb        bl          FUN_00029170                            ;int FUN_00029170(int param_1)
ram:00026ad0    40b1            cbz         r0,LAB_00026ae4                         
ram:00026ad2    3046            mov         r0,r6                                   
ram:00026ad4    02f053fb        bl          FUN_0002917e                            ;undefined FUN_0002917e(int param_1)
ram:00026ad8    0220            movs        r0,#0x2                                 
ram:00026ada    c5f80803        str.w       r0,[r5,#offset DAT_40000308 &0xffff]    
ram:00026ade    2168            ldr         r1,[r4,#0x0]=>DAT_20002b20              
ram:00026ae0    0120            movs        r0,#0x1                                 
ram:00026ae2    8847            blx         r1                                      
                            LAB_00026ae4:                 ;XREF[1,0]:   00026ad0
ram:00026ae4    4ff48876        mov.w       r6,#0x110                               
ram:00026ae8    3046            mov         r0,r6                                   
ram:00026aea    02f041fb        bl          FUN_00029170                            ;int FUN_00029170(int param_1)
ram:00026aee    40b1            cbz         r0,LAB_00026b02                         
ram:00026af0    3046            mov         r0,r6                                   
ram:00026af2    02f044fb        bl          FUN_0002917e                            ;undefined FUN_0002917e(int param_1)
ram:00026af6    1020            movs        r0,#0x10                                
ram:00026af8    c5f80803        str.w       r0,[r5,#offset DAT_40000308 &0xffff]    
ram:00026afc    2168            ldr         r1,[r4,#0x0]=>DAT_20002b20              
ram:00026afe    0220            movs        r0,#0x2                                 
ram:00026b00    8847            blx         r1                                      
                            LAB_00026b02:                 ;XREF[1,0]:   00026aee
ram:00026b02    4ff48677        mov.w       r7,#0x10c                               
ram:00026b06    3846            mov         r0,r7                                   
ram:00026b08    02f032fb        bl          FUN_00029170                            ;int FUN_00029170(int param_1)
ram:00026b0c    0028            cmp         r0,#0x0                                 
ram:00026b0e    0ed0            beq         LAB_00026b2e                            
ram:00026b10    0948            ldr         r0,[DAT_00026b38]                       ;= 40000C34h
ram:00026b12    0026            movs        r6,#0x0                                 
ram:00026b14    0660            str         r6,[r0,#0x0]=>DAT_40000c34              
ram:00026b16    3846            mov         r0,r7                                   
ram:00026b18    02f031fb        bl          FUN_0002917e                            ;undefined FUN_0002917e(int param_1)
ram:00026b1c    0820            movs        r0,#0x8                                 
ram:00026b1e    c5f80803        str.w       r0,[r5,#offset DAT_40000308 &0xffff]    
ram:00026b22    a671            strb        r6,[r4,#0x6]=>DAT_20002b26              
ram:00026b24    2168            ldr         r1,[r4,#0x0]=>DAT_20002b20              
ram:00026b26    bde8f041        pop.w       {r4,r5,r6,r7,r8,lr}                     
ram:00026b2a    0320            movs        r0,#0x3                                 
ram:00026b2c    0847            bx          r1                                      
                            LAB_00026b2e:                 ;XREF[1,0]:   00026b0e
ram:00026b2e    bde8f081        pop.w       {r4,r5,r6,r7,r8,pc}                     
                            DAT_00026b34:                 ;XREF[1,0]:   00026aa6
ram:00026b34    202b0020        undefined4  20002B20h                               
                            DAT_00026b38:                 ;XREF[1,0]:   00026b10
ram:00026b38    340c0040        undefined4  40000C34h                               
                            ;************************************************************************************************
                            ;*                                           FUNCTION                                           *
                            ;************************************************************************************************
                            ;undefined FUNC_VT_00026b3c(void)
                                                          ;XREF[0,1]:   00026084
ram:00026b3c    0748            ldr         r0=>DAT_40011000,[DAT_00026b5c]         ;= 40011000h
ram:00026b3e    0021            movs        r1,#0x0                                 
ram:00026b40    c0f84011        str.w       r1,[r0,#0x140]=>DAT_40011140            
ram:00026b44    c0f84411        str.w       r1,[r0,#0x144]=>DAT_40011144            
ram:00026b48    c0f84811        str.w       r1,[r0,#0x148]=>DAT_40011148            
ram:00026b4c    c0f84c11        str.w       r1,[r0,#0x14c]=>DAT_4001114c            
ram:00026b50    c0f80011        str.w       r1,[r0,#0x100]=>DAT_40011100            
ram:00026b54    c0f80411        str.w       r1,[r0,#0x104]=>DAT_40011104            
ram:00026b58    03f05abb        b.w         FUN_0002a210                            ;undefined FUN_0002a210(void)
                            DAT_00026b5c:                 ;XREF[1,0]:   00026b3c
ram:00026b5c    00100140        undefined4  40011000h                               
                            ;************************************************************************************************
                            ;*                                           FUNCTION                                           *
                            ;************************************************************************************************
                            ;undefined thunk_FUN_0002a0ac(void)
                                                          ;XREF[0,1]:   00026090
ram:00026b60    03f0a4ba        b.w         FUN_0002a0ac                            ;undefined FUN_0002a0ac(void)
                            ;************************************************************************************************
                            ;*                                           FUNCTION                                           *
                            ;************************************************************************************************
                            ;undefined thunk_FUN_00029750(undefined4 param_1, int * param_2, undefined4 param_3, undefined * * param_4)
          ;param_1       undefined4          r0                      
          ;param_2       int *               r1                      
          ;param_3       undefined4          r2                      
          ;param_4       undefined * *       r3                      
                                                          ;XREF[0,1]:   00026098
ram:00026b64    02f0f4bd        b.w         FUN_00029750                            
                            ;************************************************************************************************
                            ;*                                           FUNCTION                                           *
                            ;************************************************************************************************
                            ;undefined FUN_00026b68(undefined4 param_1, undefined4 param_2)
          ;param_1       undefined4          r0                      
          ;param_2       undefined4          r1                      
                                                          ;XREF[1,0]:   00026ba6
ram:00026b68    13b5            push        {param_1,param_2,r4,lr}=>DAT_20002af0   
ram:00026b6a    0449            ldr         param_2,[DAT_00026b7c]                  ;= 20002AA0h
ram:00026b6c    01aa            add         r2,sp,#0x4                              
ram:00026b6e    8b88            ldrh        r3,[param_2,#0x4]=>DAT_20002aa4         
ram:00026b70    0146            mov         param_2=>DAT_20002af0,param_1           
ram:00026b72    0248            ldr         param_1,[DAT_00026b7c]                  ;= 20002AA0h
ram:00026b74    1430            adds        param_1,#0x14                           
ram:00026b76    01f07ff8        bl          FUN_00027c78                            ;uint FUN_00027c78(int param_1, undef...
ram:00026b7a    1cbd            pop         {r2,r3,r4,pc}                           
                            DAT_00026b7c:                 ;XREF[2,0]:   00026b6a,00026b72
ram:00026b7c    a02a0020        undefined4  20002AA0h                               
                            ;************************************************************************************************
                            ;*                                           FUNCTION                                           *
                            ;************************************************************************************************
                            ;undefined FUN_00026b80(void)
                                                          ;XREF[1,0]:   00028b42
ram:00026b80    0f48            ldr         r0=>DAT_20002adc,[DAT_00026bc0]         ;= 20002ADCh
ram:00026b82    0021            movs        r1,#0x0                                 
ram:00026b84    48f6b802        movw        r2,#0x88b8                              
ram:00026b88    0378            ldrb        r3,[r0,#0x0]=>DAT_20002adc              
ram:00026b8a    042b            cmp         r3,#0x4                                 
ram:00026b8c    0dd0            beq         LAB_00026baa                            
ram:00026b8e    052b            cmp         r3,#0x5                                 
ram:00026b90    0170            strb        r1,[r0,#0x0]=>DAT_20002adc              
ram:00026b92    13d1            bne         LAB_00026bbc                            
ram:00026b94    0169            ldr         r1,[r0,#0x10]=>DAT_20002aec             
ram:00026b96    01b1            cbz         r1,LAB_00026b9a                         
ram:00026b98    0261            str         r2,[r0,#0x10]=>DAT_20002aec             
                            LAB_00026b9a:                 ;XREF[1,0]:   00026b96
ram:00026b9a    4078            ldrb        r0,[r0,#0x1]=>DAT_20002add              
ram:00026b9c    0028            cmp         r0,#0x0                                 
ram:00026b9e    0dd1            bne         LAB_00026bbc                            
ram:00026ba0    0521            movs        r1,#0x5                                 
                            LAB_00026ba2:                 ;XREF[1,0]:   00026bba
ram:00026ba2    0748            ldr         r0,[DAT_00026bc0]                       ;= 20002ADCh
ram:00026ba4    1430            adds        r0=>DAT_20002af0,#0x14                  
ram:00026ba6    fff7dfbf        b.w         FUN_00026b68                            ;undefined FUN_00026b68(undefined4 pa...
                            LAB_00026baa:                 ;XREF[1,0]:   00026b8c
ram:00026baa    0170            strb        r1,[r0,#0x0]=>DAT_20002adc              
ram:00026bac    0169            ldr         r1,[r0,#0x10]=>DAT_20002aec             
ram:00026bae    01b1            cbz         r1,LAB_00026bb2                         
ram:00026bb0    0261            str         r2,[r0,#0x10]=>DAT_20002aec             
                            LAB_00026bb2:                 ;XREF[1,0]:   00026bae
ram:00026bb2    4078            ldrb        r0,[r0,#0x1]=>DAT_20002add              
ram:00026bb4    0028            cmp         r0,#0x0                                 
ram:00026bb6    01d1            bne         LAB_00026bbc                            
ram:00026bb8    0421            movs        r1,#0x4                                 
ram:00026bba    f2e7            b           LAB_00026ba2                            
                            LAB_00026bbc:                 ;XREF[3,0]:   00026b92,00026b9e,00026bb6
ram:00026bbc    7047            bx          lr                                      
ram:00026bbe    0000            movs        r0,r0                                   
                            DAT_00026bc0:                 ;XREF[2,0]:   00026b80,00026ba2
ram:00026bc0    dc2a0020        undefined4  20002ADCh                               
                            ;************************************************************************************************
                            ;*                                           FUNCTION                                           *
                            ;************************************************************************************************
                            ;undefined FUN_00026bc4(void)
                                                          ;XREF[1,1]:   000263c2,000263dc
ram:00026bc4    2de9f041        push        {r4,r5,r6,r7,r8,lr}                     
ram:00026bc8    ba48            ldr         r0,[DAT_00026eb4]                       ;= F0000FE0h
ram:00026bca    0023            movs        r3,#0x0                                 
ram:00026bcc    021d            adds        r2,r0,#0x4                              
ram:00026bce    0178            ldrb        r1,[r0,#0x0]=>DAT_f0000fe0              
ram:00026bd0    101d            adds        r0,r2,#0x4                              
ram:00026bd2    0125            movs        r5,#0x1                                 
ram:00026bd4    4ff08054        mov.w       r4,#0x10000000                          
ram:00026bd8    0629            cmp         r1,#0x6                                 
ram:00026bda    0bd1            bne         LAB_00026bf4                            
ram:00026bdc    1678            ldrb        r6,[r2,#0x0]=>DAT_f0000fe4              
ram:00026bde    3607            lsls        r6,r6,#0x1c                             
ram:00026be0    08d1            bne         LAB_00026bf4                            
ram:00026be2    0678            ldrb        r6,[r0,#0x0]=>DAT_f0000fe8              
ram:00026be4    c6f30316        ubfx        r6,r6,#0x4,#0x4                         
ram:00026be8    032e            cmp         r6,#0x3                                 
ram:00026bea    06d0            beq         LAB_00026bfa                            
ram:00026bec    042e            cmp         r6,#0x4                                 
ram:00026bee    04d0            beq         LAB_00026bfa                            
ram:00026bf0    052e            cmp         r6,#0x5                                 
ram:00026bf2    02d0            beq         LAB_00026bfa                            
                            LAB_00026bf4:                 ;XREF[2,0]:   00026bda,00026be0
ram:00026bf4    0629            cmp         r1,#0x6                                 
ram:00026bf6    07d0            beq         LAB_00026c08                            
ram:00026bf8    0ee0            b           LAB_00026c18                            
                            LAB_00026bfa:                 ;XREF[3,0]:   00026bea,00026bee,00026bf2
ram:00026bfa    b4f82463        ldrh.w      r6,[r4,#offset DAT_10000324 &0xffff]    
ram:00026bfe    ae4f            ldr         r7,[DAT_00026eb8]                       ;= 40013540h
ram:00026c00    c6f30426        ubfx        r6,r6,#0x8,#0x5                         
ram:00026c04    3e60            str         r6,[r7,#0x0]=>DAT_40013540              
ram:00026c06    02e0            b           LAB_00026c0e                            
                            LAB_00026c08:                 ;XREF[1,0]:   00026bf6
ram:00026c08    1678            ldrb        r6,[r2,#0x0]=>DAT_f0000fe4              
ram:00026c0a    3607            lsls        r6,r6,#0x1c                             
ram:00026c0c    04d1            bne         LAB_00026c18                            
                            LAB_00026c0e:                 ;XREF[1,0]:   00026c06
ram:00026c0e    0678            ldrb        r6,[r0,#0x0]=>DAT_f0000fe8              
ram:00026c10    c6f30316        ubfx        r6,r6,#0x4,#0x4                         
ram:00026c14    032e            cmp         r6,#0x3                                 
ram:00026c16    02d0            beq         LAB_00026c1e                            
                            LAB_00026c18:                 ;XREF[2,0]:   00026bf8,00026c0c
ram:00026c18    0629            cmp         r1,#0x6                                 
ram:00026c1a    04d0            beq         LAB_00026c26                            
ram:00026c1c    0fe0            b           LAB_00026c3e                            
                            LAB_00026c1e:                 ;XREF[1,0]:   00026c16
ram:00026c1e    a84f            ldr         r7,[DAT_00026ec0]                       ;= 4007C000h
ram:00026c20    a64e            ldr         r6,[DAT_00026ebc]                       ;= BAADF00Dh
ram:00026c22    7e67            str         r6,[r7,#offset DAT_4007c074 &0xff]      
ram:00026c24    0ee0            b           LAB_00026c44                            
                            LAB_00026c26:                 ;XREF[1,0]:   00026c1a
ram:00026c26    1678            ldrb        r6,[r2,#0x0]=>DAT_f0000fe4              
ram:00026c28    3607            lsls        r6,r6,#0x1c                             
ram:00026c2a    08d1            bne         LAB_00026c3e                            
ram:00026c2c    0678            ldrb        r6,[r0,#0x0]=>DAT_f0000fe8              
ram:00026c2e    c6f30316        ubfx        r6,r6,#0x4,#0x4                         
ram:00026c32    032e            cmp         r6,#0x3                                 
ram:00026c34    06d0            beq         LAB_00026c44                            
ram:00026c36    042e            cmp         r6,#0x4                                 
ram:00026c38    04d0            beq         LAB_00026c44                            
ram:00026c3a    052e            cmp         r6,#0x5                                 
ram:00026c3c    02d0            beq         LAB_00026c44                            
                            LAB_00026c3e:                 ;XREF[2,0]:   00026c1c,00026c2a
ram:00026c3e    0629            cmp         r1,#0x6                                 
ram:00026c40    07d0            beq         LAB_00026c52                            
ram:00026c42    0ee0            b           LAB_00026c62                            
                            LAB_00026c44:                 ;XREF[4,0]:   00026c24,00026c34,00026c38,00026c3c
ram:00026c44    d4f84462        ldr.w       r6,[r4,#offset DAT_10000244 &0xffff]    
ram:00026c48    9e4f            ldr         r7,[DAT_00026ec4]                       ;= 4000053Ch
ram:00026c4a    c6f34236        ubfx        r6,r6,#0xd,#0x3                         
ram:00026c4e    3e60            str         r6,[r7,#0x0]=>DAT_4000053c              
ram:00026c50    02e0            b           LAB_00026c58                            
                            LAB_00026c52:                 ;XREF[1,0]:   00026c40
ram:00026c52    1678            ldrb        r6,[r2,#0x0]=>DAT_f0000fe4              
ram:00026c54    3607            lsls        r6,r6,#0x1c                             
ram:00026c56    04d1            bne         LAB_00026c62                            
                            LAB_00026c58:                 ;XREF[1,0]:   00026c50
ram:00026c58    0678            ldrb        r6,[r0,#0x0]=>DAT_f0000fe8              
ram:00026c5a    c6f30316        ubfx        r6,r6,#0x4,#0x4                         
ram:00026c5e    032e            cmp         r6,#0x3                                 
ram:00026c60    02d0            beq         LAB_00026c68                            
                            LAB_00026c62:                 ;XREF[2,0]:   00026c42,00026c56
ram:00026c62    0629            cmp         r1,#0x6                                 
ram:00026c64    06d0            beq         LAB_00026c74                            
ram:00026c66    11e0            b           LAB_00026c8c                            
                            LAB_00026c68:                 ;XREF[1,0]:   00026c60
ram:00026c68    974e            ldr         r6,[DAT_00026ec8]                       ;= E000EDFCh
ram:00026c6a    3768            ldr         r7,[r6,#0x0]=>DAT_e000edfc              
ram:00026c6c    27f08077        bic         r7,r7,#0x1000000                        
ram:00026c70    3760            str         r7,[r6,#0x0]=>DAT_e000edfc              
ram:00026c72    0ee0            b           LAB_00026c92                            
                            LAB_00026c74:                 ;XREF[1,0]:   00026c64
ram:00026c74    1678            ldrb        r6,[r2,#0x0]=>DAT_f0000fe4              
ram:00026c76    3607            lsls        r6,r6,#0x1c                             
ram:00026c78    08d1            bne         LAB_00026c8c                            
ram:00026c7a    0678            ldrb        r6,[r0,#0x0]=>DAT_f0000fe8              
ram:00026c7c    c6f30316        ubfx        r6,r6,#0x4,#0x4                         
ram:00026c80    032e            cmp         r6,#0x3                                 
ram:00026c82    06d0            beq         LAB_00026c92                            
ram:00026c84    042e            cmp         r6,#0x4                                 
ram:00026c86    04d0            beq         LAB_00026c92                            
ram:00026c88    052e            cmp         r6,#0x5                                 
ram:00026c8a    02d0            beq         LAB_00026c92                            
                            LAB_00026c8c:                 ;XREF[2,0]:   00026c66,00026c78
ram:00026c8c    0629            cmp         r1,#0x6                                 
ram:00026c8e    0ad0            beq         LAB_00026ca6                            
ram:00026c90    11e0            b           LAB_00026cb6                            
                            LAB_00026c92:                 ;XREF[4,0]:   00026c72,00026c82,00026c86,00026c8a
ram:00026c92    4ff08046        mov.w       r6,#0x40000000                          
ram:00026c96    c6f80c31        str.w       r3,[r6,#offset DAT_4000010c &0xffff]    
ram:00026c9a    c6f81031        str.w       r3,[r6,#offset DAT_40000110 &0xffff]    
ram:00026c9e    894e            ldr         r6,[DAT_00026ec4]                       ;= 4000053Ch
ram:00026ca0    361f            subs        r6,r6,#0x4                              
ram:00026ca2    3360            str         r3,[r6,#0x0]=>DAT_40000538              
ram:00026ca4    02e0            b           LAB_00026cac                            
                            LAB_00026ca6:                 ;XREF[1,0]:   00026c8e
ram:00026ca6    1678            ldrb        r6,[r2,#0x0]=>DAT_f0000fe4              
ram:00026ca8    3607            lsls        r6,r6,#0x1c                             
ram:00026caa    04d1            bne         LAB_00026cb6                            
                            LAB_00026cac:                 ;XREF[1,0]:   00026ca4
ram:00026cac    0678            ldrb        r6,[r0,#0x0]=>DAT_f0000fe8              
ram:00026cae    c6f30316        ubfx        r6,r6,#0x4,#0x4                         
ram:00026cb2    032e            cmp         r6,#0x3                                 
ram:00026cb4    02d0            beq         LAB_00026cbc                            
                            LAB_00026cb6:                 ;XREF[2,0]:   00026c90,00026caa
ram:00026cb6    0629            cmp         r1,#0x6                                 
ram:00026cb8    05d0            beq         LAB_00026cc6                            
ram:00026cba    0ce0            b           LAB_00026cd6                            
                            LAB_00026cbc:                 ;XREF[1,0]:   00026cb4
ram:00026cbc    814f            ldr         r7,[DAT_00026ec4]                       ;= 4000053Ch
ram:00026cbe    0326            movs        r6,#0x3                                 
ram:00026cc0    6437            adds        r7,#0x64                                
ram:00026cc2    3e60            str         r6,[r7,#0x0]=>DAT_400005a0              
ram:00026cc4    0ae0            b           LAB_00026cdc                            
                            LAB_00026cc6:                 ;XREF[1,0]:   00026cb8
ram:00026cc6    1678            ldrb        r6,[r2,#0x0]=>DAT_f0000fe4              
ram:00026cc8    3607            lsls        r6,r6,#0x1c                             
ram:00026cca    04d1            bne         LAB_00026cd6                            
ram:00026ccc    0678            ldrb        r6,[r0,#0x0]=>DAT_f0000fe8              
ram:00026cce    c6f30316        ubfx        r6,r6,#0x4,#0x4                         
ram:00026cd2    032e            cmp         r6,#0x3                                 
ram:00026cd4    02d0            beq         LAB_00026cdc                            
                            LAB_00026cd6:                 ;XREF[2,0]:   00026cba,00026cca
ram:00026cd6    0629            cmp         r1,#0x6                                 
ram:00026cd8    0dd0            beq         LAB_00026cf6                            
ram:00026cda    14e0            b           LAB_00026d06                            
                            LAB_00026cdc:                 ;XREF[2,0]:   00026cc4,00026cd4
ram:00026cdc    7b4f            ldr         r7,[DAT_00026ecc]                       ;= 40005610h
ram:00026cde    0526            movs        r6,#0x5                                 
ram:00026ce0    3e60            str         r6,[r7,#0x0]=>DAT_40005610              
ram:00026ce2    7a4e            ldr         r6,[DAT_00026ecc]                       ;= 40005610h
ram:00026ce4    7836            adds        r6,#0x78                                
ram:00026ce6    3560            str         r5,[r6,#0x0]=>DAT_40005688              
ram:00026ce8    784e            ldr         r6,[DAT_00026ecc]                       ;= 40005610h
ram:00026cea    0836            adds        r6,#0x8                                 
ram:00026cec    3360            str         r3,[r6,#0x0]=>DAT_40005618              
ram:00026cee    3f26            movs        r6,#0x3f                                
ram:00026cf0    3f1d            adds        r7,r7,#0x4                              
ram:00026cf2    3e60            str         r6,[r7,#0x0]=>DAT_40005614              
ram:00026cf4    02e0            b           LAB_00026cfc                            
                            LAB_00026cf6:                 ;XREF[1,0]:   00026cd8
ram:00026cf6    1678            ldrb        r6,[r2,#0x0]=>DAT_f0000fe4              
ram:00026cf8    3607            lsls        r6,r6,#0x1c                             
ram:00026cfa    04d1            bne         LAB_00026d06                            
                            LAB_00026cfc:                 ;XREF[1,0]:   00026cf4
ram:00026cfc    0678            ldrb        r6,[r0,#0x0]=>DAT_f0000fe8              
ram:00026cfe    c6f30316        ubfx        r6,r6,#0x4,#0x4                         
ram:00026d02    052e            cmp         r6,#0x5                                 
ram:00026d04    02d0            beq         LAB_00026d0c                            
                            LAB_00026d06:                 ;XREF[2,0]:   00026cda,00026cfa
ram:00026d06    0629            cmp         r1,#0x6                                 
ram:00026d08    57d0            beq         LAB_00026dba                            
ram:00026d0a    62e0            b           LAB_00026dd2                            
                            LAB_00026d0c:                 ;XREF[1,0]:   00026d04
ram:00026d0c    704e            ldr         r6,[DAT_00026ed0]                       ;= 10000404h
ram:00026d0e    3668            ldr         r6,[r6,#0x0]=>DAT_10000404              
ram:00026d10    704f            ldr         r7,[DAT_00026ed4]                       ;= 4000C520h
ram:00026d12    3e60            str         r6,[r7,#0x0]=>DAT_4000c520              
ram:00026d14    6e4e            ldr         r6,[DAT_00026ed0]                       ;= 10000404h
ram:00026d16    361d            adds        r6,r6,#0x4                              
ram:00026d18    3668            ldr         r6,[r6,#0x0]=>DAT_10000408              
ram:00026d1a    3f1d            adds        r7,r7,#0x4                              
ram:00026d1c    3e60            str         r6,[r7,#0x0]=>DAT_4000c524              
ram:00026d1e    6c4e            ldr         r6,[DAT_00026ed0]                       ;= 10000404h
ram:00026d20    0836            adds        r6,#0x8                                 
ram:00026d22    3668            ldr         r6,[r6,#0x0]=>DAT_1000040c              
ram:00026d24    3f1d            adds        r7,r7,#0x4                              
ram:00026d26    3e60            str         r6,[r7,#0x0]=>DAT_4000c528              
ram:00026d28    694e            ldr         r6,[DAT_00026ed0]                       ;= 10000404h
ram:00026d2a    0c36            adds        r6,#0xc                                 
ram:00026d2c    3668            ldr         r6,[r6,#0x0]=>DAT_10000410              
ram:00026d2e    3f1d            adds        r7,r7,#0x4                              
ram:00026d30    3e60            str         r6,[r7,#0x0]=>DAT_4000c52c              
ram:00026d32    674e            ldr         r6,[DAT_00026ed0]                       ;= 10000404h
ram:00026d34    1036            adds        r6,#0x10                                
ram:00026d36    3668            ldr         r6,[r6,#0x0]=>DAT_10000414              
ram:00026d38    3f1d            adds        r7,r7,#0x4                              
ram:00026d3a    3e60            str         r6,[r7,#0x0]=>DAT_4000c530              
ram:00026d3c    644e            ldr         r6,[DAT_00026ed0]                       ;= 10000404h
ram:00026d3e    1436            adds        r6,#0x14                                
ram:00026d40    3668            ldr         r6,[r6,#0x0]=>DAT_10000418              
ram:00026d42    3f1d            adds        r7,r7,#0x4                              
ram:00026d44    3e60            str         r6,[r7,#0x0]=>DAT_4000c534              
ram:00026d46    624e            ldr         r6,[DAT_00026ed0]                       ;= 10000404h
ram:00026d48    1836            adds        r6,#0x18                                
ram:00026d4a    3668            ldr         r6,[r6,#0x0]=>DAT_1000041c              
ram:00026d4c    614f            ldr         r7,[DAT_00026ed4]                       ;= 4000C520h
ram:00026d4e    2037            adds        r7,#0x20                                
ram:00026d50    3e60            str         r6,[r7,#0x0]=>DAT_4000c540              
ram:00026d52    5f4e            ldr         r6,[DAT_00026ed0]                       ;= 10000404h
ram:00026d54    1c36            adds        r6,#0x1c                                
ram:00026d56    3668            ldr         r6,[r6,#0x0]=>DAT_10000420              
ram:00026d58    3f1d            adds        r7,r7,#0x4                              
ram:00026d5a    3e60            str         r6,[r7,#0x0]=>DAT_4000c544              
ram:00026d5c    5c4e            ldr         r6,[DAT_00026ed0]                       ;= 10000404h
ram:00026d5e    2036            adds        r6,#0x20                                
ram:00026d60    3668            ldr         r6,[r6,#0x0]=>DAT_10000424              
ram:00026d62    3f1d            adds        r7,r7,#0x4                              
ram:00026d64    3e60            str         r6,[r7,#0x0]=>DAT_4000c548              
ram:00026d66    5a4e            ldr         r6,[DAT_00026ed0]                       ;= 10000404h
ram:00026d68    2436            adds        r6,#0x24                                
ram:00026d6a    3668            ldr         r6,[r6,#0x0]=>DAT_10000428              
ram:00026d6c    3f1d            adds        r7,r7,#0x4                              
ram:00026d6e    3e60            str         r6,[r7,#0x0]=>DAT_4000c54c              
ram:00026d70    574e            ldr         r6,[DAT_00026ed0]                       ;= 10000404h
ram:00026d72    2836            adds        r6,#0x28                                
ram:00026d74    3668            ldr         r6,[r6,#0x0]=>DAT_1000042c              
ram:00026d76    3f1d            adds        r7,r7,#0x4                              
ram:00026d78    3e60            str         r6,[r7,#0x0]=>DAT_4000c550              
ram:00026d7a    554e            ldr         r6,[DAT_00026ed0]                       ;= 10000404h
ram:00026d7c    2c36            adds        r6,#0x2c                                
ram:00026d7e    3668            ldr         r6,[r6,#0x0]=>DAT_10000430              
ram:00026d80    3f1d            adds        r7,r7,#0x4                              
ram:00026d82    3e60            str         r6,[r7,#0x0]=>DAT_4000c554              
ram:00026d84    524e            ldr         r6,[DAT_00026ed0]                       ;= 10000404h
ram:00026d86    3036            adds        r6,#0x30                                
ram:00026d88    3668            ldr         r6,[r6,#0x0]=>DAT_10000434              
ram:00026d8a    524f            ldr         r7,[DAT_00026ed4]                       ;= 4000C520h
ram:00026d8c    4037            adds        r7,#0x40                                
ram:00026d8e    3e60            str         r6,[r7,#0x0]=>DAT_4000c560              
ram:00026d90    4f4e            ldr         r6,[DAT_00026ed0]                       ;= 10000404h
ram:00026d92    3436            adds        r6,#0x34                                
ram:00026d94    3668            ldr         r6,[r6,#0x0]=>DAT_10000438              
ram:00026d96    3f1d            adds        r7,r7,#0x4                              
ram:00026d98    3e60            str         r6,[r7,#0x0]=>DAT_4000c564              
ram:00026d9a    4d4e            ldr         r6,[DAT_00026ed0]                       ;= 10000404h
ram:00026d9c    3836            adds        r6,#0x38                                
ram:00026d9e    3668            ldr         r6,[r6,#0x0]=>DAT_1000043c              
ram:00026da0    3f1d            adds        r7,r7,#0x4                              
ram:00026da2    3e60            str         r6,[r7,#0x0]=>DAT_4000c568              
ram:00026da4    4a4e            ldr         r6,[DAT_00026ed0]                       ;= 10000404h
ram:00026da6    3c36            adds        r6,#0x3c                                
ram:00026da8    3668            ldr         r6,[r6,#0x0]=>DAT_10000440              
ram:00026daa    3f1d            adds        r7,r7,#0x4                              
ram:00026dac    3e60            str         r6,[r7,#0x0]=>DAT_4000c56c              
ram:00026dae    484e            ldr         r6,[DAT_00026ed0]                       ;= 10000404h
ram:00026db0    4036            adds        r6,#0x40                                
ram:00026db2    3668            ldr         r6,[r6,#0x0]=>DAT_10000444              
ram:00026db4    3f1d            adds        r7,r7,#0x4                              
ram:00026db6    3e60            str         r6,[r7,#0x0]=>DAT_4000c570              
ram:00026db8    02e0            b           LAB_00026dc0                            
                            LAB_00026dba:                 ;XREF[1,0]:   00026d08
ram:00026dba    1678            ldrb        r6,[r2,#0x0]=>DAT_f0000fe4              
ram:00026dbc    3607            lsls        r6,r6,#0x1c                             
ram:00026dbe    08d1            bne         LAB_00026dd2                            
                            LAB_00026dc0:                 ;XREF[1,0]:   00026db8
ram:00026dc0    0678            ldrb        r6,[r0,#0x0]=>DAT_f0000fe8              
ram:00026dc2    c6f30316        ubfx        r6,r6,#0x4,#0x4                         
ram:00026dc6    032e            cmp         r6,#0x3                                 
ram:00026dc8    06d0            beq         LAB_00026dd8                            
ram:00026dca    042e            cmp         r6,#0x4                                 
ram:00026dcc    04d0            beq         LAB_00026dd8                            
ram:00026dce    052e            cmp         r6,#0x5                                 
ram:00026dd0    02d0            beq         LAB_00026dd8                            
                            LAB_00026dd2:                 ;XREF[2,0]:   00026d0a,00026dbe
ram:00026dd2    0629            cmp         r1,#0x6                                 
ram:00026dd4    07d0            beq         LAB_00026de6                            
ram:00026dd6    19e0            b           LAB_00026e0c                            
                            LAB_00026dd8:                 ;XREF[3,0]:   00026dc8,00026dcc,00026dd0
ram:00026dd8    d4f85812        ldr.w       r1,[r4,#offset DAT_10000258 &0xffff]    
ram:00026ddc    3e4a            ldr         r2,[DAT_00026ed8]                       ;= 40000EE4h
ram:00026dde    01f04f01        and         r1,r1,#0x4f                             
ram:00026de2    1160            str         r1,[r2,#0x0]=>DAT_40000ee4              
ram:00026de4    02e0            b           LAB_00026dec                            
                            LAB_00026de6:                 ;XREF[1,0]:   00026dd4
ram:00026de6    1178            ldrb        r1,[r2,#0x0]=>DAT_f0000fe4              
ram:00026de8    0907            lsls        r1,r1,#0x1c                             
ram:00026dea    0fd1            bne         LAB_00026e0c                            
                            LAB_00026dec:                 ;XREF[1,0]:   00026de4
ram:00026dec    0078            ldrb        r0,[r0,#0x0]=>DAT_f0000fe8              
ram:00026dee    c0f30310        ubfx        r0,r0,#0x4,#0x4                         
ram:00026df2    0328            cmp         r0,#0x3                                 
ram:00026df4    03d0            beq         LAB_00026dfe                            
ram:00026df6    0428            cmp         r0,#0x4                                 
ram:00026df8    01d0            beq         LAB_00026dfe                            
ram:00026dfa    0528            cmp         r0,#0x5                                 
ram:00026dfc    06d1            bne         LAB_00026e0c                            
                            LAB_00026dfe:                 ;XREF[2,0]:   00026df4,00026df8
ram:00026dfe    3748            ldr         r0,[DAT_00026edc]                       ;= 40000400h
ram:00026e00    0168            ldr         r1,[r0,#0x0]=>DAT_40000400              
ram:00026e02    c907            lsls        r1,r1,#0x1f                             
ram:00026e04    02d0            beq         LAB_00026e0c                            
ram:00026e06    6ff00101        mvn         r1,#0x1                                 
ram:00026e0a    0160            str         r1,[r0,#0x0]=>DAT_40000400              
                            LAB_00026e0c:                 ;XREF[4,0]:   00026dd6,00026dea,00026dfc,00026e04
ram:00026e0c    d4f83001        ldr.w       r0,[r4,#offset DAT_10000130 &0xffff]    
ram:00026e10    0628            cmp         r0,#0x6                                 
ram:00026e12    08d1            bne         LAB_00026e26                            
ram:00026e14    d4f83401        ldr.w       r0,[r4,#offset DAT_10000134 &0xffff]    
ram:00026e18    0628            cmp         r0,#0x6                                 
ram:00026e1a    04d1            bne         LAB_00026e26                            
ram:00026e1c    3048            ldr         r0,[DAT_00026ee0]                       ;= 4000173Ch
ram:00026e1e    0168            ldr         r1,[r0,#0x0]=>DAT_4000173c              
ram:00026e20    41f48061        orr         r1,r1,#0x400                            
ram:00026e24    0160            str         r1,[r0,#0x0]=>DAT_4000173c              
                            LAB_00026e26:                 ;XREF[2,0]:   00026e12,00026e1a
ram:00026e26    2848            ldr         r0,[DAT_00026ec8]                       ;= E000EDFCh
ram:00026e28    7438            subs        r0,#0x74                                
ram:00026e2a    0168            ldr         r1,[r0,#0x0]=>DAT_e000ed88              
ram:00026e2c    41f47001        orr         r1,r1,#0xf00000                         
ram:00026e30    0160            str         r1,[r0,#0x0]=>DAT_e000ed88              
ram:00026e32    bff34f8f        dsb         0xf                                     
ram:00026e36    bff36f8f        isb         0xf                                     
ram:00026e3a    4ff01020        mov.w       r0,#0x10001000                          
ram:00026e3e    d0f80c12        ldr.w       r1,[r0,#0x20c]=>DAT_1000120c            
ram:00026e42    284a            ldr         r2=>DAT_4001e504,[DAT_00026ee4]         ;= 4001E504h
ram:00026e44    cc07            lsls        r4,r1,#0x1f                             
ram:00026e46    2849            ldr         r1=>DAT_4001e400,[DAT_00026ee8]         ;= 4001E400h
ram:00026e48    11d0            beq         LAB_00026e6e                            
ram:00026e4a    1560            str         r5,[r2,#0x0]=>DAT_4001e504              
                            LAB_00026e4c:                 ;XREF[1,0]:   00026e50
ram:00026e4c    0c68            ldr         r4,[r1,#0x0]=>DAT_4001e400              
ram:00026e4e    002c            cmp         r4,#0x0                                 
ram:00026e50    fcd0            beq         LAB_00026e4c                            
ram:00026e52    d0f80c42        ldr.w       r4,[r0,#0x20c]=>DAT_1000120c            
ram:00026e56    24f00104        bic         r4,r4,#0x1                              
ram:00026e5a    c0f80c42        str.w       r4,[r0,#0x20c]=>DAT_1000120c            
                            LAB_00026e5e:                 ;XREF[1,0]:   00026e62
ram:00026e5e    0868            ldr         r0,[r1,#0x0]=>DAT_4001e400              
ram:00026e60    0028            cmp         r0,#0x0                                 
ram:00026e62    fcd0            beq         LAB_00026e5e                            
ram:00026e64    1360            str         r3,[r2,#0x0]=>DAT_4001e504              
                            LAB_00026e66:                 ;XREF[1,0]:   00026e6a
ram:00026e66    0868            ldr         r0,[r1,#0x0]=>DAT_4001e400              
ram:00026e68    0028            cmp         r0,#0x0                                 
ram:00026e6a    fcd0            beq         LAB_00026e66                            
ram:00026e6c    1ae0            b           LAB_00026ea4                            
                            LAB_00026e6e:                 ;XREF[1,0]:   00026e48
ram:00026e6e    d0f80042        ldr.w       r4,[r0,#0x200]=>DAT_10001200            
ram:00026e72    002c            cmp         r4,#0x0                                 
ram:00026e74    03db            blt         LAB_00026e7e                            
ram:00026e76    d0f80442        ldr.w       r4,[r0,#0x204]=>DAT_10001204            
ram:00026e7a    002c            cmp         r4,#0x0                                 
ram:00026e7c    14da            bge         LAB_00026ea8                            
                            LAB_00026e7e:                 ;XREF[1,0]:   00026e74
ram:00026e7e    1560            str         r5,[r2,#0x0]=>DAT_4001e504              
                            LAB_00026e80:                 ;XREF[1,0]:   00026e84
ram:00026e80    0c68            ldr         r4,[r1,#0x0]=>DAT_4001e400              
ram:00026e82    002c            cmp         r4,#0x0                                 
ram:00026e84    fcd0            beq         LAB_00026e80                            
ram:00026e86    1524            movs        r4,#0x15                                
ram:00026e88    c0f80042        str.w       r4,[r0,#0x200]=>DAT_10001200            
                            LAB_00026e8c:                 ;XREF[1,0]:   00026e90
ram:00026e8c    0d68            ldr         r5,[r1,#0x0]=>DAT_4001e400              
ram:00026e8e    002d            cmp         r5,#0x0                                 
ram:00026e90    fcd0            beq         LAB_00026e8c                            
ram:00026e92    c0f80442        str.w       r4,[r0,#0x204]=>DAT_10001204            
                            LAB_00026e96:                 ;XREF[1,0]:   00026e9a
ram:00026e96    0868            ldr         r0,[r1,#0x0]=>DAT_4001e400              
ram:00026e98    0028            cmp         r0,#0x0                                 
ram:00026e9a    fcd0            beq         LAB_00026e96                            
ram:00026e9c    1360            str         r3,[r2,#0x0]=>DAT_4001e504              
                            LAB_00026e9e:                 ;XREF[1,0]:   00026ea2
ram:00026e9e    0868            ldr         r0,[r1,#0x0]=>DAT_4001e400              
ram:00026ea0    0028            cmp         r0,#0x0                                 
ram:00026ea2    fcd0            beq         LAB_00026e9e                            
                            LAB_00026ea4:                 ;XREF[1,0]:   00026e6c
ram:00026ea4    fff7e6fd        bl          FUN_00026a74                            ;undefined FUN_00026a74(void)
                            LAB_00026ea8:                 ;XREF[1,0]:   00026e7c
ram:00026ea8    1149            ldr         r1,[DAT_00026ef0]                       ;= 20002B58h
ram:00026eaa    1048            ldr         r0,[DAT_00026eec]                       ;= 03D09000h
ram:00026eac    0860            str         r0,[r1,#0x0]=>DAT_20002b58              
ram:00026eae    bde8f081        pop.w       {r4,r5,r6,r7,r8,pc}                     
                            DAT_00026eb4:                 ;XREF[1,0]:   00026bc8
ram:00026eb4    e00f00f0        undefined4  F0000FE0h                               
                            DAT_00026eb8:                 ;XREF[1,0]:   00026bfe
ram:00026eb8    40350140        undefined4  40013540h                               
                            DAT_00026ebc:                 ;XREF[1,0]:   00026c20
ram:00026ebc    0df0adba        undefined4  BAADF00Dh                               
                            DAT_00026ec0:                 ;XREF[1,0]:   00026c1e
ram:00026ec0    00c00740        undefined4  4007C000h                               
                            DAT_00026ec4:                 ;XREF[3,0]:   00026c48,00026c9e,00026cbc
ram:00026ec4    3c050040        undefined4  4000053Ch                               
                            DAT_00026ec8:                 ;XREF[2,0]:   00026c68,00026e26
ram:00026ec8    fced00e0        undefined4  E000EDFCh                               
                            DAT_00026ecc:                 ;XREF[3,0]:   00026cdc,00026ce2,00026ce8
ram:00026ecc    10560040        undefined4  40005610h                               
                            DAT_00026ed0:                 ;XREF[17,0]:  00026d0c,00026d14,00026d1e,00026d28
                                                          ;             00026d32,00026d3c,00026d46,00026d52
                                                          ;             00026d5c,00026d66,00026d70,00026d7a
                                                          ;             00026d84,00026d90,00026d9a,00026da4
                                                          ;             00026dae
ram:00026ed0    04040010        undefined4  10000404h                               
                            DAT_00026ed4:                 ;XREF[3,0]:   00026d10,00026d4c,00026d8a
ram:00026ed4    20c50040        undefined4  4000C520h                               
                            DAT_00026ed8:                 ;XREF[1,0]:   00026ddc
ram:00026ed8    e40e0040        undefined4  40000EE4h                               
                            DAT_00026edc:                 ;XREF[1,0]:   00026dfe
ram:00026edc    00040040        undefined4  40000400h                               
                            DAT_00026ee0:                 ;XREF[1,0]:   00026e1c
ram:00026ee0    3c170040        undefined4  4000173Ch                               
                            DAT_00026ee4:                 ;XREF[1,0]:   00026e42
ram:00026ee4    04e50140        undefined4  4001E504h                               
                            DAT_00026ee8:                 ;XREF[1,0]:   00026e46
ram:00026ee8    00e40140        undefined4  4001E400h                               
                            DAT_00026eec:                 ;XREF[1,0]:   00026eaa
ram:00026eec    0090d003        undefined4  03D09000h                               
                            DAT_00026ef0:                 ;XREF[1,0]:   00026ea8
ram:00026ef0    582b0020        undefined4  20002B58h                               
                            ;************************************************************************************************
                            ;*                                           FUNCTION                                           *
                            ;************************************************************************************************
                            ;undefined FUNC_VT_00026ef4(void)
                                                          ;XREF[0,1]:   00026060
ram:00026ef4    0422            movs        r2,#0x4                                 
ram:00026ef6    0249            ldr         r1,[DAT_00026f00]                       ;= 20003124h
ram:00026ef8    0248            ldr         r0,[DAT_00026f04]                       ;= 40008000h
ram:00026efa    01f017bc        b.w         FUN_0002872c                            ;undefined FUN_0002872c(int param_1, ...
                            DAT_00026f00:                 ;XREF[1,0]:   00026ef6
ram:00026f00    24310020        undefined4  20003124h                               
                            DAT_00026f04:                 ;XREF[1,0]:   00026ef8
ram:00026f04    00800040        undefined4  40008000h                               
                            ;************************************************************************************************
                            ;*                                           FUNCTION                                           *
                            ;************************************************************************************************
                            ;undefined FUNC_VT_00026f08(void)
                                                          ;XREF[0,1]:   00026064
ram:00026f08    0422            movs        r2,#0x4                                 
ram:00026f0a    0249            ldr         r1,[DAT_00026f14]                       ;= 20003130h
ram:00026f0c    0248            ldr         r0,[DAT_00026f18]                       ;= 40009000h
ram:00026f0e    01f00dbc        b.w         FUN_0002872c                            ;undefined FUN_0002872c(int param_1, ...
                            DAT_00026f14:                 ;XREF[1,0]:   00026f0a
ram:00026f14    30310020        undefined4  20003130h                               
                            DAT_00026f18:                 ;XREF[1,0]:   00026f0c
ram:00026f18    00900040        undefined4  40009000h                               
                            ;************************************************************************************************
                            ;*                                           FUNCTION                                           *
                            ;************************************************************************************************
                            ;undefined FUNC_VT_00026f1c(void)
                                                          ;XREF[0,1]:   00026068
ram:00026f1c    0422            movs        r2,#0x4                                 
ram:00026f1e    0249            ldr         r1,[DAT_00026f28]                       ;= 2000313Ch
ram:00026f20    0248            ldr         r0,[DAT_00026f2c]                       ;= 4000A000h
ram:00026f22    01f003bc        b.w         FUN_0002872c                            ;undefined FUN_0002872c(int param_1, ...
                            DAT_00026f28:                 ;XREF[1,0]:   00026f1e
ram:00026f28    3c310020        undefined4  2000313Ch                               
                            DAT_00026f2c:                 ;XREF[1,0]:   00026f20
ram:00026f2c    00a00040        undefined4  4000A000h                               
                            ;************************************************************************************************
                            ;*                                           FUNCTION                                           *
                            ;************************************************************************************************
                            ;undefined FUNC_VT_00026f30(void)
                                                          ;XREF[0,1]:   000260a8
ram:00026f30    0622            movs        r2,#0x6                                 
ram:00026f32    0249            ldr         r1,[DAT_00026f3c]                       ;= 20003148h
ram:00026f34    0248            ldr         r0,[DAT_00026f40]                       ;= 4001A000h
ram:00026f36    01f0f9bb        b.w         FUN_0002872c                            ;undefined FUN_0002872c(int param_1, ...
                            DAT_00026f3c:                 ;XREF[1,0]:   00026f32
ram:00026f3c    48310020        undefined4  20003148h                               
                            DAT_00026f40:                 ;XREF[1,0]:   00026f34
ram:00026f40    00a00140        undefined4  4001A000h                               
                            ;************************************************************************************************
                            ;*                                           FUNCTION                                           *
                            ;************************************************************************************************
                            ;undefined FUNC_VT_00026f44(void)
                                                          ;XREF[0,1]:   000260ac
ram:00026f44    0622            movs        r2,#0x6                                 
ram:00026f46    0249            ldr         r1,[DAT_00026f50]                       ;= 20003154h
ram:00026f48    0248            ldr         r0,[DAT_00026f54]                       ;= 4001B000h
ram:00026f4a    01f0efbb        b.w         FUN_0002872c                            ;undefined FUN_0002872c(int param_1, ...
                            DAT_00026f50:                 ;XREF[1,0]:   00026f46
ram:00026f50    54310020        undefined4  20003154h                               
                            DAT_00026f54:                 ;XREF[1,0]:   00026f48
ram:00026f54    00b00140        undefined4  4001B000h                               
                            ;************************************************************************************************
                            ;*                                           FUNCTION                                           *
                            ;************************************************************************************************
                            ;undefined FUN_00026f58(void)
          ;local_c       undefined4          -c                      ;XREF[1,0]:   00026f62
          ;local_10      undefined4         -10                      ;XREF[1,0]:   00026f8e
                                                          ;XREF[1,0]:   00028a56
ram:00026f58    0eb5            push        {r1,r2,r3,lr}                           
ram:00026f5a    1149            ldr         r1,[PTR_DAT_00026fa0]                   ;= 0002a528
ram:00026f5c    114a            ldr         r2,[DAT_00026fa4]                       ;= 00029FD1h
                                                          ; FWD[2,0]:   0002a538,0002a53c
ram:00026f5e    d1e90401        ldrd        r0,r1,[r1,#0x10]=>DAT_0002a538          ;= 06000004h
ram:00026f62    cde90101        strd        r0,r1,[sp,#local_c+0x10]                
ram:00026f66    01a9            add         r1,sp,#0x4                              
ram:00026f68    0d48            ldr         r0=>DAT_0002a528,[PTR_DAT_00026fa0]     ;= 40009000h
                                                                                    ;= 0002a528
ram:00026f6a    02f0f9fc        bl          FUN_00029960                            ;undefined4 FUN_00029960(int * param_...
ram:00026f6e    08b1            cbz         r0,LAB_00026f74                         
ram:00026f70    00f0b4f8        bl          FUN_000270dc                            ;undefined FUN_000270dc(void)
                            LAB_00026f74:                 ;XREF[1,0]:   00026f6e
ram:00026f74    0a48            ldr         r0,[PTR_DAT_00026fa0]                   ;= 0002a528
ram:00026f76    0068            ldr         r0,[r0,#0x0]=>DAT_0002a528              ;= 40009000h
ram:00026f78    d0f81005        ldr.w       r0,[r0,#0x510]=>DAT_40009510            
ram:00026f7c    0021            movs        r1,#0x0                                 
ram:00026f7e    c2b2            uxtb        r2,r0                                   
ram:00026f80    4ff4fa40        mov.w       r0,#0x7d00                              
ram:00026f84    fff76efa        bl          FUN_00026464                            ;ulonglong FUN_00026464(uint param_1,...
ram:00026f88    0246            mov         r2,r0                                   
ram:00026f8a    0120            movs        r0,#0x1                                 
ram:00026f8c    0346            mov         r3,r0                                   
ram:00026f8e    0090            str         r0,[sp,#0x0]=>local_10                  
ram:00026f90    0021            movs        r1,#0x0                                 
ram:00026f92    0348            ldr         r0=>DAT_0002a528,[PTR_DAT_00026fa0]     ;= 40009000h
                                                                                    ;= 0002a528
ram:00026f94    02f0cefc        bl          FUN_00029934                            ;undefined FUN_00029934(int * param_1...
ram:00026f98    0148            ldr         r0=>DAT_0002a528,[PTR_DAT_00026fa0]     ;= 40009000h
                                                                                    ;= 0002a528
ram:00026f9a    02f0bdfc        bl          FUN_00029918                            ;undefined FUN_00029918(undefined4 * ...
ram:00026f9e    0ebd            pop         {r1,r2,r3,pc}                           
                            PTR_DAT_00026fa0:             ;XREF[5,0]:   00026f5a,00026f68,00026f74,00026f92
                                                          ;             00026f98
ram:00026fa0    28a50200        addr        DAT_0002a528                            ;= 40009000h
                            DAT_00026fa4:                 ;XREF[1,0]:   00026f5c
ram:00026fa4    d19f0200        undefined4  00029FD1h                               ;?  ->  00029fd1
                            ;************************************************************************************************
                            ;*                                           FUNCTION                                           *
                            ;************************************************************************************************
                            ;undefined FUN_00026fa8(void)
          ;local_c       undefined4          -c                      ;XREF[1,0]:   00026fb2
          ;local_10      undefined4         -10                      ;XREF[1,0]:   00026fe2
                                                          ;XREF[1,0]:   00028a5a
ram:00026fa8    0eb5            push        {r1,r2,r3,lr}                           
ram:00026faa    1349            ldr         r1,[PTR_DAT_00026ff8]                   ;= 0002a528
ram:00026fac    134a            ldr         r2=>LAB_0002a284...,[PTR_LAB_0002a284...;= 0002a285
                                                          ; FWD[2,0]:   0002a540,0002a544
ram:00026fae    d1e90601        ldrd        r0,r1,[r1,#0x18]=>DAT_0002a540          ;= 06000004h
ram:00026fb2    cde90101        strd        r0,r1,[sp,#local_c+0x10]                
ram:00026fb6    1048            ldr         r0,[PTR_DAT_00026ff8]                   ;= 0002a528
ram:00026fb8    01a9            add         r1,sp,#0x4                              
ram:00026fba    0830            adds        r0=>DAT_0002a530,#0x8                   ;= 4000A000h
ram:00026fbc    02f0d0fc        bl          FUN_00029960                            ;undefined4 FUN_00029960(int * param_...
ram:00026fc0    08b1            cbz         r0,LAB_00026fc6                         
ram:00026fc2    00f08bf8        bl          FUN_000270dc                            ;undefined FUN_000270dc(void)
                            LAB_00026fc6:                 ;XREF[1,0]:   00026fc0
ram:00026fc6    0c48            ldr         r0,[PTR_DAT_00026ff8]                   ;= 0002a528
ram:00026fc8    0830            adds        r0,#0x8                                 
ram:00026fca    0068            ldr         r0,[r0,#0x0]=>DAT_0002a530              ;= 4000A000h
ram:00026fcc    d0f81005        ldr.w       r0,[r0,#0x510]=>DAT_4000a510            
ram:00026fd0    0021            movs        r1,#0x0                                 
ram:00026fd2    c2b2            uxtb        r2,r0                                   
ram:00026fd4    42f26020        movw        r0,#0x2260                              
ram:00026fd8    fff744fa        bl          FUN_00026464                            ;ulonglong FUN_00026464(uint param_1,...
ram:00026fdc    0246            mov         r2,r0                                   
ram:00026fde    0120            movs        r0,#0x1                                 
ram:00026fe0    0146            mov         r1,r0                                   
ram:00026fe2    0090            str         r0,[sp,#0x0]=>local_10                  
ram:00026fe4    0448            ldr         r0,[PTR_DAT_00026ff8]                   ;= 0002a528
ram:00026fe6    0223            movs        r3,#0x2                                 
ram:00026fe8    0830            adds        r0=>DAT_0002a530,#0x8                   ;= 4000A000h
ram:00026fea    02f0a3fc        bl          FUN_00029934                            ;undefined FUN_00029934(int * param_1...
ram:00026fee    0248            ldr         r0,[PTR_DAT_00026ff8]                   ;= 0002a528
ram:00026ff0    0830            adds        r0=>DAT_0002a530,#0x8                   ;= 4000A000h
ram:00026ff2    02f091fc        bl          FUN_00029918                            ;undefined FUN_00029918(undefined4 * ...
ram:00026ff6    0ebd            pop         {r1,r2,r3,pc}                           
                            PTR_DAT_00026ff8:             ;XREF[5,0]:   00026faa,00026fb6,00026fc6,00026fe4
                                                          ;             00026fee
ram:00026ff8    28a50200        addr        DAT_0002a528                            ;= 40009000h
                            PTR_LAB_0002a284+1+1_00026ffc:;XREF[1,0]:   00026fac
ram:00026ffc    85a20200        addr        LAB_0002a284+1+1                        
                            ;************************************************************************************************
                            ;*                                           FUNCTION                                           *
                            ;************************************************************************************************
                            ;undefined FUNC_VT_00027000(void)
                                                          ;XREF[0,1]:   00026048
ram:00027000    0148            ldr         r0,[DAT_00027008]                       ;= 20002B28h
ram:00027002    0068            ldr         r0,[r0,#0x0]=>DAT_20002b28              
ram:00027004    0047            bx          r0                                      
ram:00027006    0000            movs        r0,r0                                   
                            DAT_00027008:                 ;XREF[1,0]:   00027000
ram:00027008    282b0020        undefined4  20002B28h                               
                            ;************************************************************************************************
                            ;*                                           FUNCTION                                           *
                            ;************************************************************************************************
                            ;undefined thunk_FUN_00027014(undefined4 * param_1, undefined4 * param_2, int param_3)
          ;param_1       undefined4 *        r0                      
          ;param_2       undefined4 *        r1                      
          ;param_3       int                 r2                      
                                                          ;XREF[2,0]:   000264dc,0002a6cc
ram:0002700c    02e0            b           FUN_00027014                            
                            LAB_0002700e:                 ;XREF[1,0]:   00027016
ram:0002700e    08c8            ldmia       param_1!,{r3}                           
ram:00027010    121f            subs        param_3,param_3,#0x4                    
ram:00027012    08c1            stmia       param_2!,{r3}                           
                            ;************************************************************************************************
                            ;*                                           FUNCTION                                           *
                            ;************************************************************************************************
                            ;undefined FUN_00027014(undefined4 * param_1, undefined4 * param_2, int param_3)
          ;param_1       undefined4 *        r0                      
          ;param_2       undefined4 *        r1                      
          ;param_3       int                 r2                      
                                                          ;XREF[1,0]:   0002700c
ram:00027014    002a            cmp         param_3,#0x0                            
ram:00027016    fad1            bne         LAB_0002700e                            
ram:00027018    7047            bx          lr                                      
ram:0002701a    7047            bx          lr                                      
ram:0002701c    0020            movs        r0,#0x0                                 
ram:0002701e    01e0            b           LAB_00027024                            
                            LAB_00027020:                 ;XREF[1,0]:   00027026
ram:00027020    01c1            stmia       r1!,{r0}                                
ram:00027022    121f            subs        r2,r2,#0x4                              
                            LAB_00027024:                 ;XREF[1,0]:   0002701e
ram:00027024    002a            cmp         r2,#0x0                                 
ram:00027026    fbd1            bne         LAB_00027020                            
ram:00027028    7047            bx          lr                                      
ram:0002702a    0000            movs        r0,r0                                   
                            ;************************************************************************************************
                            ;*                                           FUNCTION                                           *
                            ;************************************************************************************************
                            ;undefined4 FUN_0002702c(uint param_1)
          ;param_1       uint                r0                      
                                                          ;XREF[2,0]:   00029f44,00029f7c
ram:0002702c    0121            movs        r1,#0x1                                 
ram:0002702e    2028            cmp         param_1,#0x20                           
ram:00027030    03da            bge         LAB_0002703a                            
ram:00027032    8140            lsls        r1,param_1                              
ram:00027034    0548            ldr         param_1,[DAT_0002704c]                  ;= BDFF06FCh
ram:00027036    0140            ands        r1,param_1                              
ram:00027038    03e0            b           LAB_00027042                            
                            LAB_0002703a:                 ;XREF[1,0]:   00027030
ram:0002703a    4028            cmp         param_1,#0x40                           
ram:0002703c    02da            bge         LAB_00027044                            
ram:0002703e    2038            subs        param_1,#0x20                           
ram:00027040    8140            lsls        r1,param_1                              
                            LAB_00027042:                 ;XREF[1,0]:   00027038
ram:00027042    09b1            cbz         r1,LAB_00027048                         
                            LAB_00027044:                 ;XREF[1,0]:   0002703c
ram:00027044    0120            movs        param_1,#0x1                            
ram:00027046    7047            bx          lr                                      
                            LAB_00027048:                 ;XREF[1,0]:   00027042
ram:00027048    0020            movs        param_1,#0x0                            
ram:0002704a    7047            bx          lr                                      
                            DAT_0002704c:                 ;XREF[1,0]:   00027034
ram:0002704c    fc06ffbd        undefined4  BDFF06FCh                               
                            ;************************************************************************************************
                            ;*                                           FUNCTION                                           *
                            ;************************************************************************************************
                            ;undefined4 FUN_00027050(uint param_1)
          ;param_1       uint                r0                      
                                                          ;XREF[3,0]:   0002926e,000293ba,000293c2
ram:00027050    8007            lsls        param_1,param_1,#0x1e                   
ram:00027052    01d0            beq         LAB_00027058                            
ram:00027054    0020            movs        param_1,#0x0                            
ram:00027056    7047            bx          lr                                      
                            LAB_00027058:                 ;XREF[1,0]:   00027052
ram:00027058    0120            movs        param_1,#0x1                            
ram:0002705a    7047            bx          lr                                      
                            ;************************************************************************************************
                            ;*                                           FUNCTION                                           *
                            ;************************************************************************************************
                            ;undefined4 FUN_0002705c(int param_1, uint param_2, int param_3)
          ;param_1       int                 r0                      
          ;param_2       uint                r1                      
          ;param_3       int                 r2                      
                                                          ;XREF[3,0]:   0002921a,0002927a,000293ce
ram:0002705c    c368            ldr         r3,[param_1,#0xc]                       
ram:0002705e    8b42            cmp         r3,param_2                              
ram:00027060    06d8            bhi         LAB_00027070                            
ram:00027062    1144            add         param_2,param_3                         
ram:00027064    0069            ldr         param_1,[param_1,#0x10]                 
ram:00027066    491e            subs        param_2,param_2,#0x1                    
ram:00027068    8142            cmp         param_2,param_1                         
ram:0002706a    01d8            bhi         LAB_00027070                            
ram:0002706c    0120            movs        param_1,#0x1                            
ram:0002706e    7047            bx          lr                                      
                            LAB_00027070:                 ;XREF[2,0]:   00027060,0002706a
ram:00027070    0020            movs        param_1,#0x0                            
ram:00027072    7047            bx          lr                                      
                            ;************************************************************************************************
                            ;*                                           FUNCTION                                           *
                            ;************************************************************************************************
                            ;int FUN_00027074(void)
                                                          ;XREF[1,0]:   00027a1e
ram:00027074    10b5            push        {r4,lr}                                 
ram:00027076    0122            movs        r2,#0x1                                 
ram:00027078    0221            movs        r1,#0x2                                 
ram:0002707a    0020            movs        r0,#0x0                                 
ram:0002707c    00f08eff        bl          FUN_00027f9c                            ;undefined4 FUN_00027f9c(uint param_1...
ram:00027080    08b1            cbz         r0,LAB_00027086                         
ram:00027082    0728            cmp         r0,#0x7                                 
ram:00027084    10d1            bne         LAB_000270a8                            
                            LAB_00027086:                 ;XREF[1,0]:   00027080
ram:00027086    0722            movs        r2,#0x7                                 
ram:00027088    0221            movs        r1,#0x2                                 
ram:0002708a    0120            movs        r0,#0x1                                 
ram:0002708c    00f086ff        bl          FUN_00027f9c                            ;undefined4 FUN_00027f9c(uint param_1...
ram:00027090    08b1            cbz         r0,LAB_00027096                         
ram:00027092    0728            cmp         r0,#0x7                                 
ram:00027094    08d1            bne         LAB_000270a8                            
                            LAB_00027096:                 ;XREF[1,0]:   00027090
ram:00027096    0021            movs        r1,#0x0                                 
ram:00027098    0a22            movs        r2,#0xa                                 
ram:0002709a    0846            mov         r0,r1                                   
ram:0002709c    00f07eff        bl          FUN_00027f9c                            ;undefined4 FUN_00027f9c(uint param_1...
ram:000270a0    08b1            cbz         r0,LAB_000270a6                         
ram:000270a2    0728            cmp         r0,#0x7                                 
ram:000270a4    00d1            bne         LAB_000270a8                            
                            LAB_000270a6:                 ;XREF[1,0]:   000270a0
ram:000270a6    0020            movs        r0,#0x0                                 
                            LAB_000270a8:                 ;XREF[3,0]:   00027084,00027094,000270a4
ram:000270a8    10bd            pop         {r4,pc}                                 
ram:000270aa    0000            movs        r0,r0                                   
                            ;************************************************************************************************
                            ;*                                           FUNCTION                                           *
                            ;************************************************************************************************
                            ;undefined FUN_000270ac(void)
                                                          ;XREF[1,0]:   000270ec
ram:000270ac    72b6            cpsid       i                                       
ram:000270ae    0948            ldr         r0,[DAT_000270d4]                       ;= E000EDF0h
ram:000270b0    0068            ldr         r0,[r0,#0x0]=>DAT_e000edf0              
ram:000270b2    c007            lsls        r0,r0,#0x1f                             
ram:000270b4    00d0            beq         LAB_000270b8                            
ram:000270b6    00be            bkpt        0x0                                     
                            LAB_000270b8:                 ;XREF[1,0]:   000270b4
ram:000270b8    bff34f8f        dsb         0xf                                     
ram:000270bc    0548            ldr         r0,[DAT_000270d4]                       ;= E000EDF0h
ram:000270be    e438            subs        r0,#0xe4                                
ram:000270c0    0168            ldr         r1,[r0,#0x0]=>DAT_e000ed0c              
ram:000270c2    054a            ldr         r2,[DAT_000270d8]                       ;= 05FA0004h
ram:000270c4    01f4e061        and         r1,r1,#0x700                            
ram:000270c8    1143            orrs        r1,r2                                   
ram:000270ca    0160            str         r1,[r0,#0x0]=>DAT_e000ed0c              
ram:000270cc    bff34f8f        dsb         0xf                                     
                            LAB_000270d0:                 ;XREF[1,0]:   000270d2
ram:000270d0    00bf            nop                                                  
ram:000270d2    fde7            b           LAB_000270d0                            
                            DAT_000270d4:                 ;XREF[2,0]:   000270ae,000270bc
ram:000270d4    f0ed00e0        undefined4  E000EDF0h                               
                            DAT_000270d8:                 ;XREF[1,0]:   000270c2
ram:000270d8    0400fa05        undefined4  05FA0004h                               
                            ;************************************************************************************************
                            ;*                                           FUNCTION                                           *
                            ;************************************************************************************************
                            ;undefined FUN_000270dc(void)
          ;local_c       undefined4          -c                      ;XREF[1,0]:   000270e2
          ;local_10      undefined4         -10                      ;XREF[1,0]:   000270e0
                                                          ;XREF[31,0]:  00026f70,00026fc2,0002799e,000279ae
                                                          ;             000279d6,000279ec,00027bfe,0002851e
                                                          ;             000286c0,000286d4,0002891c,00028926
                                                          ;             00028930,00028942,0002894e,00028970
                                                          ;             00028996,000289ac,000289be,00028a00
                                                          ;             00028a42,00028a52,00028a6a,00029560
                                                          ;             00029654,00029ab8,00029ac2,00029ad0
                                                          ;             00029aea,00029f66,00029fba
ram:000270dc    0eb5            push        {r1,r2,r3,lr}                           
ram:000270de    0021            movs        r1,#0x0                                 
ram:000270e0    0091            str         r1,[sp,#0x0]=>local_10                  
ram:000270e2    cde90110        strd        r1,r0,[sp,#local_c+0x10]                
ram:000270e6    6a46            mov         r2,sp                                   
ram:000270e8    44f20100        movw        r0,#0x4001                              
ram:000270ec    fff7deff        bl          FUN_000270ac                            ;undefined FUN_000270ac(void)
ram:000270f0    0ebd            pop         {r1,r2,r3,pc}                           
ram:000270f2    0000            movs        r0,r0                                   
                            ;************************************************************************************************
                            ;*                                           FUNCTION                                           *
                            ;************************************************************************************************
                            ;undefined4 FUN_000270f4(int * param_1, undefined param_2, int param_3)
          ;param_1       int *               r0                      
          ;param_2       undefined           r1                      
          ;param_3       int                 r2                      
                                                          ;XREF[1,0]:   000278ae
ram:000270f4    074b            ldr         r3,[DAT_00027114]                       ;= 20003160h
ram:000270f6    9b78            ldrb        r3,[r3,#0x2]=>DAT_20003162              
ram:000270f8    23b1            cbz         r3,LAB_00027104                         
ram:000270fa    2ab1            cbz         param_3,LAB_00027108                    
ram:000270fc    20b1            cbz         param_1,LAB_00027108                    
ram:000270fe    0068            ldr         param_1,[param_1,#0x0]                  
ram:00027100    037c            ldrb        r3,[param_1,#0x10]                      
ram:00027102    1bb1            cbz         r3,LAB_0002710c                         
                            LAB_00027104:                 ;XREF[1,0]:   000270f8
ram:00027104    0820            movs        param_1,#0x8                            
ram:00027106    7047            bx          lr                                      
                            LAB_00027108:                 ;XREF[2,0]:   000270fa,000270fc
ram:00027108    0720            movs        param_1,#0x7                            
ram:0002710a    7047            bx          lr                                      
                            LAB_0002710c:                 ;XREF[1,0]:   00027102
ram:0002710c    4174            strb        param_2,[param_1,#0x11]                 
ram:0002710e    4261            str         param_3,[param_1,#0x14]                 
ram:00027110    0020            movs        param_1,#0x0                            
ram:00027112    7047            bx          lr                                      
                            DAT_00027114:                 ;XREF[1,0]:   000270f4
ram:00027114    60310020        undefined4  20003160h                               
                            ;************************************************************************************************
                            ;*                                           FUNCTION                                           *
                            ;************************************************************************************************
                            ;undefined4 FUN_00027118(void)
                                                          ;XREF[1,0]:   00028916
ram:00027118    70b5            push        {r4,r5,r6,lr}                           
ram:0002711a    02f0e1fd        bl          FUN_00029ce0                            ;undefined FUN_00029ce0(void)
ram:0002711e    1048            ldr         r0,[DAT_00027160]                       ;= 20003160h
ram:00027120    0024            movs        r4,#0x0                                 
ram:00027122    0b21            movs        r1,#0xb                                 
ram:00027124    0470            strb        r4,[r0,#0x0]=>DAT_20003160              
ram:00027126    4470            strb        r4,[r0,#0x1]=>DAT_20003161              
ram:00027128    0e4d            ldr         r5,[DAT_00027164]                       ;= 20002B30h
ram:0002712a    8170            strb        r1,[r0,#0x2]=>DAT_20003162              
ram:0002712c    1420            movs        r0,#0x14                                
ram:0002712e    6c60            str         r4,[r5,#0x4]=>DAT_20002b34              
ram:00027130    2c70            strb        r4,[r5,#0x0]=>DAT_20002b30              
ram:00027132    6c70            strb        r4,[r5,#0x1]=>DAT_20002b31              
ram:00027134    fff76cfc        bl          FUN_00026a10                            ;undefined FUN_00026a10(uint param_1)
ram:00027138    0621            movs        r1,#0x6                                 
ram:0002713a    1420            movs        r0,#0x14                                
ram:0002713c    fff789fc        bl          FUN_00026a52                            ;undefined FUN_00026a52(uint param_1,...
ram:00027140    1420            movs        r0,#0x14                                
ram:00027142    fff770fc        bl          FUN_00026a26                            ;undefined FUN_00026a26(uint param_1)
ram:00027146    0848            ldr         r0,[DAT_00027168]                       ;= 40011508h
ram:00027148    0460            str         r4,[r0,#0x0]=>DAT_40011508              
ram:0002714a    0621            movs        r1,#0x6                                 
ram:0002714c    1120            movs        r0,#0x11                                
ram:0002714e    fff780fc        bl          FUN_00026a52                            ;undefined FUN_00026a52(uint param_1,...
ram:00027152    0548            ldr         r0,[DAT_00027168]                       ;= 40011508h
ram:00027154    001f            subs        r0,r0,#0x4                              
ram:00027156    0068            ldr         r0,[r0,#0x0]=>DAT_40011504              
ram:00027158    a860            str         r0,[r5,#0x8]=>DAT_20002b38              
ram:0002715a    0020            movs        r0,#0x0                                 
ram:0002715c    70bd            pop         {r4,r5,r6,pc}                           
ram:0002715e    0000            movs        r0,r0                                   
                            DAT_00027160:                 ;XREF[1,0]:   0002711e
ram:00027160    60310020        undefined4  20003160h                               
                            DAT_00027164:                 ;XREF[1,0]:   00027128
ram:00027164    302b0020        undefined4  20002B30h                               
                            DAT_00027168:                 ;XREF[2,0]:   00027146,00027152
ram:00027168    08150140        undefined4  40011508h                               
                            ;************************************************************************************************
                            ;*                                           FUNCTION                                           *
                            ;************************************************************************************************
                            ;undefined4 FUN_0002716c(int param_1, uint param_2, uint param_3, undefined4 param_4)
          ;param_1       int                 r0                      
          ;param_2       uint                r1                      
          ;param_3       uint                r2                      
          ;param_4       undefined4          r3                      
          ;local_24      undefined1         -24                      ;XREF[1,0]:   000271be
          ;local_28      undefined1         -28                      ;XREF[3,0]:   0002719a,000271c6,000271e2
                                                          ;XREF[4,0]:   00027f64,000280f0,00028176,00028554
ram:0002716c    2de9fc47        push        {param_3,param_4,r4,r5,r6,r7,r8,r9,r1...
ram:00027170    dff87890        ldr.w       r9,[DAT_000271ec]                       ;= 20003160h
ram:00027174    99f80230        ldrb.w      param_4,[r9,#0x2]=>DAT_20003162         
ram:00027178    73b3            cbz         param_4,LAB_000271d8                    
ram:0002717a    68b3            cbz         param_1,LAB_000271d8                    
ram:0002717c    0529            cmp         param_2,#0x5                            
ram:0002717e    02d2            bcs         LAB_00027186                            
ram:00027180    0720            movs        param_1,#0x7                            
                            LAB_00027182:                 ;XREF[2,0]:   000271d6,000271da
ram:00027182    bde8fc87        pop.w       {param_3,param_4,r4,r5,r6,r7,r8,r9,r1...
                            LAB_00027186:                 ;XREF[1,0]:   0002717e
ram:00027186    4369            ldr         param_4,[param_1,#0x14]                 
ram:00027188    33b3            cbz         param_4,LAB_000271d8                    
ram:0002718a    437c            ldrb        param_4,[param_1,#0x11]                 
ram:0002718c    012b            cmp         param_4,#0x1                            
ram:0002718e    25d0            beq         LAB_000271dc                            
ram:00027190    0027            movs        r7,#0x0                                 
                            LAB_00027192:                 ;XREF[1,0]:   000271de
ram:00027192    0446            mov         r4,param_1                              
ram:00027194    0025            movs        r5,#0x0                                 
ram:00027196    8846            mov         r8,param_2                              
ram:00027198    1646            mov         r6,param_3                              
ram:0002719a    8df80050        strb.w      r5,[sp,#0x0]=>local_28                  
ram:0002719e    6846            mov         param_1,sp                              
ram:000271a0    00f038f8        bl          FUN_00027214                            ;undefined FUN_00027214(undefined * p...
ram:000271a4    01a8            add         param_1,sp,#0x4                         
ram:000271a6    03f0f3f8        bl          FUN_0002a390                            ;char * FUN_0002a390(char * param_1)
ram:000271aa    c8b1            cbz         param_1,LAB_000271e0                    
ram:000271ac    0121            movs        param_2,#0x1                            
ram:000271ae    0170            strb        param_2,[param_1,#0x0]                  
ram:000271b0    0f49            ldr         param_2,[DAT_000271f0]                  ;= 40011504h
ram:000271b2    4460            str         r4,[param_1,#0x4]                       
ram:000271b4    0968            ldr         param_2,[param_2,#0x0]=>DAT_40011504    
ram:000271b6    c0e90218        strd        param_2,r8,[param_1,#0x8]               
ram:000271ba    c0e90476        strd        r7,r6,[param_1,#0x10]                   
ram:000271be    9df80400        ldrb.w      param_1,[sp,#local_24+0x28]             
ram:000271c2    89f80100        strb.w      param_1,[r9,#0x1]=>DAT_20003161         
ram:000271c6    9df80000        ldrb.w      param_1,[sp,#0x0]=>local_28             
ram:000271ca    00f047f8        bl          FUN_0002725c                            ;undefined FUN_0002725c(int param_1)
ram:000271ce    1420            movs        param_1,#0x14                           
ram:000271d0    fff734fc        bl          FUN_00026a3c                            ;undefined FUN_00026a3c(uint param_1)
                            LAB_000271d4:                 ;XREF[1,0]:   000271ea
ram:000271d4    2846            mov         param_1,r5                              
ram:000271d6    d4e7            b           LAB_00027182                            
                            LAB_000271d8:                 ;XREF[3,0]:   00027178,0002717a,00027188
ram:000271d8    0820            movs        param_1,#0x8                            
ram:000271da    d2e7            b           LAB_00027182                            
                            LAB_000271dc:                 ;XREF[1,0]:   0002718e
ram:000271dc    0f46            mov         r7,param_2                              
ram:000271de    d8e7            b           LAB_00027192                            
                            LAB_000271e0:                 ;XREF[1,0]:   000271aa
ram:000271e0    0425            movs        r5,#0x4                                 
ram:000271e2    9df80000        ldrb.w      param_1,[sp,#0x0]=>local_28             
ram:000271e6    00f039f8        bl          FUN_0002725c                            ;undefined FUN_0002725c(int param_1)
ram:000271ea    f3e7            b           LAB_000271d4                            
                            DAT_000271ec:                 ;XREF[1,0]:   00027170
ram:000271ec    60310020        undefined4  20003160h                               
                            DAT_000271f0:                 ;XREF[1,0]:   000271b0
ram:000271f0    04150140        undefined4  40011504h                               
                            ;************************************************************************************************
                            ;*                                           FUNCTION                                           *
                            ;************************************************************************************************
                            ;undefined4 FUN_000271f4(int param_1, undefined4 param_2, uint param_3, undefined4 param_4)
          ;param_1       int                 r0                      
          ;param_2       undefined4          r1                      
          ;param_3       uint                r2                      
          ;param_4       undefined4          r3                      
          ;local_14      undefined1         -14                      ;XREF[1,0]:   0002a1e8
          ;local_18      undefined1         -18                      ;XREF[3,0]:   0002a1d0,0002a1ee,0002a202
                                                          ;XREF[5,0]:   00027b1a,00027b2e,00027f78,00028044
                                                          ;             00028130
ram:000271f4    0649            ldr         param_2,[DAT_00027210]                  ;= 20003160h
ram:000271f6    8978            ldrb        param_2,[param_2,#0x2]=>DAT_20003162    
ram:000271f8    39b1            cbz         param_2,LAB_0002720a                    
ram:000271fa    30b1            cbz         param_1,LAB_0002720a                    
ram:000271fc    4169            ldr         param_2,[param_1,#0x14]                 
ram:000271fe    21b1            cbz         param_2,LAB_0002720a                    
ram:00027200    0021            movs        param_2,#0x0                            
ram:00027202    0174            strb        param_2,[param_1,#0x10]                 
ram:00027204    0221            movs        param_2,#0x2                            
ram:00027206    02f0dfbf        b.w         LAB_0002a1c8                            
                            LAB_0002720a:                 ;XREF[3,0]:   000271f8,000271fa,000271fe
ram:0002720a    0820            movs        param_1,#0x8                            
ram:0002720c    7047            bx          lr                                      
ram:0002720e    0000            movs        r0,r0                                   
                            DAT_00027210:                 ;XREF[1,0]:   000271f4
ram:00027210    60310020        undefined4  20003160h                               
                            ;************************************************************************************************
                            ;*                                           FUNCTION                                           *
                            ;************************************************************************************************
                            ;undefined FUN_00027214(undefined * param_1)
          ;param_1       undefined *         r0                      
                                                          ;XREF[7,0]:   000271a0,000291d2,00029526,000296aa
                                                          ;             0002970a,00029d48,0002a1d6
ram:00027214    30b5            push        {r4,r5,lr}                              
ram:00027216    eff31081        mrs         r1,primask                              
ram:0002721a    72b6            cpsid       i                                       
ram:0002721c    0d4a            ldr         r2,[DAT_00027254]                       ;= 2000326Ch
ram:0002721e    9468            ldr         r4,[r2,#0x8]=>DAT_20003274              
ram:00027220    0123            movs        r3,#0x1                                 
ram:00027222    24b1            cbz         r4,LAB_0002722e                         
ram:00027224    0370            strb        r3,[param_1,#0x0]                       
                            LAB_00027226:                 ;XREF[1,0]:   00027252
ram:00027226    0029            cmp         r1,#0x0                                 
ram:00027228    00d1            bne         LAB_0002722c                            
ram:0002722a    62b6            cpsie       i                                       
                            LAB_0002722c:                 ;XREF[1,0]:   00027228
ram:0002722c    30bd            pop         {r4,r5,pc}                              
                            LAB_0002722e:                 ;XREF[1,0]:   00027222
ram:0002722e    9360            str         r3,[r2,#0x8]=>DAT_20003274              
ram:00027230    4ff0e023        mov.w       r3,#0xe000e000                          
ram:00027234    d3f88051        ldr.w       r5,[r3,#0x180]=>DAT_e000e180            
ram:00027238    074c            ldr         r4,[DAT_00027258]                       ;= BDFF06FCh
ram:0002723a    2540            ands        r5,r4                                   
ram:0002723c    1560            str         r5,[r2,#0x0]=>DAT_2000326c              
ram:0002723e    c3f88041        str.w       r4,[r3,#0x180]=>DAT_e000e180            
ram:00027242    d3f88441        ldr.w       r4,[r3,#0x184]=>DAT_e000e184            
ram:00027246    5460            str         r4,[r2,#0x4]=>DAT_20003270              
ram:00027248    5a17            asrs        r2,r3,#0x1d                             
ram:0002724a    c3f88421        str.w       r2,[r3,#0x184]=>DAT_e000e184            
ram:0002724e    0022            movs        r2,#0x0                                 
ram:00027250    0270            strb        r2,[param_1,#0x0]                       
ram:00027252    e8e7            b           LAB_00027226                            
                            DAT_00027254:                 ;XREF[1,0]:   0002721c
ram:00027254    6c320020        undefined4  2000326Ch                               
                            DAT_00027258:                 ;XREF[1,0]:   00027238
ram:00027258    fc06ffbd        undefined4  BDFF06FCh                               
                            ;************************************************************************************************
                            ;*                                           FUNCTION                                           *
                            ;************************************************************************************************
                            ;undefined FUN_0002725c(int param_1)
          ;param_1       int                 r0                      
                                                          ;XREF[9,0]:   000271ca,000271e6,000291ec,00029546
                                                          ;             000296b8,00029720,00029d62,0002a1f2
                                                          ;             0002a206
ram:0002725c    0b49            ldr         r1,[DAT_0002728c]                       ;= 2000326Ch
ram:0002725e    8a68            ldr         r2,[r1,#0x8]=>DAT_20003274              
ram:00027260    002a            cmp         r2,#0x0                                 
ram:00027262    11d0            beq         LAB_00027288                            
ram:00027264    0028            cmp         param_1,#0x0                            
ram:00027266    0fd1            bne         LAB_00027288                            
ram:00027268    eff31080        mrs         param_1,primask                         
ram:0002726c    72b6            cpsid       i                                       
ram:0002726e    0b68            ldr         r3,[r1,#0x0]=>DAT_2000326c              
ram:00027270    4ff0e022        mov.w       r2,#0xe000e000                          
ram:00027274    c2f80031        str.w       r3,[r2,#0x100]=>DAT_e000e100            
ram:00027278    4b68            ldr         r3,[r1,#0x4]=>DAT_20003270              
ram:0002727a    c2f80431        str.w       r3,[r2,#0x104]=>DAT_e000e104            
ram:0002727e    0022            movs        r2,#0x0                                 
ram:00027280    8a60            str         r2,[r1,#0x8]=>DAT_20003274              
ram:00027282    0028            cmp         param_1,#0x0                            
ram:00027284    00d1            bne         LAB_00027288                            
ram:00027286    62b6            cpsie       i                                       
                            LAB_00027288:                 ;XREF[3,0]:   00027262,00027266,00027284
ram:00027288    7047            bx          lr                                      
ram:0002728a    0000            movs        r0,r0                                   
                            DAT_0002728c:                 ;XREF[1,0]:   0002725c
ram:0002728c    6c320020        undefined4  2000326Ch                               
                            ;************************************************************************************************
                            ;*                                           FUNCTION                                           *
                            ;************************************************************************************************
                            ;undefined4 FUN_00027290(int * param_1, uint param_2, int * param_3)
          ;param_1       int *               r0                      
          ;param_2       uint                r1                      
          ;param_3       int *               r2                      
                                                          ;XREF[4,0]:   00027c8c,00027de2,00029b06,00029b6e
ram:00027290    70b5            push        {r4,r5,r6,lr}                           
ram:00027292    1500            movs        r5,param_3                              
ram:00027294    0446            mov         r4,param_1                              
ram:00027296    09d0            beq         LAB_000272ac                            
ram:00027298    0020            movs        param_1,#0x0                            
ram:0002729a    2860            str         param_1,[r5,#0x0]                       
ram:0002729c    34b1            cbz         r4,LAB_000272ac                         
ram:0002729e    2068            ldr         param_1,[r4,#0x0]                       
ram:000272a0    20b1            cbz         param_1,LAB_000272ac                    
ram:000272a2    a079            ldrb        param_1,[r4,#0x6]                       
ram:000272a4    8007            lsls        param_1,param_1,#0x1e                   
ram:000272a6    03d0            beq         LAB_000272b0                            
ram:000272a8    0720            movs        param_1,#0x7                            
ram:000272aa    70bd            pop         {r4,r5,r6,pc}                           
                            LAB_000272ac:                 ;XREF[3,0]:   00027296,0002729c,000272a0
ram:000272ac    0e20            movs        param_1,#0xe                            
ram:000272ae    70bd            pop         {r4,r5,r6,pc}                           
                            LAB_000272b0:                 ;XREF[1,0]:   000272a6
ram:000272b0    0846            mov         param_1,param_2                         
ram:000272b2    00f009fb        bl          FUN_000278c8                            ;uint FUN_000278c8(uint param_1)
ram:000272b6    c0b2            uxtb        param_1,param_1                         
ram:000272b8    1428            cmp         param_1,#0x14                           
ram:000272ba    04d0            beq         LAB_000272c6                            
ram:000272bc    2179            ldrb        param_2,[r4,#0x4]                       
ram:000272be    8142            cmp         param_2,param_1                         
ram:000272c0    03d8            bhi         LAB_000272ca                            
ram:000272c2    0420            movs        param_1,#0x4                            
ram:000272c4    70bd            pop         {r4,r5,r6,pc}                           
                            LAB_000272c6:                 ;XREF[1,0]:   000272ba
ram:000272c6    0520            movs        param_1,#0x5                            
ram:000272c8    70bd            pop         {r4,r5,r6,pc}                           
                            LAB_000272ca:                 ;XREF[1,0]:   000272c0
ram:000272ca    e288            ldrh        param_3,[r4,#0x6]                       
ram:000272cc    2168            ldr         param_2,[r4,#0x0]                       
ram:000272ce    00fb0210        mla         param_1,param_1,param_3,param_2         
ram:000272d2    2860            str         param_1,[r5,#0x0]                       
ram:000272d4    0020            movs        param_1,#0x0                            
ram:000272d6    70bd            pop         {r4,r5,r6,pc}                           
                            ;************************************************************************************************
                            ;*                                           FUNCTION                                           *
                            ;************************************************************************************************
                            ;byte * FUN_000272d8(byte * param_1, int param_2, ushort * param_3, undefined4 param_4)
          ;param_1       byte *              r0                      
          ;param_2       int                 r1                      
          ;param_3       ushort *            r2                      
          ;param_4       undefined4          r3                      
          ;local_28      undefined4         -28                      ;XREF[4,0]:   0002733e,000273be,000273d8,000273f2
                                                          ;XREF[2,0]:   0002755e,00027584
ram:000272d8    2de9fc47        push        {param_3,param_4,r4,r5,r6,r7,r8,r9,r1...
ram:000272dc    0025            movs        r5,#0x0                                 
ram:000272de    1788            ldrh        r7,[param_3,#0x0]                       
ram:000272e0    0646            mov         r6,param_1                              
ram:000272e2    1580            strh        r5,[param_3,#0x0]                       
ram:000272e4    90f82d00        ldrb.w      param_1,[param_1,#0x2d]                 
ram:000272e8    1446            mov         r4,param_3                              
ram:000272ea    8946            mov         r9,param_2                              
ram:000272ec    30b1            cbz         param_1,LAB_000272fc                    
ram:000272ee    3a46            mov         param_3,r7                              
ram:000272f0    2146            mov         param_2,r4                              
ram:000272f2    4846            mov         param_1,r9                              
ram:000272f4    00f0fcfa        bl          FUN_000278f0                            ;byte * FUN_000278f0(int param_1, ush...
ram:000272f8    051e            subs        r5,param_1,#0x0                         
ram:000272fa    09d1            bne         LAB_00027310                            
                            LAB_000272fc:                 ;XREF[1,0]:   000272ec
ram:000272fc    b078            ldrb        param_1,[r6,#0x2]                       
ram:000272fe    4ff00c0a        mov.w       r10,#0xc                                
ram:00027302    18b3            cbz         param_1,LAB_0002734c                    
ram:00027304    2088            ldrh        param_1,[r4,#0x0]                       
ram:00027306    c846            mov         r8,r9                                   
ram:00027308    001d            adds        param_1,param_1,#0x4                    
ram:0002730a    b842            cmp         param_1,r7                              
ram:0002730c    02d9            bls         LAB_00027314                            
                            LAB_0002730e:                 ;XREF[2,0]:   00027360,00027398
ram:0002730e    5046            mov         param_1,r10                             
                            LAB_00027310:                 ;XREF[6,0]:   000272fa,0002731a,000273d2,000273ec
                                                          ;             00027406,00027458
ram:00027310    bde8fc87        pop.w       {param_3,param_4,r4,r5,r6,r7,r8,r9,r1...
                            LAB_00027314:                 ;XREF[1,0]:   0002730c
ram:00027314    6846            mov         param_1,sp                              
ram:00027316    79df            svc         0x79                                    
ram:00027318    0028            cmp         param_1,#0x0                            
ram:0002731a    f9d1            bne         LAB_00027310                            
ram:0002731c    2088            ldrh        param_1,[r4,#0x0]                       
ram:0002731e    0321            movs        param_2,#0x3                            
ram:00027320    08f80010        strb.w      param_2,r8,param_1,0x0                  
ram:00027324    2088            ldrh        param_1,[r4,#0x0]                       
ram:00027326    1921            movs        param_2,#0x19                           
ram:00027328    401c            adds        param_1,param_1,#0x1                    
ram:0002732a    80b2            uxth        param_1,param_1                         
ram:0002732c    2080            strh        param_1,[r4,#0x0]                       
ram:0002732e    08f80010        strb.w      param_2,r8,param_1,0x0                  
ram:00027332    2088            ldrh        param_1,[r4,#0x0]                       
ram:00027334    401c            adds        param_1,param_1,#0x1                    
ram:00027336    80b2            uxth        param_1,param_1                         
ram:00027338    2080            strh        param_1,[r4,#0x0]                       
ram:0002733a    00eb0801        add.w       param_2,param_1,r8                      
ram:0002733e    bdf80000        ldrh.w      param_1,[sp,#0x0]=>local_28             
ram:00027342    02f0bdff        bl          FUN_0002a2c0                            ;undefined4 FUN_0002a2c0(undefined4 p...
ram:00027346    2188            ldrh        param_2,[r4,#0x0]                       
ram:00027348    0844            add         param_1,param_2                         
ram:0002734a    2080            strh        param_1,[r4,#0x0]                       
                            LAB_0002734c:                 ;XREF[1,0]:   00027302
ram:0002734c    f078            ldrb        param_1,[r6,#0x3]                       
ram:0002734e    0222            movs        param_3,#0x2                            
ram:00027350    c8b1            cbz         param_1,LAB_00027386                    
ram:00027352    2188            ldrh        param_2,[r4,#0x0]                       
ram:00027354    96f90330        ldrsb.w     param_4,[r6,#0x3]                       
ram:00027358    01f1030c        add.w       r12,param_2,#0x3                        
ram:0002735c    4846            mov         param_1,r9                              
ram:0002735e    bc45            cmp         r12,r7                                  
ram:00027360    d5d8            bhi         LAB_0002730e                            
ram:00027362    4254            strb        param_3,[param_1,param_2]               
ram:00027364    2188            ldrh        param_2,[r4,#0x0]                       
ram:00027366    4ff0010c        mov.w       r12,#0x1                                
ram:0002736a    491c            adds        param_2,param_2,#0x1                    
ram:0002736c    89b2            uxth        param_2,param_2                         
ram:0002736e    2180            strh        param_2,[r4,#0x0]                       
ram:00027370    00f801c0        strb.w      r12,param_1,param_2,0x0                 
ram:00027374    2188            ldrh        param_2,[r4,#0x0]                       
ram:00027376    491c            adds        param_2,param_2,#0x1                    
ram:00027378    89b2            uxth        param_2,param_2                         
ram:0002737a    2180            strh        param_2,[r4,#0x0]                       
ram:0002737c    09f80130        strb.w      param_4,r9,param_2,0x0                  
ram:00027380    2088            ldrh        param_1,[r4,#0x0]                       
ram:00027382    401c            adds        param_1,param_1,#0x1                    
ram:00027384    2080            strh        param_1,[r4,#0x0]                       
                            LAB_00027386:                 ;XREF[1,0]:   00027350
ram:00027386    7068            ldr         param_1,[r6,#0x4]                       
ram:00027388    b8b1            cbz         param_1,LAB_000273ba                    
ram:0002738a    2188            ldrh        param_2,[r4,#0x0]                       
ram:0002738c    90f90030        ldrsb.w     param_4,[param_1,#0x0]                  
ram:00027390    01f1030c        add.w       r12,param_2,#0x3                        
ram:00027394    4846            mov         param_1,r9                              
ram:00027396    bc45            cmp         r12,r7                                  
ram:00027398    b9d8            bhi         LAB_0002730e                            
ram:0002739a    4254            strb        param_3,[param_1,param_2]               
ram:0002739c    2188            ldrh        param_2,[r4,#0x0]                       
ram:0002739e    0a22            movs        param_3,#0xa                            
ram:000273a0    491c            adds        param_2,param_2,#0x1                    
ram:000273a2    89b2            uxth        param_2,param_2                         
ram:000273a4    2180            strh        param_2,[r4,#0x0]                       
ram:000273a6    4254            strb        param_3,[param_1,param_2]               
ram:000273a8    2188            ldrh        param_2,[r4,#0x0]                       
ram:000273aa    491c            adds        param_2,param_2,#0x1                    
ram:000273ac    89b2            uxth        param_2,param_2                         
ram:000273ae    2180            strh        param_2,[r4,#0x0]                       
ram:000273b0    09f80130        strb.w      param_4,r9,param_2,0x0                  
ram:000273b4    2088            ldrh        param_1,[r4,#0x0]                       
ram:000273b6    401c            adds        param_1,param_1,#0x1                    
ram:000273b8    2080            strh        param_1,[r4,#0x0]                       
                            LAB_000273ba:                 ;XREF[1,0]:   00027388
ram:000273ba    3089            ldrh        param_1,[r6,#0x8]                       
ram:000273bc    50b1            cbz         param_1,LAB_000273d4                    
ram:000273be    cde90047        strd        r4,r7,[sp,#0x0]=>local_28               
ram:000273c2    4b46            mov         param_4,r9                              
ram:000273c4    0622            movs        param_3,#0x6                            
ram:000273c6    0221            movs        param_2,#0x2                            
ram:000273c8    06f10800        add.w       param_1,r6,#0x8                         
ram:000273cc    02f0f8ff        bl          FUN_0002a3c0                            ;undefined8 FUN_0002a3c0(ushort * par...
ram:000273d0    051e            subs        r5,param_1,#0x0                         
                            LAB_000273d2:                 ;XREF[4,0]:   00027418,0002742a,00027440,00027454
ram:000273d2    9dd1            bne         LAB_00027310                            
                            LAB_000273d4:                 ;XREF[1,0]:   000273bc
ram:000273d4    308a            ldrh        param_1,[r6,#0x10]                      
ram:000273d6    50b1            cbz         param_1,LAB_000273ee                    
ram:000273d8    cde90047        strd        r4,r7,[sp,#0x0]=>local_28               
ram:000273dc    4b46            mov         param_4,r9                              
ram:000273de    0722            movs        param_3,#0x7                            
ram:000273e0    0321            movs        param_2,#0x3                            
ram:000273e2    06f11000        add.w       param_1,r6,#0x10                        
ram:000273e6    02f0ebff        bl          FUN_0002a3c0                            ;undefined8 FUN_0002a3c0(ushort * par...
ram:000273ea    051e            subs        r5,param_1,#0x0                         
ram:000273ec    90d1            bne         LAB_00027310                            
                            LAB_000273ee:                 ;XREF[1,0]:   000273d6
ram:000273ee    308b            ldrh        param_1,[r6,#0x18]                      
ram:000273f0    50b1            cbz         param_1,LAB_00027408                    
ram:000273f2    cde90047        strd        r4,r7,[sp,#0x0]=>local_28               
ram:000273f6    4b46            mov         param_4,r9                              
ram:000273f8    1522            movs        param_3,#0x15                           
ram:000273fa    1421            movs        param_2,#0x14                           
ram:000273fc    06f11800        add.w       param_1,r6,#0x18                        
ram:00027400    02f0deff        bl          FUN_0002a3c0                            ;undefined8 FUN_0002a3c0(ushort * par...
ram:00027404    051e            subs        r5,param_1,#0x0                         
ram:00027406    83d1            bne         LAB_00027310                            
                            LAB_00027408:                 ;XREF[1,0]:   000273f0
ram:00027408    306a            ldr         param_1,[r6,#0x20]                      
ram:0002740a    30b1            cbz         param_1,LAB_0002741a                    
ram:0002740c    3b46            mov         param_4,r7                              
ram:0002740e    2246            mov         param_3,r4                              
ram:00027410    4946            mov         param_2,r9                              
ram:00027412    01f040f8        bl          FUN_00028496                            ;undefined4 FUN_00028496(ushort * par...
ram:00027416    051e            subs        r5,param_1,#0x0                         
ram:00027418    dbd1            bne         LAB_000273d2                            
                            LAB_0002741a:                 ;XREF[1,0]:   0002740a
ram:0002741a    706a            ldr         param_1,[r6,#0x24]                      
ram:0002741c    30b1            cbz         param_1,LAB_0002742c                    
ram:0002741e    3b46            mov         param_4,r7                              
ram:00027420    2246            mov         param_3,r4                              
ram:00027422    4946            mov         param_2,r9                              
ram:00027424    01f042fc        bl          FUN_00028cac                            ;undefined4 FUN_00028cac(ushort * par...
ram:00027428    051e            subs        r5,param_1,#0x0                         
ram:0002742a    d2d1            bne         LAB_000273d2                            
                            LAB_0002742c:                 ;XREF[1,0]:   0002741c
ram:0002742c    96f82c00        ldrb.w      param_1,[r6,#0x2c]                      
ram:00027430    38b1            cbz         param_1,LAB_00027442                    
ram:00027432    3b46            mov         param_4,r7                              
ram:00027434    2246            mov         param_3,r4                              
ram:00027436    4946            mov         param_2,r9                              
ram:00027438    3046            mov         param_1,r6                              
ram:0002743a    02f019fd        bl          FUN_00029e70                            ;undefined4 FUN_00029e70(int param_1,...
ram:0002743e    051e            subs        r5,param_1,#0x0                         
ram:00027440    c7d1            bne         LAB_000273d2                            
                            LAB_00027442:                 ;XREF[1,0]:   00027430
ram:00027442    3078            ldrb        param_1,[r6,#0x0]                       
ram:00027444    38b1            cbz         param_1,LAB_00027456                    
ram:00027446    3b46            mov         param_4,r7                              
ram:00027448    2246            mov         param_3,r4                              
ram:0002744a    4946            mov         param_2,r9                              
ram:0002744c    3046            mov         param_1,r6                              
ram:0002744e    01f05ffc        bl          FUN_00028d10                            ;longlong FUN_00028d10(byte * param_1...
ram:00027452    051e            subs        r5,param_1,#0x0                         
ram:00027454    bdd1            bne         LAB_000273d2                            
                            LAB_00027456:                 ;XREF[1,0]:   00027444
ram:00027456    2846            mov         param_1,r5                              
ram:00027458    5ae7            b           LAB_00027310                            
                            ;************************************************************************************************
                            ;*                                           FUNCTION                                           *
                            ;************************************************************************************************
                            ;int FUN_0002745a(int param_1, uint param_2, uint param_3, uint param_4)
          ;param_1       int                 r0                      
          ;param_2       uint                r1                      
          ;param_3       uint                r2                      
          ;param_4       uint                r3                      
          ;local_c       undefined2          -c                      ;XREF[2,0]:   00027460,00027472
                                                          ;XREF[1,0]:   0002867c
ram:0002745a    18b5            push        {param_4,r4,lr}                         
ram:0002745c    0446            mov         r4,param_1                              
ram:0002745e    0020            movs        param_1,#0x0                            
ram:00027460    adf80000        strh.w      param_1,[sp,#0x0]=>local_c              
ram:00027464    1346            mov         param_4,param_3                         
ram:00027466    6a46            mov         param_3,sp                              
ram:00027468    2046            mov         param_1,r4                              
ram:0002746a    00f006f8        bl          FUN_0002747a                            ;short FUN_0002747a(int param_1, uint...
ram:0002746e    0028            cmp         param_1,#0x0                            
ram:00027470    02d0            beq         LAB_00027478                            
ram:00027472    bdf80000        ldrh.w      param_1,[sp,#0x0]=>local_c              
ram:00027476    2044            add         param_1,r4                              
                            LAB_00027478:                 ;XREF[1,0]:   00027470
ram:00027478    18bd            pop         {param_4,r4,pc}                         
                            ;************************************************************************************************
                            ;*                                           FUNCTION                                           *
                            ;************************************************************************************************
                            ;short FUN_0002747a(int param_1, uint param_2, ushort * param_3, uint param_4)
          ;param_1       int                 r0                      
          ;param_2       uint                r1                      
          ;param_3       ushort *            r2                      
          ;param_4       uint                r3                      
                                                          ;XREF[1,0]:   0002746a
ram:0002747a    70b5            push        {r4,r5,r6,lr}                           
ram:0002747c    88b1            cbz         param_1,LAB_000274a2                    
ram:0002747e    82b1            cbz         param_3,LAB_000274a2                    
ram:00027480    0024            movs        r4,#0x0                                 
ram:00027482    1588            ldrh        r5,[param_3,#0x0]                       
ram:00027484    03e0            b           LAB_0002748e                            
                            LAB_00027486:                 ;XREF[1,0]:   0002749c
ram:00027486    065d            ldrb        r6,[param_1,r4]                         
ram:00027488    641c            adds        r4,r4,#0x1                              
ram:0002748a    3444            add         r4,r6                                   
ram:0002748c    a4b2            uxth        r4,r4                                   
                            LAB_0002748e:                 ;XREF[1,0]:   00027484
ram:0002748e    a542            cmp         r5,r4                                   
ram:00027490    03d8            bhi         LAB_0002749a                            
ram:00027492    0619            adds        r6,param_1,r4                           
ram:00027494    7678            ldrb        r6,[r6,#0x1]                            
ram:00027496    9e42            cmp         r6,param_4                              
ram:00027498    01d0            beq         LAB_0002749e                            
                            LAB_0002749a:                 ;XREF[1,0]:   00027490
ram:0002749a    8c42            cmp         r4,param_2                              
ram:0002749c    f3d3            bcc         LAB_00027486                            
                            LAB_0002749e:                 ;XREF[1,0]:   00027498
ram:0002749e    8c42            cmp         r4,param_2                              
ram:000274a0    01d3            bcc         LAB_000274a6                            
                            LAB_000274a2:                 ;XREF[2,0]:   0002747c,0002747e
ram:000274a2    0020            movs        param_1,#0x0                            
ram:000274a4    70bd            pop         {r4,r5,r6,pc}                           
                            LAB_000274a6:                 ;XREF[1,0]:   000274a0
ram:000274a6    a11c            adds        param_2,r4,#0x2                         
ram:000274a8    1180            strh        param_2,[param_3,#0x0]                  
ram:000274aa    005d            ldrb        param_1,[param_1,r4]                    
ram:000274ac    401e            subs        param_1,param_1,#0x1                    
ram:000274ae    80b2            uxth        param_1,param_1                         
ram:000274b0    70bd            pop         {r4,r5,r6,pc}                           
                            ;************************************************************************************************
                            ;*                                           FUNCTION                                           *
                            ;************************************************************************************************
                            ;undefined FUN_000274b2(int param_1, undefined param_2)
          ;param_1       int                 r0                      
          ;param_2       undefined           r1                      
                                                          ;XREF[1,0]:   00028a0a
ram:000274b2    80f83010        strb.w      param_2,[param_1,#0x30]                 
ram:000274b6    7047            bx          lr                                      
                            ;************************************************************************************************
                            ;*                                           FUNCTION                                           *
                            ;************************************************************************************************
                            ;byte * FUN_000274b8(char * param_1, byte * param_2, undefined4 param_3, undefined4 param_4)
          ;param_1       char *              r0                      
          ;param_2       byte *              r1                      
          ;param_3       undefined4          r2                      
          ;param_4       undefined4          r3                      
                                                          ;XREF[1,0]:   000289fa
ram:000274b8    2de9f047        push        {r4,r5,r6,r7,r8,r9,r10,lr}              
ram:000274bc    0d00            movs        r5,param_2                              
ram:000274be    0446            mov         r4,param_1                              
ram:000274c0    06d0            beq         LAB_000274d0                            
ram:000274c2    2cb1            cbz         r4,LAB_000274d0                         
ram:000274c4    95f87a00        ldrb.w      param_1,[r5,#0x7a]                      
ram:000274c8    0026            movs        r6,#0x0                                 
ram:000274ca    0128            cmp         param_1,#0x1                            
ram:000274cc    03d0            beq         LAB_000274d6                            
ram:000274ce    06e0            b           LAB_000274de                            
                            LAB_000274d0:                 ;XREF[2,0]:   000274c0,000274c2
ram:000274d0    0e20            movs        param_1,#0xe                            
                            LAB_000274d2:                 ;XREF[5,0]:   00027534,00027564,0002758a,000275b4
                                                          ;             000275b8
ram:000274d2    bde8f087        pop.w       {r4,r5,r6,r7,r8,r9,r10,pc}              
                            LAB_000274d6:                 ;XREF[1,0]:   000274cc
ram:000274d6    95f89800        ldrb.w      param_1,[r5,#0x98]                      
ram:000274da    0128            cmp         param_1,#0x1                            
ram:000274dc    29d0            beq         LAB_00027532                            
                            LAB_000274de:                 ;XREF[1,0]:   000274ce
ram:000274de    d5f8a000        ldr.w       param_1,[r5,#0xa0]                      
ram:000274e2    0428            cmp         param_1,#0x4                            
ram:000274e4    25d0            beq         LAB_00027532                            
ram:000274e6    d5f89c00        ldr.w       param_1,[r5,#0x9c]                      
ram:000274ea    0428            cmp         param_1,#0x4                            
ram:000274ec    21d0            beq         LAB_00027532                            
ram:000274ee    4ff00109        mov.w       r9,#0x1                                 
ram:000274f2    a670            strb        r6,[r4,#0x2]                            
ram:000274f4    2c22            movs        param_3,#0x2c                           
ram:000274f6    05f17801        add.w       param_2,r5,#0x78                        
ram:000274fa    201d            adds        param_1,r4,#0x4                         
ram:000274fc    fef7c2ff        bl          FUN_00026484                            ;undefined FUN_00026484(undefined4 * ...
ram:00027500    84f83060        strb.w      r6,[r4,#0x30]                           
ram:00027504    d5f8a400        ldr.w       param_1,[r5,#0xa4]                      
ram:00027508    6063            str         param_1,[r4,#0x34]                      
ram:0002750a    d5f8a800        ldr.w       param_1,[r5,#0xa8]                      
ram:0002750e    a063            str         param_1,[r4,#0x38]                      
ram:00027510    4ff6ff70        movw        param_1,#0xffff                         
ram:00027514    a4f84802        strh.w      param_1,[r4,#0x248]                     
ram:00027518    04f50d70        add.w       param_1,r4,#0x234                       
ram:0002751c    c4f84402        str.w       param_1,[r4,#0x244]                     
ram:00027520    c4f84a62        str.w       r6,[r4,#0x24a]                          
ram:00027524    a4f84e62        strh.w      r6,[r4,#0x24e]                          
ram:00027528    84f85062        strb.w      r6,[r4,#0x250]                          
ram:0002752c    2078            ldrb        param_1,[r4,#0x0]                       
ram:0002752e    10b1            cbz         param_1,LAB_00027536                    
ram:00027530    04e0            b           LAB_0002753c                            
                            LAB_00027532:                 ;XREF[3,0]:   000274dc,000274e4,000274ec
ram:00027532    0720            movs        param_1,#0x7                            
ram:00027534    cde7            b           LAB_000274d2                            
                            LAB_00027536:                 ;XREF[1,0]:   0002752e
ram:00027536    ff20            movs        param_1,#0xff                           
ram:00027538    84f85400        strb.w      param_1,[r4,#0x54]                      
                            LAB_0002753c:                 ;XREF[1,0]:   00027530
ram:0002753c    04f15501        add.w       param_2,r4,#0x55                        
ram:00027540    c4f83412        str.w       param_2,[r4,#0x234]                     
ram:00027544    94f82400        ldrb.w      param_1,[r4,#0x24]                      
ram:00027548    ee27            movs        r7,#0xee                                
ram:0002754a    4ff01f08        mov.w       r8,#0x1f                                
ram:0002754e    0128            cmp         param_1,#0x1                            
ram:00027550    33d0            beq         LAB_000275ba                            
ram:00027552    a4f83882        strh.w      r8,[r4,#0x238]                          
ram:00027556    00bf            nop                                                  
                            LAB_00027558:                 ;XREF[1,0]:   000275be
ram:00027558    04f50e72        add.w       param_3,r4,#0x238                       
ram:0002755c    2846            mov         param_1,r5                              
ram:0002755e    fff7bbfe        bl          FUN_000272d8                            ;byte * FUN_000272d8(byte * param_1, ...
ram:00027562    0028            cmp         param_1,#0x0                            
ram:00027564    b5d1            bne         LAB_000274d2                            
ram:00027566    04f24311        addw        param_2,r4,#0x143                       
ram:0002756a    c4f83c12        str.w       param_2,[r4,#0x23c]                     
ram:0002756e    94f82400        ldrb.w      param_1,[r4,#0x24]                      
ram:00027572    0128            cmp         param_1,#0x1                            
ram:00027574    24d0            beq         LAB_000275c0                            
ram:00027576    a4f84082        strh.w      r8,[r4,#0x240]                          
ram:0002757a    00bf            nop                                                  
                            LAB_0002757c:                 ;XREF[1,0]:   000275c4
ram:0002757c    04f51072        add.w       param_3,r4,#0x240                       
ram:00027580    05f13c00        add.w       param_1,r5,#0x3c                        
ram:00027584    fff7a8fe        bl          FUN_000272d8                            ;byte * FUN_000272d8(byte * param_1, ...
ram:00027588    0028            cmp         param_1,#0x0                            
ram:0002758a    a2d1            bne         LAB_000274d2                            
ram:0002758c    84f85190        strb.w      r9,[r4,#0x51]                           
ram:00027590    208b            ldrh        param_1,[r4,#0x18]                      
ram:00027592    a4f84800        strh.w      param_1,[r4,#0x48]                      
ram:00027596    84f83c90        strb.w      r9,[r4,#0x3c]                           
ram:0002759a    2664            str         r6,[r4,#0x40]                           
ram:0002759c    84f85060        strb.w      r6,[r4,#0x50]                           
ram:000275a0    6069            ldr         param_1,[r4,#0x14]                      
ram:000275a2    6064            str         param_1,[r4,#0x44]                      
ram:000275a4    4d46            mov         r5,r9                                   
ram:000275a6    04f13c02        add.w       param_3,r4,#0x3c                        
ram:000275aa    0021            movs        param_2,#0x0                            
ram:000275ac    04f15400        add.w       param_1,r4,#0x54                        
ram:000275b0    72df            svc         0x72                                    
ram:000275b2    0028            cmp         param_1,#0x0                            
ram:000275b4    8dd1            bne         LAB_000274d2                            
ram:000275b6    2570            strb        r5,[r4,#0x0]                            
ram:000275b8    8be7            b           LAB_000274d2                            
                            LAB_000275ba:                 ;XREF[1,0]:   00027550
ram:000275ba    a4f83872        strh.w      r7,[r4,#0x238]                          
ram:000275be    cbe7            b           LAB_00027558                            
                            LAB_000275c0:                 ;XREF[1,0]:   00027574
ram:000275c0    a4f84072        strh.w      r7,[r4,#0x240]                          
ram:000275c4    dae7            b           LAB_0002757c                            
ram:000275c6    10b5            push        {r4,lr}                                 
ram:000275c8    0288            ldrh        r2,[r0,#0x0]                            
ram:000275ca    102a            cmp         r2,#0x10                                
ram:000275cc    1bd0            beq         FUN_00027606                            
ram:000275ce    112a            cmp         r2,#0x11                                
ram:000275d0    20d0            beq         FUN_00027614                            
ram:000275d2    262a            cmp         r2,#0x26                                
ram:000275d4    1dd1            bne         LAB_00027612                            
ram:000275d6    007a            ldrb        r0,[r0,#0x8]                            
ram:000275d8    0c46            mov         r4,r1                                   
ram:000275da    0128            cmp         r0,#0x1                                 
ram:000275dc    01d0            beq         FUN_000275e2                            
ram:000275de    0228            cmp         r0,#0x2                                 
ram:000275e0    17d1            bne         LAB_00027612                            
                            ;************************************************************************************************
                            ;*                                           FUNCTION                                           *
                            ;************************************************************************************************
                            ;undefined FUN_000275e2(void)
                                                          ;XREF[1,0]:   000275dc
ram:000275e2    a078            ldrb        r0,[r4,#0x2]                            
ram:000275e4    0521            movs        r1,#0x5                                 
ram:000275e6    401c            adds        r0,r0,#0x1                              
ram:000275e8    b0fbf1f2        udiv        r2,r0,r1                                
ram:000275ec    01fb1201        mls         r1,r1,r2,r0                             
                            LAB_000275f0:                 ;XREF[1,0]:   0002762e
ram:000275f0    2046            mov         r0,r4                                   
ram:000275f2    00f01ef8        bl          FUN_00027632                            ;char * FUN_00027632(char * param_1, ...
ram:000275f6    0028            cmp         r0,#0x0                                 
ram:000275f8    0bd0            beq         LAB_00027612                            
ram:000275fa    a16b            ldr         r1,[r4,#0x38]                           
ram:000275fc    0029            cmp         r1,#0x0                                 
ram:000275fe    08d0            beq         LAB_00027612                            
ram:00027600    bde81040        pop.w       {r4,lr}                                 
ram:00027604    0847            bx          r1                                      
                            ;************************************************************************************************
                            ;*                                           FUNCTION                                           *
                            ;************************************************************************************************
                            ;undefined FUN_00027606(int param_1, int param_2)
          ;param_1       int                 r0                      
          ;param_2       int                 r1                      
                                                          ;XREF[1,0]:   000275cc
ram:00027606    c27b            ldrb        r2,[param_1,#0xf]                       
ram:00027608    012a            cmp         r2,#0x1                                 
ram:0002760a    02d1            bne         LAB_00027612                            
ram:0002760c    8088            ldrh        param_1,[param_1,#0x4]                  
ram:0002760e    a1f84802        strh.w      param_1,[param_2,#0x248]                
                            LAB_00027612:                 ;XREF[7,0]:   000275d4,000275e0,000275f8,000275fe
                                                          ;             0002760a,00027624,0002762a
ram:00027612    10bd            pop         {r4,pc}                                 
                            ;************************************************************************************************
                            ;*                                           FUNCTION                                           *
                            ;************************************************************************************************
                            ;undefined FUN_00027614(int param_1, char * param_2, undefined4 param_3, uint param_4)
          ;param_1       int                 r0                      
          ;param_2       char *              r1                      
          ;param_3       undefined4          r2                      
          ;param_4       uint                r3                      
                                                          ;XREF[1,0]:   000275d0
ram:00027614    0c46            mov         r4,param_2                              
ram:00027616    0021            movs        param_2,#0x0                            
ram:00027618    84f85212        strb.w      param_2,[r4,#0x252]                     
ram:0002761c    8088            ldrh        param_1,[param_1,#0x4]                  
ram:0002761e    b4f84812        ldrh.w      param_2,[r4,#0x248]                     
ram:00027622    8842            cmp         param_1,param_2                         
ram:00027624    f5d1            bne         LAB_00027612                            
ram:00027626    2079            ldrb        param_1,[r4,#0x4]                       
ram:00027628    0028            cmp         param_1,#0x0                            
ram:0002762a    f2d1            bne         LAB_00027612                            
ram:0002762c    0121            movs        param_2,#0x1                            
ram:0002762e    dfe7            b           LAB_000275f0                            
                            ;************************************************************************************************
                            ;*                                           FUNCTION                                           *
                            ;************************************************************************************************
                            ;undefined LAB_00027630+1(void)
                                                          ;XREF[0,1]:   0002a738
ram:00027630    7047            bx          lr                                      
                            ;************************************************************************************************
                            ;*                                           FUNCTION                                           *
                            ;************************************************************************************************
                            ;char * FUN_00027632(char * param_1, int param_2, undefined4 param_3, uint param_4)
          ;param_1       char *              r0                      
          ;param_2       int                 r1                      
          ;param_3       undefined4          r2                      
          ;param_4       uint                r3                      
                                                          ;XREF[2,0]:   000275f2,00028a4c
ram:00027632    2de9f05f        push        {r4,r5,r6,r7,r8,r9,r10,r11,r12,lr}      
ram:00027636    0446            mov         r4,param_1                              
ram:00027638    0078            ldrb        param_1,[param_1,#0x0]                  
ram:0002763a    0f46            mov         r7,param_2                              
ram:0002763c    98b1            cbz         param_1,LAB_00027666                    
ram:0002763e    a770            strb        r7,[r4,#0x2]                            
ram:00027640    0025            movs        r5,#0x0                                 
ram:00027642    c4f84a52        str.w       r5,[r4,#0x24a]                          
ram:00027646    a4f84e52        strh.w      r5,[r4,#0x24e]                          
ram:0002764a    84f85052        strb.w      r5,[r4,#0x250]                          
ram:0002764e    a079            ldrb        param_1,[r4,#0x6]                       
ram:00027650    0126            movs        r6,#0x1                                 
ram:00027652    08b1            cbz         param_1,LAB_00027658                    
ram:00027654    012f            cmp         r7,#0x1                                 
ram:00027656    09d0            beq         LAB_0002766c                            
                            LAB_00027658:                 ;XREF[1,0]:   00027652
ram:00027658    e079            ldrb        param_1,[r4,#0x7]                       
ram:0002765a    80b1            cbz         param_1,LAB_0002767e                    
ram:0002765c    012f            cmp         r7,#0x1                                 
ram:0002765e    05d0            beq         LAB_0002766c                            
ram:00027660    022f            cmp         r7,#0x2                                 
ram:00027662    03d0            beq         LAB_0002766c                            
ram:00027664    0be0            b           LAB_0002767e                            
                            LAB_00027666:                 ;XREF[1,0]:   0002763c
ram:00027666    0820            movs        param_1,#0x8                            
                            LAB_00027668:                 ;XREF[2,0]:   00027838,00027856
ram:00027668    bde8f09f        pop.w       {r4,r5,r6,r7,r8,r9,r10,r11,r12,pc}      
                            LAB_0002766c:                 ;XREF[3,0]:   00027656,0002765e,00027662
ram:0002766c    616b            ldr         param_2,[r4,#0x34]                      
ram:0002766e    21b1            cbz         param_2,LAB_0002767a                    
ram:00027670    84f85162        strb.w      r6,[r4,#0x251]                          
ram:00027674    0820            movs        param_1,#0x8                            
ram:00027676    8847            blx         param_2                                 
ram:00027678    01e0            b           LAB_0002767e                            
                            LAB_0002767a:                 ;XREF[1,0]:   0002766e
ram:0002767a    84f85152        strb.w      r5,[r4,#0x251]                          
                            LAB_0002767e:                 ;XREF[3,0]:   0002765a,00027664,00027678
ram:0002767e    04f24b21        addw        param_2,r4,#0x24b                       
ram:00027682    0020            movs        param_1,#0x0                            
                            LAB_00027684:                 ;XREF[1,0]:   00027690
ram:00027684    0a5c            ldrb        param_3,[param_2,param_1]               
ram:00027686    0ab1            cbz         param_3,LAB_0002768c                    
ram:00027688    3046            mov         param_1,r6                              
ram:0002768a    03e0            b           LAB_00027694                            
                            LAB_0002768c:                 ;XREF[1,0]:   00027686
ram:0002768c    401c            adds        param_1,param_1,#0x1                    
ram:0002768e    0628            cmp         param_1,#0x6                            
ram:00027690    f8d3            bcc         LAB_00027684                            
ram:00027692    0020            movs        param_1,#0x0                            
                            LAB_00027694:                 ;XREF[1,0]:   0002768a
ram:00027694    4ff00208        mov.w       r8,#0x2                                 
ram:00027698    4ff0030b        mov.w       r11,#0x3                                
ram:0002769c    012f            cmp         r7,#0x1                                 
ram:0002769e    06d0            beq         LAB_000276ae                            
ram:000276a0    022f            cmp         r7,#0x2                                 
ram:000276a2    0cd0            beq         LAB_000276be                            
ram:000276a4    032f            cmp         r7,#0x3                                 
ram:000276a6    0fd0            beq         LAB_000276c8                            
ram:000276a8    042f            cmp         r7,#0x4                                 
ram:000276aa    15d1            bne         LAB_000276d8                            
ram:000276ac    10e0            b           LAB_000276d0                            
                            LAB_000276ae:                 ;XREF[1,0]:   0002769e
ram:000276ae    a179            ldrb        param_2,[r4,#0x6]                       
ram:000276b0    29b1            cbz         param_2,LAB_000276be                    
ram:000276b2    94f82410        ldrb.w      param_2,[r4,#0x24]                      
ram:000276b6    11b9            cbnz        param_2,LAB_000276be                    
ram:000276b8    08b1            cbz         param_1,LAB_000276be                    
ram:000276ba    3046            mov         param_1,r6                              
ram:000276bc    0de0            b           LAB_000276da                            
                            LAB_000276be:                 ;XREF[4,0]:   000276a2,000276b0,000276b6,000276b8
ram:000276be    e179            ldrb        param_2,[r4,#0x7]                       
ram:000276c0    11b1            cbz         param_2,LAB_000276c8                    
ram:000276c2    08b1            cbz         param_1,LAB_000276c8                    
ram:000276c4    4046            mov         param_1,r8                              
ram:000276c6    08e0            b           LAB_000276da                            
                            LAB_000276c8:                 ;XREF[3,0]:   000276a6,000276c0,000276c2
ram:000276c8    207a            ldrb        param_1,[r4,#0x8]                       
ram:000276ca    08b1            cbz         param_1,LAB_000276d0                    
ram:000276cc    5846            mov         param_1,r11                             
ram:000276ce    04e0            b           LAB_000276da                            
                            LAB_000276d0:                 ;XREF[2,0]:   000276ac,000276ca
ram:000276d0    607a            ldrb        param_1,[r4,#0x9]                       
ram:000276d2    08b1            cbz         param_1,LAB_000276d8                    
ram:000276d4    0420            movs        param_1,#0x4                            
ram:000276d6    00e0            b           LAB_000276da                            
                            LAB_000276d8:                 ;XREF[2,0]:   000276aa,000276d2
ram:000276d8    2846            mov         param_1,r5                              
                            LAB_000276da:                 ;XREF[4,0]:   000276bc,000276c6,000276ce,000276d6
ram:000276da    a070            strb        param_1,[r4,#0x2]                       
ram:000276dc    616b            ldr         param_2,[r4,#0x34]                      
ram:000276de    41b1            cbz         param_2,LAB_000276f2                    
ram:000276e0    0328            cmp         param_1,#0x3                            
ram:000276e2    01d0            beq         LAB_000276e8                            
ram:000276e4    0428            cmp         param_1,#0x4                            
ram:000276e6    04d1            bne         LAB_000276f2                            
                            LAB_000276e8:                 ;XREF[1,0]:   000276e2
ram:000276e8    6079            ldrb        param_1,[r4,#0x5]                       
ram:000276ea    10b1            cbz         param_1,LAB_000276f2                    
ram:000276ec    94f85202        ldrb.w      param_1,[r4,#0x252]                     
ram:000276f0    a0b1            cbz         param_1,LAB_0002771c                    
                            LAB_000276f2:                 ;XREF[3,0]:   000276de,000276e6,000276ea
ram:000276f2    84f85352        strb.w      r5,[r4,#0x253]                          
                            LAB_000276f6:                 ;XREF[1,0]:   00027728
ram:000276f6    04f13c00        add.w       param_1,r4,#0x3c                        
ram:000276fa    1821            movs        param_2,#0x18                           
ram:000276fc    0746            mov         r7,param_1                              
ram:000276fe    fef7dafe        bl          FUN_000264b6                            ;undefined FUN_000264b6(undefined * p...
ram:00027702    04f12c00        add.w       param_1,r4,#0x2c                        
ram:00027706    84f83c60        strb.w      r6,[r4,#0x3c]                           
ram:0002770a    8146            mov         r9,param_1                              
ram:0002770c    02f069fa        bl          FUN_00029be2                            ;undefined4 FUN_00029be2(int * param_1)
ram:00027710    58b1            cbz         param_1,LAB_0002772a                    
ram:00027712    94f82c00        ldrb.w      param_1,[r4,#0x2c]                      
ram:00027716    84f85100        strb.w      param_1,[r4,#0x51]                      
ram:0002771a    08e0            b           LAB_0002772e                            
                            LAB_0002771c:                 ;XREF[1,0]:   000276f0
ram:0002771c    84f85452        strb.w      r5,[r4,#0x254]                          
ram:00027720    84f85362        strb.w      r6,[r4,#0x253]                          
ram:00027724    0720            movs        param_1,#0x7                            
ram:00027726    8847            blx         param_2                                 
ram:00027728    e5e7            b           LAB_000276f6                            
                            LAB_0002772a:                 ;XREF[1,0]:   00027710
ram:0002772a    84f85160        strb.w      r6,[r4,#0x51]                           
                            LAB_0002772e:                 ;XREF[1,0]:   0002771a
ram:0002772e    94f82400        ldrb.w      param_1,[r4,#0x24]                      
ram:00027732    50b1            cbz         param_1,LAB_0002774a                    
ram:00027734    4846            mov         param_1,r9                              
ram:00027736    02f054fa        bl          FUN_00029be2                            ;undefined4 FUN_00029be2(int * param_1)
ram:0002773a    20b1            cbz         param_1,LAB_00027746                    
ram:0002773c    94f82800        ldrb.w      param_1,[r4,#0x28]                      
ram:00027740    84f85200        strb.w      param_1,[r4,#0x52]                      
ram:00027744    01e0            b           LAB_0002774a                            
                            LAB_00027746:                 ;XREF[1,0]:   0002773a
ram:00027746    84f85260        strb.w      r6,[r4,#0x52]                           
                            LAB_0002774a:                 ;XREF[2,0]:   00027732,00027744
ram:0002774a    84f85050        strb.w      r5,[r4,#0x50]                           
ram:0002774e    a278            ldrb        param_3,[r4,#0x2]                       
ram:00027750    04f24a21        addw        param_2,r4,#0x24a                       
ram:00027754    04f50d79        add.w       r9,r4,#0x234                            
ram:00027758    4ff0060a        mov.w       r10,#0x6                                
ram:0002775c    052a            cmp         param_3,#0x5                            
ram:0002775e    62d2            bcs         switchD_00027760::caseD_5               
                            switchD:                      ; FWD[7,0]:   00027764,0002776a,00027782,000277a8
                                                          ;             000277e6,00027826,00027858
ram:00027760    dfe802f0        tbb         [switchD_00027760::switchdataD_000277...;= 7Ah
                            switchdataD_00027764:         ;XREF[1,0]:   00027760
ram:00027764    7a              db          7Ah                                     
ram:00027765    03              db          3h                                      
ram:00027766    0f              db          Fh                                      
ram:00027767    22              db          22h                                     
ram:00027768    41              db          41h                                     
                            caseD_1:                      ;XREF[1,0]:   00027760
ram:0002776a    84f83160        strb.w      r6,[r4,#0x31]                           
ram:0002776e    c4f84452        str.w       r5,[r4,#0x244]                          
ram:00027772    c4e91015        strd        param_2,r5,[r4,#0x40]                   
ram:00027776    84f83c80        strb.w      r8,[r4,#0x3c]                           
ram:0002777a    8020            movs        param_1,#0x80                           
ram:0002777c    a4f84800        strh.w      param_1,[r4,#0x48]                      
ram:00027780    53e0            b           LAB_0002782a                            
                            caseD_2:                      ;XREF[1,0]:   00027760
ram:00027782    84f83180        strb.w      r8,[r4,#0x31]                           
ram:00027786    94f82420        ldrb.w      param_3,[r4,#0x24]                      
ram:0002778a    3846            mov         param_1,r7                              
ram:0002778c    12b1            cbz         param_3,LAB_00027794                    
ram:0002778e    0722            movs        param_3,#0x7                            
ram:00027790    0270            strb        param_3,[param_1,#0x0]                  
ram:00027792    01e0            b           LAB_00027798                            
                            LAB_00027794:                 ;XREF[1,0]:   0002778c
ram:00027794    80f800b0        strb.w      r11,[param_1,#0x0]                      
                            LAB_00027798:                 ;XREF[1,0]:   00027792
ram:00027798    228a            ldrh        param_3,[r4,#0x10]                      
ram:0002779a    8281            strh        param_3,[param_1,#0xc]                  
ram:0002779c    c4f84452        str.w       r5,[r4,#0x244]                          
ram:000277a0    4160            str         param_2,[param_1,#0x4]                  
ram:000277a2    e168            ldr         param_2,[r4,#0xc]                       
ram:000277a4    b960            str         param_2,[r7,#0x8]                       
ram:000277a6    40e0            b           LAB_0002782a                            
                            caseD_3:                      ;XREF[1,0]:   00027760
ram:000277a8    6069            ldr         param_1,[r4,#0x14]                      
ram:000277aa    b860            str         param_1,[r7,#0x8]                       
ram:000277ac    208b            ldrh        param_1,[r4,#0x18]                      
ram:000277ae    b881            strh        param_1,[r7,#0xc]                       
ram:000277b0    94f82400        ldrb.w      param_1,[r4,#0x24]                      
ram:000277b4    3d46            mov         r5,r7                                   
ram:000277b6    10b1            cbz         param_1,LAB_000277be                    
ram:000277b8    84f83ca0        strb.w      r10,[r4,#0x3c]                          
ram:000277bc    01e0            b           LAB_000277c2                            
                            LAB_000277be:                 ;XREF[1,0]:   000277b6
ram:000277be    84f83c60        strb.w      r6,[r4,#0x3c]                           
                            LAB_000277c2:                 ;XREF[1,0]:   000277bc
ram:000277c2    2046            mov         param_1,r4                              
ram:000277c4    02f0c6fd        bl          FUN_0002a354                            ;undefined4 FUN_0002a354(int param_1)
ram:000277c8    50b1            cbz         param_1,LAB_000277e0                    
ram:000277ca    85f81480        strb.w      r8,[r5,#0x14]                           
ram:000277ce    0421            movs        param_2,#0x4                            
ram:000277d0    2046            mov         param_1,r4                              
ram:000277d2    00f04bff        bl          FUN_0002866c                            ;undefined8 FUN_0002866c(int param_1,...
ram:000277d6    30bb            cbnz        param_1,switchD_00027760::caseD_5       
ram:000277d8    0521            movs        param_2,#0x5                            
ram:000277da    84f83110        strb.w      param_2,[r4,#0x31]                      
ram:000277de    20e0            b           LAB_00027822                            
                            LAB_000277e0:                 ;XREF[1,0]:   000277c8
ram:000277e0    84f831b0        strb.w      r11,[r4,#0x31]                          
ram:000277e4    1de0            b           LAB_00027822                            
                            caseD_4:                      ;XREF[1,0]:   00027760
ram:000277e6    e069            ldr         param_1,[r4,#0x1c]                      
ram:000277e8    b860            str         param_1,[r7,#0x8]                       
ram:000277ea    208c            ldrh        param_1,[r4,#0x20]                      
ram:000277ec    b881            strh        param_1,[r7,#0xc]                       
ram:000277ee    94f82400        ldrb.w      param_1,[r4,#0x24]                      
ram:000277f2    3d46            mov         r5,r7                                   
ram:000277f4    10b1            cbz         param_1,LAB_000277fc                    
ram:000277f6    84f83ca0        strb.w      r10,[r4,#0x3c]                          
ram:000277fa    01e0            b           LAB_00027800                            
                            LAB_000277fc:                 ;XREF[1,0]:   000277f4
ram:000277fc    84f83c60        strb.w      r6,[r4,#0x3c]                           
                            LAB_00027800:                 ;XREF[1,0]:   000277fa
ram:00027800    2046            mov         param_1,r4                              
ram:00027802    02f0a7fd        bl          FUN_0002a354                            ;undefined4 FUN_0002a354(int param_1)
ram:00027806    48b1            cbz         param_1,LAB_0002781c                    
ram:00027808    85f81480        strb.w      r8,[r5,#0x14]                           
ram:0002780c    0421            movs        param_2,#0x4                            
ram:0002780e    2046            mov         param_1,r4                              
ram:00027810    00f02cff        bl          FUN_0002866c                            ;undefined8 FUN_0002866c(int param_1,...
ram:00027814    38b9            cbnz        param_1,switchD_00027760::caseD_5       
ram:00027816    84f831a0        strb.w      r10,[r4,#0x31]                          
ram:0002781a    02e0            b           LAB_00027822                            
                            LAB_0002781c:                 ;XREF[1,0]:   00027806
ram:0002781c    0420            movs        param_1,#0x4                            
ram:0002781e    84f83100        strb.w      param_1,[r4,#0x31]                      
                            LAB_00027822:                 ;XREF[3,0]:   000277de,000277e4,0002781a
ram:00027822    c4f84492        str.w       r9,[r4,#0x244]                          
                            caseD_5:                      ;XREF[4,0]:   0002775e,00027760,000277d6,00027814
ram:00027826    a078            ldrb        param_1,[r4,#0x2]                       
ram:00027828    78b1            cbz         param_1,LAB_0002784a                    
                            LAB_0002782a:                 ;XREF[2,0]:   00027780,000277a6
ram:0002782a    3a46            mov         param_3,r7                              
ram:0002782c    04f15400        add.w       param_1,r4,#0x54                        
ram:00027830    d4f84412        ldr.w       param_2,[r4,#0x244]                     
ram:00027834    72df            svc         0x72                                    
ram:00027836    0028            cmp         param_1,#0x0                            
                            LAB_00027838:                 ;XREF[1,0]:   00027848
ram:00027838    7ff416af        bne.w       LAB_00027668                            
ram:0002783c    94f83010        ldrb.w      param_2,[r4,#0x30]                      
ram:00027840    94f85400        ldrb.w      param_1,[r4,#0x54]                      
ram:00027844    73df            svc         0x73                                    
ram:00027846    0028            cmp         param_1,#0x0                            
ram:00027848    f6d1            bne         LAB_00027838                            
                            LAB_0002784a:                 ;XREF[2,0]:   00027828,0002785c
ram:0002784a    616b            ldr         param_2,[r4,#0x34]                      
ram:0002784c    11b1            cbz         param_2,LAB_00027854                    
ram:0002784e    94f83100        ldrb.w      param_1,[r4,#0x31]                      
ram:00027852    8847            blx         param_2                                 
                            LAB_00027854:                 ;XREF[1,0]:   0002784c
ram:00027854    0020            movs        param_1,#0x0                            
ram:00027856    07e7            b           LAB_00027668                            
                            caseD_0:                      ;XREF[1,0]:   00027760
ram:00027858    84f83150        strb.w      r5,[r4,#0x31]                           
ram:0002785c    f5e7            b           LAB_0002784a                            
ram:0002785e    0000            movs        r0,r0                                   
                            ;************************************************************************************************
                            ;*                                           FUNCTION                                           *
                            ;************************************************************************************************
                            ;undefined4 * FUN_00027860(int * param_1)
          ;param_1       int *               r0                      
                                                          ;XREF[1,0]:   00028a3c
ram:00027860    70b5            push        {r4,r5,r6,lr}                           
ram:00027862    0400            movs        r4,param_1                              
ram:00027864    12d0            beq         LAB_0002788c                            
ram:00027866    0146            mov         r1,param_1                              
ram:00027868    1c22            movs        r2,#0x1c                                
ram:0002786a    1448            ldr         param_1=>DAT_20003020,[DAT_000278bc]    ;= 20003020h
ram:0002786c    fef70afe        bl          FUN_00026484                            ;undefined FUN_00026484(undefined4 * ...
ram:00027870    1248            ldr         param_1,[DAT_000278bc]                  ;= 20003020h
ram:00027872    134d            ldr         r5,[DAT_000278c0]                       ;= 20002B18h
ram:00027874    0560            str         r5=>DAT_20002b18,[param_1,#0x0]=>DAT_...
ram:00027876    2068            ldr         param_1,[r4,#0x0]                       
ram:00027878    50b1            cbz         param_1,LAB_00027890                    
ram:0002787a    7adf            svc         0x7a                                    
ram:0002787c    0028            cmp         param_1,#0x0                            
ram:0002787e    06d1            bne         LAB_0002788e                            
ram:00027880    2068            ldr         param_1,[r4,#0x0]                       
ram:00027882    0168            ldr         r1,[param_1,#0x0]                       
ram:00027884    2960            str         r1,[r5,#0x0]=>DAT_20002b18              
ram:00027886    4068            ldr         param_1,[param_1,#0x4]                  
ram:00027888    6860            str         param_1,[r5,#0x4]=>DAT_20002b1c         
ram:0002788a    05e0            b           LAB_00027898                            
                            LAB_0002788c:                 ;XREF[1,0]:   00027864
ram:0002788c    0e20            movs        param_1,#0xe                            
                            LAB_0002788e:                 ;XREF[3,0]:   0002787e,00027896,000278b4
ram:0002788e    70bd            pop         {r4,r5,r6,pc}                           
                            LAB_00027890:                 ;XREF[1,0]:   00027878
ram:00027890    0b48            ldr         param_1=>DAT_20002b18,[DAT_000278c0]    ;= 20002B18h
ram:00027892    7bdf            svc         0x7b                                    
ram:00027894    0028            cmp         param_1,#0x0                            
ram:00027896    fad1            bne         LAB_0002788e                            
                            LAB_00027898:                 ;XREF[1,0]:   0002788a
ram:00027898    0848            ldr         param_1,[DAT_000278bc]                  ;= 20003020h
ram:0002789a    4ff6ff71        movw        r1,#0xffff                              
ram:0002789e    1438            subs        param_1,#0x14                           
ram:000278a0    084a            ldr         r2=>LAB_0002a2ec...,[PTR_LAB_0002a2ec...;= 0002a2ed
                                                          ; FWD[2,0]:   2000300c,20003010
ram:000278a2    20f8041b        strh        r1,[param_1],#0x4=>DAT_2000300c         
ram:000278a6    0549            ldr         r1,[DAT_000278bc]                       ;= 20003020h
ram:000278a8    3439            subs        r1,#0x34                                
ram:000278aa    0160            str         r1,[param_1,#0x0]=>DAT_20003010         
ram:000278ac    0021            movs        r1,#0x0                                 
ram:000278ae    fff721fc        bl          FUN_000270f4                            ;undefined4 FUN_000270f4(int * param_...
ram:000278b2    0028            cmp         param_1,#0x0                            
ram:000278b4    ebd0            beq         LAB_0002788e                            
ram:000278b6    0320            movs        param_1,#0x3                            
ram:000278b8    70bd            pop         {r4,r5,r6,pc}                           
ram:000278ba    0000            movs        r0,r0                                   
                            DAT_000278bc:                 ;XREF[4,0]:   0002786a,00027870,00027898,000278a6
ram:000278bc    20300020        undefined4  20003020h                               
                            DAT_000278c0:                 ;XREF[2,0]:   00027872,00027890
ram:000278c0    182b0020        undefined4  20002B18h                               
                            PTR_LAB_0002a2ec+1+1_000278c4:;XREF[1,0]:   000278a0
ram:000278c4    eda20200        addr        LAB_0002a2ec+1+1                        
                            ;************************************************************************************************
                            ;*                                           FUNCTION                                           *
                            ;************************************************************************************************
                            ;uint FUN_000278c8(uint param_1)
          ;param_1       uint                r0                      
                                                          ;XREF[1,0]:   000272b2
ram:000278c8    10b5            push        {r4,lr}                                 
ram:000278ca    0446            mov         r4,param_1                              
ram:000278cc    00f006f8        bl          FUN_000278dc                            ;uint FUN_000278dc(uint param_1)
ram:000278d0    08b1            cbz         param_1,LAB_000278d6                    
ram:000278d2    2046            mov         param_1,r4                              
ram:000278d4    10bd            pop         {r4,pc}                                 
                            LAB_000278d6:                 ;XREF[1,0]:   000278d0
ram:000278d6    1420            movs        param_1,#0x14                           
ram:000278d8    10bd            pop         {r4,pc}                                 
ram:000278da    0000            movs        r0,r0                                   
                            ;************************************************************************************************
                            ;*                                           FUNCTION                                           *
                            ;************************************************************************************************
                            ;uint FUN_000278dc(uint param_1)
          ;param_1       uint                r0                      
                                                          ;XREF[1,0]:   000278cc
ram:000278dc    1428            cmp         param_1,#0x14                           
ram:000278de    01d3            bcc         LAB_000278e4                            
ram:000278e0    0020            movs        param_1,#0x0                            
ram:000278e2    7047            bx          lr                                      
                            LAB_000278e4:                 ;XREF[1,0]:   000278de
ram:000278e4    0146            mov         r1,param_1                              
ram:000278e6    0148            ldr         param_1=>DAT_20003040,[DAT_000278ec]    ;= 20003040h
ram:000278e8    01f0b7ba        b.w         FUN_00028e5a                            ;uint FUN_00028e5a(int param_1, uint ...
                            DAT_000278ec:                 ;XREF[1,0]:   000278e6
ram:000278ec    40300020        undefined4  20003040h                               
                            ;************************************************************************************************
                            ;*                                           FUNCTION                                           *
                            ;************************************************************************************************
                            ;byte * FUN_000278f0(int param_1, ushort * param_2, uint param_3, undefined4 param_4)
          ;param_1       int                 r0                      
          ;param_2       ushort *            r1                      
          ;param_3       uint                r2                      
          ;param_4       undefined4          r3                      
          ;local_13      undefined2         -13                      ;XREF[1,0]:   0002792c
          ;local_17      undefined4         -17                      ;XREF[1,0]:   00027926
          ;local_18      undefined1         -18                      ;XREF[1,0]:   0002793a
                                                          ;XREF[1,0]:   000272f4
ram:000278f0    7cb5            push        {param_3,param_4,r4,r5,r6,lr}           
ram:000278f2    0546            mov         r5,param_1                              
ram:000278f4    0888            ldrh        param_1,[param_2,#0x0]                  
ram:000278f6    0c46            mov         r4,param_2                              
ram:000278f8    0930            adds        param_1,#0x9                            
ram:000278fa    9042            cmp         param_1,param_3                         
ram:000278fc    01d9            bls         LAB_00027902                            
ram:000278fe    0c20            movs        param_1,#0xc                            
                            LAB_00027900:                 ;XREF[1,0]:   00027908
ram:00027900    7cbd            pop         {param_3,param_4,r4,r5,r6,pc}           
                            LAB_00027902:                 ;XREF[1,0]:   000278fc
ram:00027902    6846            mov         param_1,sp                              
ram:00027904    6ddf            svc         0x6d                                    
ram:00027906    0028            cmp         param_1,#0x0                            
ram:00027908    fad1            bne         LAB_00027900                            
ram:0002790a    2188            ldrh        param_2,[r4,#0x0]                       
ram:0002790c    0820            movs        param_1,#0x8                            
ram:0002790e    6854            strb        param_1,[r5,param_2]                    
ram:00027910    2088            ldrh        param_1,[r4,#0x0]                       
ram:00027912    1b21            movs        param_2,#0x1b                           
ram:00027914    401c            adds        param_1,param_1,#0x1                    
ram:00027916    80b2            uxth        param_1,param_1                         
ram:00027918    2080            strh        param_1,[r4,#0x0]                       
ram:0002791a    2954            strb        param_2,[r5,param_1]                    
ram:0002791c    2088            ldrh        param_1,[r4,#0x0]                       
ram:0002791e    401c            adds        param_1,param_1,#0x1                    
ram:00027920    80b2            uxth        param_1,param_1                         
ram:00027922    2080            strh        param_1,[r4,#0x0]                       
ram:00027924    2844            add         param_1,r5                              
ram:00027926    ddf80110        ldr.w       param_2,[sp,#local_17+0x18]             
ram:0002792a    0160            str         param_2,[param_1,#0x0]                  
ram:0002792c    bdf80510        ldrh.w      param_2,[sp,#local_13+0x18]             
ram:00027930    8180            strh        param_2,[param_1,#0x4]                  
ram:00027932    2088            ldrh        param_1,[r4,#0x0]                       
ram:00027934    801d            adds        param_1,param_1,#0x6                    
ram:00027936    80b2            uxth        param_1,param_1                         
ram:00027938    2080            strh        param_1,[r4,#0x0]                       
ram:0002793a    9df80010        ldrb.w      param_2,[sp,#0x0]=>local_18             
ram:0002793e    4908            lsrs        param_2,param_2,#0x1                    
ram:00027940    00d0            beq         LAB_00027944                            
ram:00027942    0121            movs        param_2,#0x1                            
                            LAB_00027944:                 ;XREF[1,0]:   00027940
ram:00027944    2954            strb        param_2,[r5,param_1]                    
ram:00027946    2088            ldrh        param_1,[r4,#0x0]                       
ram:00027948    401c            adds        param_1,param_1,#0x1                    
ram:0002794a    2080            strh        param_1,[r4,#0x0]                       
ram:0002794c    0020            movs        param_1,#0x0                            
ram:0002794e    7cbd            pop         {param_3,param_4,r4,r5,r6,pc}           
                            ;************************************************************************************************
                            ;*                                           FUNCTION                                           *
                            ;************************************************************************************************
                            ;undefined FUN_00027950(ushort * param_1, undefined4 param_2, undefined4 param_3, undefined4 param_4)
          ;param_1       ushort *            r0                      
          ;param_2       undefined4          r1                      
          ;param_3       undefined4          r2                      
          ;param_4       undefined4          r3                      
          ;local_18      undefined4         -18                      ;XREF[1,0]:   000279ca
ram:00027950    f8b5            push        {param_4,r4,r5,r6,r7,lr}                
ram:00027952    294d            ldr         r5,[DAT_000279f8]                       ;= 20002AA0h
ram:00027954    0446            mov         r4,param_1                              
ram:00027956    0188            ldrh        param_2,[param_1,#0x0]                  
ram:00027958    0027            movs        r7,#0x0                                 
ram:0002795a    284e            ldr         r6,[DAT_000279fc]                       ;= 20002ADDh
ram:0002795c    a888            ldrh        param_1,[r5,#0x4]=>DAT_20002aa4         
ram:0002795e    4ff0010e        mov.w       lr,#0x1                                 
ram:00027962    2129            cmp         param_2,#0x21                           
ram:00027964    31d0            beq         LAB_000279ca                            
ram:00027966    0adc            bgt         LAB_0002797e                            
ram:00027968    1029            cmp         param_2,#0x10                           
ram:0002796a    14d0            beq         LAB_00027996                            
ram:0002796c    1129            cmp         param_2,#0x11                           
ram:0002796e    26d0            beq         LAB_000279be                            
ram:00027970    1329            cmp         param_2,#0x13                           
ram:00027972    23d1            bne         LAB_000279bc                            
ram:00027974    0023            movs        param_4,#0x0                            
ram:00027976    1a46            mov         param_3,param_4                         
ram:00027978    8521            movs        param_2,#0x85                           
ram:0002797a    7fdf            svc         0x7f                                    
ram:0002797c    32e0            b           LAB_000279e4                            
                            LAB_0002797e:                 ;XREF[1,0]:   00027966
ram:0002797e    3b29            cmp         param_2,#0x3b                           
ram:00027980    36d0            beq         LAB_000279f0                            
ram:00027982    5229            cmp         param_2,#0x52                           
ram:00027984    2ad0            beq         LAB_000279dc                            
ram:00027986    5629            cmp         param_2,#0x56                           
ram:00027988    18d1            bne         LAB_000279bc                            
ram:0002798a    a088            ldrh        param_1,[r4,#0x4]                       
ram:0002798c    1321            movs        param_2,#0x13                           
ram:0002798e    76df            svc         0x76                                    
ram:00027990    86f800e0        strb.w      lr,[r6,#0x0]=>DAT_20002add              
ram:00027994    26e0            b           LAB_000279e4                            
                            LAB_00027996:                 ;XREF[1,0]:   0002796a
ram:00027996    0720            movs        param_1,#0x7                            
ram:00027998    00f022fb        bl          FUN_00027fe0                            ;int FUN_00027fe0(uint param_1, undef...
ram:0002799c    08b1            cbz         param_1,LAB_000279a2                    
ram:0002799e    fff79dfb        bl          FUN_000270dc                            ;undefined FUN_000270dc(void)
                            LAB_000279a2:                 ;XREF[1,0]:   0002799c
ram:000279a2    a188            ldrh        param_2,[r4,#0x4]                       
ram:000279a4    a980            strh        param_2,[r5,#0x4]=>DAT_20002aa4         
ram:000279a6    1648            ldr         param_1,[DAT_00027a00]                  ;= 20002C78h
ram:000279a8    01f06afb        bl          FUN_00029080                            ;undefined4 FUN_00029080(char * param...
ram:000279ac    08b1            cbz         param_1,LAB_000279b2                    
ram:000279ae    fff795fb        bl          FUN_000270dc                            ;undefined FUN_000270dc(void)
                            LAB_000279b2:                 ;XREF[1,0]:   000279ac
ram:000279b2    1449            ldr         param_2,[DAT_00027a04]                  ;= 20002AF8h
ram:000279b4    3770            strb        r7,[r6,#0x0]=>DAT_20002add              
ram:000279b6    4ff4fa70        mov.w       param_1,#0x1f4                          
ram:000279ba    0860            str         param_1,[param_2,#0x0]=>DAT_20002af8    
                            LAB_000279bc:                 ;XREF[2,0]:   00027972,00027988
ram:000279bc    f8bd            pop         {param_4,r4,r5,r6,r7,pc}                
                            LAB_000279be:                 ;XREF[1,0]:   0002796e
ram:000279be    4ff6ff70        movw        param_1,#0xffff                         
ram:000279c2    a880            strh        param_1,[r5,#0x4]=>DAT_20002aa4         
ram:000279c4    86f800e0        strb.w      lr,[r6,#0x0]=>DAT_20002add              
                            LAB_000279c8:                 ;XREF[1,0]:   000279d4
ram:000279c8    f8bd            pop         {param_4,r4,r5,r6,r7,pc}                
                            LAB_000279ca:                 ;XREF[1,0]:   00027964
ram:000279ca    0097            str         r7,[sp,#0x0]=>local_18                  
ram:000279cc    a088            ldrh        param_1,[r4,#0x4]                       
ram:000279ce    6946            mov         param_2,sp                              
ram:000279d0    8fdf            svc         0x8f                                    
ram:000279d2    0028            cmp         param_1,#0x0                            
ram:000279d4    f8d0            beq         LAB_000279c8                            
ram:000279d6    fff781fb        bl          FUN_000270dc                            ;undefined FUN_000270dc(void)
                            LAB_000279da:                 ;XREF[1,0]:   000279e6
ram:000279da    f8bd            pop         {param_4,r4,r5,r6,r7,pc}                
                            LAB_000279dc:                 ;XREF[1,0]:   00027984
ram:000279dc    0023            movs        param_4,#0x0                            
ram:000279de    1a46            mov         param_3,param_4                         
ram:000279e0    1946            mov         param_2,param_4                         
ram:000279e2    b1df            svc         0xb1                                    
                            LAB_000279e4:                 ;XREF[3,0]:   0002797c,00027994,000279f6
ram:000279e4    0028            cmp         param_1,#0x0                            
ram:000279e6    f8d0            beq         LAB_000279da                            
ram:000279e8    bde8f840        pop.w       {param_4,r4,r5,r6,r7,lr}                
ram:000279ec    fff776bb        b.w         FUN_000270dc                            ;undefined FUN_000270dc(void)
                            LAB_000279f0:                 ;XREF[1,0]:   00027980
ram:000279f0    a088            ldrh        param_1,[r4,#0x4]                       
ram:000279f2    1321            movs        param_2,#0x13                           
ram:000279f4    76df            svc         0x76                                    
ram:000279f6    f5e7            b           LAB_000279e4                            
                            DAT_000279f8:                 ;XREF[1,0]:   00027952
ram:000279f8    a02a0020        undefined4  20002AA0h                               
                            DAT_000279fc:                 ;XREF[1,0]:   0002795a
ram:000279fc    dd2a0020        undefined4  20002ADDh                               
                            DAT_00027a00:                 ;XREF[1,0]:   000279a6
ram:00027a00    782c0020        undefined4  20002C78h                               
                            DAT_00027a04:                 ;XREF[1,0]:   000279b2
ram:00027a04    f82a0020        undefined4  20002AF8h                               
                            ;************************************************************************************************
                            ;*                                           FUNCTION                                           *
                            ;************************************************************************************************
                            ;undefined FUN_00027a08(short * param_1)
          ;param_1       short *             r0                      
ram:00027a08    10b5            push        {r4,lr}                                 
ram:00027a0a    1a4c            ldr         r4,[DAT_00027a74]                       ;= 20002B10h
ram:00027a0c    0188            ldrh        r1,[param_1,#0x0]                       
ram:00027a0e    6068            ldr         param_1,[r4,#0x4]=>DAT_20002b14         
ram:00027a10    1029            cmp         r1,#0x10                                
ram:00027a12    0ed0            beq         LAB_00027a32                            
ram:00027a14    1129            cmp         r1,#0x11                                
ram:00027a16    2bd1            bne         LAB_00027a70                            
ram:00027a18    401e            subs        param_1,param_1,#0x1                    
ram:00027a1a    6060            str         param_1,[r4,#0x4]=>DAT_20002b14         
ram:00027a1c    28d1            bne         LAB_00027a70                            
ram:00027a1e    fff729fb        bl          FUN_00027074                            ;int FUN_00027074(void)
ram:00027a22    0028            cmp         param_1,#0x0                            
ram:00027a24    24d0            beq         LAB_00027a70                            
ram:00027a26    2168            ldr         r1,[r4,#0x0]=>DAT_20002b10              
ram:00027a28    0029            cmp         r1,#0x0                                 
ram:00027a2a    21d0            beq         LAB_00027a70                            
ram:00027a2c    bde81040        pop.w       {r4,lr}                                 
ram:00027a30    0847            bx          r1                                      
                            LAB_00027a32:                 ;XREF[1,0]:   00027a12
ram:00027a32    d0b9            cbnz        param_1,LAB_00027a6a                    
ram:00027a34    0021            movs        r1,#0x0                                 
ram:00027a36    0122            movs        r2,#0x1                                 
ram:00027a38    0846            mov         param_1,r1                              
ram:00027a3a    00f0affa        bl          FUN_00027f9c                            ;undefined4 FUN_00027f9c(uint param_1...
ram:00027a3e    08b1            cbz         param_1,LAB_00027a44                    
ram:00027a40    0728            cmp         param_1,#0x7                            
ram:00027a42    0fd1            bne         LAB_00027a64                            
                            LAB_00027a44:                 ;XREF[1,0]:   00027a3e
ram:00027a44    0722            movs        r2,#0x7                                 
ram:00027a46    0221            movs        r1,#0x2                                 
ram:00027a48    0120            movs        param_1,#0x1                            
ram:00027a4a    00f0a7fa        bl          FUN_00027f9c                            ;undefined4 FUN_00027f9c(uint param_1...
ram:00027a4e    08b1            cbz         param_1,LAB_00027a54                    
ram:00027a50    0728            cmp         param_1,#0x7                            
ram:00027a52    07d1            bne         LAB_00027a64                            
                            LAB_00027a54:                 ;XREF[1,0]:   00027a4e
ram:00027a54    0422            movs        r2,#0x4                                 
ram:00027a56    0221            movs        r1,#0x2                                 
ram:00027a58    0020            movs        param_1,#0x0                            
ram:00027a5a    00f09ffa        bl          FUN_00027f9c                            ;undefined4 FUN_00027f9c(uint param_1...
ram:00027a5e    20b1            cbz         param_1,LAB_00027a6a                    
ram:00027a60    0728            cmp         param_1,#0x7                            
ram:00027a62    02d0            beq         LAB_00027a6a                            
                            LAB_00027a64:                 ;XREF[2,0]:   00027a42,00027a52
ram:00027a64    2168            ldr         r1,[r4,#0x0]=>DAT_20002b10              
ram:00027a66    01b1            cbz         r1,LAB_00027a6a                         
ram:00027a68    8847            blx         r1                                      
                            LAB_00027a6a:                 ;XREF[4,0]:   00027a32,00027a5e,00027a62,00027a66
ram:00027a6a    6068            ldr         param_1,[r4,#0x4]=>DAT_20002b14         
ram:00027a6c    401c            adds        param_1,param_1,#0x1                    
ram:00027a6e    6060            str         param_1,[r4,#0x4]=>DAT_20002b14         
                            LAB_00027a70:                 ;XREF[4,0]:   00027a16,00027a1c,00027a24,00027a2a
ram:00027a70    10bd            pop         {r4,pc}                                 
ram:00027a72    0000            movs        r0,r0                                   
                            DAT_00027a74:                 ;XREF[1,0]:   00027a0a
ram:00027a74    102b0020        undefined4  20002B10h                               
                            ;************************************************************************************************
                            ;*                                           FUNCTION                                           *
                            ;************************************************************************************************
                            ;undefined FUN_00027a78(short * param_1, undefined4 param_2, uint param_3, undefined4 param_4)
          ;param_1       short *             r0                      
          ;param_2       undefined4          r1                      
          ;param_3       uint                r2                      
          ;param_4       undefined4          r3                      
          ;local_e       undefined2          -e                      ;XREF[1,0]:   0002853c
          ;local_10      undefined1         -10                      ;XREF[1,0]:   00028538
ram:00027a78    2de9f047        push        {r4,r5,r6,r7,r8,r9,r10,lr}              
ram:00027a7c    0188            ldrh        param_2,[param_1,#0x0]                  
ram:00027a7e    3b4e            ldr         r6,[DAT_00027b6c]                       ;= 20003020h
ram:00027a80    40f2f319        movw        r9,#0x1f3                               
ram:00027a84    4ff6ff75        movw        r5,#0xffff                              
ram:00027a88    1029            cmp         param_2,#0x10                           
ram:00027a8a    1bd0            beq         LAB_00027ac4                            
ram:00027a8c    1129            cmp         param_2,#0x11                           
ram:00027a8e    3ed0            beq         LAB_00027b0e                            
ram:00027a90    1229            cmp         param_2,#0x12                           
ram:00027a92    54d0            beq         LAB_00027b3e                            
ram:00027a94    5029            cmp         param_2,#0x50                           
ram:00027a96    46d1            bne         LAB_00027b26                            
ram:00027a98    c188            ldrh        param_2,[param_1,#0x6]                  
ram:00027a9a    f289            ldrh        param_3,[r6,#0xe]=>DAT_2000302e         
ram:00027a9c    841d            adds        r4,param_1,#0x6                         
ram:00027a9e    9142            cmp         param_2,param_3                         
ram:00027aa0    41d1            bne         LAB_00027b26                            
ram:00027aa2    6189            ldrh        param_2,[r4,#0xa]                       
ram:00027aa4    0229            cmp         param_2,#0x2                            
ram:00027aa6    3ed1            bne         LAB_00027b26                            
ram:00027aa8    8688            ldrh        r6,[param_1,#0x4]                       
ram:00027aaa    3046            mov         param_1,r6                              
ram:00027aac    00f034fe        bl          FUN_00028718                            ;ushort * FUN_00028718(uint param_1)
ram:00027ab0    0500            movs        r5,param_1                              
ram:00027ab2    38d0            beq         LAB_00027b26                            
ram:00027ab4    04f10c00        add.w       param_1,r4,#0xc                         
ram:00027ab8    00f0b8f9        bl          FUN_00027e2c                            ;byte FUN_00027e2c(byte * param_1)
ram:00027abc    a8b3            cbz         param_1,LAB_00027b2a                    
ram:00027abe    2946            mov         param_2,r5                              
ram:00027ac0    3046            mov         param_1,r6                              
ram:00027ac2    4ee0            b           LAB_00027b62                            
                            LAB_00027ac4:                 ;XREF[1,0]:   00027a8a
ram:00027ac4    c17b            ldrb        param_2,[param_1,#0xf]                  
ram:00027ac6    8788            ldrh        r7,[param_1,#0x4]                       
ram:00027ac8    0446            mov         r4,param_1                              
ram:00027aca    0129            cmp         param_2,#0x1                            
ram:00027acc    2bd1            bne         LAB_00027b26                            
ram:00027ace    a846            mov         r8,r5                                   
ram:00027ad0    2846            mov         param_1,r5                              
ram:00027ad2    00f021fe        bl          FUN_00028718                            ;ushort * FUN_00028718(uint param_1)
ram:00027ad6    0500            movs        r5,param_1                              
ram:00027ad8    17d0            beq         LAB_00027b0a                            
ram:00027ada    2f80            strh        r7,[r5,#0x0]                            
ram:00027adc    0020            movs        param_1,#0x0                            
ram:00027ade    2872            strb        param_1,[r5,#0x8]                       
ram:00027ae0    2348            ldr         param_1,[DAT_00027b70]                  ;= 20002B18h
ram:00027ae2    4346            mov         param_4,r8                              
ram:00027ae4    4a46            mov         param_3,r9                              
ram:00027ae6    0168            ldr         param_2,[param_1,#0x0]=>DAT_20002b18    
ram:00027ae8    c5f80a10        str.w       param_2,[r5,#0xa]                       
ram:00027aec    4068            ldr         param_1,[param_1,#0x4]=>DAT_20002b1c    
ram:00027aee    c5f80e00        str.w       param_1,[r5,#0xe]                       
ram:00027af2    04f11001        add.w       param_2,r4,#0x10                        
ram:00027af6    05f10a00        add.w       param_1,r5,#0xa                         
ram:00027afa    00f043fe        bl          FUN_00028784                            ;undefined4 FUN_00028784(ushort * par...
ram:00027afe    6872            strb        param_1,[r5,#0x9]                       
ram:00027b00    f089            ldrh        param_1,[r6,#0xe]=>DAT_2000302e         
ram:00027b02    0028            cmp         param_1,#0x0                            
ram:00027b04    0fd1            bne         LAB_00027b26                            
ram:00027b06    2946            mov         param_2,r5                              
ram:00027b08    2ae0            b           LAB_00027b60                            
                            LAB_00027b0a:                 ;XREF[1,0]:   00027ad8
ram:00027b0a    0420            movs        param_1,#0x4                            
ram:00027b0c    13e0            b           LAB_00027b36                            
                            LAB_00027b0e:                 ;XREF[1,0]:   00027a8e
ram:00027b0e    8088            ldrh        param_1,[param_1,#0x4]                  
ram:00027b10    00f002fe        bl          FUN_00028718                            ;ushort * FUN_00028718(uint param_1)
ram:00027b14    0400            movs        r4,param_1                              
ram:00027b16    06d0            beq         LAB_00027b26                            
ram:00027b18    6068            ldr         param_1,[r4,#0x4]                       
ram:00027b1a    fff76bfb        bl          FUN_000271f4                            ;undefined4 FUN_000271f4(int param_1,...
ram:00027b1e    08b1            cbz         param_1,LAB_00027b24                    
ram:00027b20    02f052f9        bl          FUN_00029dc8                            ;undefined FUN_00029dc8(void)
                            LAB_00027b24:                 ;XREF[1,0]:   00027b1e
ram:00027b24    2580            strh        r5,[r4,#0x0]                            
                            LAB_00027b26:                 ;XREF[9,0]:   00027a96,00027aa0,00027aa6,00027ab2
                                                          ;             00027acc,00027b04,00027b16,00027b34
                                                          ;             00027b4a
ram:00027b26    bde8f087        pop.w       {r4,r5,r6,r7,r8,r9,r10,pc}              
                            LAB_00027b2a:                 ;XREF[1,0]:   00027abc
ram:00027b2a    ffe7            b           LAB_00027b2c                            
                            LAB_00027b2c:                 ;XREF[1,0]:   00027b2a
ram:00027b2c    6868            ldr         param_1,[r5,#0x4]                       
ram:00027b2e    fff761fb        bl          FUN_000271f4                            ;undefined4 FUN_000271f4(int param_1,...
ram:00027b32    0028            cmp         param_1,#0x0                            
ram:00027b34    f7d0            beq         LAB_00027b26                            
                            LAB_00027b36:                 ;XREF[1,0]:   00027b0c
ram:00027b36    bde8f047        pop.w       {r4,r5,r6,r7,r8,r9,r10,lr}              
ram:00027b3a    02f045b9        b.w         FUN_00029dc8                            ;undefined FUN_00029dc8(void)
                            LAB_00027b3e:                 ;XREF[1,0]:   00027a92
ram:00027b3e    8788            ldrh        r7,[param_1,#0x4]                       
ram:00027b40    0646            mov         r6,param_1                              
ram:00027b42    3846            mov         param_1,r7                              
ram:00027b44    00f0e8fd        bl          FUN_00028718                            ;ushort * FUN_00028718(uint param_1)
ram:00027b48    0400            movs        r4,param_1                              
ram:00027b4a    ecd0            beq         LAB_00027b26                            
ram:00027b4c    2b46            mov         param_4,r5                              
ram:00027b4e    4a46            mov         param_3,r9                              
ram:00027b50    06f10801        add.w       param_2,r6,#0x8                         
ram:00027b54    04f10a00        add.w       param_1,r4,#0xa                         
ram:00027b58    00f014fe        bl          FUN_00028784                            ;undefined4 FUN_00028784(ushort * par...
ram:00027b5c    6072            strb        param_1,[r4,#0x9]                       
ram:00027b5e    2146            mov         param_2,r4                              
                            LAB_00027b60:                 ;XREF[1,0]:   00027b08
ram:00027b60    3846            mov         param_1,r7                              
                            LAB_00027b62:                 ;XREF[1,0]:   00027ac2
ram:00027b62    bde8f047        pop.w       {r4,r5,r6,r7,r8,r9,r10,lr}              
ram:00027b66    00f0ddbc        b.w         LAB_00028524                            
                            DAT_00027b6c:                 ;XREF[1,0]:   00027a7e
ram:00027b6c    20300020        undefined4  20003020h                               
                            DAT_00027b70:                 ;XREF[1,0]:   00027ae0
ram:00027b70    182b0020        undefined4  20002B18h                               
                            ;************************************************************************************************
                            ;*                                           FUNCTION                                           *
                            ;************************************************************************************************
                            ;undefined FUN_00027b74(short * param_1, undefined4 param_2, undefined4 param_3, uint param_4)
          ;param_1       short *             r0                      
          ;param_2       undefined4          r1                      
          ;param_3       undefined4          r2                      
          ;param_4       uint                r3                      
          ;local_54      undefined4         -54                      ;XREF[2,0]:   00027ba6,00027bb0
          ;local_7c      undefined2         -7c                      ;XREF[1,0]:   00027bd4
          ;local_80      undefined4         -80                      ;XREF[1,0]:   00027bec
ram:00027b74    2de9f04f        push        {r4,r5,r6,r7,r8,r9,r10,r11,lr}          
ram:00027b78    0746            mov         r7,param_1                              
ram:00027b7a    8588            ldrh        r5,[param_1,#0x4]                       
ram:00027b7c    0288            ldrh        param_3,[param_1,#0x0]                  
ram:00027b7e    3d48            ldr         param_1=>DAT_20003044,[DAT_00027c74]    ;= 20003044h
ram:00027b80    0121            movs        param_2,#0x1                            
ram:00027b82    97b0            sub         sp,#0x5c                                
ram:00027b84    8346            mov         r11,param_1                             
ram:00027b86    102a            cmp         param_3,#0x10                           
ram:00027b88    09d0            beq         LAB_00027b9e                            
ram:00027b8a    112a            cmp         param_3,#0x11                           
ram:00027b8c    49d0            beq         LAB_00027c22                            
ram:00027b8e    1a2a            cmp         param_3,#0x1a                           
ram:00027b90    6cd1            bne         LAB_00027c6c                            
ram:00027b92    387a            ldrb        param_1,[r7,#0x8]                       
ram:00027b94    b1eb101f        cmp.w       param_2,param_1, lsr #0x4               
ram:00027b98    45d2            bcs         LAB_00027c26                            
ram:00027b9a    0122            movs        param_3,#0x1                            
ram:00027b9c    44e0            b           LAB_00027c28                            
                            LAB_00027b9e:                 ;XREF[1,0]:   00027b88
ram:00027b9e    354c            ldr         r4,[DAT_00027c74]                       ;= 20003044h
ram:00027ba0    083c            subs        r4,#0x8                                 
ram:00027ba2    a068            ldr         param_1,[r4,#0x8]=>DAT_20003044         
ram:00027ba4    c043            mvns        param_1,param_1                         
ram:00027ba6    0b90            str         param_1,[sp,#local_54+0x80]             
ram:00027ba8    6168            ldr         param_2,[r4,#0x4]=>DAT_20003040         
ram:00027baa    0ba8            add         param_1,sp,#0x2c                        
ram:00027bac    01f06df9        bl          FUN_00028e8a                            ;uint FUN_00028e8a(uint * param_1, ui...
ram:00027bb0    0b99            ldr         param_2,[sp,#local_54+0x80]             
ram:00027bb2    0ca8            add         param_1,sp,#0x30                        
ram:00027bb4    00f050fc        bl          FUN_00028458                            ;undefined FUN_00028458(undefined4 * ...
ram:00027bb8    2c22            movs        param_3,#0x2c                           
ram:00027bba    0ca9            add         param_2,sp,#0x30                        
ram:00027bbc    6846            mov         param_1,sp                              
ram:00027bbe    fef761fc        bl          FUN_00026484                            ;undefined FUN_00026484(undefined4 * ...
ram:00027bc2    0026            movs        r6,#0x0                                 
ram:00027bc4    e946            mov         r9,sp                                   
ram:00027bc6    a046            mov         r8,r4                                   
ram:00027bc8    10e0            b           LAB_00027bec                            
ram:00027bca    00bf            nop                                                  
                            LAB_00027bcc:                 ;XREF[1,0]:   00027bf0
ram:00027bcc    09eb4600        add.w       param_1,r9,r6, lsl #0x1                 
ram:00027bd0    5ff00004        movs.w      r4,#0x0                                 
ram:00027bd4    b0f804a0        ldrh.w      r10,[r0,#local_7c+0x80]                 
                            LAB_00027bd8:                 ;XREF[1,0]:   00027be8
ram:00027bd8    08eb8400        add.w       param_1,r8,r4, lsl #0x2                 
ram:00027bdc    5146            mov         param_2,r10                             
                                                          ; FWD[2,0]:   20003040,20003044
ram:00027bde    001d            adds        param_1=>DAT_20003040,param_1,#0x4      
ram:00027be0    01f030f9        bl          FUN_00028e44                            ;undefined FUN_00028e44(int param_1, ...
ram:00027be4    641c            adds        r4,r4,#0x1                              
ram:00027be6    1d2c            cmp         r4,#0x1d                                
ram:00027be8    f6d3            bcc         LAB_00027bd8                            
ram:00027bea    761c            adds        r6,r6,#0x1                              
                            LAB_00027bec:                 ;XREF[1,0]:   00027bc8
ram:00027bec    0098            ldr         param_1,[sp,#0x0]=>local_80             
ram:00027bee    b042            cmp         param_1,r6                              
ram:00027bf0    ecd8            bhi         LAB_00027bcc                            
ram:00027bf2    142d            cmp         r5,#0x14                                
ram:00027bf4    05d3            bcc         LAB_00027c02                            
ram:00027bf6    17b0            add         sp,#0x5c                                
ram:00027bf8    0420            movs        param_1,#0x4                            
ram:00027bfa    bde8f04f        pop.w       {r4,r5,r6,r7,r8,r9,r10,r11,lr}          
ram:00027bfe    fff76dba        b.w         FUN_000270dc                            ;undefined FUN_000270dc(void)
                            LAB_00027c02:                 ;XREF[1,0]:   00027bf4
ram:00027c02    2946            mov         param_2,r5                              
ram:00027c04    5846            mov         param_1=>DAT_20003044,r11               
ram:00027c06    01f033f9        bl          FUN_00028e70                            ;undefined FUN_00028e70(int param_1, ...
ram:00027c0a    2946            mov         param_2,r5                              
ram:00027c0c    08f10400        add.w       param_1=>DAT_20003040,r8,#0x4           
ram:00027c10    01f02ef9        bl          FUN_00028e70                            ;undefined FUN_00028e70(int param_1, ...
ram:00027c14    f87b            ldrb        param_1,[r7,#0xf]                       
ram:00027c16    0128            cmp         param_1,#0x1                            
ram:00027c18    28d0            beq         LAB_00027c6c                            
ram:00027c1a    1648            ldr         param_1,[DAT_00027c74]                  ;= 20003044h
ram:00027c1c    2946            mov         param_2,r5                              
ram:00027c1e    001d            adds        param_1,param_1,#0x4                    
ram:00027c20    15e0            b           LAB_00027c4e                            
                            LAB_00027c22:                 ;XREF[1,0]:   00027b8c
ram:00027c22    2946            mov         param_2,r5                              
ram:00027c24    1ae0            b           LAB_00027c5c                            
                            LAB_00027c26:                 ;XREF[1,0]:   00027b98
ram:00027c26    0022            movs        param_3,#0x0                            
                            LAB_00027c28:                 ;XREF[1,0]:   00027b9c
ram:00027c28    0221            movs        param_2,#0x2                            
ram:00027c2a    b1eb101f        cmp.w       param_2,param_1, lsr #0x4               
ram:00027c2e    01d2            bcs         LAB_00027c34                            
ram:00027c30    0126            movs        r6,#0x1                                 
ram:00027c32    00e0            b           LAB_00027c36                            
                            LAB_00027c34:                 ;XREF[1,0]:   00027c2e
ram:00027c34    0026            movs        r6,#0x0                                 
                            LAB_00027c36:                 ;XREF[1,0]:   00027c32
ram:00027c36    0f49            ldr         param_2,[DAT_00027c74]                  ;= 20003044h
ram:00027c38    0839            subs        param_2,#0x8                            
ram:00027c3a    01f11000        add.w       param_1,param_2,#0x10                   
ram:00027c3e    041d            adds        r4,param_1,#0x4                         
ram:00027c40    2946            mov         param_2,r5                              
ram:00027c42    82b1            cbz         param_3,LAB_00027c66                    
ram:00027c44    01f014f9        bl          FUN_00028e70                            ;undefined FUN_00028e70(int param_1, ...
ram:00027c48    36b1            cbz         r6,LAB_00027c58                         
ram:00027c4a    2946            mov         param_2,r5                              
ram:00027c4c    2046            mov         param_1,r4                              
                            LAB_00027c4e:                 ;XREF[1,0]:   00027c20
ram:00027c4e    17b0            add         sp,#0x5c                                
ram:00027c50    bde8f04f        pop.w       {r4,r5,r6,r7,r8,r9,r10,r11,lr}          
ram:00027c54    01f00cb9        b.w         FUN_00028e70                            ;undefined FUN_00028e70(int param_1, ...
                            LAB_00027c58:                 ;XREF[2,0]:   00027c48,00027c6a
ram:00027c58    2946            mov         param_2,r5                              
ram:00027c5a    2046            mov         param_1,r4                              
                            LAB_00027c5c:                 ;XREF[1,0]:   00027c24
ram:00027c5c    17b0            add         sp,#0x5c                                
ram:00027c5e    bde8f04f        pop.w       {r4,r5,r6,r7,r8,r9,r10,r11,lr}          
ram:00027c62    01f0efb8        b.w         FUN_00028e44                            ;undefined FUN_00028e44(int param_1, ...
                            LAB_00027c66:                 ;XREF[1,0]:   00027c42
ram:00027c66    01f0edf8        bl          FUN_00028e44                            ;undefined FUN_00028e44(int param_1, ...
ram:00027c6a    f5e7            b           LAB_00027c58                            
                            LAB_00027c6c:                 ;XREF[2,0]:   00027b90,00027c18
ram:00027c6c    17b0            add         sp,#0x5c                                
ram:00027c6e    bde8f08f        pop.w       {r4,r5,r6,r7,r8,r9,r10,r11,pc}          
                            DAT_00027c74:                 ;XREF[4,0]:   00027b7e,00027b9e,00027c1a,00027c36
ram:00027c74    44300020        undefined4  20003044h                               
                            ;************************************************************************************************
                            ;*                                           FUNCTION                                           *
                            ;************************************************************************************************
                            ;uint FUN_00027c78(int param_1, undefined4 param_2, ushort * param_3, uint param_4)
          ;param_1       int                 r0                      
          ;param_2       undefined4          r1                      
          ;param_3       ushort *            r2                      
          ;param_4       uint                r3                      
          ;local_18      undefined4         -18                      ;XREF[1,0]:   00027c9c
          ;local_1c      undefined4         -1c                      ;XREF[1,0]:   00027cc4
          ;local_20      undefined4         -20                      ;XREF[2,0]:   00027cc2,00027cd2
          ;local_24      undefined4         -24                      ;XREF[1,0]:   00027cc0
          ;local_28      undefined4         -28                      ;XREF[2,1]:   00027cbe,00027cc8,00027cce
                                                          ;XREF[5,0]:   00026b76,00028bb8,00028bf0,00028c22
                                                          ;             00029a76
ram:00027c78    f0b5            push        {r4,r5,r6,r7,lr}                        
ram:00027c7a    85b0            sub         sp,#0x14                                
ram:00027c7c    1646            mov         r6,param_3                              
ram:00027c7e    0f46            mov         r7,param_2                              
ram:00027c80    0400            movs        r4,param_1                              
ram:00027c82    1d46            mov         r5,param_4                              
ram:00027c84    14d0            beq         LAB_00027cb0                            
ram:00027c86    04aa            add         param_3,sp,#0x10                        
ram:00027c88    1946            mov         param_2,param_4                         
ram:00027c8a    6069            ldr         param_1,[r4,#0x14]                      
ram:00027c8c    fff700fb        bl          FUN_00027290                            ;undefined4 FUN_00027290(int * param_...
ram:00027c90    0028            cmp         param_1,#0x0                            
ram:00027c92    0bd1            bne         LAB_00027cac                            
ram:00027c94    a5f57f40        sub.w       param_1,r5,#0xff00                      
ram:00027c98    ff38            subs        param_1,#0xff                           
ram:00027c9a    0bd0            beq         LAB_00027cb4                            
ram:00027c9c    0498            ldr         param_1,[sp,#local_18+0x28]             
ram:00027c9e    48b1            cbz         param_1,LAB_00027cb4                    
ram:00027ca0    0078            ldrb        param_1,[param_1,#0x0]                  
ram:00027ca2    48b1            cbz         param_1,LAB_00027cb8                    
ram:00027ca4    3088            ldrh        param_1,[r6,#0x0]                       
ram:00027ca6    f428            cmp         param_1,#0xf4                           
ram:00027ca8    08d9            bls         LAB_00027cbc                            
ram:00027caa    0720            movs        param_1,#0x7                            
                            LAB_00027cac:                 ;XREF[5,0]:   00027c92,00027cb2,00027cb6,00027cba
                                                          ;             00027cdc
ram:00027cac    05b0            add         sp,#0x14                                
ram:00027cae    f0bd            pop         {r4,r5,r6,r7,pc}                        
                            LAB_00027cb0:                 ;XREF[1,0]:   00027c84
ram:00027cb0    0e20            movs        param_1,#0xe                            
ram:00027cb2    fbe7            b           LAB_00027cac                            
                            LAB_00027cb4:                 ;XREF[2,0]:   00027c9a,00027c9e
ram:00027cb4    0520            movs        param_1,#0x5                            
ram:00027cb6    f9e7            b           LAB_00027cac                            
                            LAB_00027cb8:                 ;XREF[1,0]:   00027ca2
ram:00027cb8    0820            movs        param_1,#0x8                            
ram:00027cba    f7e7            b           LAB_00027cac                            
                            LAB_00027cbc:                 ;XREF[1,0]:   00027ca8
ram:00027cbc    0020            movs        param_1,#0x0                            
ram:00027cbe    0090            str         param_1,[sp,#0x0]=>local_28             
ram:00027cc0    0190            str         param_1,[sp,#local_24+0x28]             
ram:00027cc2    0290            str         param_1,[sp,#local_20+0x28]             
ram:00027cc4    0390            str         param_1,[sp,#local_1c+0x28]             
ram:00027cc6    a088            ldrh        param_1,[r4,#0x4]                       
ram:00027cc8    adf80000        strh.w      param_1,[sp,#0x0]=>local_28             
ram:00027ccc    0120            movs        param_1,#0x1                            
ram:00027cce    8df80200        strb.w      param_1,[sp,#local_28+0x2a]             
ram:00027cd2    cde90267        strd        r6,r7,[sp,#local_20+0x28]               
ram:00027cd6    6946            mov         param_2,sp                              
ram:00027cd8    2846            mov         param_1,r5                              
ram:00027cda    aedf            svc         0xae                                    
ram:00027cdc    e6e7            b           LAB_00027cac                            
ram:00027cde    0000            movs        r0,r0                                   
                            ;************************************************************************************************
                            ;*                                           FUNCTION                                           *
                            ;************************************************************************************************
                            ;undefined8 FUN_00027ce0(undefined4 * param_1, undefined4 * param_2)
          ;param_1       undefined4 *        r0                      
          ;param_2       undefined4 *        r1                      
          ;local_16      undefined1         -16                      ;XREF[1,0]:   00027d04
          ;local_18      undefined2         -18                      ;XREF[1,0]:   00027d0c
          ;local_28      undefined4         -28                      ;XREF[1,0]:   00027cec
          ;local_35      undefined1         -35                      ;XREF[1,0]:   00027da0
          ;local_36      undefined1         -36                      ;XREF[2,0]:   00027d52,00027d94
          ;local_37      undefined1         -37                      ;XREF[2,0]:   00027d46,00027d88
          ;local_3b      undefined1         -3b                      ;XREF[4,0]:   00027d38,00027d4e,00027d84,00027d9c
          ;local_3c      undefined1         -3c                      ;XREF[2,0]:   00027d34,00027d80
          ;local_42      undefined2         -42                      ;XREF[2,0]:   00027d4a,00027d98
          ;local_44      undefined2         -44                      ;XREF[2,0]:   00027d3e,00027d8c
          ;local_46      undefined1         -46                      ;XREF[2,0]:   00027d30,00027d7c
          ;local_48      undefined2         -48                      ;XREF[2,0]:   00027d28,00027d76
                                                          ;XREF[1,0]:   000289b8
ram:00027ce0    70b5            push        {r4,r5,r6,lr}                           
ram:00027ce2    354d            ldr         r5,[PTR_DAT_00027db8]                   ;= 0002a5a4
ram:00027ce4    0400            movs        r4,param_1                              
ram:00027ce6    8eb0            sub         sp,#0x38                                
                                                          ; FWD[4,0]:   0002a5a4,0002a5a8,0002a5ac,0002a5b0
ram:00027ce8    2dcd            ldmia       r5,{param_1,r2,r3,r5}=>DAT_0002a5a4     ;= 212D53EBh
                                                                                    ;= CBE1E1D4h
                                                                                    ;= 8A009A28h
                                                                                    ;= 442F0000h
ram:00027cea    08ae            add         r6,sp,#0x20                             
ram:00027cec    86e82d00        stm         r6=>local_28,{param_1,r2,r3,r5}         
ram:00027cf0    5fd0            beq         LAB_00027db2                            
ram:00027cf2    e9b3            cbz         param_2,LAB_00027d70                    
ram:00027cf4    0868            ldr         param_1,[param_2,#0x0]                  
ram:00027cf6    a061            str         param_1,[r4,#0x18]                      
ram:00027cf8    2146            mov         param_2,r4                              
ram:00027cfa    08a8            add         param_1,sp,#0x20                        
ram:00027cfc    62df            svc         0x62                                    
ram:00027cfe    0028            cmp         param_1,#0x0                            
ram:00027d00    55d1            bne         LAB_00027dae                            
ram:00027d02    2078            ldrb        param_1,[r4,#0x0]                       
ram:00027d04    8df83200        strb.w      param_1,[sp,#local_16+0x48]             
ram:00027d08    41f27050        movw        param_1,#0x1570                         
ram:00027d0c    adf83000        strh.w      param_1,[sp,#local_18+0x48]             
ram:00027d10    a21c            adds        r2,r4,#0x2                              
ram:00027d12    0ca9            add         param_2,sp,#0x30                        
ram:00027d14    0120            movs        param_1,#0x1                            
ram:00027d16    a8df            svc         0xa8                                    
ram:00027d18    0028            cmp         param_1,#0x0                            
ram:00027d1a    48d1            bne         LAB_00027dae                            
ram:00027d1c    2021            movs        param_2,#0x20                           
ram:00027d1e    6846            mov         param_1,sp                              
ram:00027d20    fef7c9fb        bl          FUN_000264b6                            ;undefined FUN_000264b6(undefined * p...
ram:00027d24    41f27250        movw        param_1,#0x1572                         
ram:00027d28    adf80000        strh.w      param_1,[sp,#0x0]=>local_48             
ram:00027d2c    2078            ldrb        param_1,[r4,#0x0]                       
ram:00027d2e    0125            movs        r5,#0x1                                 
ram:00027d30    8df80200        strb.w      param_1,[sp,#local_46+0x48]             
ram:00027d34    8df80c50        strb.w      r5,[sp,#local_3c+0x48]                  
ram:00027d38    9df80d00        ldrb.w      param_1,[sp,#local_3b+0x48]             
ram:00027d3c    f426            movs        r6,#0xf4                                
ram:00027d3e    adf80460        strh.w      r6,[sp,#local_44+0x48]                  
ram:00027d42    40f00c00        orr         param_1,param_1,#0xc                    
ram:00027d46    8df81150        strb.w      r5,[sp,#local_37+0x48]                  
ram:00027d4a    adf80650        strh.w      r5,[sp,#local_42+0x48]                  
ram:00027d4e    8df80d00        strb.w      param_1,[sp,#local_3b+0x48]             
ram:00027d52    8df81250        strb.w      r5,[sp,#local_36+0x48]                  
ram:00027d56    6088            ldrh        param_1,[r4,#0x2]                       
ram:00027d58    04f10c02        add.w       r2,r4,#0xc                              
ram:00027d5c    6946            mov         param_2,sp                              
ram:00027d5e    00f03bfa        bl          FUN_000281d8                            ;undefined8 FUN_000281d8(undefined4 p...
ram:00027d62    0028            cmp         param_1,#0x0                            
ram:00027d64    23d1            bne         LAB_00027dae                            
ram:00027d66    2021            movs        param_2,#0x20                           
ram:00027d68    6846            mov         param_1,sp                              
ram:00027d6a    fef7a4fb        bl          FUN_000264b6                            ;undefined FUN_000264b6(undefined * p...
ram:00027d6e    00e0            b           LAB_00027d72                            
                            LAB_00027d70:                 ;XREF[1,0]:   00027cf2
ram:00027d70    1fe0            b           LAB_00027db2                            
                            LAB_00027d72:                 ;XREF[1,0]:   00027d6e
ram:00027d72    41f27150        movw        param_1,#0x1571                         
ram:00027d76    adf80000        strh.w      param_1,[sp,#0x0]=>local_48             
ram:00027d7a    2078            ldrb        param_1,[r4,#0x0]                       
ram:00027d7c    8df80200        strb.w      param_1,[sp,#local_46+0x48]             
ram:00027d80    8df80c50        strb.w      r5,[sp,#local_3c+0x48]                  
ram:00027d84    9df80d00        ldrb.w      param_1,[sp,#local_3b+0x48]             
ram:00027d88    8df81150        strb.w      r5,[sp,#local_37+0x48]                  
ram:00027d8c    adf80460        strh.w      r6,[sp,#local_44+0x48]                  
ram:00027d90    40f01000        orr         param_1,param_1,#0x10                   
ram:00027d94    8df81250        strb.w      r5,[sp,#local_36+0x48]                  
ram:00027d98    adf80650        strh.w      r5,[sp,#local_42+0x48]                  
ram:00027d9c    8df80d00        strb.w      param_1,[sp,#local_3b+0x48]             
ram:00027da0    8df81350        strb.w      r5,[sp,#local_35+0x48]                  
ram:00027da4    6088            ldrh        param_1,[r4,#0x2]                       
ram:00027da6    221d            adds        r2,r4,#0x4                              
ram:00027da8    6946            mov         param_2,sp                              
ram:00027daa    00f015fa        bl          FUN_000281d8                            ;undefined8 FUN_000281d8(undefined4 p...
                            LAB_00027dae:                 ;XREF[4,0]:   00027d00,00027d1a,00027d64,00027db4
ram:00027dae    0eb0            add         sp,#0x38                                
ram:00027db0    70bd            pop         {r4,r5,r6,pc}                           
                            LAB_00027db2:                 ;XREF[2,0]:   00027cf0,00027d70
ram:00027db2    0e20            movs        param_1,#0xe                            
ram:00027db4    fbe7            b           LAB_00027dae                            
ram:00027db6    0000            movs        r0,r0                                   
                            PTR_DAT_00027db8:             ;XREF[1,0]:   00027ce2
ram:00027db8    a4a50200        addr        DAT_0002a5a4                            ;= 212D53EBh
                            ;************************************************************************************************
                            ;*                                           FUNCTION                                           *
                            ;************************************************************************************************
                            ;undefined FUN_00027dbc(short * param_1, int param_2)
          ;param_1       short *             r0                      
          ;param_2       int                 r1                      
          ;local_18      undefined4         -18                      ;XREF[1,0]:   00027dea
          ;local_24      undefined4         -24                      ;XREF[1,0]:   00027e08
          ;local_28      undefined2         -28                      ;XREF[1,0]:   00027e04
          ;local_2c      undefined4         -2c                      ;XREF[1,0]:   00027e00
          ;local_30      undefined1         -30                      ;XREF[1,0]:   00027dfc
ram:00027dbc    70b5            push        {r4,r5,r6,lr}                           
ram:00027dbe    88b0            sub         sp,#0x20                                
ram:00027dc0    0446            mov         r4,param_1                              
ram:00027dc2    0029            cmp         param_2,#0x0                            
ram:00027dc4    24d0            beq         LAB_00027e10                            
ram:00027dc6    002c            cmp         r4,#0x0                                 
ram:00027dc8    22d0            beq         LAB_00027e10                            
ram:00027dca    0846            mov         param_1,param_2                         
ram:00027dcc    2188            ldrh        param_2,[r4,#0x0]                       
ram:00027dce    1029            cmp         param_2,#0x10                           
ram:00027dd0    20d0            beq         LAB_00027e14                            
ram:00027dd2    5029            cmp         param_2,#0x50                           
ram:00027dd4    24d0            beq         LAB_00027e20                            
ram:00027dd6    5729            cmp         param_2,#0x57                           
ram:00027dd8    1ad1            bne         LAB_00027e10                            
ram:00027dda    0546            mov         r5,param_1                              
ram:00027ddc    a188            ldrh        param_2,[r4,#0x4]                       
ram:00027dde    4069            ldr         param_1,[param_1,#0x14]                 
ram:00027de0    06aa            add         r2,sp,#0x18                             
ram:00027de2    fff755fa        bl          FUN_00027290                            ;undefined4 FUN_00027290(int * param_...
ram:00027de6    0028            cmp         param_1,#0x0                            
ram:00027de8    12d1            bne         LAB_00027e10                            
ram:00027dea    069e            ldr         r6,[sp,#local_18+0x30]                  
ram:00027dec    3078            ldrb        param_1,[r6,#0x0]                       
ram:00027dee    0028            cmp         param_1,#0x0                            
ram:00027df0    0ed0            beq         LAB_00027e10                            
ram:00027df2    1821            movs        param_2,#0x18                           
ram:00027df4    6846            mov         param_1,sp                              
ram:00027df6    fef75efb        bl          FUN_000264b6                            ;undefined FUN_000264b6(undefined * p...
ram:00027dfa    0120            movs        param_1,#0x1                            
ram:00027dfc    8df80000        strb.w      param_1,[sp,#0x0]=>local_30             
ram:00027e00    0195            str         r5,[sp,#local_2c+0x30]                  
ram:00027e02    a088            ldrh        param_1,[r4,#0x4]                       
ram:00027e04    adf80800        strh.w      param_1,[sp,#local_28+0x30]             
ram:00027e08    0396            str         r6,[sp,#local_24+0x30]                  
ram:00027e0a    a969            ldr         param_2,[r5,#0x18]                      
ram:00027e0c    6846            mov         param_1,sp                              
ram:00027e0e    8847            blx         param_2                                 
                            LAB_00027e10:                 ;XREF[5,0]:   00027dc4,00027dc8,00027dd8,00027de8
                                                          ;             00027df0
ram:00027e10    08b0            add         sp,#0x20                                
ram:00027e12    70bd            pop         {r4,r5,r6,pc}                           
                            LAB_00027e14:                 ;XREF[1,0]:   00027dd0
ram:00027e14    08b0            add         sp,#0x20                                
ram:00027e16    2146            mov         param_2,r4                              
ram:00027e18    bde87040        pop.w       {r4,r5,r6,lr}                           
ram:00027e1c    01f06abe        b.w         FUN_00029af4                            ;undefined FUN_00029af4(int param_1, ...
                            LAB_00027e20:                 ;XREF[1,0]:   00027dd4
ram:00027e20    08b0            add         sp,#0x20                                
ram:00027e22    2146            mov         param_2,r4                              
ram:00027e24    bde87040        pop.w       {r4,r5,r6,lr}                           
ram:00027e28    01f099be        b.w         FUN_00029b5e                            ;undefined FUN_00029b5e(int param_1, ...
                            ;************************************************************************************************
                            ;*                                           FUNCTION                                           *
                            ;************************************************************************************************
                            ;byte FUN_00027e2c(byte * param_1)
          ;param_1       byte *              r0                      
                                                          ;XREF[3,0]:   00027ab8,00029b2e,00029bba
ram:00027e2c    0078            ldrb        param_1,[param_1,#0x0]                  
ram:00027e2e    00f00100        and         param_1,param_1,#0x1                    
ram:00027e32    7047            bx          lr                                      
                            ;************************************************************************************************
                            ;*                                           FUNCTION                                           *
                            ;************************************************************************************************
                            ;undefined FUN_00027e34(int param_1)
          ;param_1       int                 r0                      
                                                          ;XREF[1,0]:   0002a49c
ram:00027e34    0149            ldr         r1,[PTR_DAT_00027e3c]                   ;= 0002a55a
ram:00027e36    085c            ldrb        param_1,[r1,param_1]=>DAT_0002a55a      ;= 0Dh
ram:00027e38    7047            bx          lr                                      
ram:00027e3a    0000            movs        r0,r0                                   
                            PTR_DAT_00027e3c:             ;XREF[1,0]:   00027e34
ram:00027e3c    5aa50200        addr        DAT_0002a55a                            ;= 0Dh
                            ;************************************************************************************************
                            ;*                                           FUNCTION                                           *
                            ;************************************************************************************************
                            ;undefined FUN_00027e40(int param_1)
          ;param_1       int                 r0                      
                                                          ;XREF[3,0]:   000280fa,00028110,00028122
ram:00027e40    0749            ldr         r1,[->FUN_0002a556]                     ;= 0002a556
ram:00027e42    0b5c            ldrb        r3,[r1,param_1]=>FUN_0002a556           
ram:00027e44    4ff0a041        mov.w       r1,#0x50000000                          
ram:00027e48    d1f80425        ldr.w       r2,[r1,#offset DAT_50000504 &0xffff]    
ram:00027e4c    0120            movs        param_1,#0x1                            
ram:00027e4e    9840            lsls        param_1,r3                              
ram:00027e50    20ea0203        bic.w       r3,param_1,r2                           
ram:00027e54    c1f80835        str.w       r3,[r1,#offset DAT_50000508 &0xffff]    
ram:00027e58    1040            ands        param_1,r2                              
ram:00027e5a    c1f80c05        str.w       param_1,[r1,#offset DAT_5000050c &0xf...
ram:00027e5e    7047            bx          lr                                      
                            PTR_FUN_00027e60:             ;XREF[1,0]:   00027e40
ram:00027e60    56a50200        addr        FUN_0002a556                            
                            ;************************************************************************************************
                            ;*                                           FUNCTION                                           *
                            ;************************************************************************************************
                            ;undefined FUN_00027e64(int param_1)
          ;param_1       int                 r0                      
                                                          ;XREF[7,0]:   00027eaa,0002805a,000280a4,000280c2
                                                          ;             000280dc,00028140,000287da
ram:00027e64    0249            ldr         r1,[->FUN_0002a556]                     ;= 0002a556
ram:00027e66    085c            ldrb        param_1,[r1,param_1]=>FUN_0002a556      
ram:00027e68    0121            movs        r1,#0x1                                 
ram:00027e6a    01f011bb        b.w         LAB_00029490                            
                            PTR_FUN_00027e70:             ;XREF[1,0]:   00027e64
ram:00027e70    56a50200        addr        FUN_0002a556                            
                            ;************************************************************************************************
                            ;*                                           FUNCTION                                           *
                            ;************************************************************************************************
                            ;undefined FUN_00027e74(int param_1)
          ;param_1       int                 r0                      
                                                          ;XREF[8,0]:   00027ebc,0002806c,000280ae,000280c8
                                                          ;             000280e2,0002817e,000281a4,000281aa
ram:00027e74    0249            ldr         r1,[->FUN_0002a556]                     ;= 0002a556
ram:00027e76    085c            ldrb        param_1,[r1,param_1]=>FUN_0002a556      
ram:00027e78    0021            movs        r1,#0x0                                 
ram:00027e7a    01f009bb        b.w         LAB_00029490                            
                            PTR_FUN_00027e80:             ;XREF[1,0]:   00027e74
ram:00027e80    56a50200        addr        FUN_0002a556                            
                            ;************************************************************************************************
                            ;*                                           FUNCTION                                           *
                            ;************************************************************************************************
                            ;uint FUN_00027e84(int param_1)
          ;param_1       int                 r0                      
                                                          ;XREF[4,0]:   0002804e,00028098,000280b6,000280d0
ram:00027e84    0649            ldr         r1,[->FUN_0002a556]                     ;= 0002a556
ram:00027e86    095c            ldrb        r1=>FUN_0002a556,[r1,param_1]           
ram:00027e88    4ff0a040        mov.w       param_1,#0x50000000                     
ram:00027e8c    d0f80405        ldr.w       param_1,[param_1,#offset DAT_50000504...
ram:00027e90    c840            lsrs        param_1,r1                              
ram:00027e92    10f00100        ands        param_1,param_1,#0x1                    
ram:00027e96    00d0            beq         LAB_00027e9a                            
ram:00027e98    0120            movs        param_1,#0x1                            
                            LAB_00027e9a:                 ;XREF[1,0]:   00027e96
ram:00027e9a    80f00100        eor         param_1,param_1,#0x1                    
ram:00027e9e    7047            bx          lr                                      
                            PTR_FUN_00027ea0:             ;XREF[1,0]:   00027e84
ram:00027ea0    56a50200        addr        FUN_0002a556                            
                            ;************************************************************************************************
                            ;*                                           FUNCTION                                           *
                            ;************************************************************************************************
                            ;undefined FUN_00027ea4(void)
                                                          ;XREF[1,0]:   000287ee
ram:00027ea4    10b5            push        {r4,lr}                                 
ram:00027ea6    0024            movs        r4,#0x0                                 
                            LAB_00027ea8:                 ;XREF[1,0]:   00027eb2
ram:00027ea8    2046            mov         r0,r4                                   
ram:00027eaa    fff7dbff        bl          FUN_00027e64                            ;undefined FUN_00027e64(int param_1)
ram:00027eae    641c            adds        r4,r4,#0x1                              
ram:00027eb0    042c            cmp         r4,#0x4                                 
ram:00027eb2    f9d3            bcc         LAB_00027ea8                            
ram:00027eb4    10bd            pop         {r4,pc}                                 
                            ;************************************************************************************************
                            ;*                                           FUNCTION                                           *
                            ;************************************************************************************************
                            ;undefined FUN_00027eb6(void)
                                                          ;XREF[1,0]:   000281b0
ram:00027eb6    10b5            push        {r4,lr}                                 
ram:00027eb8    0024            movs        r4,#0x0                                 
                            LAB_00027eba:                 ;XREF[1,0]:   00027ec4
ram:00027eba    2046            mov         r0,r4                                   
ram:00027ebc    fff7daff        bl          FUN_00027e74                            ;undefined FUN_00027e74(int param_1)
ram:00027ec0    641c            adds        r4,r4,#0x1                              
ram:00027ec2    042c            cmp         r4,#0x4                                 
ram:00027ec4    f9d3            bcc         LAB_00027eba                            
ram:00027ec6    10bd            pop         {r4,pc}                                 
                            ;************************************************************************************************
                            ;*                                           FUNCTION                                           *
                            ;************************************************************************************************
                            ;uint FUN_00027ec8(uint param_1)
          ;param_1       uint                r0                      
                                                          ;XREF[1,0]:   00027f14
ram:00027ec8    10b5            push        {r4,lr}                                 
ram:00027eca    0246            mov         r2,param_1                              
ram:00027ecc    064b            ldr         r3,[PTR_DAT_00027ee8]                   ;= 0002a55a
ram:00027ece    4ff0ff30        mov.w       param_1,#0xffffffff                     
ram:00027ed2    0021            movs        r1,#0x0                                 
                            LAB_00027ed4:                 ;XREF[1,0]:   00027ee2
                                                          ; FWD[2,0]:   0002a55a,0002a55b
ram:00027ed4    5c5c            ldrb        r4,[r3,r1]=>DAT_0002a55a                ;= 0Dh
                                                                                    ;= 0Eh
ram:00027ed6    9442            cmp         r4,r2                                   
ram:00027ed8    01d1            bne         LAB_00027ede                            
ram:00027eda    0846            mov         param_1,r1                              
ram:00027edc    10bd            pop         {r4,pc}                                 
                            LAB_00027ede:                 ;XREF[1,0]:   00027ed8
ram:00027ede    491c            adds        r1,r1,#0x1                              
ram:00027ee0    0429            cmp         r1,#0x4                                 
ram:00027ee2    f7d3            bcc         LAB_00027ed4                            
ram:00027ee4    10bd            pop         {r4,pc}                                 
ram:00027ee6    0000            movs        r0,r0                                   
                            PTR_DAT_00027ee8:             ;XREF[1,0]:   00027ecc
ram:00027ee8    5aa50200        addr        DAT_0002a55a                            ;= 0Dh
                            ;************************************************************************************************
                            ;*                                           FUNCTION                                           *
                            ;************************************************************************************************
                            ;int FUN_00027eec(void)
                                                          ;XREF[1,0]:   00029abc
ram:00027eec    10b5            push        {r4,lr}                                 
ram:00027eee    0020            movs        r0,#0x0                                 
ram:00027ef0    00f066f9        bl          FUN_000281c0                            ;undefined4 FUN_000281c0(uint param_1)
ram:00027ef4    08b1            cbz         r0,LAB_00027efa                         
ram:00027ef6    0628            cmp         r0,#0x6                                 
ram:00027ef8    06d1            bne         LAB_00027f08                            
                            LAB_00027efa:                 ;XREF[1,0]:   00027ef4
ram:00027efa    0120            movs        r0,#0x1                                 
ram:00027efc    00f060f9        bl          FUN_000281c0                            ;undefined4 FUN_000281c0(uint param_1)
ram:00027f00    08b1            cbz         r0,LAB_00027f06                         
ram:00027f02    0628            cmp         r0,#0x6                                 
ram:00027f04    00d1            bne         LAB_00027f08                            
                            LAB_00027f06:                 ;XREF[1,0]:   00027f00
ram:00027f06    0020            movs        r0,#0x0                                 
                            LAB_00027f08:                 ;XREF[2,0]:   00027ef8,00027f04
ram:00027f08    10bd            pop         {r4,pc}                                 
ram:00027f0a    0000            movs        r0,r0                                   
                            ;************************************************************************************************
                            ;*                                           FUNCTION                                           *
                            ;************************************************************************************************
                            ;undefined FUN_00027f0c(uint param_1, int param_2, uint param_3, undefined4 param_4)
          ;param_1       uint                r0                      
          ;param_2       int                 r1                      
          ;param_3       uint                r2                      
          ;param_4       undefined4          r3                      
ram:00027f0c    2de9f047        push        {r4,r5,r6,r7,r8,r9,r10,lr}              
ram:00027f10    0d46            mov         r5,param_2                              
ram:00027f12    8146            mov         r9,param_1                              
ram:00027f14    fff7d8ff        bl          FUN_00027ec8                            ;uint FUN_00027ec8(uint param_1)
ram:00027f18    0446            mov         r4,param_1                              
ram:00027f1a    0428            cmp         param_1,#0x4                            
ram:00027f1c    36d2            bcs         LAB_00027f8c                            
ram:00027f1e    dff87480        ldr.w       r8,[DAT_00027f94]                       ;= 20002B0Ch
ram:00027f22    1b48            ldr         param_1=>DAT_0002a560,[PTR_DAT_00027f90];= 20002F80h
                                                                                    ;= 0002a560
ram:00027f24    1c4e            ldr         r6,[DAT_00027f98]                       ;= 20002FC0h
ram:00027f26    a8f10c07        sub.w       r7,r8,#0xc                              
ram:00027f2a    25b3            cbz         r5,LAB_00027f76                         
ram:00027f2c    012d            cmp         r5,#0x1                                 
ram:00027f2e    0ed0            beq         LAB_00027f4e                            
ram:00027f30    022d            cmp         r5,#0x2                                 
ram:00027f32    2bd1            bne         LAB_00027f8c                            
ram:00027f34    04eb4400        add.w       param_1,r4,r4, lsl #0x1                 
ram:00027f38    3044            add         param_1,r6                              
ram:00027f3a    4578            ldrb        r5,[param_1,#0x1]                       
                            LAB_00027f3c:                 ;XREF[2,0]:   00027f74,00027f8a
ram:00027f3c    002d            cmp         r5,#0x0                                 
ram:00027f3e    25d0            beq         LAB_00027f8c                            
ram:00027f40    b968            ldr         param_2,[r7,#offset DAT_20002b08 &0xff] 
ram:00027f42    0029            cmp         param_2,#0x0                            
ram:00027f44    22d0            beq         LAB_00027f8c                            
ram:00027f46    2846            mov         param_1,r5                              
ram:00027f48    bde8f047        pop.w       {r4,r5,r6,r7,r8,r9,r10,lr}              
ram:00027f4c    0847            bx          param_2                                 
                            LAB_00027f4e:                 ;XREF[1,0]:   00027f2e
ram:00027f4e    04eb4401        add.w       param_2,r4,r4, lsl #0x1                 
ram:00027f52    755c            ldrb        r5,[r6,param_2]                         
ram:00027f54    0e44            add         r6,param_2                              
ram:00027f56    7178            ldrb        param_2,[r6,#0x1]                       
ram:00027f58    49b1            cbz         param_2,LAB_00027f6e                    
ram:00027f5a    0e4a            ldr         param_3,[DAT_00027f94]                  ;= 20002B0Ch
ram:00027f5c    4ff40041        mov.w       param_2,#0x8000                         
ram:00027f60    093a            subs        param_3=>DAT_20002b03,#0x9              
ram:00027f62    8068            ldr         param_1,[param_1,#0x8]=>DAT_0002a568    ;= 20002FCCh
ram:00027f64    fff702f9        bl          FUN_0002716c                            ;undefined4 FUN_0002716c(int param_1,...
ram:00027f68    08b9            cbnz        param_1,LAB_00027f6e                    
ram:00027f6a    87f80390        strb.w      r9,[r7,#offset DAT_20002b03 &0xff]      
                            LAB_00027f6e:                 ;XREF[2,0]:   00027f58,00027f68
ram:00027f6e    b178            ldrb        param_2,[r6,#0x2]                       
ram:00027f70    08f80410        strb.w      param_2,r8,r4,0x0                       
ram:00027f74    e2e7            b           LAB_00027f3c                            
                            LAB_00027f76:                 ;XREF[1,0]:   00027f2a
ram:00027f76    8068            ldr         param_1,[param_1,#0x8]=>DAT_0002a568    ;= 20002FCCh
ram:00027f78    fff73cf9        bl          FUN_000271f4                            ;undefined4 FUN_000271f4(int param_1,...
ram:00027f7c    04eb4401        add.w       param_2,r4,r4, lsl #0x1                 
ram:00027f80    3144            add         param_2,r6                              
ram:00027f82    18f80400        ldrb.w      param_1,r8,r4,0x0                       
ram:00027f86    8d78            ldrb        r5,[param_2,#0x2]                       
ram:00027f88    a842            cmp         param_1,r5                              
ram:00027f8a    d7d0            beq         LAB_00027f3c                            
                            LAB_00027f8c:                 ;XREF[4,0]:   00027f1c,00027f32,00027f3e,00027f44
ram:00027f8c    bde8f087        pop.w       {r4,r5,r6,r7,r8,r9,r10,pc}              
                            PTR_DAT_00027f90:             ;XREF[1,0]:   00027f22
ram:00027f90    60a50200        addr        DAT_0002a560                            ;= 20002F80h
                            DAT_00027f94:                 ;XREF[2,0]:   00027f1e,00027f5a
ram:00027f94    0c2b0020        undefined4  20002B0Ch                               
                            DAT_00027f98:                 ;XREF[1,0]:   00027f24
ram:00027f98    c02f0020        undefined4  20002FC0h                               
                            ;************************************************************************************************
                            ;*                                           FUNCTION                                           *
                            ;************************************************************************************************
                            ;undefined4 FUN_00027f9c(uint param_1, int param_2, int param_3)
          ;param_1       uint                r0                      
          ;param_2       int                 r1                      
          ;param_3       int                 r2                      
                                                          ;XREF[6,0]:   0002707c,0002708c,0002709c,00027a3a
                                                          ;             00027a4a,00027a5a
ram:00027f9c    70b5            push        {r4,r5,r6,lr}                           
ram:00027f9e    0023            movs        r3,#0x0                                 
ram:00027fa0    0428            cmp         param_1,#0x4                            
ram:00027fa2    10d2            bcs         LAB_00027fc6                            
ram:00027fa4    0d4d            ldr         r5,[DAT_00027fdc]                       ;= 20002FC0h
ram:00027fa6    00eb4004        add.w       r4,param_1,param_1, lsl #0x1            
ram:00027faa    012a            cmp         param_3,#0x1                            
ram:00027fac    02d1            bne         LAB_00027fb4                            
ram:00027fae    0129            cmp         param_2,#0x1                            
ram:00027fb0    0cd0            beq         LAB_00027fcc                            
ram:00027fb2    0022            movs        param_3,#0x0                            
                            LAB_00027fb4:                 ;XREF[1,0]:   00027fac
ram:00027fb4    094e            ldr         r6,[DAT_00027fdc]                       ;= 20002FC0h
ram:00027fb6    00eb4000        add.w       param_1,param_1,param_1, lsl #0x1       
ram:00027fba    3044            add         param_1,r6                              
ram:00027fbc    61b1            cbz         param_2,LAB_00027fd8                    
ram:00027fbe    0129            cmp         param_2,#0x1                            
ram:00027fc0    06d0            beq         LAB_00027fd0                            
ram:00027fc2    0229            cmp         param_2,#0x2                            
ram:00027fc4    06d0            beq         LAB_00027fd4                            
                            LAB_00027fc6:                 ;XREF[1,0]:   00027fa2
ram:00027fc6    0723            movs        r3,#0x7                                 
                            LAB_00027fc8:                 ;XREF[3,0]:   00027fd2,00027fd6,00027fda
ram:00027fc8    1846            mov         param_1,r3                              
ram:00027fca    70bd            pop         {r4,r5,r6,pc}                           
                            LAB_00027fcc:                 ;XREF[1,0]:   00027fb0
ram:00027fcc    0e30            adds        param_1,#0xe                            
ram:00027fce    c2b2            uxtb        param_3,param_1                         
                            LAB_00027fd0:                 ;XREF[1,0]:   00027fc0
ram:00027fd0    2a55            strb        param_3,[r5,r4]                         
ram:00027fd2    f9e7            b           LAB_00027fc8                            
                            LAB_00027fd4:                 ;XREF[1,0]:   00027fc4
ram:00027fd4    4270            strb        param_3,[param_1,#0x1]                  
ram:00027fd6    f7e7            b           LAB_00027fc8                            
                            LAB_00027fd8:                 ;XREF[1,0]:   00027fbc
ram:00027fd8    8270            strb        param_3,[param_1,#0x2]                  
ram:00027fda    f5e7            b           LAB_00027fc8                            
                            DAT_00027fdc:                 ;XREF[2,0]:   00027fa4,00027fb4
ram:00027fdc    c02f0020        undefined4  20002FC0h                               
                            ;************************************************************************************************
                            ;*                                           FUNCTION                                           *
                            ;************************************************************************************************
                            ;int FUN_00027fe0(uint param_1, undefined4 param_2, undefined4 param_3, undefined4 param_4)
          ;param_1       uint                r0                      
          ;param_2       undefined4          r1                      
          ;param_3       undefined4          r2                      
          ;param_4       undefined4          r3                      
                                                          ;XREF[3,0]:   00027998,00029aaa,00029ab2
ram:00027fe0    044a            ldr         param_3,[DAT_00027ff4]                  ;= 20002B00h
ram:00027fe2    0146            mov         param_2,param_1                         
ram:00027fe4    0020            movs        param_1,#0x0                            
ram:00027fe6    1279            ldrb        param_3,[param_3,#offset DAT_20002b04...
ram:00027fe8    d207            lsls        param_3,param_3,#0x1f                   
ram:00027fea    02d0            beq         LAB_00027ff2                            
ram:00027fec    0846            mov         param_1,param_2                         
ram:00027fee    00f003b8        b.w         LAB_00027ff8                            
                            LAB_00027ff2:                 ;XREF[1,0]:   00027fea
ram:00027ff2    7047            bx          lr                                      
                            DAT_00027ff4:                 ;XREF[1,0]:   00027fe0
ram:00027ff4    002b0020        undefined4  20002B00h                               
                            LAB_00027ff8:                 ;XREF[1,0]:   00027fee
ram:00027ff8    2de9f05f        push        {r4,r5,r6,r7,r8,r9,r10,r11,r12,lr}      
ram:00027ffc    6e4c            ldr         r4,[DAT_000281b8]                       ;= 20002B00h
ram:00027ffe    0546            mov         r5,param_1                              
ram:00028000    0026            movs        r6,#0x0                                 
ram:00028002    6078            ldrb        param_1,[r4,#offset DAT_20002b01 &0xff] 
ram:00028004    b346            mov         r11,r6                                  
ram:00028006    18b1            cbz         param_1,LAB_00028010                    
ram:00028008    84f801b0        strb.w      r11,[r4,#offset DAT_20002b01 &0xff]     
ram:0002800c    00f0dcfb        bl          FUN_000287c8                            ;undefined FUN_000287c8(void)
                            LAB_00028010:                 ;XREF[1,0]:   00028006
ram:00028010    6a4f            ldr         r7,[PTR_DAT_000281bc]                   ;= 0002a560
ram:00028012    4ff47a69        mov.w       r9,#0xfa0                               
ram:00028016    4ff4c87a        mov.w       r10,#0x190                              
ram:0002801a    4ff00108        mov.w       r8,#0x1                                 
ram:0002801e    182d            cmp         r5,#0x18                                
ram:00028020    69d2            bcs         LAB_000280f6                            
                            switchD:                      ; FWD[16,0]:  00028026,0002803e,0002804c,00028096
                                                          ;             000280b4,000280ce,000280f8,00028102
                                                          ;             0002810a,0002811c,0002812e,0002818c
                                                          ;             00028192,00028198,0002819e,000281b0
ram:00028022    dfe805f0        tbb         [switchD_00028022::switchdataD_000280...;= Ch
                            switchdataD_00028026:         ;XREF[1,0]:   00028022
ram:00028026    0c              db          Ch                                      
ram:00028027    13              db          13h                                     
ram:00028028    13              db          13h                                     
ram:00028029    38              db          38h                                     
ram:0002802a    47              db          47h                                     
ram:0002802b    54              db          54h                                     
ram:0002802c    69              db          69h                                     
ram:0002802d    6e              db          6Eh                                     
ram:0002802e    72              db          72h                                     
ram:0002802f    7b              db          7Bh                                     
ram:00028030    72              db          72h                                     
ram:00028031    7b              db          7Bh                                     
ram:00028032    c5              db          C5h                                     
ram:00028033    84              db          84h                                     
ram:00028034    84              db          84h                                     
ram:00028035    84              db          84h                                     
ram:00028036    84              db          84h                                     
ram:00028037    84              db          84h                                     
ram:00028038    b3              db          B3h                                     
ram:00028039    b6              db          B6h                                     
ram:0002803a    b9              db          B9h                                     
ram:0002803b    bc              db          BCh                                     
ram:0002803c    c5              db          C5h                                     
ram:0002803d    c5              db          C5h                                     
                            caseD_0:                      ;XREF[1,0]:   00028022
ram:0002803e    00f0c3fb        bl          FUN_000287c8                            ;undefined FUN_000287c8(void)
ram:00028042    3868            ldr         param_1,[r7,#0x0]=>DAT_0002a560         ;= 20002F80h
ram:00028044    fff7d6f8        bl          FUN_000271f4                            ;undefined4 FUN_000271f4(int param_1,...
ram:00028048    0646            mov         r6,param_1                              
ram:0002804a    5ce0            b           LAB_00028106                            
                            caseD_2:                      ;XREF[1,0]:   00028022
                            caseD_1:                      
ram:0002804c    0020            movs        param_1,#0x0                            
ram:0002804e    fff719ff        bl          FUN_00027e84                            ;uint FUN_00027e84(int param_1)
ram:00028052    0028            cmp         param_1,#0x0                            
ram:00028054    4ff00000        mov.w       param_1,#0x0                            
ram:00028058    08d0            beq         LAB_0002806c                            
ram:0002805a    fff703ff        bl          FUN_00027e64                            ;undefined FUN_00027e64(int param_1)
ram:0002805e    022d            cmp         r5,#0x2                                 
ram:00028060    02d1            bne         LAB_00028068                            
ram:00028062    4ff4e160        mov.w       param_1,#0x708                          
ram:00028066    08e0            b           LAB_0002807a                            
                            LAB_00028068:                 ;XREF[2,0]:   00028060,000280c6
ram:00028068    4846            mov         param_1,r9                              
ram:0002806a    06e0            b           LAB_0002807a                            
                            LAB_0002806c:                 ;XREF[1,0]:   00028058
ram:0002806c    fff702ff        bl          FUN_00027e74                            ;undefined FUN_00027e74(int param_1)
ram:00028070    022d            cmp         r5,#0x2                                 
ram:00028072    01d1            bne         LAB_00028078                            
                            LAB_00028074:                 ;XREF[1,0]:   000280b2
ram:00028074    c820            movs        param_1,#0xc8                           
ram:00028076    00e0            b           LAB_0002807a                            
                            LAB_00028078:                 ;XREF[2,0]:   00028072,000280cc
ram:00028078    5046            mov         param_1,r10                             
                            LAB_0002807a:                 ;XREF[4,0]:   00028066,0002806a,00028076,000280ac
ram:0002807a    410c            lsrs        param_2,param_1,#0x11                   
ram:0002807c    c003            lsls        param_1,param_1,#0xf                    
ram:0002807e    4ff4fa72        mov.w       param_3,#0x1f4                          
ram:00028082    8018            adds        param_1,param_1,param_3                 
ram:00028084    41f10001        adc         param_2,param_2,#0x0                    
ram:00028088    2570            strb        r5,[r4,#0x0]=>DAT_20002b00              
ram:0002808a    5200            lsls        param_3,param_3,#0x1                    
ram:0002808c    0023            movs        param_4,#0x0                            
ram:0002808e    fef7a9f9        bl          FUN_000263e4                            ;longlong FUN_000263e4(uint param_1, ...
ram:00028092    0146            mov         param_2,param_1                         
ram:00028094    2ae0            b           LAB_000280ec                            
                            caseD_3:                      ;XREF[1,0]:   00028022
ram:00028096    0020            movs        param_1,#0x0                            
ram:00028098    fff7f4fe        bl          FUN_00027e84                            ;uint FUN_00027e84(int param_1)
ram:0002809c    0028            cmp         param_1,#0x0                            
ram:0002809e    4ff00000        mov.w       param_1,#0x0                            
ram:000280a2    04d0            beq         LAB_000280ae                            
ram:000280a4    fff7defe        bl          FUN_00027e64                            ;undefined FUN_00027e64(int param_1)
ram:000280a8    4ff44870        mov.w       param_1,#0x320                          
ram:000280ac    e5e7            b           LAB_0002807a                            
                            LAB_000280ae:                 ;XREF[1,0]:   000280a2
ram:000280ae    fff7e1fe        bl          FUN_00027e74                            ;undefined FUN_00027e74(int param_1)
ram:000280b2    dfe7            b           LAB_00028074                            
                            caseD_4:                      ;XREF[1,0]:   00028022
ram:000280b4    0020            movs        param_1,#0x0                            
ram:000280b6    fff7e5fe        bl          FUN_00027e84                            ;uint FUN_00027e84(int param_1)
ram:000280ba    0028            cmp         param_1,#0x0                            
ram:000280bc    4ff00000        mov.w       param_1,#0x0                            
ram:000280c0    02d0            beq         LAB_000280c8                            
ram:000280c2    fff7cffe        bl          FUN_00027e64                            ;undefined FUN_00027e64(int param_1)
ram:000280c6    cfe7            b           LAB_00028068                            
                            LAB_000280c8:                 ;XREF[1,0]:   000280c0
ram:000280c8    fff7d4fe        bl          FUN_00027e74                            ;undefined FUN_00027e74(int param_1)
ram:000280cc    d4e7            b           LAB_00028078                            
                            caseD_5:                      ;XREF[1,0]:   00028022
ram:000280ce    0020            movs        param_1,#0x0                            
ram:000280d0    fff7d8fe        bl          FUN_00027e84                            ;uint FUN_00027e84(int param_1)
ram:000280d4    0028            cmp         param_1,#0x0                            
ram:000280d6    4ff00000        mov.w       param_1,#0x0                            
ram:000280da    02d0            beq         LAB_000280e2                            
ram:000280dc    fff7c2fe        bl          FUN_00027e64                            ;undefined FUN_00027e64(int param_1)
ram:000280e0    01e0            b           LAB_000280e6                            
                            LAB_000280e2:                 ;XREF[1,0]:   000280da
ram:000280e2    fff7c7fe        bl          FUN_00027e74                            ;undefined FUN_00027e74(int param_1)
                            LAB_000280e6:                 ;XREF[1,0]:   000280e0
ram:000280e6    2570            strb        r5,[r4,#0x0]=>DAT_20002b00              
ram:000280e8    41f69a11        movw        param_2,#0x199a                         
                            LAB_000280ec:                 ;XREF[1,0]:   00028094
ram:000280ec    0022            movs        param_3,#0x0                            
                            LAB_000280ee:                 ;XREF[2,0]:   0002811a,0002812c
ram:000280ee    3868            ldr         param_1,[r7,#0x0]=>DAT_0002a560         ;= 20002F80h
ram:000280f0    fff73cf8        bl          FUN_0002716c                            ;undefined4 FUN_0002716c(int param_1,...
ram:000280f4    0646            mov         r6,param_1                              
                            LAB_000280f6:                 ;XREF[1,0]:   00028020
ram:000280f6    46e0            b           LAB_00028186                            
                            caseD_6:                      ;XREF[1,0]:   00028022
ram:000280f8    0020            movs        param_1,#0x0                            
ram:000280fa    fff7a1fe        bl          FUN_00027e40                            ;undefined FUN_00027e40(int param_1)
ram:000280fe    2570            strb        r5,[r4,#0x0]=>DAT_20002b00              
ram:00028100    08e0            b           LAB_00028114                            
                            caseD_7:                      ;XREF[2,0]:   00028022,00028196
ram:00028102    0020            movs        param_1,#0x0                            
ram:00028104    51e0            b           LAB_000281aa                            
                            LAB_00028106:                 ;XREF[4,0]:   0002804a,00028190,000281ae,000281b4
ram:00028106    2570            strb        r5,[r4,#0x0]=>DAT_20002b00              
ram:00028108    3de0            b           LAB_00028186                            
                            caseD_a:                      ;XREF[1,0]:   00028022
                            caseD_8:                      
ram:0002810a    84f80180        strb.w      r8,[r4,#offset DAT_20002b01 &0xff]      
ram:0002810e    0120            movs        param_1,#0x1                            
ram:00028110    fff796fe        bl          FUN_00027e40                            ;undefined FUN_00027e40(int param_1)
                            LAB_00028114:                 ;XREF[1,0]:   00028100
ram:00028114    0022            movs        param_3,#0x0                            
ram:00028116    40f6cd41        movw        param_2,#0xccd                          
ram:0002811a    e8e7            b           LAB_000280ee                            
                            caseD_b:                      ;XREF[1,0]:   00028022
                            caseD_9:                      
ram:0002811c    84f80180        strb.w      r8,[r4,#offset DAT_20002b01 &0xff]      
ram:00028120    0120            movs        param_1,#0x1                            
ram:00028122    fff78dfe        bl          FUN_00027e40                            ;undefined FUN_00027e40(int param_1)
ram:00028126    0022            movs        param_3,#0x0                            
ram:00028128    4ff48041        mov.w       param_2,#0x4000                         
ram:0002812c    dfe7            b           LAB_000280ee                            
                            caseD_e:                      ;XREF[1,0]:   00028022
                            caseD_f:                      
                            caseD_10:                     
                            caseD_11:                     
                            caseD_d:                      
ram:0002812e    7868            ldr         param_1,[r7,#0x4]=>DAT_0002a564         ;= 20002FA0h
ram:00028130    fff760f8        bl          FUN_000271f4                            ;undefined4 FUN_000271f4(int param_1,...
ram:00028134    0646            mov         r6,param_1                              
ram:00028136    d5f11100        rsbs.w      param_1,r5,#0x11                        
ram:0002813a    00d0            beq         LAB_0002813e                            
ram:0002813c    2eb1            cbz         r6,LAB_0002814a                         
                            LAB_0002813e:                 ;XREF[1,0]:   0002813a
ram:0002813e    0220            movs        param_1,#0x2                            
ram:00028140    fff790fe        bl          FUN_00027e64                            ;undefined FUN_00027e64(int param_1)
ram:00028144    84f802b0        strb.w      r11,[r4,#offset DAT_20002b02 &0xff]     
ram:00028148    1de0            b           LAB_00028186                            
                            LAB_0002814a:                 ;XREF[1,0]:   0002813c
ram:0002814a    0128            cmp         param_1,#0x1                            
ram:0002814c    16d9            bls         LAB_0002817c                            
ram:0002814e    80b2            uxth        param_1,param_1                         
ram:00028150    c821            movs        param_2,#0xc8                           
ram:00028152    4843            muls        param_1,param_2                         
ram:00028154    c117            asrs        param_2,param_1,#0x1f                   
ram:00028156    c903            lsls        param_2,param_2,#0xf                    
ram:00028158    41ea5041        orr.w       param_2,param_2,param_1, lsr #0x11      
ram:0002815c    c003            lsls        param_1,param_1,#0xf                    
ram:0002815e    4ff4fa72        mov.w       param_3,#0x1f4                          
ram:00028162    8018            adds        param_1,param_1,param_3                 
ram:00028164    41f10001        adc         param_2,param_2,#0x0                    
ram:00028168    5200            lsls        param_3,param_3,#0x1                    
ram:0002816a    0023            movs        param_4,#0x0                            
ram:0002816c    fef73af9        bl          FUN_000263e4                            ;longlong FUN_000263e4(uint param_1, ...
ram:00028170    0146            mov         param_2,param_1                         
ram:00028172    0022            movs        param_3,#0x0                            
ram:00028174    7868            ldr         param_1,[r7,#0x4]=>DAT_0002a564         ;= 20002FA0h
ram:00028176    fef7f9ff        bl          FUN_0002716c                            ;undefined4 FUN_0002716c(int param_1,...
ram:0002817a    0646            mov         r6,param_1                              
                            LAB_0002817c:                 ;XREF[1,0]:   0002814c
ram:0002817c    0220            movs        param_1,#0x2                            
ram:0002817e    fff779fe        bl          FUN_00027e74                            ;undefined FUN_00027e74(int param_1)
ram:00028182    84f80280        strb.w      r8,[r4,#offset DAT_20002b02 &0xff]      
                            LAB_00028186:                 ;XREF[3,0]:   000280f6,00028108,00028148
ram:00028186    3046            mov         param_1,r6                              
ram:00028188    bde8f09f        pop.w       {r4,r5,r6,r7,r8,r9,r10,r11,r12,pc}      
                            caseD_12:                     ;XREF[1,0]:   00028022
ram:0002818c    00f01cfb        bl          FUN_000287c8                            ;undefined FUN_000287c8(void)
ram:00028190    b9e7            b           LAB_00028106                            
                            caseD_13:                     ;XREF[1,0]:   00028022
ram:00028192    00f019fb        bl          FUN_000287c8                            ;undefined FUN_000287c8(void)
ram:00028196    b4e7            b           switchD_00028022::caseD_7               
                            caseD_14:                     ;XREF[1,0]:   00028022
ram:00028198    00f016fb        bl          FUN_000287c8                            ;undefined FUN_000287c8(void)
ram:0002819c    04e0            b           LAB_000281a8                            
                            caseD_15:                     ;XREF[1,0]:   00028022
ram:0002819e    00f013fb        bl          FUN_000287c8                            ;undefined FUN_000287c8(void)
ram:000281a2    0020            movs        param_1,#0x0                            
ram:000281a4    fff766fe        bl          FUN_00027e74                            ;undefined FUN_00027e74(int param_1)
                            LAB_000281a8:                 ;XREF[1,0]:   0002819c
ram:000281a8    0120            movs        param_1,#0x1                            
                            LAB_000281aa:                 ;XREF[1,0]:   00028104
ram:000281aa    fff763fe        bl          FUN_00027e74                            ;undefined FUN_00027e74(int param_1)
ram:000281ae    aae7            b           LAB_00028106                            
                            caseD_16:                     ;XREF[1,0]:   00028022
                            caseD_17:                     
                            caseD_c:                      
ram:000281b0    fff781fe        bl          FUN_00027eb6                            ;undefined FUN_00027eb6(void)
ram:000281b4    a7e7            b           LAB_00028106                            
ram:000281b6    0000            movs        r0,r0                                   
                            DAT_000281b8:                 ;XREF[1,0]:   00027ffc
ram:000281b8    002b0020        undefined4  20002B00h                               
                            PTR_DAT_000281bc:             ;XREF[1,0]:   00028010
ram:000281bc    60a50200        addr        DAT_0002a560                            ;= 20002F80h
                            ;************************************************************************************************
                            ;*                                           FUNCTION                                           *
                            ;************************************************************************************************
                            ;undefined4 FUN_000281c0(uint param_1)
          ;param_1       uint                r0                      
                                                          ;XREF[2,0]:   00027ef0,00027efc
ram:000281c0    0121            movs        r1,#0x1                                 
ram:000281c2    02f064b9        b.w         LAB_0002a48e                            
                            ;************************************************************************************************
                            ;*                                           FUNCTION                                           *
                            ;************************************************************************************************
                            ;int FUN_000281c8(int param_1)
          ;param_1       int                 r0                      
                                                          ;XREF[1,0]:   000265d0
ram:000281c8    0249            ldr         r1,[DAT_000281d4]                       ;= 200030C8h
ram:000281ca    0844            add         param_1,r1                              
ram:000281cc    90f93000        ldrsb.w     param_1,[param_1,#0x30]                 
ram:000281d0    7047            bx          lr                                      
ram:000281d2    0000            movs        r0,r0                                   
                            DAT_000281d4:                 ;XREF[1,0]:   000281c8
ram:000281d4    c8300020        undefined4  200030C8h                               
                            ;************************************************************************************************
                            ;*                                           FUNCTION                                           *
                            ;************************************************************************************************
                            ;undefined8 FUN_000281d8(undefined4 param_1, undefined2 * param_2)
          ;param_1       undefined4          r0                      
          ;param_2       undefined2 *        r1                      
          ;local_22      undefined1         -22                      ;XREF[1,0]:   000281ea
          ;local_24      undefined2         -24                      ;XREF[1,0]:   000281f0
          ;local_28      undefined4         -28                      ;XREF[3,2]:   0002826a,00028276,00028288,0002828c,00028296
          ;local_2c      undefined4         -2c                      ;XREF[1,0]:   000282c6
          ;local_30      undefined2         -30                      ;XREF[1,0]:   000282b6
          ;local_34      undefined2         -34                      ;XREF[1,0]:   000282c0
          ;local_3c      undefined4         -3c                      ;XREF[1,0]:   000282b0
          ;local_44      undefined4         -44                      ;XREF[1,0]:   0002827a
          ;local_48      undefined4         -48                      ;XREF[1,0]:   000282e4
          ;local_4c      undefined4         -4c                      ;XREF[1,0]:   00028356
          ;local_4e      undefined2         -4e                      ;XREF[1,0]:   000282dc
          ;local_50      undefined2         -50                      ;XREF[1,0]:   000282d0
          ;local_54      undefined4         -54                      ;XREF[1,0]:   000282e6
          ;local_57      undefined1         -57                      ;XREF[1,0]:   000282a2
          ;local_58      undefined1         -58                      ;XREF[1,0]:   0002829c
          ;local_5c      undefined4         -5c                      ;XREF[1,5]:   000282cc,00028300,00028310,00028324,0002833a
                                                                     ;             0002834e
          ;local_60      undefined4         -60                      ;XREF[1,5]:   000281f6,0002820e,0002821e,00028230,00028242
                                                                     ;             00028254
                                                          ;XREF[2,0]:   00027d5e,00027daa
ram:000281d8    2de9f043        push        {r4,r5,r6,r7,r8,r9,lr}                  
ram:000281dc    8146            mov         r9,param_1                              
ram:000281de    8878            ldrb        param_1,[param_2,#0x2]                  
ram:000281e0    91b0            sub         sp,#0x44                                
ram:000281e2    9046            mov         r8,r2                                   
ram:000281e4    0c46            mov         r4,param_2                              
ram:000281e6    00b9            cbnz        param_1,LAB_000281ea                    
ram:000281e8    0120            movs        param_1,#0x1                            
                            LAB_000281ea:                 ;XREF[1,0]:   000281e6
ram:000281ea    8df83e00        strb.w      param_1,[sp,#local_22+0x60]             
ram:000281ee    2088            ldrh        param_1,[r4,#0x0]                       
ram:000281f0    adf83c00        strh.w      param_1,[sp,#local_24+0x60]             
ram:000281f4    0025            movs        r5,#0x0                                 
ram:000281f6    0095            str         r5,[sp,#0x0]=>local_60                  
ram:000281f8    607c            ldrb        param_1,[r4,#0x11]                      
ram:000281fa    6946            mov         param_2,sp                              
ram:000281fc    01f07cfe        bl          FUN_00029ef8                            ;undefined FUN_00029ef8(undefined4 pa...
ram:00028200    6e46            mov         r6,sp                                   
ram:00028202    a07c            ldrb        param_1,[r4,#0x12]                      
ram:00028204    711c            adds        param_2,r6,#0x1                         
ram:00028206    01f077fe        bl          FUN_00029ef8                            ;undefined FUN_00029ef8(undefined4 pa...
ram:0002820a    e07b            ldrb        param_1,[r4,#0xf]                       
ram:0002820c    0028            cmp         param_1,#0x0                            
ram:0002820e    9df80200        ldrb.w      param_1,[sp,#local_60+0x62]             
ram:00028212    02d0            beq         LAB_0002821a                            
ram:00028214    40f00800        orr         param_1,param_1,#0x8                    
ram:00028218    01e0            b           LAB_0002821e                            
                            LAB_0002821a:                 ;XREF[1,0]:   00028212
ram:0002821a    20f00800        bic         param_1,param_1,#0x8                    
                            LAB_0002821e:                 ;XREF[1,0]:   00028218
ram:0002821e    8df80200        strb.w      param_1,[sp,#local_60+0x62]             
ram:00028222    217c            ldrb        param_2,[r4,#0x10]                      
ram:00028224    11b1            cbz         param_2,LAB_0002822c                    
ram:00028226    40f01000        orr         param_1,param_1,#0x10                   
ram:0002822a    01e0            b           LAB_00028230                            
                            LAB_0002822c:                 ;XREF[1,0]:   00028224
ram:0002822c    20f01000        bic         param_1,param_1,#0x10                   
                            LAB_00028230:                 ;XREF[1,0]:   0002822a
ram:00028230    8df80200        strb.w      param_1,[sp,#local_60+0x62]             
ram:00028234    217b            ldrb        param_2,[r4,#0xc]                       
ram:00028236    11b1            cbz         param_2,LAB_0002823e                    
ram:00028238    40f00100        orr         param_1,param_1,#0x1                    
ram:0002823c    01e0            b           LAB_00028242                            
                            LAB_0002823e:                 ;XREF[1,0]:   00028236
ram:0002823e    20f00100        bic         param_1,param_1,#0x1                    
                            LAB_00028242:                 ;XREF[1,0]:   0002823c
ram:00028242    8df80200        strb.w      param_1,[sp,#local_60+0x62]             
ram:00028246    217d            ldrb        param_2,[r4,#0x14]                      
ram:00028248    09b1            cbz         param_2,LAB_0002824e                    
ram:0002824a    0221            movs        param_2,#0x2                            
ram:0002824c    00e0            b           LAB_00028250                            
                            LAB_0002824e:                 ;XREF[1,0]:   00028248
ram:0002824e    0121            movs        param_2,#0x1                            
                            LAB_00028250:                 ;XREF[1,0]:   0002824c
ram:00028250    61f34200        bfi         param_1,param_2,#0x1,#0x2               
ram:00028254    8df80200        strb.w      param_1,[sp,#local_60+0x62]             
ram:00028258    1c21            movs        param_2,#0x1c                           
ram:0002825a    02a8            add         param_1,sp,#0x8                         
ram:0002825c    fef72bf9        bl          FUN_000264b6                            ;undefined FUN_000264b6(undefined * p...
ram:00028260    607b            ldrb        param_1,[r4,#0xd]                       
ram:00028262    c106            lsls        param_2,param_1,#0x1b                   
ram:00028264    01d4            bmi         LAB_0002826a                            
ram:00028266    8006            lsls        param_1,param_1,#0x1a                   
ram:00028268    17d5            bpl         LAB_0002829a                            
                            LAB_0002826a:                 ;XREF[1,0]:   00028264
ram:0002826a    0e95            str         r5,[sp,#local_28+0x60]                  
ram:0002826c    0eaf            add         r7,sp,#0x38                             
ram:0002826e    e07c            ldrb        param_1,[r4,#0x13]                      
ram:00028270    791c            adds        param_2,r7,#0x1                         
ram:00028272    01f041fe        bl          FUN_00029ef8                            ;undefined FUN_00029ef8(undefined4 pa...
ram:00028276    9df83800        ldrb.w      param_1,[sp,#local_28+0x60]             
ram:0002827a    0797            str         r7,[sp,#local_44+0x60]                  
ram:0002827c    20f00f00        bic         param_1,param_1,#0xf                    
ram:00028280    401c            adds        param_1,param_1,#0x1                    
ram:00028282    20f0f000        bic         param_1,param_1,#0xf0                   
ram:00028286    1030            adds        param_1,#0x10                           
ram:00028288    8df83800        strb.w      param_1,[sp,#local_28+0x60]             
ram:0002828c    9df83a00        ldrb.w      param_1,[sp,#local_28+0x62]             
ram:00028290    20f00600        bic         param_1,param_1,#0x6                    
ram:00028294    801c            adds        param_1,param_1,#0x2                    
ram:00028296    8df83a00        strb.w      param_1,[sp,#local_28+0x62]             
                            LAB_0002829a:                 ;XREF[1,0]:   00028268
ram:0002829a    607b            ldrb        param_1,[r4,#0xd]                       
ram:0002829c    8df80800        strb.w      param_1,[sp,#local_58+0x60]             
ram:000282a0    a07b            ldrb        param_1,[r4,#0xe]                       
ram:000282a2    8df80900        strb.w      param_1,[sp,#local_57+0x60]             
ram:000282a6    1421            movs        param_2,#0x14                           
ram:000282a8    09a8            add         param_1,sp,#0x24                        
ram:000282aa    fef704f9        bl          FUN_000264b6                            ;undefined FUN_000264b6(undefined * p...
ram:000282ae    0fa8            add         param_1,sp,#0x3c                        
ram:000282b0    cde90906        strd        param_1,r6,[sp,#local_3c+0x60]          
ram:000282b4    a088            ldrh        param_1,[r4,#0x4]                       
ram:000282b6    adf83000        strh.w      param_1,[sp,#local_30+0x60]             
ram:000282ba    a068            ldr         param_1,[r4,#0x8]                       
ram:000282bc    20b1            cbz         param_1,LAB_000282c8                    
ram:000282be    e088            ldrh        param_1,[r4,#0x6]                       
ram:000282c0    adf82c00        strh.w      param_1,[sp,#local_34+0x60]             
ram:000282c4    a068            ldr         param_1,[r4,#0x8]                       
ram:000282c6    0d90            str         param_1,[sp,#local_2c+0x60]             
                            LAB_000282c8:                 ;XREF[1,0]:   000282bc
ram:000282c8    a069            ldr         param_1,[r4,#0x18]                      
ram:000282ca    98b3            cbz         param_1,LAB_00028334                    
ram:000282cc    0195            str         r5,[sp,#local_5c+0x60]                  
ram:000282ce    0088            ldrh        param_1,[param_1,#0x0]                  
ram:000282d0    adf81000        strh.w      param_1,[sp,#local_50+0x60]             
ram:000282d4    a069            ldr         param_1,[r4,#0x18]                      
ram:000282d6    01ad            add         r5,sp,#0x4                              
ram:000282d8    01a9            add         param_2,sp,#0x4                         
ram:000282da    4088            ldrh        param_1,[param_1,#0x2]                  
ram:000282dc    adf81200        strh.w      param_1,[sp,#local_4e+0x60]             
ram:000282e0    a069            ldr         param_1,[r4,#0x18]                      
ram:000282e2    4068            ldr         param_1,[param_1,#0x4]                  
ram:000282e4    0695            str         r5,[sp,#local_48+0x60]                  
ram:000282e6    0390            str         param_1,[sp,#local_54+0x60]             
ram:000282e8    a069            ldr         param_1,[r4,#0x18]                      
ram:000282ea    007b            ldrb        param_1,[param_1,#0xc]                  
ram:000282ec    01f004fe        bl          FUN_00029ef8                            ;undefined FUN_00029ef8(undefined4 pa...
ram:000282f0    a069            ldr         param_1,[r4,#0x18]                      
ram:000282f2    691c            adds        param_2,r5,#0x1                         
ram:000282f4    407b            ldrb        param_1,[param_1,#0xd]                  
ram:000282f6    01f0fffd        bl          FUN_00029ef8                            ;undefined FUN_00029ef8(undefined4 pa...
ram:000282fa    a069            ldr         param_1,[r4,#0x18]                      
ram:000282fc    807a            ldrb        param_1,[param_1,#0xa]                  
ram:000282fe    0028            cmp         param_1,#0x0                            
ram:00028300    9df80600        ldrb.w      param_1,[sp,#local_5c+0x62]             
ram:00028304    02d0            beq         LAB_0002830c                            
ram:00028306    40f00800        orr         param_1,param_1,#0x8                    
ram:0002830a    01e0            b           LAB_00028310                            
                            LAB_0002830c:                 ;XREF[1,0]:   00028304
ram:0002830c    20f00800        bic         param_1,param_1,#0x8                    
                            LAB_00028310:                 ;XREF[1,0]:   0002830a
ram:00028310    8df80600        strb.w      param_1,[sp,#local_5c+0x62]             
ram:00028314    a169            ldr         param_2,[r4,#0x18]                      
ram:00028316    c97a            ldrb        param_2,[param_2,#0xb]                  
ram:00028318    11b1            cbz         param_2,LAB_00028320                    
ram:0002831a    40f01000        orr         param_1,param_1,#0x10                   
ram:0002831e    01e0            b           LAB_00028324                            
                            LAB_00028320:                 ;XREF[1,0]:   00028318
ram:00028320    20f01000        bic         param_1,param_1,#0x10                   
                            LAB_00028324:                 ;XREF[1,0]:   0002831e
ram:00028324    8df80600        strb.w      param_1,[sp,#local_5c+0x62]             
ram:00028328    a169            ldr         param_2,[r4,#0x18]                      
ram:0002832a    097a            ldrb        param_2,[param_2,#0x8]                  
ram:0002832c    19b1            cbz         param_2,LAB_00028336                    
ram:0002832e    40f00100        orr         param_1,param_1,#0x1                    
ram:00028332    02e0            b           LAB_0002833a                            
                            LAB_00028334:                 ;XREF[1,0]:   000282ca
ram:00028334    0de0            b           LAB_00028352                            
                            LAB_00028336:                 ;XREF[1,0]:   0002832c
ram:00028336    20f00100        bic         param_1,param_1,#0x1                    
                            LAB_0002833a:                 ;XREF[1,0]:   00028332
ram:0002833a    8df80600        strb.w      param_1,[sp,#local_5c+0x62]             
ram:0002833e    a169            ldr         param_2,[r4,#0x18]                      
ram:00028340    897b            ldrb        param_2,[param_2,#0xe]                  
ram:00028342    09b1            cbz         param_2,LAB_00028348                    
ram:00028344    0221            movs        param_2,#0x2                            
ram:00028346    00e0            b           LAB_0002834a                            
                            LAB_00028348:                 ;XREF[1,0]:   00028342
ram:00028348    0121            movs        param_2,#0x1                            
                            LAB_0002834a:                 ;XREF[1,0]:   00028346
ram:0002834a    61f34200        bfi         param_1,param_2,#0x1,#0x2               
ram:0002834e    8df80600        strb.w      param_1,[sp,#local_5c+0x62]             
                            LAB_00028352:                 ;XREF[1,0]:   00028334
ram:00028352    e069            ldr         param_1,[r4,#0x1c]                      
ram:00028354    00b1            cbz         param_1,LAB_00028358                    
ram:00028356    0590            str         param_1,[sp,#local_4c+0x60]             
                            LAB_00028358:                 ;XREF[1,0]:   00028354
ram:00028358    4346            mov         r3,r8                                   
ram:0002835a    09aa            add         r2,sp,#0x24                             
ram:0002835c    02a9            add         param_2,sp,#0x8                         
ram:0002835e    4846            mov         param_1,r9                              
ram:00028360    aadf            svc         0xaa                                    
ram:00028362    11b0            add         sp,#0x44                                
ram:00028364    bde8f083        pop.w       {r4,r5,r6,r7,r8,r9,pc}                  
                            ;************************************************************************************************
                            ;*                                           FUNCTION                                           *
                            ;************************************************************************************************
                            ;undefined FUN_00028368(int param_1)
          ;param_1       int                 r0                      
                                                          ;XREF[2,0]:   0002839c,00029f34
ram:00028368    70b5            push        {r4,r5,r6,lr}                           
ram:0002836a    084c            ldr         r4,[DAT_0002838c]                       ;= 200030B4h
ram:0002836c    0500            movs        r5,param_1                              
ram:0002836e    09d0            beq         LAB_00028384                            
ram:00028370    1034            adds        r4,#0x10                                
                            LAB_00028372:                 ;XREF[2,0]:   00028382,00028386
                                                          ; FWD[2,0]:   200030bc,200030c4
ram:00028372    2168            ldr         r1,[r4,#0x0]=>DAT_200030c4              
ram:00028374    0029            cmp         r1,#0x0                                 
ram:00028376    07d0            beq         LAB_00028388                            
ram:00028378    0868            ldr         param_1,[r1,#0x0]                       
ram:0002837a    2060            str         param_1,[r4,#0x0]=>DAT_200030c4         
ram:0002837c    4968            ldr         r1,[r1,#0x4]                            
ram:0002837e    2846            mov         param_1,r5                              
ram:00028380    8847            blx         r1                                      
ram:00028382    f6e7            b           LAB_00028372                            
                            LAB_00028384:                 ;XREF[1,0]:   0002836e
ram:00028384    0834            adds        r4,#0x8                                 
ram:00028386    f4e7            b           LAB_00028372                            
                            LAB_00028388:                 ;XREF[1,0]:   00028376
ram:00028388    70bd            pop         {r4,r5,r6,pc}                           
ram:0002838a    0000            movs        r0,r0                                   
                            DAT_0002838c:                 ;XREF[1,0]:   0002836a
ram:0002838c    b4300020        undefined4  200030B4h                               
                            ;************************************************************************************************
                            ;*                                           FUNCTION                                           *
                            ;************************************************************************************************
                            ;undefined LAB_00028390+1(int param_1)
          ;param_1       int                 r0                      
                                                          ;XREF[0,2]:   000291a6,000291c4
ram:00028390    054a            ldr         r2=>DAT_200030b4,[DAT_000283a8]         ;= 200030B4h
ram:00028392    0121            movs        r1,#0x1                                 
ram:00028394    20b1            cbz         param_1,LAB_000283a0                    
ram:00028396    0128            cmp         param_1,#0x1                            
ram:00028398    05d1            bne         LAB_000283a6                            
ram:0002839a    9170            strb        r1,[r2,#0x2]=>DAT_200030b6              
                            LAB_0002839c:                 ;XREF[1,0]:   000283a4
ram:0002839c    fff7e4bf        b.w         FUN_00028368                            ;undefined FUN_00028368(int param_1)
                            LAB_000283a0:                 ;XREF[1,0]:   00028394
ram:000283a0    5170            strb        r1,[r2,#0x1]=>DAT_200030b5              
ram:000283a2    0020            movs        param_1,#0x0                            
ram:000283a4    fae7            b           LAB_0002839c                            
                            LAB_000283a6:                 ;XREF[1,0]:   00028398
ram:000283a6    7047            bx          lr                                      
                            DAT_000283a8:                 ;XREF[1,0]:   00028390
ram:000283a8    b4300020        undefined4  200030B4h                               
                            ;************************************************************************************************
                            ;*                                           FUNCTION                                           *
                            ;************************************************************************************************
                            ;undefined FUN_000283ac(void)
                                                          ;XREF[1,0]:   0002a11c
ram:000283ac    2de9f05f        push        {r4,r5,r6,r7,r8,r9,r10,r11,r12,lr}      
ram:000283b0    2648            ldr         r0=>DAT_20002b30,[DAT_0002844c]         ;= 20002B30h
ram:000283b2    4168            ldr         r1,[r0,#0x4]=>DAT_20002b34              
ram:000283b4    f1b3            cbz         r1,LAB_00028434                         
ram:000283b6    dff898b0        ldr.w       r11,[DAT_00028450]                      ;= 40011504h
ram:000283ba    0e68            ldr         r6,[r1,#0x0]                            
ram:000283bc    8146            mov         r9,r0                                   
ram:000283be    dbf80040        ldr.w       r4,[r11,#0x0]=>DAT_40011504             
ram:000283c2    8768            ldr         r7,[r0,#0x8]=>DAT_20002b38              
ram:000283c4    8078            ldrb        r0,[r0,#0x2]=>DAT_20002b32              
ram:000283c6    e11b            subs        r1,r4,r7                                
ram:000283c8    21f07f45        bic         r5,r1,#0xff000000                       
ram:000283cc    ed1c            adds        r5,r5,#0x3                              
ram:000283ce    b0b9            cbnz        r0,LAB_000283fe                         
ram:000283d0    dff88080        ldr.w       r8,[DAT_00028454]                       ;= 40011000h
ram:000283d4    4ff48030        mov.w       r0,#0x10000                             
ram:000283d8    c8f84403        str.w       r0,[r8,#0x344]=>DAT_40011344            
ram:000283dc    c8f80403        str.w       r0,[r8,#0x304]=>DAT_40011304            
ram:000283e0    1120            movs        r0,#0x11                                
ram:000283e2    fef715fb        bl          FUN_00026a10                            ;undefined FUN_00026a10(uint param_1)
ram:000283e6    1120            movs        r0,#0x11                                
ram:000283e8    fef71dfb        bl          FUN_00026a26                            ;undefined FUN_00026a26(uint param_1)
ram:000283ec    4ff0010a        mov.w       r10,#0x1                                
ram:000283f0    c8f800a0        str.w       r10,[r8,#0x0]=>DAT_40011000             
ram:000283f4    2f20            movs        r0,#0x2f                                
ram:000283f6    01f069fa        bl          FUN_000298cc                            ;undefined FUN_000298cc(int param_1)
ram:000283fa    89f802a0        strb.w      r10,[r9,#0x2]=>DAT_20002b32             
                            LAB_000283fe:                 ;XREF[1,0]:   000283ce
ram:000283fe    b542            cmp         r5,r6                                   
ram:00028400    00d2            bcs         LAB_00028404                            
ram:00028402    3546            mov         r5,r6                                   
                            LAB_00028404:                 ;XREF[1,0]:   00028400
ram:00028404    124b            ldr         r3,[DAT_00028450]                       ;= 40011504h
ram:00028406    e819            adds        r0,r5,r7                                
ram:00028408    3c33            adds        r3=>DAT_40011540,#0x3c                  
ram:0002840a    20f07f40        bic         r0,r0,#0xff000000                       
ram:0002840e    1860            str         r0,[r3,#0x0]=>DAT_40011540              
ram:00028410    dbf80010        ldr.w       r1,[r11,#0x0]=>DAT_40011504             
ram:00028414    5a46            mov         r2=>DAT_40011504,r11                    
ram:00028416    091b            subs        r1,r1,r4                                
ram:00028418    21f07f41        bic         r1,r1,#0xff000000                       
ram:0002841c    001b            subs        r0,r0,r4                                
ram:0002841e    20f07f40        bic         r0,r0,#0xff000000                       
ram:00028422    c91c            adds        r1,r1,#0x3                              
ram:00028424    8142            cmp         r1,r0                                   
ram:00028426    0fd9            bls         LAB_00028448                            
ram:00028428    1068            ldr         r0,[r2,#0x0]=>DAT_40011504              
ram:0002842a    1860            str         r0,[r3,#0x0]=>DAT_40011540              
ram:0002842c    2f20            movs        r0,#0x2f                                
ram:0002842e    01f04dfa        bl          FUN_000298cc                            ;undefined FUN_000298cc(int param_1)
ram:00028432    00e0            b           LAB_00028436                            
                            LAB_00028434:                 ;XREF[1,0]:   000283b4
ram:00028434    04e0            b           LAB_00028440                            
                            LAB_00028436:                 ;XREF[1,0]:   00028432
ram:00028436    bde8f05f        pop.w       {r4,r5,r6,r7,r8,r9,r10,r11,r12,lr}      
ram:0002843a    1120            movs        r0,#0x11                                
ram:0002843c    fef7feba        b.w         FUN_00026a3c                            ;undefined FUN_00026a3c(uint param_1)
                            LAB_00028440:                 ;XREF[1,0]:   00028434
ram:00028440    bde8f05f        pop.w       {r4,r5,r6,r7,r8,r9,r10,r11,r12,lr}      
ram:00028444    01f04cbc        b.w         FUN_00029ce0                            ;undefined FUN_00029ce0(void)
                            LAB_00028448:                 ;XREF[1,0]:   00028426
ram:00028448    bde8f09f        pop.w       {r4,r5,r6,r7,r8,r9,r10,r11,r12,pc}      
                            DAT_0002844c:                 ;XREF[1,0]:   000283b0
ram:0002844c    302b0020        undefined4  20002B30h                               
                            DAT_00028450:                 ;XREF[2,0]:   000283b6,00028404
ram:00028450    04150140        undefined4  40011504h                               
                            DAT_00028454:                 ;XREF[1,0]:   000283d0
ram:00028454    00100140        undefined4  40011000h                               
                            ;************************************************************************************************
                            ;*                                           FUNCTION                                           *
                            ;************************************************************************************************
                            ;undefined FUN_00028458(undefined4 * param_1, int param_2)
          ;param_1       undefined4 *        r0                      
          ;param_2       int                 r1                      
          ;local_14      undefined4         -14                      ;XREF[1,0]:   00028462
          ;local_48      undefined4         -48                      ;XREF[4,0]:   00028460,00028474,0002847c,00028480
                                                          ;XREF[1,0]:   00027bb4
ram:00028458    73b5            push        {param_1,param_2,r4,r5,r6,lr}           
ram:0002845a    8cb0            sub         sp,#0x30                                
ram:0002845c    0646            mov         r6,param_1                              
ram:0002845e    0020            movs        param_1,#0x0                            
ram:00028460    0090            str         param_1,[sp,#0x0]=>local_48             
ram:00028462    0d98            ldr         param_1,[sp,#local_14+0x48]             
ram:00028464    80b1            cbz         param_1,LAB_00028488                    
ram:00028466    0024            movs        r4,#0x0                                 
ram:00028468    6d46            mov         r5,sp                                   
                            LAB_0002846a:                 ;XREF[1,0]:   00028486
ram:0002846a    2146            mov         param_2,r4                              
ram:0002846c    0da8            add         param_1,sp,#0x34                        
ram:0002846e    00f0f4fc        bl          FUN_00028e5a                            ;uint FUN_00028e5a(int param_1, uint ...
ram:00028472    30b1            cbz         param_1,LAB_00028482                    
ram:00028474    0098            ldr         param_1,[sp,#0x0]=>local_48             
ram:00028476    05eb4000        add.w       param_1,r5,param_1, lsl #0x1            
ram:0002847a    8480            strh        r4,[param_1,#0x4]                       
ram:0002847c    0098            ldr         param_1,[sp,#0x0]=>local_48             
ram:0002847e    401c            adds        param_1,param_1,#0x1                    
ram:00028480    0090            str         param_1,[sp,#0x0]=>local_48             
                            LAB_00028482:                 ;XREF[1,0]:   00028472
ram:00028482    641c            adds        r4,r4,#0x1                              
ram:00028484    142c            cmp         r4,#0x14                                
ram:00028486    f0d3            bcc         LAB_0002846a                            
                            LAB_00028488:                 ;XREF[1,0]:   00028464
ram:00028488    2c22            movs        r2,#0x2c                                
ram:0002848a    6946            mov         param_2,sp                              
ram:0002848c    3046            mov         param_1,r6                              
ram:0002848e    fdf7f9ff        bl          FUN_00026484                            ;undefined FUN_00026484(undefined4 * ...
ram:00028492    0eb0            add         sp,#0x38                                
ram:00028494    70bd            pop         {r4,r5,r6,pc}                           
                            ;************************************************************************************************
                            ;*                                           FUNCTION                                           *
                            ;************************************************************************************************
                            ;undefined4 FUN_00028496(ushort * param_1, int param_2, ushort * param_3, uint param_4)
          ;param_1       ushort *            r0                      
          ;param_2       int                 r1                      
          ;param_3       ushort *            r2                      
          ;param_4       uint                r3                      
                                                          ;XREF[1,0]:   00027412
ram:00028496    2de9f041        push        {r4,r5,r6,r7,r8,lr}                     
ram:0002849a    1788            ldrh        r7,[param_3,#0x0]                       
ram:0002849c    0646            mov         r6,param_1                              
ram:0002849e    b81d            adds        param_1,r7,#0x6                         
ram:000284a0    1446            mov         r4,param_3                              
ram:000284a2    0d46            mov         r5,param_2                              
ram:000284a4    9842            cmp         param_1,param_4                         
ram:000284a6    02d9            bls         LAB_000284ae                            
ram:000284a8    0c20            movs        param_1,#0xc                            
                            LAB_000284aa:                 ;XREF[2,0]:   000284ce,0002851c
ram:000284aa    bde8f081        pop.w       {r4,r5,r6,r7,r8,pc}                     
                            LAB_000284ae:                 ;XREF[1,0]:   000284a6
ram:000284ae    3188            ldrh        param_2,[r6,#0x0]                       
ram:000284b0    0722            movs        param_3,#0x7                            
ram:000284b2    0629            cmp         param_2,#0x6                            
ram:000284b4    0ad3            bcc         LAB_000284cc                            
ram:000284b6    4ff4486c        mov.w       r12,#0xc80                              
ram:000284ba    4ff6ff73        movw        param_4,#0xffff                         
ram:000284be    6145            cmp         param_2,r12                             
ram:000284c0    01d9            bls         LAB_000284c6                            
ram:000284c2    9942            cmp         param_2,param_4                         
ram:000284c4    02d1            bne         LAB_000284cc                            
                            LAB_000284c6:                 ;XREF[1,0]:   000284c0
ram:000284c6    7088            ldrh        param_1,[r6,#0x2]                       
ram:000284c8    0628            cmp         param_1,#0x6                            
ram:000284ca    01d2            bcs         LAB_000284d0                            
                            LAB_000284cc:                 ;XREF[4,0]:   000284b4,000284c4,000284d6,000284e2
ram:000284cc    1046            mov         param_1,param_3                         
ram:000284ce    ece7            b           LAB_000284aa                            
                            LAB_000284d0:                 ;XREF[1,0]:   000284ca
ram:000284d0    6045            cmp         param_1,r12                             
ram:000284d2    01d9            bls         LAB_000284d8                            
ram:000284d4    9842            cmp         param_1,param_4                         
ram:000284d6    f9d1            bne         LAB_000284cc                            
                            LAB_000284d8:                 ;XREF[1,0]:   000284d2
ram:000284d8    9942            cmp         param_2,param_4                         
ram:000284da    03d0            beq         LAB_000284e4                            
ram:000284dc    9842            cmp         param_1,param_4                         
ram:000284de    01d0            beq         LAB_000284e4                            
ram:000284e0    8142            cmp         param_2,param_1                         
ram:000284e2    f3d8            bhi         LAB_000284cc                            
                            LAB_000284e4:                 ;XREF[2,0]:   000284da,000284de
ram:000284e4    0520            movs        param_1,#0x5                            
ram:000284e6    e855            strb        param_1,[r5,r7]                         
ram:000284e8    2088            ldrh        param_1,[r4,#0x0]                       
ram:000284ea    1221            movs        param_2,#0x12                           
ram:000284ec    401c            adds        param_1,param_1,#0x1                    
ram:000284ee    80b2            uxth        param_1,param_1                         
ram:000284f0    2080            strh        param_1,[r4,#0x0]                       
ram:000284f2    2954            strb        param_2,[r5,param_1]                    
ram:000284f4    2088            ldrh        param_1,[r4,#0x0]                       
ram:000284f6    401c            adds        param_1,param_1,#0x1                    
ram:000284f8    80b2            uxth        param_1,param_1                         
ram:000284fa    2080            strh        param_1,[r4,#0x0]                       
ram:000284fc    4119            adds        param_2,param_1,r5                      
ram:000284fe    3088            ldrh        param_1,[r6,#0x0]                       
ram:00028500    01f0defe        bl          FUN_0002a2c0                            ;undefined4 FUN_0002a2c0(undefined4 p...
ram:00028504    2188            ldrh        param_2,[r4,#0x0]                       
ram:00028506    0844            add         param_1,param_2                         
ram:00028508    80b2            uxth        param_1,param_1                         
ram:0002850a    2080            strh        param_1,[r4,#0x0]                       
ram:0002850c    4119            adds        param_2,param_1,r5                      
ram:0002850e    7088            ldrh        param_1,[r6,#0x2]                       
ram:00028510    01f0d6fe        bl          FUN_0002a2c0                            ;undefined4 FUN_0002a2c0(undefined4 p...
ram:00028514    2188            ldrh        param_2,[r4,#0x0]                       
ram:00028516    0844            add         param_1,param_2                         
ram:00028518    2080            strh        param_1,[r4,#0x0]                       
ram:0002851a    0020            movs        param_1,#0x0                            
ram:0002851c    c5e7            b           LAB_000284aa                            
                            ;************************************************************************************************
                            ;*                                           FUNCTION                                           *
                            ;************************************************************************************************
                            ;undefined thunk_FUN_000270dc(void)
                                                          ;XREF[0,2]:   00028a30,00028c50
ram:0002851e    fef7ddbd        b.w         FUN_000270dc                            ;undefined FUN_000270dc(void)
                            LAB_00028524:                 ;XREF[1,0]:   00027b66
ram:00028524    38b5            push        {param_4,r4,r5,lr}                      
ram:00028526    4a7a            ldrb        param_3,[param_2,#0x9]                  
ram:00028528    0f4b            ldr         param_4=>DAT_20003020,[DAT_00028568]    ;= 20003020h
ram:0002852a    62b1            cbz         param_3,LAB_00028546                    
ram:0002852c    0022            movs        param_3,#0x0                            
ram:0002852e    0a72            strb        param_3,[param_2,#0x8]                  
ram:00028530    5969            ldr         param_2,[param_4,#0x14]=>DAT_20003034   
ram:00028532    0029            cmp         param_2,#0x0                            
ram:00028534    06d0            beq         LAB_00028544                            
ram:00028536    0122            movs        param_3,#0x1                            
ram:00028538    8df80020        strb.w      param_3,[sp,#0x0]=>local_10             
ram:0002853c    adf80200        strh.w      param_1,[sp,#local_e+0x10]              
ram:00028540    6846            mov         param_1,sp                              
ram:00028542    8847            blx         param_2                                 
                            LAB_00028544:                 ;XREF[2,0]:   00028534,0002855a
ram:00028544    38bd            pop         {param_4,r4,r5,pc}                      
                            LAB_00028546:                 ;XREF[1,0]:   0002852a
ram:00028546    0a7a            ldrb        param_3,[param_2,#0x8]                  
ram:00028548    62b1            cbz         param_3,LAB_00028564                    
ram:0002854a    9b68            ldr         param_4,[param_4,#0x8]=>DAT_20003028    
                            LAB_0002854c:                 ;XREF[1,0]:   00028566
ram:0002854c    4c68            ldr         r4,[param_2,#0x4]                       
ram:0002854e    0246            mov         param_3,param_1                         
ram:00028550    1946            mov         param_2,param_4                         
ram:00028552    2046            mov         param_1,r4                              
ram:00028554    fef70afe        bl          FUN_0002716c                            ;undefined4 FUN_0002716c(int param_1,...
ram:00028558    0028            cmp         param_1,#0x0                            
ram:0002855a    f3d0            beq         LAB_00028544                            
ram:0002855c    bde83840        pop.w       {param_4,r4,r5,lr}                      
ram:00028560    01f032bc        b.w         FUN_00029dc8                            ;undefined FUN_00029dc8(void)
                            LAB_00028564:                 ;XREF[1,0]:   00028548
ram:00028564    5b68            ldr         param_4,[param_4,#0x4]=>DAT_20003024    
ram:00028566    f1e7            b           LAB_0002854c                            
                            DAT_00028568:                 ;XREF[1,0]:   00028528
ram:00028568    20300020        undefined4  20003020h                               
                            ;************************************************************************************************
                            ;*                                           FUNCTION                                           *
                            ;************************************************************************************************
                            ;undefined FUN_0002856c(void)
          ;local_c       undefined4          -c                      ;XREF[1,0]:   0002857e
          ;local_10      undefined4         -10                      ;XREF[1,0]:   0002857c
          ;local_14      undefined4         -14                      ;XREF[1,0]:   00028576
          ;local_18      undefined4         -18                      ;XREF[2,1]:   00028570,00028572,00028578
                                                          ;XREF[1,0]:   00028f82
ram:0002856c    1fb5            push        {r0,r1,r2,r3,r4,lr}                     
ram:0002856e    0022            movs        r2,#0x0                                 
ram:00028570    0092            str         r2,[sp,#0x0]=>local_18                  
ram:00028572    adf80010        strh.w      r1,[sp,#0x0]=>local_18                  
ram:00028576    0192            str         r2,[sp,#local_14+0x18]                  
ram:00028578    adf80210        strh.w      r1,[sp,#local_18+0x1a]                  
ram:0002857c    0292            str         r2,[sp,#local_10+0x18]                  
ram:0002857e    0392            str         r2,[sp,#local_c+0x18]                   
ram:00028580    02aa            add         r2,sp,#0x8                              
ram:00028582    6946            mov         r1,sp                                   
ram:00028584    90df            svc         0x90                                    
ram:00028586    04b0            add         sp,#0x10                                
ram:00028588    10bd            pop         {r4,pc}                                 
ram:0002858a    0000            movs        r0,r0                                   
                            ;************************************************************************************************
                            ;*                                           FUNCTION                                           *
                            ;************************************************************************************************
                            ;undefined4 FUN_0002858c(int * param_1)
          ;param_1       int *               r0                      
                                                          ;XREF[1,0]:   0002a0ba
ram:0002858c    0e49            ldr         r1,[DAT_000285c8]                       ;= 20002B30h
ram:0002858e    10b5            push        {r4,lr}                                 
ram:00028590    0a78            ldrb        r2,[r1,#0x0]=>DAT_20002b30              
ram:00028592    4c78            ldrb        r4,[r1,#0x1]=>DAT_20002b31              
ram:00028594    0023            movs        r3,#0x0                                 
ram:00028596    a242            cmp         r2,r4                                   
ram:00028598    12d0            beq         LAB_000285c0                            
ram:0002859a    521c            adds        r2,r2,#0x1                              
ram:0002859c    d2b2            uxtb        r2,r2                                   
ram:0002859e    0a70            strb        r2,[r1,#0x0]=>DAT_20002b30              
ram:000285a0    022a            cmp         r2,#0x2                                 
ram:000285a2    00d1            bne         LAB_000285a6                            
ram:000285a4    0b70            strb        r3,[r1,#0x0]=>DAT_20002b30              
                            LAB_000285a6:                 ;XREF[1,0]:   000285a2
ram:000285a6    084a            ldr         r2,[DAT_000285c8]                       ;= 20002B30h
ram:000285a8    0b78            ldrb        r3,[r1,#0x0]=>DAT_20002b30              
ram:000285aa    0c32            adds        r2,#0xc                                 
ram:000285ac    52f82320        ldr.w       r2=>DAT_20002b3c,r2,r3,0x2              
ram:000285b0    0260            str         r2,[param_1,#0x0]                       
ram:000285b2    8868            ldr         param_1,[r1,#0x8]=>DAT_20002b38         
ram:000285b4    1044            add         param_1,r2                              
ram:000285b6    20f07f40        bic         param_1,param_1,#0xff000000             
ram:000285ba    8860            str         param_1,[r1,#0x8]=>DAT_20002b38         
ram:000285bc    0120            movs        param_1,#0x1                            
ram:000285be    10bd            pop         {r4,pc}                                 
                            LAB_000285c0:                 ;XREF[1,0]:   00028598
ram:000285c0    0360            str         r3,[param_1,#0x0]                       
ram:000285c2    0020            movs        param_1,#0x0                            
ram:000285c4    10bd            pop         {r4,pc}                                 
ram:000285c6    0000            movs        r0,r0                                   
                            DAT_000285c8:                 ;XREF[2,0]:   0002858c,000285a6
ram:000285c8    302b0020        undefined4  20002B30h                               
                            ;************************************************************************************************
                            ;*                                           FUNCTION                                           *
                            ;************************************************************************************************
                            ;undefined4 FUN_000285cc(undefined4 param_1, uint param_2, undefined4 param_3, undefined * * param_4)
          ;param_1       undefined4          r0                      
          ;param_2       uint                r1                      
          ;param_3       undefined4          r2                      
          ;param_4       undefined * *       r3                      
                                                          ;XREF[0,1]:   0002a60c
ram:000285cc    2de9f843        push        {param_4,r4,r5,r6,r7,r8,r9,lr}          
ram:000285d0    104d            ldr         r5,[PTR_DAT_00028614]                   ;= 0002a5ec
ram:000285d2    0f46            mov         r7,param_2                              
ram:000285d4    8046            mov         r8,param_1                              
ram:000285d6    1e46            mov         r6,param_4                              
ram:000285d8    9146            mov         r9,param_3                              
ram:000285da    6946            mov         param_2,sp                              
ram:000285dc    2868            ldr         param_1,[r5,#0x0]=>DAT_0002a5ec         ;= 20003284h
ram:000285de    00f005fc        bl          FUN_00028dec                            ;int FUN_00028dec(int * param_1, uint...
ram:000285e2    0400            movs        r4,param_1                              
ram:000285e4    14d0            beq         LAB_00028610                            
ram:000285e6    1c21            movs        param_2,#0x1c                           
ram:000285e8    fdf765ff        bl          FUN_000264b6                            ;undefined FUN_000264b6(undefined * p...
ram:000285ec    0120            movs        param_1,#0x1                            
ram:000285ee    2071            strb        param_1,[r4,#0x4]                       
ram:000285f0    c4f81490        str.w       r9,[r4,#0x14]                           
ram:000285f4    380b            lsrs        param_1,r7,#0xc                         
ram:000285f6    c4f80080        str.w       r8,[r4,#0x0]                            
ram:000285fa    c4e90260        strd        r6,param_1,[r4,#0x8]                    
ram:000285fe    6946            mov         param_2,sp                              
ram:00028600    2868            ldr         param_1,[r5,#0x0]=>DAT_0002a5ec         ;= 20003284h
ram:00028602    00f014fc        bl          FUN_00028e2e                            ;undefined4 FUN_00028e2e(int param_1,...
ram:00028606    01f04ffb        bl          FUN_00029ca8                            ;undefined * * * FUN_00029ca8(undefin...
ram:0002860a    0020            movs        param_1,#0x0                            
                            LAB_0002860c:                 ;XREF[1,0]:   00028612
ram:0002860c    bde8f883        pop.w       {param_4,r4,r5,r6,r7,r8,r9,pc}          
                            LAB_00028610:                 ;XREF[1,0]:   000285e4
ram:00028610    0420            movs        param_1,#0x4                            
ram:00028612    fbe7            b           LAB_0002860c                            
                            PTR_DAT_00028614:             ;XREF[1,0]:   000285d0
ram:00028614    eca50200        addr        DAT_0002a5ec                            ;= 20003284h
                            ;************************************************************************************************
                            ;*                                           FUNCTION                                           *
                            ;************************************************************************************************
                            ;undefined FUN_00028618(int * param_1, undefined4 param_2)
          ;param_1       int *               r0                      
          ;param_2       undefined4          r1                      
          ;local_14      undefined4         -14                      ;XREF[1,0]:   00028634
          ;local_18      undefined4         -18                      ;XREF[1,0]:   0002865e
          ;local_1c      undefined4         -1c                      ;XREF[1,0]:   0002864c
          ;local_20      undefined4         -20                      ;XREF[2,0]:   00028648,0002865a
          ;local_24      undefined4         -24                      ;XREF[1,0]:   00028630
          ;local_28      undefined1         -28                      ;XREF[2,0]:   00028642,00028652
                                                          ;XREF[2,0]:   00029358,00029c76
ram:00028618    30b5            push        {r4,r5,lr}                              
ram:0002861a    0446            mov         r4,param_1                              
ram:0002861c    0068            ldr         param_1,[param_1,#0x0]                  
ram:0002861e    87b0            sub         sp,#0x1c                                
ram:00028620    0d46            mov         r5,param_2                              
ram:00028622    8068            ldr         param_1,[param_1,#0x8]                  
ram:00028624    0028            cmp         param_1,#0x0                            
ram:00028626    1fd0            beq         LAB_00028668                            
ram:00028628    1821            movs        param_2,#0x18                           
ram:0002862a    6846            mov         param_1,sp                              
ram:0002862c    fdf743ff        bl          FUN_000264b6                            ;undefined FUN_000264b6(undefined * p...
ram:00028630    0195            str         r5,[sp,#local_24+0x28]                  
ram:00028632    a068            ldr         param_1,[r4,#0x8]                       
ram:00028634    0590            str         param_1,[sp,#local_14+0x28]             
ram:00028636    2079            ldrb        param_1,[r4,#0x4]                       
ram:00028638    10b1            cbz         param_1,LAB_00028640                    
ram:0002863a    0128            cmp         param_1,#0x1                            
ram:0002863c    10d1            bne         LAB_00028660                            
ram:0002863e    07e0            b           LAB_00028650                            
                            LAB_00028640:                 ;XREF[1,0]:   00028638
ram:00028640    0120            movs        param_1,#0x1                            
ram:00028642    8df80000        strb.w      param_1,[sp,#0x0]=>local_28             
ram:00028646    2069            ldr         param_1,[r4,#0x10]                      
ram:00028648    0290            str         param_1,[sp,#local_20+0x28]             
ram:0002864a    e068            ldr         param_1,[r4,#0xc]                       
ram:0002864c    0390            str         param_1,[sp,#local_1c+0x28]             
ram:0002864e    05e0            b           LAB_0002865c                            
                            LAB_00028650:                 ;XREF[1,0]:   0002863e
ram:00028650    0220            movs        param_1,#0x2                            
ram:00028652    8df80000        strb.w      param_1,[sp,#0x0]=>local_28             
ram:00028656    e068            ldr         param_1,[r4,#0xc]                       
ram:00028658    0003            lsls        param_1,param_1,#0xc                    
ram:0002865a    0290            str         param_1,[sp,#local_20+0x28]             
                            LAB_0002865c:                 ;XREF[1,0]:   0002864e
ram:0002865c    6069            ldr         param_1,[r4,#0x14]                      
ram:0002865e    0490            str         param_1,[sp,#local_18+0x28]             
                            LAB_00028660:                 ;XREF[1,0]:   0002863c
ram:00028660    2068            ldr         param_1,[r4,#0x0]                       
ram:00028662    8168            ldr         param_2,[param_1,#0x8]                  
ram:00028664    6846            mov         param_1,sp                              
ram:00028666    8847            blx         param_2                                 
                            LAB_00028668:                 ;XREF[1,0]:   00028626
ram:00028668    07b0            add         sp,#0x1c                                
ram:0002866a    30bd            pop         {r4,r5,pc}                              
                            ;************************************************************************************************
                            ;*                                           FUNCTION                                           *
                            ;************************************************************************************************
                            ;undefined8 FUN_0002866c(int param_1, undefined param_2, undefined4 param_3, uint param_4)
          ;param_1       int                 r0                      
          ;param_2       undefined           r1                      
          ;param_3       undefined4          r2                      
          ;param_4       uint                r3                      
                                                          ;XREF[2,0]:   000277d2,00027810
ram:0002866c    70b5            push        {r4,r5,r6,lr}                           
ram:0002866e    0d46            mov         r5,param_2                              
ram:00028670    0446            mov         r4,param_1                              
ram:00028672    b0f83812        ldrh.w      param_2,[param_1,#0x238]                
ram:00028676    d0f83402        ldr.w       param_1,[param_1,#0x234]                
ram:0002867a    0122            movs        param_3,#0x1                            
ram:0002867c    fef7edfe        bl          FUN_0002745a                            ;int FUN_0002745a(int param_1, uint p...
ram:00028680    00b1            cbz         param_1,LAB_00028684                    
ram:00028682    0570            strb        r5,[param_1,#0x0]                       
                            LAB_00028684:                 ;XREF[1,0]:   00028680
ram:00028684    04f13c02        add.w       param_3,r4,#0x3c                        
ram:00028688    04f50d71        add.w       param_2,r4,#0x234                       
ram:0002868c    04f15400        add.w       param_1,r4,#0x54                        
ram:00028690    72df            svc         0x72                                    
ram:00028692    70bd            pop         {r4,r5,r6,pc}                           
                            ;************************************************************************************************
                            ;*                                           FUNCTION                                           *
                            ;************************************************************************************************
                            ;undefined LAB_00028694+1(undefined4 param_1, short * param_2)
          ;param_1       undefined4          r0                      
          ;param_2       short *             r1                      
                                                          ;XREF[0,2]:   000286b6,000286dc
ram:00028694    0648            ldr         param_1=>DAT_20002aa0,[DAT_000286b0]    ;= 20002AA0h
ram:00028696    4a88            ldrh        r2,[param_2,#0x2]                       
ram:00028698    8388            ldrh        r3,[param_1,#0x4]=>DAT_20002aa4         
ram:0002869a    9a42            cmp         r2,r3                                   
ram:0002869c    07d1            bne         LAB_000286ae                            
ram:0002869e    0a88            ldrh        r2,[param_2,#0x0]                       
ram:000286a0    a2f52063        sub.w       r3,r2,#0xa00                            
ram:000286a4    773b            subs        r3,#0x77                                
ram:000286a6    02d1            bne         LAB_000286ae                            
ram:000286a8    8988            ldrh        param_2,[param_2,#0x4]                  
ram:000286aa    c91e            subs        param_2,param_2,#0x3                    
ram:000286ac    c180            strh        param_2,[param_1,#0x6]=>DAT_20002aa6    
                            LAB_000286ae:                 ;XREF[2,0]:   0002869c,000286a6
ram:000286ae    7047            bx          lr                                      
                            DAT_000286b0:                 ;XREF[1,0]:   00028694
ram:000286b0    a02a0020        undefined4  20002AA0h                               
                            ;************************************************************************************************
                            ;*                                           FUNCTION                                           *
                            ;************************************************************************************************
                            ;undefined FUN_000286b4(void)
                                                          ;XREF[1,0]:   0002899a
ram:000286b4    10b5            push        {r4,lr}                                 
ram:000286b6    0949            ldr         r1=>LAB_00028694...,[PTR_LAB_00028694...;= 00028695
ram:000286b8    0948            ldr         r0,[DAT_000286e0]                       ;= 20002C64h
ram:000286ba    00f015fc        bl          FUN_00028ee8                            ;undefined4 FUN_00028ee8(undefined2 *...
ram:000286be    08b1            cbz         r0,LAB_000286c4                         
ram:000286c0    fef70cfd        bl          FUN_000270dc                            ;undefined FUN_000270dc(void)
                            LAB_000286c4:                 ;XREF[1,0]:   000286be
ram:000286c4    f721            movs        r1,#0xf7                                
ram:000286c6    0648            ldr         r0,[DAT_000286e0]                       ;= 20002C64h
ram:000286c8    00f002fc        bl          FUN_00028ed0                            ;undefined4 FUN_00028ed0(undefined2 *...
ram:000286cc    0028            cmp         r0,#0x0                                 
ram:000286ce    03d0            beq         LAB_000286d8                            
ram:000286d0    bde81040        pop.w       {r4,lr}                                 
ram:000286d4    fef702bd        b.w         FUN_000270dc                            ;undefined FUN_000270dc(void)
                            LAB_000286d8:                 ;XREF[1,0]:   000286ce
ram:000286d8    10bd            pop         {r4,pc}                                 
ram:000286da    0000            movs        r0,r0                                   
                            PTR_LAB_00028694+1+1_000286dc:;XREF[1,0]:   000286b6
ram:000286dc    95860200        addr        LAB_00028694+1+1                        
                            DAT_000286e0:                 ;XREF[2,0]:   000286b8,000286c6
ram:000286e0    642c0020        undefined4  20002C64h                               
                            ;************************************************************************************************
                            ;*                                           FUNCTION                                           *
                            ;************************************************************************************************
                            ;undefined4 FUN_000286e4(int param_1, undefined4 param_2, undefined4 param_3, uint param_4)
          ;param_1       int                 r0                      
          ;param_2       undefined4          r1                      
          ;param_3       undefined4          r2                      
          ;param_4       uint                r3                      
                                                          ;XREF[0,1]:   0002a5fc
ram:000286e4    10b5            push        {r4,lr}                                 
ram:000286e6    0a49            ldr         param_2=>DAT_0002a5f0,[PTR_DAT_00028710];= 0002a5f0
ram:000286e8    4160            str         param_2=>DAT_0002a5f0,[param_1,#0x4]    
ram:000286ea    0a48            ldr         param_1,[DAT_00028714]                  ;= 20003320h
ram:000286ec    00f0cafb        bl          FUN_00028e84                            ;undefined FUN_00028e84(uint * param_...
ram:000286f0    58b9            cbnz        param_1,LAB_0002870a                    
ram:000286f2    01f03ff8        bl          FUN_00029774                            ;undefined FUN_00029774(void)
ram:000286f6    0749            ldr         param_2,[DAT_00028714]                  ;= 20003320h
ram:000286f8    1c23            movs        param_4,#0x1c                           
ram:000286fa    8c22            movs        param_3,#0x8c                           
ram:000286fc    0874            strb        param_1,[param_2,#0x10]=>DAT_20003330   
ram:000286fe    0448            ldr         param_1,[PTR_DAT_00028710]              ;= 0002a5f0
ram:00028700    8c39            subs        param_2,#0x8c                           
ram:00028702    001f            subs        param_1,param_1,#0x4                    
ram:00028704    0068            ldr         param_1,[param_1,#0x0]=>DAT_0002a5ec    ;= 20003284h
ram:00028706    00f05efb        bl          FUN_00028dc6                            ;undefined4 FUN_00028dc6(int * param_...
                            LAB_0002870a:                 ;XREF[1,0]:   000286f0
ram:0002870a    0020            movs        param_1,#0x0                            
ram:0002870c    10bd            pop         {r4,pc}                                 
ram:0002870e    0000            movs        r0,r0                                   
                            PTR_DAT_00028710:             ;XREF[2,0]:   000286e6,000286fe
ram:00028710    f0a50200        addr        DAT_0002a5f0                            
                            DAT_00028714:                 ;XREF[2,0]:   000286ea,000286f6
ram:00028714    20330020        undefined4  20003320h                               
                            ;************************************************************************************************
                            ;*                                           FUNCTION                                           *
                            ;************************************************************************************************
                            ;ushort * FUN_00028718(uint param_1)
          ;param_1       uint                r0                      
                                                          ;XREF[5,0]:   00027aac,00027ad2,00027b10,00027b44
                                                          ;             0002a2f2
ram:00028718    0146            mov         r1,param_1                              
ram:0002871a    0348            ldr         param_1=>DAT_2000300c,[DAT_00028728]    ;= 2000300Ch
ram:0002871c    0288            ldrh        r2,[param_1,#0x0]=>DAT_2000300c         
ram:0002871e    8a42            cmp         r2,r1                                   
ram:00028720    00d0            beq         LAB_00028724                            
ram:00028722    0020            movs        param_1,#0x0                            
                            LAB_00028724:                 ;XREF[1,0]:   00028720
ram:00028724    7047            bx          lr                                      
ram:00028726    0000            movs        r0,r0                                   
                            DAT_00028728:                 ;XREF[1,0]:   0002871a
ram:00028728    0c300020        undefined4  2000300Ch                               
                            ;************************************************************************************************
                            ;*                                           FUNCTION                                           *
                            ;************************************************************************************************
                            ;undefined FUN_0002872c(int param_1, undefined * * param_2, uint param_3)
          ;param_1       int                 r0                      
          ;param_2       undefined * *       r1                      
          ;param_3       uint                r2                      
                                                          ;XREF[5,0]:   00026efa,00026f0e,00026f22,00026f36
                                                          ;             00026f4a
ram:0002872c    2de9f041        push        {r4,r5,r6,r7,r8,lr}                     
ram:00028730    1746            mov         r7,param_3                              
ram:00028732    8846            mov         r8,param_2                              
ram:00028734    0646            mov         r6,param_1                              
ram:00028736    0024            movs        r4,#0x0                                 
ram:00028738    17e0            b           LAB_0002876a                            
ram:0002873a    00bf            nop                                                  
                            LAB_0002873c:                 ;XREF[1,0]:   0002876c
ram:0002873c    4ff4a070        mov.w       param_1,#0x140                          
ram:00028740    00eb8405        add.w       r5,param_1,r4, lsl #0x2                 
ram:00028744    4ff48030        mov.w       param_1,#0x10000                        
ram:00028748    7159            ldr         param_2,[r6,r5]                         
ram:0002874a    a040            lsls        param_1,r4                              
ram:0002874c    59b1            cbz         param_2,LAB_00028766                    
ram:0002874e    d6f80413        ldr.w       param_2,[r6,#0x304]                     
ram:00028752    0142            tst         param_2,param_1                         
ram:00028754    07d0            beq         LAB_00028766                            
ram:00028756    2946            mov         param_2,r5                              
ram:00028758    3046            mov         param_1,r6                              
ram:0002875a    01f064f8        bl          FUN_00029826                            ;undefined FUN_00029826(int param_1, ...
ram:0002875e    d8e90021        ldrd        param_3,param_2,[r8,#0x0]               
ram:00028762    2846            mov         param_1,r5                              
ram:00028764    9047            blx         param_3                                 
                            LAB_00028766:                 ;XREF[2,0]:   0002874c,00028754
ram:00028766    641c            adds        r4,r4,#0x1                              
ram:00028768    e4b2            uxtb        r4,r4                                   
                            LAB_0002876a:                 ;XREF[1,0]:   00028738
ram:0002876a    bc42            cmp         r4,r7                                   
ram:0002876c    e6d3            bcc         LAB_0002873c                            
ram:0002876e    bde8f081        pop.w       {r4,r5,r6,r7,r8,pc}                     
                            ;************************************************************************************************
                            ;*                                           FUNCTION                                           *
                            ;************************************************************************************************
                            ;char LAB_00028774+1(void)
                                                          ;XREF[0,1]:   0002a618
ram:00028774    0248            ldr         r0,[DAT_00028780]                       ;= 20003320h
ram:00028776    007a            ldrb        r0,[r0,#0x8]=>DAT_20003328              
ram:00028778    0028            cmp         r0,#0x0                                 
ram:0002877a    00d0            beq         LAB_0002877e                            
ram:0002877c    0120            movs        r0,#0x1                                 
                            LAB_0002877e:                 ;XREF[1,0]:   0002877a
ram:0002877e    7047            bx          lr                                      
                            DAT_00028780:                 ;XREF[1,0]:   00028774
ram:00028780    20330020        undefined4  20003320h                               
                            ;************************************************************************************************
                            ;*                                           FUNCTION                                           *
                            ;************************************************************************************************
                            ;undefined4 FUN_00028784(ushort * param_1, int param_2, uint param_3, uint param_4)
          ;param_1       ushort *            r0                      
          ;param_2       int                 r1                      
          ;param_3       uint                r2                      
          ;param_4       uint                r3                      
                                                          ;XREF[2,0]:   00027afa,00027b58
ram:00028784    f0b5            push        {r4,r5,r6,r7,lr}                        
ram:00028786    8488            ldrh        r4,[param_1,#0x4]                       
ram:00028788    a518            adds        r5,r4,param_3                           
ram:0002878a    9442            cmp         r4,param_3                              
ram:0002878c    00d8            bhi         LAB_00028790                            
ram:0002878e    2246            mov         param_3,r4                              
                            LAB_00028790:                 ;XREF[1,0]:   0002878c
ram:00028790    a41a            subs        r4,r4,param_3                           
ram:00028792    c288            ldrh        param_3,[param_1,#0x6]                  
ram:00028794    d618            adds        r6,param_3,param_4                      
ram:00028796    9a42            cmp         param_3,param_4                         
ram:00028798    00d8            bhi         LAB_0002879c                            
ram:0002879a    1346            mov         param_4,param_3                         
                            LAB_0002879c:                 ;XREF[1,0]:   00028798
ram:0002879c    d21a            subs        param_3,param_3,param_4                 
ram:0002879e    4b88            ldrh        param_4,[param_2,#0x2]                  
ram:000287a0    0788            ldrh        r7,[param_1,#0x0]                       
ram:000287a2    bb42            cmp         param_4,r7                              
ram:000287a4    0cd3            bcc         LAB_000287c0                            
ram:000287a6    4088            ldrh        param_1,[param_1,#0x2]                  
ram:000287a8    8342            cmp         param_4,param_1                         
ram:000287aa    09d8            bhi         LAB_000287c0                            
ram:000287ac    8888            ldrh        param_1,[param_2,#0x4]                  
ram:000287ae    a042            cmp         param_1,r4                              
ram:000287b0    06d3            bcc         LAB_000287c0                            
ram:000287b2    a842            cmp         param_1,r5                              
ram:000287b4    04d8            bhi         LAB_000287c0                            
ram:000287b6    c888            ldrh        param_1,[param_2,#0x6]                  
ram:000287b8    9042            cmp         param_1,param_3                         
ram:000287ba    01d3            bcc         LAB_000287c0                            
ram:000287bc    b042            cmp         param_1,r6                              
ram:000287be    01d9            bls         LAB_000287c4                            
                            LAB_000287c0:                 ;XREF[5,0]:   000287a4,000287aa,000287b0,000287b4
                                                          ;             000287ba
ram:000287c0    0020            movs        param_1,#0x0                            
ram:000287c2    f0bd            pop         {r4,r5,r6,r7,pc}                        
                            LAB_000287c4:                 ;XREF[1,0]:   000287be
ram:000287c4    0120            movs        param_1,#0x1                            
ram:000287c6    f0bd            pop         {r4,r5,r6,r7,pc}                        
                            ;************************************************************************************************
                            ;*                                           FUNCTION                                           *
                            ;************************************************************************************************
                            ;undefined FUN_000287c8(void)
                                                          ;XREF[6,0]:   0002800c,0002803e,0002818c,00028192
                                                          ;             00028198,0002819e
ram:000287c8    0a48            ldr         r0,[DAT_000287f4]                       ;= 20002B00h
ram:000287ca    10b5            push        {r4,lr}                                 
ram:000287cc    8078            ldrb        r0,[r0,#offset DAT_20002b02 &0xff]      
ram:000287ce    60b1            cbz         r0,LAB_000287ea                         
ram:000287d0    0024            movs        r4,#0x0                                 
ram:000287d2    01e0            b           LAB_000287d8                            
                            LAB_000287d4:                 ;XREF[1,0]:   000287e2
ram:000287d4    022c            cmp         r4,#0x2                                 
ram:000287d6    06d0            beq         LAB_000287e6                            
                            LAB_000287d8:                 ;XREF[2,0]:   000287d2,000287e8
ram:000287d8    2046            mov         r0,r4                                   
ram:000287da    fff743fb        bl          FUN_00027e64                            ;undefined FUN_00027e64(int param_1)
ram:000287de    641c            adds        r4,r4,#0x1                              
ram:000287e0    042c            cmp         r4,#0x4                                 
ram:000287e2    f7d3            bcc         LAB_000287d4                            
ram:000287e4    10bd            pop         {r4,pc}                                 
                            LAB_000287e6:                 ;XREF[1,0]:   000287d6
ram:000287e6    0324            movs        r4,#0x3                                 
ram:000287e8    f6e7            b           LAB_000287d8                            
                            LAB_000287ea:                 ;XREF[1,0]:   000287ce
ram:000287ea    bde81040        pop.w       {r4,lr}                                 
ram:000287ee    fff759bb        b.w         FUN_00027ea4                            ;undefined FUN_00027ea4(void)
                            DAT_000287f4:                 ;XREF[1,0]:   000287c8
ram:000287f4    002b0020        undefined4  20002B00h                               
                            ;************************************************************************************************
                            ;*                                           FUNCTION                                           *
                            ;************************************************************************************************
                            ;undefined FUN_000287f8(undefined2 * param_1)
          ;param_1       undefined2 *        r0                      
                                                          ;XREF[2,0]:   00028efe,00028f8a
ram:000287f8    f721            movs        r1,#0xf7                                
ram:000287fa    0180            strh        r1,[param_1,#0x0]                       
ram:000287fc    1721            movs        r1,#0x17                                
ram:000287fe    4180            strh        r1,[param_1,#0x2]                       
ram:00028800    0021            movs        r1,#0x0                                 
ram:00028802    0171            strb        r1,[param_1,#0x4]                       
ram:00028804    4171            strb        r1,[param_1,#0x5]                       
ram:00028806    fb21            movs        r1,#0xfb                                
ram:00028808    8171            strb        r1,[param_1,#0x6]                       
ram:0002880a    1b21            movs        r1,#0x1b                                
ram:0002880c    c171            strb        r1,[param_1,#0x7]                       
ram:0002880e    7047            bx          lr                                      
                            ;************************************************************************************************
                            ;*                                           FUNCTION                                           *
                            ;************************************************************************************************
                            ;undefined4 FUN_00028810(uint * param_1)
          ;param_1       uint *              r0                      
                                                          ;XREF[2,0]:   0002a10c,0002a114
ram:00028810    2de9f047        push        {r4,r5,r6,r7,r8,r9,r10,lr}              
ram:00028814    394e            ldr         r6,[DAT_000288fc]                       ;= 20002B30h
ram:00028816    0027            movs        r7,#0x0                                 
ram:00028818    8046            mov         r8,param_1                              
ram:0002881a    3d46            mov         r5,r7                                   
ram:0002881c    dff8e090        ldr.w       r9,[DAT_00028900]                       ;= 20003160h
ram:00028820    d6f804a0        ldr.w       r10,[r6,#0x4]=>DAT_20002b34             
ram:00028824    57e0            b           LAB_000288d6                            
                            LAB_00028826:                 ;XREF[1,0]:   000288da
ram:00028826    03d0            beq         LAB_00028830                            
ram:00028828    0446            mov         r4,param_1                              
ram:0002882a    d0f81c80        ldr.w       r8,[param_1,#0x1c]                      
ram:0002882e    35e0            b           LAB_0002889c                            
                            LAB_00028830:                 ;XREF[2,0]:   00028826,000288e6
ram:00028830    99f80020        ldrb.w      r2,[r9,#0x0]=>DAT_20003160              
ram:00028834    02eb4201        add.w       r1,r2,r2, lsl #0x1                      
ram:00028838    521c            adds        r2,r2,#0x1                              
ram:0002883a    d2b2            uxtb        r2,r2                                   
ram:0002883c    89f80020        strb.w      r2,[r9,#0x0]=>DAT_20003160              
ram:00028840    09ebc101        add.w       r1,r9,r1, lsl #0x3                      
ram:00028844    99f80230        ldrb.w      r3,[r9,#0x2]=>DAT_20003162              
ram:00028848    091d            adds        r1,r1,#0x4                              
ram:0002884a    9a42            cmp         r2,r3                                   
ram:0002884c    01d1            bne         LAB_00028852                            
ram:0002884e    89f80050        strb.w      r5,[r9,#0x0]=>DAT_20003160              
                            LAB_00028852:                 ;XREF[1,0]:   0002884c
ram:00028852    4868            ldr         param_1,[r1,#0x4]                       
ram:00028854    0a78            ldrb        r2,[r1,#0x0]                            
ram:00028856    0446            mov         r4,param_1                              
ram:00028858    012a            cmp         r2,#0x1                                 
ram:0002885a    12d0            beq         LAB_00028882                            
ram:0002885c    022a            cmp         r2,#0x2                                 
ram:0002885e    02d0            beq         LAB_00028866                            
ram:00028860    032a            cmp         r2,#0x3                                 
ram:00028862    3bd1            bne         LAB_000288dc                            
ram:00028864    08e0            b           LAB_00028878                            
                            LAB_00028866:                 ;XREF[1,0]:   0002885e
ram:00028866    01f07ffc        bl          FUN_0002a168                            ;undefined4 FUN_0002a168(int * param_1)
ram:0002886a    00b1            cbz         param_1,LAB_0002886e                    
ram:0002886c    0127            movs        r7,#0x1                                 
                            LAB_0002886e:                 ;XREF[1,0]:   0002886a
ram:0002886e    2574            strb        r5,[r4,#0x10]                           
ram:00028870    34e0            b           LAB_000288dc                            
                            LAB_00028872:                 ;XREF[1,0]:   0002887c
ram:00028872    0574            strb        r5,[param_1,#0x10]                      
ram:00028874    c069            ldr         param_1,[param_1,#0x1c]                 
ram:00028876    00e0            b           LAB_0002887a                            
                            LAB_00028878:                 ;XREF[1,0]:   00028864
ram:00028878    7068            ldr         param_1,[r6,#0x4]=>DAT_20002b34         
                            LAB_0002887a:                 ;XREF[1,0]:   00028876
ram:0002887a    0028            cmp         param_1,#0x0                            
ram:0002887c    f9d1            bne         LAB_00028872                            
ram:0002887e    7060            str         param_1,[r6,#0x4]=>DAT_20002b34         
ram:00028880    2ce0            b           LAB_000288dc                            
                            LAB_00028882:                 ;XREF[1,0]:   0002885a
ram:00028882    207c            ldrb        param_1,[r4,#0x10]                      
ram:00028884    50bb            cbnz        param_1,LAB_000288dc                    
ram:00028886    8868            ldr         param_1,[r1,#0x8]                       
ram:00028888    6060            str         param_1,[r4,#0x4]                       
ram:0002888a    c868            ldr         param_1,[r1,#0xc]                       
ram:0002888c    a060            str         param_1,[r4,#0x8]                       
ram:0002888e    0869            ldr         param_1,[r1,#0x10]                      
ram:00028890    e060            str         param_1,[r4,#0xc]                       
ram:00028892    4869            ldr         param_1,[r1,#0x14]                      
ram:00028894    a061            str         param_1,[r4,#0x18]                      
ram:00028896    f078            ldrb        param_1,[r6,#0x3]=>DAT_20002b33         
ram:00028898    00b1            cbz         param_1,LAB_0002889c                    
ram:0002889a    6560            str         r5,[r4,#0x4]                            
                            LAB_0002889c:                 ;XREF[2,0]:   0002882e,00028898
ram:0002889c    6268            ldr         r2,[r4,#0x4]                            
ram:0002889e    b168            ldr         r1,[r6,#0x8]=>DAT_20002b38              
ram:000288a0    184b            ldr         r3,[DAT_00028904]                       ;= 007FFFFFh
ram:000288a2    501a            subs        param_1,r2,r1                           
ram:000288a4    20f07f40        bic         param_1,param_1,#0xff000000             
ram:000288a8    9842            cmp         param_1,r3                              
ram:000288aa    02d2            bcs         LAB_000288b2                            
ram:000288ac    a168            ldr         r1,[r4,#0x8]                            
ram:000288ae    0844            add         param_1,r1                              
ram:000288b0    06e0            b           LAB_000288c0                            
                            LAB_000288b2:                 ;XREF[1,0]:   000288aa
ram:000288b2    881a            subs        param_1,r1,r2                           
ram:000288b4    a168            ldr         r1,[r4,#0x8]                            
ram:000288b6    20f07f40        bic         param_1,param_1,#0xff000000             
ram:000288ba    8142            cmp         r1,param_1                              
ram:000288bc    02d9            bls         LAB_000288c4                            
ram:000288be    081a            subs        param_1,r1,param_1                      
                            LAB_000288c0:                 ;XREF[1,0]:   000288b0
ram:000288c0    2060            str         param_1,[r4,#0x0]                       
ram:000288c2    00e0            b           LAB_000288c6                            
                            LAB_000288c4:                 ;XREF[1,0]:   000288bc
ram:000288c4    2560            str         r5,[r4,#0x0]                            
                            LAB_000288c6:                 ;XREF[1,0]:   000288c2
ram:000288c6    6560            str         r5,[r4,#0x4]                            
ram:000288c8    0120            movs        param_1,#0x1                            
ram:000288ca    a560            str         r5,[r4,#0x8]                            
ram:000288cc    2074            strb        param_1,[r4,#0x10]                      
ram:000288ce    2046            mov         param_1,r4                              
ram:000288d0    e561            str         r5,[r4,#0x1c]                           
ram:000288d2    01f02bfc        bl          FUN_0002a12c                            ;undefined FUN_0002a12c(uint * param_1)
                            LAB_000288d6:                 ;XREF[1,0]:   00028824
ram:000288d6    b8f10000        subs.w      param_1,r8,#0x0                         
ram:000288da    a4d1            bne         LAB_00028826                            
                            LAB_000288dc:                 ;XREF[4,0]:   00028862,00028870,00028880,00028884
ram:000288dc    99f80010        ldrb.w      r1,[r9,#0x0]=>DAT_20003160              
ram:000288e0    99f80100        ldrb.w      param_1,[r9,#0x1]=>DAT_20003161         
ram:000288e4    8142            cmp         r1,param_1                              
ram:000288e6    a3d1            bne         LAB_00028830                            
ram:000288e8    17b9            cbnz        r7,LAB_000288f0                         
ram:000288ea    7168            ldr         r1,[r6,#0x4]=>DAT_20002b34              
ram:000288ec    5145            cmp         r1,r10                                  
ram:000288ee    02d0            beq         LAB_000288f6                            
                            LAB_000288f0:                 ;XREF[1,0]:   000288e8
ram:000288f0    0120            movs        param_1,#0x1                            
                            LAB_000288f2:                 ;XREF[1,0]:   000288f8
ram:000288f2    bde8f087        pop.w       {r4,r5,r6,r7,r8,r9,r10,pc}              
                            LAB_000288f6:                 ;XREF[1,0]:   000288ee
ram:000288f6    0020            movs        param_1,#0x0                            
ram:000288f8    fbe7            b           LAB_000288f2                            
ram:000288fa    0000            movs        r0,r0                                   
                            DAT_000288fc:                 ;XREF[1,0]:   00028814
ram:000288fc    302b0020        undefined4  20002B30h                               
                            DAT_00028900:                 ;XREF[1,0]:   0002881c
ram:00028900    60310020        undefined4  20003160h                               
                            DAT_00028904:                 ;XREF[1,0]:   000288a0
ram:00028904    ffff7f00        undefined4  007FFFFFh                               
                            ;************************************************************************************************
                            ;*                                           FUNCTION                                           *
                            ;************************************************************************************************
                            ;undefined FUN_00028908(undefined4 param_1, undefined4 param_2, uint param_3, undefined * * param_4)
          ;param_1       undefined4          r0                      
          ;param_2       undefined4          r1                      
          ;param_3       uint                r2                      
          ;param_4       undefined * *       r3                      
          ;local_c       undefined4          -c                      ;XREF[1,0]:   000289f2
          ;local_28      undefined4         -28                      ;XREF[1,0]:   000289e8
          ;local_34      undefined1         -34                      ;XREF[1,0]:   000289ec
          ;local_60      undefined4         -60                      ;XREF[1,0]:   000289e0
          ;local_64      undefined2         -64                      ;XREF[1,0]:   000289e2
          ;local_98      undefined4         -98                      ;XREF[1,0]:   00028a30
          ;local_9c      undefined4         -9c                      ;XREF[1,0]:   00028a2c
          ;local_a0      undefined1         -a0                      ;XREF[1,0]:   00028a36
          ;local_a2      undefined2         -a2                      ;XREF[1,0]:   00028a32
          ;local_a4      undefined1         -a4                      ;XREF[1,0]:   00028a26
          ;local_a8      undefined4         -a8                      ;XREF[3,0]:   00028952,00028964,00028a22
          ;local_ac      undefined4         -ac                      ;XREF[3,1]:   0002897e,00028984,000289a0,0002898c
          ;local_b0      undefined4         -b0                      ;XREF[7,3]:   0002893a,00028974,00028978,000289b2,000289cc
                                                                     ;             00028a1a,00028b94,00028980,000289d0,000289d6
                                                          ;XREF[1,0]:   0002620a
ram:00028908    acb0            sub         sp,#0xb0                                
ram:0002890a    fdf7f1fd        bl          FUN_000264f0                            ;undefined FUN_000264f0(void)
ram:0002890e    00f03ffc        bl          FUN_00029190                            ;undefined4 FUN_00029190(void)
ram:00028912    fdf7affe        bl          FUN_00026674                            ;undefined FUN_00026674(void)
ram:00028916    fef7fffb        bl          FUN_00027118                            ;undefined4 FUN_00027118(void)
ram:0002891a    08b1            cbz         param_1,LAB_00028920                    
ram:0002891c    fef7defb        bl          FUN_000270dc                            ;undefined FUN_000270dc(void)
                            LAB_00028920:                 ;XREF[1,0]:   0002891a
ram:00028920    00f0e8fd        bl          FUN_000294f4                            ;undefined4 FUN_000294f4(void)
ram:00028924    08b1            cbz         param_1,LAB_0002892a                    
ram:00028926    fef7d9fb        bl          FUN_000270dc                            ;undefined FUN_000270dc(void)
                            LAB_0002892a:                 ;XREF[1,0]:   00028924
ram:0002892a    00f0d7fe        bl          FUN_000296dc                            ;undefined * * * FUN_000296dc(undefin...
ram:0002892e    08b1            cbz         param_1,LAB_00028934                    
ram:00028930    fef7d4fb        bl          FUN_000270dc                            ;undefined FUN_000270dc(void)
                            LAB_00028934:                 ;XREF[1,0]:   0002892e
ram:00028934    0025            movs        r5,#0x0                                 
ram:00028936    6946            mov         param_2,sp                              
ram:00028938    0120            movs        param_1,#0x1                            
ram:0002893a    0095            str         r5,[sp,#0x0]=>local_b0                  
ram:0002893c    00f01cfe        bl          FUN_00029578                            ;undefined8 FUN_00029578(undefined4 p...
ram:00028940    08b1            cbz         param_1,LAB_00028946                    
ram:00028942    fef7cbfb        bl          FUN_000270dc                            ;undefined FUN_000270dc(void)
                            LAB_00028946:                 ;XREF[1,0]:   00028940
ram:00028946    6846            mov         param_1,sp                              
ram:00028948    00f064fe        bl          FUN_00029614                            ;undefined FUN_00029614(int param_1)
ram:0002894c    08b1            cbz         param_1,LAB_00028952                    
ram:0002894e    fef7c5fb        bl          FUN_000270dc                            ;undefined FUN_000270dc(void)
                            LAB_00028952:                 ;XREF[1,0]:   0002894c
ram:00028952    9df80800        ldrb.w      param_1,[sp,#local_a8+0xb0]             
ram:00028956    b5a1            adr         param_2=>s_GRANB...,[s_GRANBOARD_0002...;= "GRANBOARD"
ram:00028958    20f00f00        bic         param_1,param_1,#0xf                    
ram:0002895c    401c            adds        param_1,param_1,#0x1                    
ram:0002895e    20f0f000        bic         param_1,param_1,#0xf0                   
ram:00028962    1030            adds        param_1,#0x10                           
ram:00028964    8df80800        strb.w      param_1,[sp,#local_a8+0xb0]             
ram:00028968    0922            movs        param_3,#0x9                            
ram:0002896a    02a8            add         param_1,sp,#0x8                         
ram:0002896c    7cdf            svc         0x7c                                    
ram:0002896e    08b1            cbz         param_1,LAB_00028974                    
ram:00028970    fef7b4fb        bl          FUN_000270dc                            ;undefined FUN_000270dc(void)
                            LAB_00028974:                 ;XREF[1,0]:   0002896e
ram:00028974    0095            str         r5,[sp,#0x0]=>local_b0                  
ram:00028976    1020            movs        param_1,#0x10                           
ram:00028978    adf80000        strh.w      param_1,[sp,#0x0]=>local_b0             
ram:0002897c    3c20            movs        param_1,#0x3c                           
ram:0002897e    0195            str         r5,[sp,#local_ac+0xb0]                  
ram:00028980    adf80200        strh.w      param_1,[sp,#local_b0+0xb2]             
ram:00028984    adf80450        strh.w      r5,[sp,#local_ac+0xb0]                  
ram:00028988    4ff4c870        mov.w       param_1,#0x190                          
ram:0002898c    adf80600        strh.w      param_1,[sp,#local_ac+0xb2]             
ram:00028990    6846            mov         param_1,sp                              
ram:00028992    7adf            svc         0x7a                                    
ram:00028994    08b1            cbz         param_1,LAB_0002899a                    
ram:00028996    fef7a1fb        bl          FUN_000270dc                            ;undefined FUN_000270dc(void)
                            LAB_0002899a:                 ;XREF[1,0]:   00028994
ram:0002899a    fff78bfe        bl          FUN_000286b4                            ;undefined FUN_000286b4(void)
ram:0002899e    a648            ldr         param_1,[PTR_thunk_FUN_000270dc+1_000...;= 00029561
ram:000289a0    0190            str         param_1=>thunk_F...,[sp,#local_ac+0xb0] 
ram:000289a2    01a9            add         param_2,sp,#0x4                         
ram:000289a4    a548            ldr         param_1,[DAT_00028c3c]                  ;= 20002C78h
ram:000289a6    00f076fb        bl          FUN_00029096                            ;undefined4 FUN_00029096(char * param...
ram:000289aa    08b1            cbz         param_1,LAB_000289b0                    
ram:000289ac    fef796fb        bl          FUN_000270dc                            ;undefined FUN_000270dc(void)
                            LAB_000289b0:                 ;XREF[1,0]:   000289aa
ram:000289b0    a348            ldr         param_1,[PTR_LAB_00029a1c+1+1_00028c40] ;= 00029a1d
ram:000289b2    0090            str         param_1=>LAB_000...,[sp,#0x0]=>local_b0 
ram:000289b4    6946            mov         param_2,sp                              
ram:000289b6    a348            ldr         param_1,[DAT_00028c44]                  ;= 20002AB4h
ram:000289b8    fff792f9        bl          FUN_00027ce0                            ;undefined8 FUN_00027ce0(undefined4 *...
ram:000289bc    08b1            cbz         param_1,LAB_000289c2                    
ram:000289be    fef78dfb        bl          FUN_000270dc                            ;undefined FUN_000270dc(void)
                            LAB_000289c2:                 ;XREF[1,0]:   000289bc
ram:000289c2    ac21            movs        param_2,#0xac                           
ram:000289c4    6846            mov         param_1,sp                              
ram:000289c6    fdf776fd        bl          FUN_000264b6                            ;undefined FUN_000264b6(undefined * p...
ram:000289ca    0220            movs        param_1,#0x2                            
ram:000289cc    8df80000        strb.w      param_1,[sp,#0x0]=>local_b0             
ram:000289d0    8df80250        strb.w      r5,[sp,#local_b0+0xb2]                  
ram:000289d4    0620            movs        param_1,#0x6                            
ram:000289d6    8df80300        strb.w      param_1,[sp,#local_b0+0xb3]             
ram:000289da    9a48            ldr         param_1,[DAT_00028c44]                  ;= 20002AB4h
ram:000289dc    0126            movs        r6,#0x1                                 
ram:000289de    0a38            subs        param_1,#0xa                            
ram:000289e0    1490            str         param_1,[sp,#local_60+0xb0]             
ram:000289e2    adf84c60        strh.w      r6,[sp,#local_64+0xb0]                  
ram:000289e6    4020            movs        param_1,#0x40                           
ram:000289e8    cde92205        strd        param_1,r5,[sp,#local_28+0xb0]          
ram:000289ec    8df87c60        strb.w      r6,[sp,#local_34+0xb0]                  
ram:000289f0    9548            ldr         param_1,[PTR_LAB_00029aa0+1+1_00028c48] ;= 00029aa1
ram:000289f2    2990            str         param_1=>LAB_000...,[sp,#local_c+0xb0]  
ram:000289f4    9148            ldr         param_1,[DAT_00028c3c]                  ;= 20002C78h
ram:000289f6    6946            mov         param_2,sp                              
ram:000289f8    0c30            adds        param_1,#0xc                            
ram:000289fa    fef75dfd        bl          FUN_000274b8                            ;byte * FUN_000274b8(char * param_1, ...
ram:000289fe    08b1            cbz         param_1,LAB_00028a04                    
ram:00028a00    fef76cfb        bl          FUN_000270dc                            ;undefined FUN_000270dc(void)
                            LAB_00028a04:                 ;XREF[1,0]:   000289fe
ram:00028a04    8d48            ldr         param_1,[DAT_00028c3c]                  ;= 20002C78h
ram:00028a06    0121            movs        param_2,#0x1                            
ram:00028a08    0c30            adds        param_1,#0xc                            
ram:00028a0a    fef752fd        bl          FUN_000274b2                            ;undefined FUN_000274b2(int param_1, ...
ram:00028a0e    1c21            movs        param_2,#0x1c                           
ram:00028a10    6846            mov         param_1,sp                              
ram:00028a12    fdf750fd        bl          FUN_000264b6                            ;undefined FUN_000264b6(undefined * p...
ram:00028a16    4ff42030        mov.w       param_1,#0x28000                        
ram:00028a1a    cde90050        strd        r5,param_1,[sp,#0x0]=>local_b0          
ram:00028a1e    4ff47020        mov.w       param_1,#0xf0000                        
ram:00028a22    0290            str         param_1,[sp,#local_a8+0xb0]             
ram:00028a24    0320            movs        param_1,#0x3                            
ram:00028a26    8df80c00        strb.w      param_1,[sp,#local_a4+0xb0]             
ram:00028a2a    8848            ldr         param_1,[PTR_LAB_00029ad8+1+1_00028c4c] ;= 00029ad9
ram:00028a2c    0590            str         param_1=>LAB_000...,[sp,#local_9c+0xb0] 
ram:00028a2e    8848            ldr         param_1,[PTR_thunk_FUN_000270dc+1_000...;= 0002851f
ram:00028a30    0690            str         param_1=>thunk_F...,[sp,#local_98+0xb0] 
ram:00028a32    adf80e50        strh.w      r5,[sp,#local_a2+0xb0]                  
ram:00028a36    8df81050        strb.w      r5,[sp,#local_a0+0xb0]                  
ram:00028a3a    6846            mov         param_1,sp                              
ram:00028a3c    fef710ff        bl          FUN_00027860                            ;undefined4 * FUN_00027860(int * para...
ram:00028a40    08b1            cbz         param_1,LAB_00028a46                    
ram:00028a42    fef74bfb        bl          FUN_000270dc                            ;undefined FUN_000270dc(void)
                            LAB_00028a46:                 ;XREF[1,0]:   00028a40
ram:00028a46    7d48            ldr         param_1,[DAT_00028c3c]                  ;= 20002C78h
ram:00028a48    0321            movs        param_2,#0x3                            
ram:00028a4a    0c30            adds        param_1,#0xc                            
ram:00028a4c    fef7f1fd        bl          FUN_00027632                            ;char * FUN_00027632(char * param_1, ...
ram:00028a50    08b1            cbz         param_1,LAB_00028a56                    
ram:00028a52    fef743fb        bl          FUN_000270dc                            ;undefined FUN_000270dc(void)
                            LAB_00028a56:                 ;XREF[1,0]:   00028a50
ram:00028a56    fef77ffa        bl          FUN_00026f58                            ;undefined FUN_00026f58(void)
ram:00028a5a    fef7a5fa        bl          FUN_00026fa8                            ;undefined FUN_00026fa8(void)
ram:00028a5e    0022            movs        param_3,#0x0                            
ram:00028a60    7c49            ldr         param_2=>PTR_FUN...,[PTR_PTR_FUN_0002...;= 000286e5
                                                                                    ;= 0002a5fc
ram:00028a62    7d48            ldr         param_1,[DAT_00028c58]                  ;= 20002B5Ch
ram:00028a64    00f0effb        bl          FUN_00029246                            ;undefined4 FUN_00029246(int * param_...
ram:00028a68    08b1            cbz         param_1,LAB_00028a6e                    
ram:00028a6a    fef737fb        bl          FUN_000270dc                            ;undefined FUN_000270dc(void)
                            LAB_00028a6e:                 ;XREF[1,0]:   00028a68
ram:00028a6e    4023            movs        param_4,#0x40                           
ram:00028a70    7a4a            ldr         param_3=>DAT_20002f40,[DAT_00028c5c]    ;= 20002F40h
ram:00028a72    4ff4fe21        mov.w       param_2,#0x7f000                        
ram:00028a76    7848            ldr         param_1,[DAT_00028c58]                  ;= 20002B5Ch
ram:00028a78    00f0edfb        bl          FUN_00029256                            ;undefined4 FUN_00029256(int * param_...
ram:00028a7c    774a            ldr         param_3,[DAT_00028c5c]                  ;= 20002F40h
ram:00028a7e    a2f16400        sub.w       param_1,param_3,#0x64                   
ram:00028a82    1168            ldr         param_2,[param_3,#0x0]=>DAT_20002f40    
ram:00028a84    0b0e            lsrs        param_4,param_2,#0x18                   
ram:00028a86    0370            strb        param_4,[param_1,#0x0]=>DAT_20002edc    
ram:00028a88    0b0c            lsrs        param_4,param_2,#0x10                   
ram:00028a8a    4370            strb        param_4,[param_1,#0x1]=>DAT_20002edd    
ram:00028a8c    0b0a            lsrs        param_4,param_2,#0x8                    
ram:00028a8e    8370            strb        param_4,[param_1,#0x2]=>DAT_20002ede    
ram:00028a90    01f0ff0c        and         r12,param_2,#0xff                       
ram:00028a94    80f803c0        strb.w      r12,[param_1,#0x3]=>DAT_20002edf        
ram:00028a98    5368            ldr         param_4,[param_3,#0x4]=>DAT_20002f44    
ram:00028a9a    190e            lsrs        param_2,param_4,#0x18                   
ram:00028a9c    0171            strb        param_2,[param_1,#0x4]=>DAT_20002ee0    
ram:00028a9e    190c            lsrs        param_2,param_4,#0x10                   
ram:00028aa0    4171            strb        param_2,[param_1,#0x5]=>DAT_20002ee1    
ram:00028aa2    190a            lsrs        param_2,param_4,#0x8                    
ram:00028aa4    8171            strb        param_2,[param_1,#0x6]=>DAT_20002ee2    
ram:00028aa6    c371            strb        param_4,[param_1,#0x7]=>DAT_20002ee3    
ram:00028aa8    9168            ldr         param_2,[param_3,#0x8]=>DAT_20002f48    
ram:00028aaa    0c0e            lsrs        r4,param_2,#0x18                        
ram:00028aac    0472            strb        r4,[param_1,#0x8]=>DAT_20002ee4         
ram:00028aae    0c0c            lsrs        r4,param_2,#0x10                        
ram:00028ab0    4472            strb        r4,[param_1,#0x9]=>DAT_20002ee5         
ram:00028ab2    0c0a            lsrs        r4,param_2,#0x8                         
ram:00028ab4    8472            strb        r4,[param_1,#0xa]=>DAT_20002ee6         
ram:00028ab6    c172            strb        param_2,[param_1,#0xb]=>DAT_20002ee7    
ram:00028ab8    d468            ldr         r4,[param_3,#0xc]=>DAT_20002f4c         
ram:00028aba    270e            lsrs        r7,r4,#0x18                             
ram:00028abc    0773            strb        r7,[param_1,#0xc]=>DAT_20002ee8         
ram:00028abe    270c            lsrs        r7,r4,#0x10                             
ram:00028ac0    4773            strb        r7,[param_1,#0xd]=>DAT_20002ee9         
ram:00028ac2    270a            lsrs        r7,r4,#0x8                              
ram:00028ac4    8773            strb        r7,[param_1,#0xe]=>DAT_20002eea         
ram:00028ac6    c473            strb        r4,[param_1,#0xf]=>DAT_20002eeb         
ram:00028ac8    654f            ldr         r7,[DAT_00028c60]                       ;= 20002AE8h
ram:00028aca    5e4c            ldr         r4,[DAT_00028c44]                       ;= 20002AB4h
ram:00028acc    143c            subs        r4,#0x14                                
ram:00028ace    3960            str         param_2,[r7,#0x0]=>DAT_20002ae8         
ram:00028ad0    552b            cmp         param_4,#0x55                           
ram:00028ad2    04d0            beq         LAB_00028ade                            
ram:00028ad4    4ff48870        mov.w       param_1,#0x110                          
ram:00028ad8    3860            str         param_1,[r7,#0x0]=>DAT_20002ae8         
ram:00028ada    2670            strb        r6,[r4,#0x0]=>DAT_20002aa0              
ram:00028adc    08e0            b           LAB_00028af0                            
                            LAB_00028ade:                 ;XREF[1,0]:   00028ad2
ram:00028ade    1429            cmp         param_2,#0x14                           
ram:00028ae0    01d8            bhi         LAB_00028ae6                            
ram:00028ae2    0846            mov         param_1,param_2                         
ram:00028ae4    01e0            b           LAB_00028aea                            
                            LAB_00028ae6:                 ;XREF[1,0]:   00028ae0
ram:00028ae6    1420            movs        param_1,#0x14                           
ram:00028ae8    3860            str         param_1,[r7,#0x0]=>DAT_20002ae8         
                            LAB_00028aea:                 ;XREF[1,0]:   00028ae4
ram:00028aea    00eb0010        add.w       param_1,param_1,param_1, lsl #0x4       
ram:00028aee    3860            str         param_1,[r7,#0x0]=>DAT_20002ae8         
                            LAB_00028af0:                 ;XREF[1,0]:   00028adc
ram:00028af0    bcf1010f        cmp.w       r12,#0x1                                
ram:00028af4    00d1            bne         LAB_00028af8                            
ram:00028af6    2670            strb        r6,[r4,#0x0]=>DAT_20002aa0              
                            LAB_00028af8:                 ;XREF[1,0]:   00028af4
ram:00028af8    5a49            ldr         param_2=>DAT_20002aec,[DAT_00028c64]    ;= 20002AECh
ram:00028afa    dff86c91        ldr.w       r9,[DAT_00028c68]                       ;= 20002ADDh
ram:00028afe    48f6b800        movw        param_1,#0x88b8                         
ram:00028b02    0860            str         param_1,[param_2,#0x0]=>DAT_20002aec    
ram:00028b04    89f80060        strb.w      r6,[r9,#0x0]=>DAT_20002add              
ram:00028b08    4ff0806b        mov.w       r11,#0x4000000                          
ram:00028b0c    dff85ca1        ldr.w       r10,[DAT_00028c6c]                      ;= 20002AF7h
                            LAB_00028b10:                 ;XREF[1,0]:   00028c2a
ram:00028b10    00f090fe        bl          FUN_00029834                            ;int FUN_00029834(void)
ram:00028b14    a8b1            cbz         param_1,LAB_00028b42                    
ram:00028b16    00f08dfe        bl          FUN_00029834                            ;int FUN_00029834(void)
ram:00028b1a    90b1            cbz         param_1,LAB_00028b42                    
ram:00028b1c    544b            ldr         param_4=>DAT_40010508,[DAT_00028c70]    ;= 40010508h
ram:00028b1e    dff854c1        ldr.w       r12,[DAT_00028c74]                      ;= 6E524635h
ram:00028b22    dff85481        ldr.w       r8,[DAT_00028c78]                       
ram:00028b26    0020            movs        param_1,#0x0                            
                            LAB_00028b28:                 ;XREF[1,0]:   00028b40
ram:00028b28    1a68            ldr         param_3,[param_4,#0x0]=>DAT_40010508    
ram:00028b2a    06fa00f1        lsl.w       param_2,r6,param_1                      
ram:00028b2e    0a42            tst         param_3,param_2                         
ram:00028b30    03d0            beq         LAB_00028b3a                            
ram:00028b32    08eb8001        add.w       param_2,r8,param_1, lsl #0x2            
ram:00028b36    c1f800c6        str.w       r12,[param_2,#offset DAT_40010600 &0x...
                            LAB_00028b3a:                 ;XREF[1,0]:   00028b30
ram:00028b3a    401c            adds        param_1,param_1,#0x1                    
ram:00028b3c    c0b2            uxtb        param_1,param_1                         
ram:00028b3e    0728            cmp         param_1,#0x7                            
ram:00028b40    f2d3            bcc         LAB_00028b28                            
                            LAB_00028b42:                 ;XREF[2,0]:   00028b14,00028b1a
ram:00028b42    fef71df8        bl          FUN_00026b80                            ;undefined FUN_00026b80(void)
ram:00028b46    fdf711fe        bl          FUN_0002676c                            ;undefined FUN_0002676c(void)
ram:00028b4a    2078            ldrb        param_1,[r4,#0x0]=>DAT_20002aa0         
ram:00028b4c    0128            cmp         param_1,#0x1                            
ram:00028b4e    5bd1            bne         LAB_00028c08                            
ram:00028b50    4ff0a048        mov.w       r8,#0x50000000                          
ram:00028b54    2570            strb        r5,[r4,#0x0]=>DAT_20002aa0              
ram:00028b56    4106            lsls        param_2,param_1,#0x19                   
ram:00028b58    c8f80815        str.w       param_2,[r8,#offset DAT_50000508 &0xf...
ram:00028b5c    c8f808b5        str.w       r11,[r8,#offset DAT_50000508 &0xffff]   
ram:00028b60    0023            movs        param_4,#0x0                            
ram:00028b62    4ff4fe21        mov.w       param_2,#0x7f000                        
ram:00028b66    3c48            ldr         param_1,[DAT_00028c58]                  ;= 20002B5Ch
ram:00028b68    2269            ldr         param_3,[r4,#0x10]=>DAT_20002ab0        
ram:00028b6a    00f045fb        bl          FUN_000291f8                            ;undefined4 FUN_000291f8(int * param_...
ram:00028b6e    a8b9            cbnz        param_1,LAB_00028b9c                    
ram:00028b70    3a48            ldr         param_1,[DAT_00028c5c]                  ;= 20002F40h
ram:00028b72    0560            str         r5,[param_1,#0x0]=>DAT_20002f40         
ram:00028b74    6178            ldrb        param_2,[r4,#0x1]=>DAT_20002aa1         
ram:00028b76    0129            cmp         param_2,#0x1                            
ram:00028b78    00d1            bne         LAB_00028b7c                            
ram:00028b7a    0660            str         r6,[param_1,#0x0]=>DAT_20002f40         
                            LAB_00028b7c:                 ;XREF[1,0]:   00028b78
ram:00028b7c    5521            movs        param_2,#0x55                           
ram:00028b7e    4160            str         param_2,[param_1,#0x4]=>DAT_20002f44    
ram:00028b80    3968            ldr         param_2,[r7,#0x0]=>DAT_20002ae8         
ram:00028b82    1122            movs        param_3,#0x11                           
ram:00028b84    b1fbf2f1        udiv        param_2,param_2,param_3                 
ram:00028b88    8160            str         param_2,[param_1,#0x8]=>DAT_20002f48    
ram:00028b8a    4023            movs        param_4,#0x40                           
ram:00028b8c    334a            ldr         param_3=>DAT_20002f40,[DAT_00028c5c]    ;= 20002F40h
ram:00028b8e    4ff4fe21        mov.w       param_2,#0x7f000                        
ram:00028b92    3148            ldr         param_1,[DAT_00028c58]                  ;= 20002B5Ch
ram:00028b94    0095            str         r5,[sp,#0x0]=>local_b0                  
ram:00028b96    00f0f5fb        bl          FUN_00029384                            ;undefined4 FUN_00029384(int * param_...
ram:00028b9a    18b1            cbz         param_1,LAB_00028ba4                    
                            LAB_00028b9c:                 ;XREF[1,0]:   00028b6e
ram:00028b9c    99f80000        ldrb.w      param_1,[r9,#0x0]=>DAT_20002add         
ram:00028ba0    f8b1            cbz         param_1,LAB_00028be2                    
ram:00028ba2    27e0            b           LAB_00028bf4                            
                            LAB_00028ba4:                 ;XREF[1,0]:   00028b9a
ram:00028ba4    99f80000        ldrb.w      param_1,[r9,#0x0]=>DAT_20002add         
ram:00028ba8    40b9            cbnz        param_1,LAB_00028bbc                    
ram:00028baa    0820            movs        param_1,#0x8                            
ram:00028bac    2081            strh        param_1,[r4,#0x8]=>DAT_20002aa8         
ram:00028bae    254a            ldr         param_3,[DAT_00028c44]                  ;= 20002AB4h
ram:00028bb0    a388            ldrh        param_4,[r4,#0x4]=>DAT_20002aa4         
ram:00028bb2    0c3a            subs        param_3=>DAT_20002aa8,#0xc              
ram:00028bb4    31a1            adr         param_2=>s_write...,[s_write_OK_00028...;= "write OK"
ram:00028bb6    2348            ldr         param_1,[DAT_00028c44]                  ;= 20002AB4h
ram:00028bb8    fff75ef8        bl          FUN_00027c78                            ;uint FUN_00027c78(int param_1, undef...
                            LAB_00028bbc:                 ;XREF[1,0]:   00028ba8
ram:00028bbc    3248            ldr         param_1,[DAT_00028c88]                  ;= 0007A120h
ram:00028bbe    00f075fe        bl          FUN_000298ac                            ;undefined FUN_000298ac(int param_1)
ram:00028bc2    6078            ldrb        param_1,[r4,#0x1]=>DAT_20002aa1         
ram:00028bc4    0128            cmp         param_1,#0x1                            
ram:00028bc6    15d1            bne         LAB_00028bf4                            
ram:00028bc8    bff34f8f        dsb         0xf                                     
ram:00028bcc    2f48            ldr         param_1,[DAT_00028c8c]                  ;= E000ED0Ch
ram:00028bce    0168            ldr         param_2,[param_1,#0x0]=>DAT_e000ed0c    
ram:00028bd0    2f4a            ldr         param_3,[DAT_00028c90]                  ;= 05FA0004h
ram:00028bd2    01f4e061        and         param_2,param_2,#0x700                  
ram:00028bd6    1143            orrs        param_2,param_3                         
ram:00028bd8    0160            str         param_2,[param_1,#0x0]=>DAT_e000ed0c    
ram:00028bda    bff34f8f        dsb         0xf                                     
                            LAB_00028bde:                 ;XREF[1,0]:   00028be0
ram:00028bde    00bf            nop                                                  
ram:00028be0    fde7            b           LAB_00028bde                            
                            LAB_00028be2:                 ;XREF[1,0]:   00028ba0
ram:00028be2    0c20            movs        param_1,#0xc                            
ram:00028be4    2081            strh        param_1,[r4,#0x8]=>DAT_20002aa8         
ram:00028be6    174a            ldr         param_3,[DAT_00028c44]                  ;= 20002AB4h
ram:00028be8    a388            ldrh        param_4,[r4,#0x4]=>DAT_20002aa4         
ram:00028bea    0c3a            subs        param_3=>DAT_20002aa8,#0xc              
ram:00028bec    29a1            adr         param_2=>s_write...,[s_write_Failed_0...;= "write Failed"
ram:00028bee    1548            ldr         param_1,[DAT_00028c44]                  ;= 20002AB4h
ram:00028bf0    fff742f8        bl          FUN_00027c78                            ;uint FUN_00027c78(int param_1, undef...
                            LAB_00028bf4:                 ;XREF[2,0]:   00028ba2,00028bc6
ram:00028bf4    44f62060        movw        param_1,#0x4e20                         
ram:00028bf8    00f058fe        bl          FUN_000298ac                            ;undefined FUN_000298ac(int param_1)
ram:00028bfc    c8f808b5        str.w       r11,[r8,#offset DAT_50000508 &0xffff]   
ram:00028c00    4ff00071        mov.w       param_2,#0x2000000                      
ram:00028c04    c8f80c15        str.w       param_2,[r8,#offset DAT_5000050c &0xf...
                            LAB_00028c08:                 ;XREF[1,0]:   00028b4e
ram:00028c08    9af80010        ldrb.w      param_2,[r10,#0x0]=>DAT_20002af7        
ram:00028c0c    0129            cmp         param_2,#0x1                            
ram:00028c0e    0ad1            bne         LAB_00028c26                            
ram:00028c10    8af80050        strb.w      r5,[r10,#0x0]=>DAT_20002af7             
ram:00028c14    0720            movs        param_1,#0x7                            
ram:00028c16    2081            strh        param_1,[r4,#0x8]=>DAT_20002aa8         
ram:00028c18    0a4a            ldr         param_3,[DAT_00028c44]                  ;= 20002AB4h
ram:00028c1a    a388            ldrh        param_4,[r4,#0x4]=>DAT_20002aa4         
ram:00028c1c    0c3a            subs        param_3=>DAT_20002aa8,#0xc              
ram:00028c1e    21a1            adr         param_2=>s_GB5;1...,[s_GB5;101_00028ca4];= "GB5;101"
ram:00028c20    0848            ldr         param_1,[DAT_00028c44]                  ;= 20002AB4h
ram:00028c22    fff729f8        bl          FUN_00027c78                            ;uint FUN_00027c78(int param_1, undef...
                            LAB_00028c26:                 ;XREF[1,0]:   00028c0e
ram:00028c26    00f079fc        bl          FUN_0002951c                            ;undefined FUN_0002951c(void)
ram:00028c2a    71e7            b           LAB_00028b10                            
                            s_GRANBOARD_00028c2c:         ;XREF[2,0]:   00028956,00028956
ram:00028c2c    4752414e4...    ds          "GRANBOARD"                             
                            PTR_thunk_FUN_000270dc+1_00...;XREF[1,0]:   0002899e
ram:00028c38    61950200        addr        thunk_FUN_000270dc+1                    
                            DAT_00028c3c:                 ;XREF[4,0]:   000289a4,000289f4,00028a04,00028a46
ram:00028c3c    782c0020        undefined4  20002C78h                               
                            PTR_LAB_00029a1c+1+1_00028c40:;XREF[1,0]:   000289b0
ram:00028c40    1d9a0200        addr        LAB_00029a1c+1+1                        
                            DAT_00028c44:                 ;XREF[9,0]:   000289b6,000289da,00028aca,00028bae
                                                          ;             00028bb6,00028be6,00028bee,00028c18
                                                          ;             00028c20
ram:00028c44    b42a0020        undefined4  20002AB4h                               
                            PTR_LAB_00029aa0+1+1_00028c48:;XREF[1,0]:   000289f0
ram:00028c48    a19a0200        addr        LAB_00029aa0+1+1                        
                            PTR_LAB_00029ad8+1+1_00028c4c:;XREF[1,0]:   00028a2a
ram:00028c4c    d99a0200        addr        LAB_00029ad8+1+1                        
                            PTR_thunk_FUN_000270dc+1_00...;XREF[1,0]:   00028a2e
ram:00028c50    1f850200        addr        thunk_FUN_000270dc+1                    
                            PTR_PTR_FUN_000286e4+1_0002...;XREF[1,0]:   00028a60
ram:00028c54    fca50200        addr        PTR_FUN_000286e4+1_0002a5fc             ;= 000286e5
                            DAT_00028c58:                 ;XREF[4,0]:   00028a62,00028a76,00028b66,00028b92
ram:00028c58    5c2b0020        undefined4  20002B5Ch                               
                            DAT_00028c5c:                 ;XREF[4,0]:   00028a70,00028a7c,00028b70,00028b8c
ram:00028c5c    402f0020        undefined4  20002F40h                               
                            DAT_00028c60:                 ;XREF[1,0]:   00028ac8
ram:00028c60    e82a0020        undefined4  20002AE8h                               
                            DAT_00028c64:                 ;XREF[1,0]:   00028af8
ram:00028c64    ec2a0020        undefined4  20002AECh                               
                            DAT_00028c68:                 ;XREF[1,0]:   00028afa
ram:00028c68    dd2a0020        undefined4  20002ADDh                               
                            DAT_00028c6c:                 ;XREF[1,0]:   00028b0c
ram:00028c6c    f72a0020        undefined4  20002AF7h                               
                            DAT_00028c70:                 ;XREF[1,0]:   00028b1c
ram:00028c70    08050140        undefined4  40010508h                               
                            DAT_00028c74:                 ;XREF[1,0]:   00028b1e
ram:00028c74    3546526e        undefined4  6E524635h                               
                            DAT_00028c78:                 ;XREF[1,0]:   00028b22
                                                          ;XREF[0,2]:   00028bb4,00028bb4
ram:00028c7b    407772697...    ds          "@write OK"                             
                            DAT_00028c88:                 ;XREF[1,0]:   00028bbc
ram:00028c88    20a10700        undefined4  0007A120h                               
                            DAT_00028c8c:                 ;XREF[1,0]:   00028bcc
ram:00028c8c    0ced00e0        undefined4  E000ED0Ch                               
                            DAT_00028c90:                 ;XREF[1,0]:   00028bd0
ram:00028c90    0400fa05        undefined4  05FA0004h                               
                            s_write_Failed_00028c94:      ;XREF[2,0]:   00028bec,00028bec
ram:00028c94    777269746...    ds          "write Failed"                          
                            s_GB5;101_00028ca4:           ;XREF[2,0]:   00028c1e,00028c1e
ram:00028ca4    4742353b3...    ds          "GB5;101"                               
                            ;************************************************************************************************
                            ;*                                           FUNCTION                                           *
                            ;************************************************************************************************
                            ;undefined4 FUN_00028cac(ushort * param_1, int param_2, ushort * param_3, uint param_4)
          ;param_1       ushort *            r0                      
          ;param_2       int                 r1                      
          ;param_3       ushort *            r2                      
          ;param_4       uint                r3                      
                                                          ;XREF[1,0]:   00027424
ram:00028cac    70b5            push        {r4,r5,r6,lr}                           
ram:00028cae    1446            mov         r4,param_3                              
ram:00028cb0    8288            ldrh        param_3,[param_1,#0x4]                  
ram:00028cb2    0e46            mov         r6,param_2                              
ram:00028cb4    0546            mov         r5,param_1                              
ram:00028cb6    2088            ldrh        param_1,[r4,#0x0]                       
ram:00028cb8    111d            adds        param_2,param_3,#0x4                    
ram:00028cba    0144            add         param_2,param_1                         
ram:00028cbc    921c            adds        param_3,param_3,#0x2                    
ram:00028cbe    9942            cmp         param_2,param_4                         
ram:00028cc0    01d8            bhi         LAB_00028cc6                            
ram:00028cc2    fe2a            cmp         param_3,#0xfe                           
ram:00028cc4    01d9            bls         LAB_00028cca                            
                            LAB_00028cc6:                 ;XREF[1,0]:   00028cc0
ram:00028cc6    0c20            movs        param_1,#0xc                            
ram:00028cc8    70bd            pop         {r4,r5,r6,pc}                           
                            LAB_00028cca:                 ;XREF[1,0]:   00028cc4
ram:00028cca    521c            adds        param_3,param_3,#0x1                    
ram:00028ccc    3254            strb        param_3,[r6,param_1]                    
ram:00028cce    2088            ldrh        param_1,[r4,#0x0]                       
ram:00028cd0    ff21            movs        param_2,#0xff                           
ram:00028cd2    401c            adds        param_1,param_1,#0x1                    
ram:00028cd4    80b2            uxth        param_1,param_1                         
ram:00028cd6    2080            strh        param_1,[r4,#0x0]                       
ram:00028cd8    3154            strb        param_2,[r6,param_1]                    
ram:00028cda    2088            ldrh        param_1,[r4,#0x0]                       
ram:00028cdc    401c            adds        param_1,param_1,#0x1                    
ram:00028cde    80b2            uxth        param_1,param_1                         
ram:00028ce0    2080            strh        param_1,[r4,#0x0]                       
ram:00028ce2    8119            adds        param_2,param_1,r6                      
ram:00028ce4    2888            ldrh        param_1,[r5,#0x0]                       
ram:00028ce6    01f0ebfa        bl          FUN_0002a2c0                            ;undefined4 FUN_0002a2c0(undefined4 p...
ram:00028cea    2188            ldrh        param_2,[r4,#0x0]                       
ram:00028cec    0844            add         param_1,param_2                         
ram:00028cee    80b2            uxth        param_1,param_1                         
ram:00028cf0    2080            strh        param_1,[r4,#0x0]                       
ram:00028cf2    aa88            ldrh        param_3,[r5,#0x4]                       
ram:00028cf4    42b1            cbz         param_3,LAB_00028d08                    
ram:00028cf6    a968            ldr         param_2,[r5,#0x8]                       
ram:00028cf8    41b1            cbz         param_2,LAB_00028d0c                    
ram:00028cfa    3044            add         param_1,r6                              
ram:00028cfc    fdf7c2fb        bl          FUN_00026484                            ;undefined FUN_00026484(undefined4 * ...
ram:00028d00    2088            ldrh        param_1,[r4,#0x0]                       
ram:00028d02    a988            ldrh        param_2,[r5,#0x4]                       
ram:00028d04    0844            add         param_1,param_2                         
ram:00028d06    2080            strh        param_1,[r4,#0x0]                       
                            LAB_00028d08:                 ;XREF[1,0]:   00028cf4
ram:00028d08    0020            movs        param_1,#0x0                            
ram:00028d0a    70bd            pop         {r4,r5,r6,pc}                           
                            LAB_00028d0c:                 ;XREF[1,0]:   00028cf8
ram:00028d0c    0720            movs        param_1,#0x7                            
ram:00028d0e    70bd            pop         {r4,r5,r6,pc}                           
                            ;************************************************************************************************
                            ;*                                           FUNCTION                                           *
                            ;************************************************************************************************
                            ;longlong FUN_00028d10(byte * param_1, int param_2, ushort * param_3, undefined4 * * * * param_4)
          ;param_1       byte *              r0                      
          ;param_2       int                 r1                      
          ;param_3       ushort *            r2                      
          ;param_4       undefined4 ...      r3                      
          ;local_18      undefined2         -18                      ;XREF[7,0]:   00028d44,00028d5e,00028d66,00028d7e,00028d84
                                                                     ;             00028d88,00028daa
                                                          ;XREF[1,0]:   0002744e
ram:00028d10    f8b5            push        {param_4,r4,r5,r6,r7,lr}                
ram:00028d12    0f46            mov         r7,param_2                              
ram:00028d14    0178            ldrb        param_2,[param_1,#0x0]                  
ram:00028d16    1446            mov         r4,param_3                              
ram:00028d18    0546            mov         r5,param_1                              
ram:00028d1a    0129            cmp         param_2,#0x1                            
ram:00028d1c    01d1            bne         LAB_00028d22                            
ram:00028d1e    6878            ldrb        param_1,[r5,#0x1]                       
ram:00028d20    30b1            cbz         param_1,LAB_00028d30                    
                            LAB_00028d22:                 ;XREF[1,0]:   00028d1c
ram:00028d22    2088            ldrh        param_1,[r4,#0x0]                       
ram:00028d24    821c            adds        param_3,param_1,#0x2                    
ram:00028d26    9a42            cmp         param_3,param_4                         
ram:00028d28    32d8            bhi         LAB_00028d90                            
ram:00028d2a    0129            cmp         param_2,#0x1                            
ram:00028d2c    02d0            beq         LAB_00028d34                            
ram:00028d2e    06e0            b           LAB_00028d3e                            
                            LAB_00028d30:                 ;XREF[1,0]:   00028d20
ram:00028d30    0720            movs        param_1,#0x7                            
                            LAB_00028d32:                 ;XREF[1,0]:   00028d54
ram:00028d32    f8bd            pop         {param_4,r4,r5,r6,r7,pc}                
                            LAB_00028d34:                 ;XREF[1,0]:   00028d2c
ram:00028d34    6978            ldrb        param_2,[r5,#0x1]                       
ram:00028d36    0144            add         param_2,param_1                         
ram:00028d38    891c            adds        param_2,param_2,#0x2                    
ram:00028d3a    9942            cmp         param_2,param_4                         
ram:00028d3c    28d8            bhi         LAB_00028d90                            
                            LAB_00028d3e:                 ;XREF[1,0]:   00028d2e
ram:00028d3e    181a            subs        param_1,param_4,param_1                 
ram:00028d40    801e            subs        param_1,param_1,#0x2                    
ram:00028d42    86b2            uxth        r6,param_1                              
ram:00028d44    adf80060        strh.w      r6,[sp,#0x0]=>local_18                  
ram:00028d48    2188            ldrh        param_2,[r4,#0x0]                       
ram:00028d4a    b81c            adds        param_1,r7,#0x2                         
ram:00028d4c    0844            add         param_1,param_2                         
ram:00028d4e    6946            mov         param_2,sp                              
ram:00028d50    7ddf            svc         0x7d                                    
ram:00028d52    0028            cmp         param_1,#0x0                            
ram:00028d54    edd1            bne         LAB_00028d32                            
ram:00028d56    2978            ldrb        param_2,[r5,#0x0]                       
ram:00028d58    0229            cmp         param_2,#0x2                            
ram:00028d5a    04d0            beq         LAB_00028d66                            
ram:00028d5c    6878            ldrb        param_1,[r5,#0x1]                       
ram:00028d5e    bdf80020        ldrh.w      param_3,[sp,#0x0]=>local_18             
ram:00028d62    9042            cmp         param_1,param_3                         
ram:00028d64    05d3            bcc         LAB_00028d72                            
                            LAB_00028d66:                 ;XREF[1,0]:   00028d5a
ram:00028d66    bdf80000        ldrh.w      param_1,[sp,#0x0]=>local_18             
ram:00028d6a    b042            cmp         param_1,r6                              
ram:00028d6c    01d8            bhi         LAB_00028d72                            
ram:00028d6e    0920            movs        param_1,#0x9                            
ram:00028d70    0ae0            b           LAB_00028d88                            
                            LAB_00028d72:                 ;XREF[2,0]:   00028d64,00028d6c
ram:00028d72    0820            movs        param_1,#0x8                            
ram:00028d74    0129            cmp         param_2,#0x1                            
ram:00028d76    05d1            bne         LAB_00028d84                            
ram:00028d78    6978            ldrb        param_2,[r5,#0x1]                       
ram:00028d7a    b142            cmp         param_2,r6                              
ram:00028d7c    02d8            bhi         LAB_00028d84                            
ram:00028d7e    adf80010        strh.w      param_2,[sp,#0x0]=>local_18             
ram:00028d82    01e0            b           LAB_00028d88                            
                            LAB_00028d84:                 ;XREF[2,0]:   00028d76,00028d7c
ram:00028d84    adf80060        strh.w      r6,[sp,#0x0]=>local_18                  
                            LAB_00028d88:                 ;XREF[2,0]:   00028d70,00028d82
ram:00028d88    bdf80010        ldrh.w      param_2,[sp,#0x0]=>local_18             
ram:00028d8c    fe29            cmp         param_2,#0xfe                           
ram:00028d8e    01d9            bls         LAB_00028d94                            
                            LAB_00028d90:                 ;XREF[2,0]:   00028d28,00028d3c
ram:00028d90    0c20            movs        param_1,#0xc                            
ram:00028d92    f8bd            pop         {param_4,r4,r5,r6,r7,pc}                
                            LAB_00028d94:                 ;XREF[1,0]:   00028d8e
ram:00028d94    2288            ldrh        param_3,[r4,#0x0]                       
ram:00028d96    491c            adds        param_2,param_2,#0x1                    
ram:00028d98    b954            strb        param_2,[r7,param_3]                    
ram:00028d9a    2188            ldrh        param_2,[r4,#0x0]                       
ram:00028d9c    491c            adds        param_2,param_2,#0x1                    
ram:00028d9e    89b2            uxth        param_2,param_2                         
ram:00028da0    2180            strh        param_2,[r4,#0x0]                       
ram:00028da2    7854            strb        param_1,[r7,param_2]                    
ram:00028da4    2088            ldrh        param_1,[r4,#0x0]                       
ram:00028da6    401c            adds        param_1,param_1,#0x1                    
ram:00028da8    2080            strh        param_1,[r4,#0x0]                       
ram:00028daa    bdf80010        ldrh.w      param_2,[sp,#0x0]=>local_18             
ram:00028dae    0844            add         param_1,param_2                         
ram:00028db0    2080            strh        param_1,[r4,#0x0]                       
ram:00028db2    0020            movs        param_1,#0x0                            
ram:00028db4    f8bd            pop         {param_4,r4,r5,r6,r7,pc}                
                            ;************************************************************************************************
                            ;*                                           FUNCTION                                           *
                            ;************************************************************************************************
                            ;undefined4 FUN_00028db6(int param_1)
          ;param_1       int                 r0                      
                                                          ;XREF[1,0]:   0002a2da
ram:00028db6    10b5            push        {r4,lr}                                 
ram:00028db8    fdf777fa        bl          FUN_000262aa                            ;undefined4 FUN_000262aa(int param_1)
ram:00028dbc    08b1            cbz         param_1,LAB_00028dc2                    
ram:00028dbe    0020            movs        param_1,#0x0                            
ram:00028dc0    10bd            pop         {r4,pc}                                 
                            LAB_00028dc2:                 ;XREF[1,0]:   00028dbc
ram:00028dc2    1120            movs        param_1,#0x11                           
ram:00028dc4    10bd            pop         {r4,pc}                                 
                            ;************************************************************************************************
                            ;*                                           FUNCTION                                           *
                            ;************************************************************************************************
                            ;undefined4 FUN_00028dc6(int * param_1, int param_2, uint param_3, uint param_4)
          ;param_1       int *               r0                      
          ;param_2       int                 r1                      
          ;param_3       uint                r2                      
          ;param_4       uint                r3                      
                                                          ;XREF[1,0]:   00028706
ram:00028dc6    10b5            push        {r4,lr}                                 
ram:00028dc8    31b1            cbz         param_2,LAB_00028dd8                    
ram:00028dca    b2fbf3f4        udiv        r4,param_3,param_4                      
ram:00028dce    03fb1424        mls         r4,param_4,r4,param_3                   
ram:00028dd2    1cb1            cbz         r4,LAB_00028ddc                         
ram:00028dd4    0920            movs        param_1,#0x9                            
ram:00028dd6    10bd            pop         {r4,pc}                                 
                            LAB_00028dd8:                 ;XREF[1,0]:   00028dc8
ram:00028dd8    0e20            movs        param_1,#0xe                            
ram:00028dda    10bd            pop         {r4,pc}                                 
                            LAB_00028ddc:                 ;XREF[1,0]:   00028dd2
ram:00028ddc    0160            str         param_2,[param_1,#0x0]                  
ram:00028dde    0021            movs        param_2,#0x0                            
ram:00028de0    4160            str         param_2,[param_1,#0x4]                  
ram:00028de2    8160            str         param_2,[param_1,#0x8]                  
ram:00028de4    8281            strh        param_3,[param_1,#0xc]                  
ram:00028de6    c381            strh        param_4,[param_1,#0xe]                  
ram:00028de8    0846            mov         param_1,param_2                         
ram:00028dea    10bd            pop         {r4,pc}                                 
                            ;************************************************************************************************
                            ;*                                           FUNCTION                                           *
                            ;************************************************************************************************
                            ;int FUN_00028dec(int * param_1, uint * param_2)
          ;param_1       int *               r0                      
          ;param_2       uint *              r1                      
                                                          ;XREF[2,0]:   000285de,0002a4e2
ram:00028dec    70b5            push        {r4,r5,r6,lr}                           
ram:00028dee    0c46            mov         r4,param_2                              
ram:00028df0    0546            mov         r5,param_1                              
ram:00028df2    fdf70ffa        bl          FUN_00026214                            ;undefined4 FUN_00026214(int param_1,...
ram:00028df6    0028            cmp         param_1,#0x0                            
ram:00028df8    02d0            beq         LAB_00028e00                            
ram:00028dfa    2188            ldrh        param_2,[r4,#0x0]                       
ram:00028dfc    2868            ldr         param_1,[r5,#0x0]                       
ram:00028dfe    0844            add         param_1,param_2                         
                            LAB_00028e00:                 ;XREF[1,0]:   00028df8
ram:00028e00    70bd            pop         {r4,r5,r6,pc}                           
                            ;************************************************************************************************
                            ;*                                           FUNCTION                                           *
                            ;************************************************************************************************
                            ;undefined4 FUN_00028e02(int param_1, short * param_2)
          ;param_1       int                 r0                      
          ;param_2       short *             r1                      
                                                          ;XREF[1,0]:   00029bfa
ram:00028e02    10b5            push        {r4,lr}                                 
ram:00028e04    0a88            ldrh        r2,[param_2,#0x0]=>DAT_20002b50         
ram:00028e06    4988            ldrh        param_2,[param_2,#0x2]=>DAT_20002b52    
ram:00028e08    8a42            cmp         r2,param_2                              
ram:00028e0a    03d1            bne         LAB_00028e14                            
ram:00028e0c    fdf744fa        bl          FUN_00026298                            ;undefined FUN_00026298(int param_1)
ram:00028e10    0120            movs        param_1,#0x1                            
ram:00028e12    10bd            pop         {r4,pc}                                 
                            LAB_00028e14:                 ;XREF[1,0]:   00028e0a
ram:00028e14    0020            movs        param_1,#0x0                            
ram:00028e16    10bd            pop         {r4,pc}                                 
                            ;************************************************************************************************
                            ;*                                           FUNCTION                                           *
                            ;************************************************************************************************
                            ;int FUN_00028e18(int * param_1, uint * param_2)
          ;param_1       int *               r0                      
          ;param_2       uint *              r1                      
                                                          ;XREF[1,0]:   00029c1e
ram:00028e18    70b5            push        {r4,r5,r6,lr}                           
ram:00028e1a    0c46            mov         r4,param_2                              
ram:00028e1c    0546            mov         r5,param_1                              
ram:00028e1e    fdf71efa        bl          FUN_0002625e                            ;undefined4 FUN_0002625e(int param_1,...
ram:00028e22    0028            cmp         param_1,#0x0                            
ram:00028e24    02d0            beq         LAB_00028e2c                            
ram:00028e26    6188            ldrh        param_2,[r4,#0x2]                       
ram:00028e28    2868            ldr         param_1,[r5,#0x0]                       
ram:00028e2a    0844            add         param_1,param_2                         
                            LAB_00028e2c:                 ;XREF[1,0]:   00028e24
ram:00028e2c    70bd            pop         {r4,r5,r6,pc}                           
                            ;************************************************************************************************
                            ;*                                           FUNCTION                                           *
                            ;************************************************************************************************
                            ;undefined4 FUN_00028e2e(int param_1, short * param_2)
          ;param_1       int                 r0                      
          ;param_2       short *             r1                      
                                                          ;XREF[2,0]:   00028602,0002a504
ram:00028e2e    10b5            push        {r4,lr}                                 
ram:00028e30    0a88            ldrh        r2,[param_2,#0x0]                       
ram:00028e32    4988            ldrh        param_2,[param_2,#0x2]                  
ram:00028e34    8a42            cmp         r2,param_2                              
ram:00028e36    03d1            bne         LAB_00028e40                            
ram:00028e38    fdf708fa        bl          FUN_0002624c                            ;undefined FUN_0002624c(int param_1)
ram:00028e3c    0120            movs        param_1,#0x1                            
ram:00028e3e    10bd            pop         {r4,pc}                                 
                            LAB_00028e40:                 ;XREF[1,0]:   00028e36
ram:00028e40    0020            movs        param_1,#0x0                            
ram:00028e42    10bd            pop         {r4,pc}                                 
                            ;************************************************************************************************
                            ;*                                           FUNCTION                                           *
                            ;************************************************************************************************
                            ;undefined FUN_00028e44(int param_1, uint param_2)
          ;param_1       int                 r0                      
          ;param_2       uint                r1                      
                                                          ;XREF[3,0]:   00027be0,00027c62,00027c66
ram:00028e44    01f01f03        and         r3,param_2,#0x1f                        
ram:00028e48    0122            movs        r2,#0x1                                 
ram:00028e4a    9a40            lsls        r2,r3                                   
ram:00028e4c    d243            mvns        r2,r2                                   
ram:00028e4e    4909            lsrs        param_2,param_2,#0x5                    
ram:00028e50    00eb8100        add.w       param_1,param_1,param_2, lsl #0x2       
ram:00028e54    1146            mov         param_2,r2                              
ram:00028e56    00f018b8        b.w         FUN_00028e8a                            ;uint FUN_00028e8a(uint * param_1, ui...
                            ;************************************************************************************************
                            ;*                                           FUNCTION                                           *
                            ;************************************************************************************************
                            ;uint FUN_00028e5a(int param_1, uint param_2)
          ;param_1       int                 r0                      
          ;param_2       uint                r1                      
                                                          ;XREF[2,0]:   000278e8,0002846e
ram:00028e5a    4a09            lsrs        r2,param_2,#0x5                         
ram:00028e5c    50f82200        ldr.w       param_1,param_1,r2,0x2                  
ram:00028e60    01f01f02        and         r2,param_2,#0x1f                        
ram:00028e64    0121            movs        param_2,#0x1                            
ram:00028e66    9140            lsls        param_2,r2                              
ram:00028e68    0840            ands        param_1,param_2                         
ram:00028e6a    00d0            beq         LAB_00028e6e                            
ram:00028e6c    0120            movs        param_1,#0x1                            
                            LAB_00028e6e:                 ;XREF[1,0]:   00028e6a
ram:00028e6e    7047            bx          lr                                      
                            ;************************************************************************************************
                            ;*                                           FUNCTION                                           *
                            ;************************************************************************************************
                            ;undefined FUN_00028e70(int param_1, uint param_2)
          ;param_1       int                 r0                      
          ;param_2       uint                r1                      
                                                          ;XREF[4,0]:   00027c06,00027c10,00027c44,00027c54
ram:00028e70    01f01f03        and         r3,param_2,#0x1f                        
ram:00028e74    0122            movs        r2,#0x1                                 
ram:00028e76    9a40            lsls        r2,r3                                   
ram:00028e78    4909            lsrs        param_2,param_2,#0x5                    
ram:00028e7a    00eb8100        add.w       param_1,param_1,param_2, lsl #0x2       
ram:00028e7e    1146            mov         param_2,r2                              
ram:00028e80    00f00eb8        b.w         FUN_00028ea0                            ;uint FUN_00028ea0(uint * param_1, ui...
                            ;************************************************************************************************
                            ;*                                           FUNCTION                                           *
                            ;************************************************************************************************
                            ;undefined FUN_00028e84(uint * param_1, undefined4 param_2, undefined4 param_3, uint param_4)
          ;param_1       uint *              r0                      
          ;param_2       undefined4          r1                      
          ;param_3       undefined4          r2                      
          ;param_4       uint                r3                      
                                                          ;XREF[2,0]:   000286ec,00029cae
ram:00028e84    0121            movs        param_2,#0x1                            
ram:00028e86    00f006b8        b.w         LAB_00028e96                            
                            ;************************************************************************************************
                            ;*                                           FUNCTION                                           *
                            ;************************************************************************************************
                            ;uint FUN_00028e8a(uint * param_1, uint param_2, undefined4 param_3, uint param_4)
          ;param_1       uint *              r0                      
          ;param_2       uint                r1                      
          ;param_3       undefined4          r2                      
          ;param_4       uint                r3                      
          ;local_8       undefined4          -8                      ;XREF[1,0]:   00028e92
                                                          ;XREF[2,0]:   00027bac,00028e56
ram:00028e8a    08b5            push        {param_4,lr}                            
ram:00028e8c    6a46            mov         param_3,sp                              
ram:00028e8e    fdf73efa        bl          FUN_0002630e                            ;undefined FUN_0002630e(uint * param_...
ram:00028e92    0098            ldr         param_1,[sp,#0x0]=>local_8              
ram:00028e94    08bd            pop         {param_4,pc}                            
                            LAB_00028e96:                 ;XREF[1,0]:   00028e86
ram:00028e96    08b5            push        {param_4,lr}                            
ram:00028e98    6a46            mov         param_3,sp                              
ram:00028e9a    fdf72bfa        bl          FUN_000262f4                            ;undefined FUN_000262f4(uint * param_...
ram:00028e9e    08bd            pop         {param_4,pc}                            
                            ;************************************************************************************************
                            ;*                                           FUNCTION                                           *
                            ;************************************************************************************************
                            ;uint FUN_00028ea0(uint * param_1, uint param_2, undefined4 param_3, uint param_4)
          ;param_1       uint *              r0                      
          ;param_2       uint                r1                      
          ;param_3       undefined4          r2                      
          ;param_4       uint                r3                      
          ;local_8       undefined4          -8                      ;XREF[1,0]:   00028ea8
                                                          ;XREF[1,0]:   00028e80
ram:00028ea0    08b5            push        {param_4,lr}                            
ram:00028ea2    6a46            mov         param_3,sp                              
ram:00028ea4    fdf726fa        bl          FUN_000262f4                            ;undefined FUN_000262f4(uint * param_...
ram:00028ea8    0098            ldr         param_1,[sp,#0x0]=>local_8              
ram:00028eaa    08bd            pop         {param_4,pc}                            
                            ;************************************************************************************************
                            ;*                                           FUNCTION                                           *
                            ;************************************************************************************************
                            ;uint FUN_00028eac(uint param_1, int param_2)
          ;param_1       uint                r0                      
          ;param_2       int                 r1                      
                                                          ;XREF[2,0]:   000265c4,00026604
ram:00028eac    c208            lsrs        r2,param_1,#0x3                         
ram:00028eae    00f00703        and         r3,param_1,#0x7                         
ram:00028eb2    0120            movs        param_1,#0x1                            
ram:00028eb4    895c            ldrb        param_2,[param_2,r2]                    
ram:00028eb6    9840            lsls        param_1,r3                              
ram:00028eb8    0840            ands        param_1,param_2                         
ram:00028eba    7047            bx          lr                                      
                            ;************************************************************************************************
                            ;*                                           FUNCTION                                           *
                            ;************************************************************************************************
                            ;undefined FUN_00028ebc(uint param_1, int param_2)
          ;param_1       uint                r0                      
          ;param_2       int                 r1                      
                                                          ;XREF[1,0]:   000265ec
ram:00028ebc    10b5            push        {r4,lr}                                 
ram:00028ebe    c208            lsrs        r2,param_1,#0x3                         
ram:00028ec0    00f00703        and         r3,param_1,#0x7                         
ram:00028ec4    885c            ldrb        param_1,[param_2,r2]                    
ram:00028ec6    0124            movs        r4,#0x1                                 
ram:00028ec8    9c40            lsls        r4,r3                                   
ram:00028eca    2043            orrs        param_1,r4                              
ram:00028ecc    8854            strb        param_1,[param_2,r2]                    
ram:00028ece    10bd            pop         {r4,pc}                                 
                            ;************************************************************************************************
                            ;*                                           FUNCTION                                           *
                            ;************************************************************************************************
                            ;undefined4 FUN_00028ed0(undefined2 * param_1, int param_2)
          ;param_1       undefined2 *        r0                      
          ;param_2       int                 r1                      
                                                          ;XREF[1,0]:   000286c8
ram:00028ed0    28b1            cbz         param_1,LAB_00028ede                    
ram:00028ed2    a1f11702        sub.w       r2,param_2,#0x17                        
ram:00028ed6    e12a            cmp         r2,#0xe1                                
ram:00028ed8    03d3            bcc         LAB_00028ee2                            
ram:00028eda    0720            movs        param_1,#0x7                            
ram:00028edc    7047            bx          lr                                      
                            LAB_00028ede:                 ;XREF[1,0]:   00028ed0
ram:00028ede    0e20            movs        param_1,#0xe                            
ram:00028ee0    7047            bx          lr                                      
                            LAB_00028ee2:                 ;XREF[1,0]:   00028ed8
ram:00028ee2    0180            strh        param_2,[param_1,#0x0]                  
ram:00028ee4    0020            movs        param_1,#0x0                            
ram:00028ee6    7047            bx          lr                                      
                            ;************************************************************************************************
                            ;*                                           FUNCTION                                           *
                            ;************************************************************************************************
                            ;undefined4 FUN_00028ee8(undefined2 * param_1, undefined4 param_2)
          ;param_1       undefined2 *        r0                      
          ;param_2       undefined4          r1                      
                                                          ;XREF[1,0]:   000286ba
ram:00028ee8    10b5            push        {r4,lr}                                 
ram:00028eea    60b1            cbz         param_1,LAB_00028f06                    
ram:00028eec    0161            str         param_2,[param_1,#0x10]                 
ram:00028eee    f721            movs        param_2,#0xf7                           
ram:00028ef0    20f8021b        strh        param_2,[param_1],#0x2                  
ram:00028ef4    20f8021b        strh        param_2,[param_1],#0x2                  
ram:00028ef8    fb21            movs        param_2,#0xfb                           
ram:00028efa    00f8021b        strb.w      param_2,[param_1],#0x2                  
ram:00028efe    fff77bfc        bl          FUN_000287f8                            ;undefined FUN_000287f8(undefined2 * ...
ram:00028f02    0020            movs        param_1,#0x0                            
ram:00028f04    10bd            pop         {r4,pc}                                 
                            LAB_00028f06:                 ;XREF[1,0]:   00028eea
ram:00028f06    0e20            movs        param_1,#0xe                            
ram:00028f08    10bd            pop         {r4,pc}                                 
ram:00028f0a    0000            movs        r0,r0                                   
                            ;************************************************************************************************
                            ;*                                           FUNCTION                                           *
                            ;************************************************************************************************
                            ;undefined FUN_00028f0c(ushort * param_1, ushort * param_2)
          ;param_1       ushort *            r0                      
          ;param_2       ushort *            r1                      
          ;local_28      undefined1         -28                      ;XREF[1,0]:   0002904c
          ;local_2c      undefined4         -2c                      ;XREF[1,1]:   00029042,00029046
          ;local_54      undefined2         -54                      ;XREF[3,0]:   00028fbe,00029014,00029030
          ;local_58      undefined4         -58                      ;XREF[3,2]:   00028fb4,00029008,0002902c,00028fb8,0002900c
ram:00028f0c    2de9f047        push        {r4,r5,r6,r7,r8,r9,r10,lr}              
ram:00028f10    b0f804a0        ldrh.w      r10,[param_1,#0x4]                      
ram:00028f14    8eb0            sub         sp,#0x38                                
ram:00028f16    0c46            mov         r4,param_2                              
ram:00028f18    5fea0a09        movs.w      r9,r10                                  
ram:00028f1c    57d1            bne         LAB_00028fce                            
ram:00028f1e    0188            ldrh        param_2,[param_1,#0x0]                  
ram:00028f20    564e            ldr         r6,[PTR_DAT_0002907c]                   ;= 0002a58c
ram:00028f22    0127            movs        r7,#0x1                                 
ram:00028f24    0025            movs        r5,#0x0                                 
ram:00028f26    2429            cmp         param_2,#0x24                           
ram:00028f28    7bd0            beq         LAB_00029022                            
ram:00028f2a    06dc            bgt         LAB_00028f3a                            
ram:00028f2c    1029            cmp         param_2,#0x10                           
ram:00028f2e    09d0            beq         LAB_00028f44                            
ram:00028f30    1129            cmp         param_2,#0x11                           
ram:00028f32    29d0            beq         LAB_00028f88                            
ram:00028f34    2329            cmp         param_2,#0x23                           
ram:00028f36    26d1            bne         LAB_00028f86                            
ram:00028f38    99e0            b           LAB_0002906e                            
                            LAB_00028f3a:                 ;XREF[1,0]:   00028f2a
ram:00028f3a    3a29            cmp         param_2,#0x3a                           
ram:00028f3c    28d0            beq         LAB_00028f90                            
ram:00028f3e    5529            cmp         param_2,#0x55                           
ram:00028f40    21d1            bne         LAB_00028f86                            
ram:00028f42    47e0            b           LAB_00028fd4                            
                            LAB_00028f44:                 ;XREF[1,0]:   00028f2e
ram:00028f44    2179            ldrb        param_2,[r4,#0x4]                       
ram:00028f46    2173            strb        param_2,[r4,#0xc]                       
ram:00028f48    c07b            ldrb        param_1,[param_1,#0xf]                  
ram:00028f4a    a61d            adds        r6,r4,#0x6                              
ram:00028f4c    0128            cmp         param_1,#0x1                            
ram:00028f4e    02d0            beq         LAB_00028f56                            
ram:00028f50    0228            cmp         param_1,#0x2                            
ram:00028f52    04d1            bne         LAB_00028f5e                            
ram:00028f54    01e0            b           LAB_00028f5a                            
                            LAB_00028f56:                 ;XREF[1,0]:   00028f4e
ram:00028f56    2088            ldrh        param_1,[r4,#0x0]                       
ram:00028f58    00e0            b           LAB_00028f5c                            
                            LAB_00028f5a:                 ;XREF[1,0]:   00028f54
ram:00028f5a    6088            ldrh        param_1,[r4,#0x2]                       
                            LAB_00028f5c:                 ;XREF[1,0]:   00028f58
ram:00028f5c    3080            strh        param_1,[r6,#0x0]                       
                            LAB_00028f5e:                 ;XREF[1,0]:   00028f52
ram:00028f5e    3188            ldrh        param_2,[r6,#0x0]                       
ram:00028f60    7088            ldrh        param_1,[r6,#0x2]                       
ram:00028f62    8142            cmp         param_2,param_1                         
ram:00028f64    08d9            bls         LAB_00028f78                            
ram:00028f66    4846            mov         param_1,r9                              
ram:00028f68    a5df            svc         0xa5                                    
ram:00028f6a    10b1            cbz         param_1,LAB_00028f72                    
ram:00028f6c    1128            cmp         param_1,#0x11                           
ram:00028f6e    02d0            beq         LAB_00028f76                            
ram:00028f70    02e0            b           LAB_00028f78                            
                            LAB_00028f72:                 ;XREF[1,0]:   00028f6a
ram:00028f72    7771            strb        r7,[r6,#0x5]                            
ram:00028f74    00e0            b           LAB_00028f78                            
                            LAB_00028f76:                 ;XREF[1,0]:   00028f6e
ram:00028f76    3771            strb        r7,[r6,#0x4]                            
                            LAB_00028f78:                 ;XREF[3,0]:   00028f64,00028f70,00028f74
ram:00028f78    b179            ldrb        param_2,[r6,#0x6]                       
ram:00028f7a    f079            ldrb        param_1,[r6,#0x7]                       
ram:00028f7c    8142            cmp         param_2,param_1                         
ram:00028f7e    6bd9            bls         LAB_00029058                            
                            LAB_00028f80:                 ;XREF[2,0]:   00029074,00029078
ram:00028f80    4846            mov         param_1,r9                              
ram:00028f82    fff7f3fa        bl          FUN_0002856c                            ;undefined FUN_0002856c(void)
                            LAB_00028f86:                 ;XREF[2,0]:   00028f36,00028f40
ram:00028f86    67e0            b           LAB_00029058                            
                            LAB_00028f88:                 ;XREF[1,0]:   00028f32
ram:00028f88    a01d            adds        param_1,r4,#0x6                         
ram:00028f8a    fff735fc        bl          FUN_000287f8                            ;undefined FUN_000287f8(undefined2 * ...
ram:00028f8e    63e0            b           LAB_00029058                            
                            LAB_00028f90:                 ;XREF[1,0]:   00028f3c
ram:00028f90    2246            mov         r2,r4                                   
ram:00028f92    4089            ldrh        param_1,[param_1,#0xa]                  
ram:00028f94    34f8061f        ldrh.w      param_2,[r4,#0x6]!                      
ram:00028f98    8142            cmp         param_2,param_1                         
ram:00028f9a    00d8            bhi         LAB_00028f9e                            
ram:00028f9c    0846            mov         param_1,param_2                         
                            LAB_00028f9e:                 ;XREF[1,0]:   00028f9a
ram:00028f9e    6080            strh        param_1,[r4,#0x2]                       
ram:00028fa0    1728            cmp         param_1,#0x17                           
ram:00028fa2    00d2            bcs         LAB_00028fa6                            
ram:00028fa4    1720            movs        param_1,#0x17                           
                            LAB_00028fa6:                 ;XREF[1,0]:   00028fa2
ram:00028fa6    6080            strh        param_1,[r4,#0x2]                       
ram:00028fa8    1069            ldr         param_1,[r2,#0x10]                      
ram:00028faa    70b1            cbz         param_1,LAB_00028fca                    
ram:00028fac    6079            ldrb        param_1,[r4,#0x5]                       
ram:00028fae    60b1            cbz         param_1,LAB_00028fca                    
                                                          ; FWD[2,0]:   0002a58c,0002a590
ram:00028fb0    d6e90001        ldrd        param_1,param_2,[r6,#0x0]=>DAT_0002a58c ;= 00000A77h
ram:00028fb4    cde90001        strd        param_1,param_2,[sp,#0x0]=>local_58     
ram:00028fb8    adf80290        strh.w      r9,[sp,#local_58+0x5a]                  
ram:00028fbc    6088            ldrh        param_1,[r4,#0x2]                       
ram:00028fbe    adf80400        strh.w      param_1,[sp,#local_54+0x58]             
ram:00028fc2    1369            ldr         r3,[r2,#0x10]                           
ram:00028fc4    6946            mov         param_2,sp                              
ram:00028fc6    1046            mov         param_1,r2                              
ram:00028fc8    9847            blx         r3                                      
                            LAB_00028fca:                 ;XREF[2,0]:   00028faa,00028fae
ram:00028fca    6571            strb        r5,[r4,#0x5]                            
ram:00028fcc    2571            strb        r5,[r4,#0x4]                            
                            LAB_00028fce:                 ;XREF[4,0]:   00028f1c,0002905c,00029066,0002906c
ram:00028fce    0eb0            add         sp,#0x38                                
ram:00028fd0    bde8f087        pop.w       {r4,r5,r6,r7,r8,r9,r10,pc}              
                            LAB_00028fd4:                 ;XREF[1,0]:   00028f42
ram:00028fd4    c088            ldrh        param_1,[param_1,#0x6]                  
ram:00028fd6    04f10608        add.w       r8,r4,#0x6                              
ram:00028fda    1728            cmp         param_1,#0x17                           
ram:00028fdc    00d2            bcs         LAB_00028fe0                            
ram:00028fde    1720            movs        param_1,#0x17                           
                            LAB_00028fe0:                 ;XREF[1,0]:   00028fdc
ram:00028fe0    b8f80010        ldrh.w      param_2,[r8,#0x0]                       
ram:00028fe4    8142            cmp         param_2,param_1                         
ram:00028fe6    00d8            bhi         LAB_00028fea                            
ram:00028fe8    0846            mov         param_1,param_2                         
                            LAB_00028fea:                 ;XREF[1,0]:   00028fe6
ram:00028fea    a8f80200        strh.w      param_1,[r8,#0x2]                       
ram:00028fee    88f80450        strb.w      r5,[r8,#0x4]                            
ram:00028ff2    2846            mov         param_1,r5                              
ram:00028ff4    b8f80010        ldrh.w      param_2,[r8,#0x0]                       
ram:00028ff8    b5df            svc         0xb5                                    
ram:00028ffa    98f80500        ldrb.w      param_1,[r8,#0x5]                       
ram:00028ffe    58bb            cbnz        param_1,LAB_00029058                    
ram:00029000    2069            ldr         param_1,[r4,#0x10]                      
ram:00029002    48b3            cbz         param_1,LAB_00029058                    
                                                          ; FWD[2,0]:   0002a594,0002a598
ram:00029004    d6e90201        ldrd        param_1,param_2,[r6,#0x8]=>DAT_0002a594 ;= 00000A77h
ram:00029008    cde90001        strd        param_1,param_2,[sp,#0x0]=>local_58     
ram:0002900c    adf80290        strh.w      r9,[sp,#local_58+0x5a]                  
ram:00029010    b8f80200        ldrh.w      param_1,[r8,#0x2]                       
ram:00029014    adf80400        strh.w      param_1,[sp,#local_54+0x58]             
ram:00029018    2046            mov         param_1,r4                              
ram:0002901a    6946            mov         param_2,sp                              
ram:0002901c    2269            ldr         r2,[r4,#0x10]                           
ram:0002901e    1ae0            b           LAB_00029056                            
ram:00029020    ffe7            b           LAB_00029022                            
                            LAB_00029022:                 ;XREF[2,0]:   00028f28,00029020
ram:00029022    011d            adds        param_2,param_1,#0x4                    
ram:00029024    2c22            movs        r2,#0x2c                                
ram:00029026    6846            mov         param_1,sp                              
ram:00029028    fdf72cfa        bl          FUN_00026484                            ;undefined FUN_00026484(undefined4 * ...
ram:0002902c    bdf80000        ldrh.w      param_1,[sp,#0x0]=>local_58             
ram:00029030    bdf80420        ldrh.w      r2,[sp,#local_54+0x58]                  
ram:00029034    04ebc001        add.w       param_2,r4,param_1, lsl #0x3            
ram:00029038    4a73            strb        r2,[param_2,#0xd]                       
ram:0002903a    2269            ldr         r2,[r4,#0x10]                           
ram:0002903c    62b1            cbz         r2,LAB_00029058                         
                                                          ; FWD[2,0]:   0002a59c,0002a5a0
ram:0002903e    d6e90423        ldrd        r2,r3,[r6,#0x10]=>DAT_0002a59c          ;= 0000DA7Ah
ram:00029042    cde90b23        strd        r2,r3,[sp,#local_2c+0x58]               
ram:00029046    adf82e00        strh.w      param_1,[sp,#local_2c+0x5a]             
ram:0002904a    487b            ldrb        param_1,[param_2,#0xd]                  
ram:0002904c    8df83000        strb.w      param_1,[sp,#local_28+0x58]             
ram:00029050    2269            ldr         r2,[r4,#0x10]                           
ram:00029052    2046            mov         param_1,r4                              
ram:00029054    0ba9            add         param_2,sp,#0x2c                        
                            LAB_00029056:                 ;XREF[1,0]:   0002901e
ram:00029056    9047            blx         r2                                      
                            LAB_00029058:                 ;XREF[6,0]:   00028f7e,00028f86,00028f8e,00028ffe
                                                          ;             00029002,0002903c
ram:00029058    a07a            ldrb        param_1,[r4,#0xa]                       
ram:0002905a    0028            cmp         param_1,#0x0                            
ram:0002905c    b7d0            beq         LAB_00028fce                            
ram:0002905e    e188            ldrh        param_2,[r4,#0x6]                       
ram:00029060    5046            mov         param_1,r10                             
ram:00029062    a5df            svc         0xa5                                    
ram:00029064    0028            cmp         param_1,#0x0                            
ram:00029066    b2d1            bne         LAB_00028fce                            
ram:00029068    a572            strb        r5,[r4,#0xa]                            
ram:0002906a    e772            strb        r7,[r4,#0xb]                            
ram:0002906c    afe7            b           LAB_00028fce                            
                            LAB_0002906e:                 ;XREF[1,0]:   00028f38
ram:0002906e    017a            ldrb        param_2,[param_1,#0x8]                  
ram:00029070    207b            ldrb        param_1,[r4,#0xc]                       
ram:00029072    8842            cmp         param_1,param_2                         
ram:00029074    84d2            bcs         LAB_00028f80                            
ram:00029076    0146            mov         param_2,param_1                         
ram:00029078    82e7            b           LAB_00028f80                            
ram:0002907a    0000            movs        r0,r0                                   
                            PTR_DAT_0002907c:             ;XREF[1,0]:   00028f20
ram:0002907c    8ca50200        addr        DAT_0002a58c                            ;= 00000A77h
                            ;************************************************************************************************
                            ;*                                           FUNCTION                                           *
                            ;************************************************************************************************
                            ;undefined4 FUN_00029080(char * param_1, undefined2 param_2)
          ;param_1       char *              r0                      
          ;param_2       undefined2          r1                      
                                                          ;XREF[1,0]:   000279a8
ram:00029080    20b1            cbz         param_1,LAB_0002908c                    
ram:00029082    0278            ldrb        r2,[param_1,#0x0]                       
ram:00029084    de2a            cmp         r2,#0xde                                
ram:00029086    03d0            beq         LAB_00029090                            
ram:00029088    0820            movs        param_1,#0x8                            
ram:0002908a    7047            bx          lr                                      
                            LAB_0002908c:                 ;XREF[1,0]:   00029080
ram:0002908c    0e20            movs        param_1,#0xe                            
ram:0002908e    7047            bx          lr                                      
                            LAB_00029090:                 ;XREF[1,0]:   00029086
ram:00029090    4180            strh        param_2,[param_1,#0x2]                  
ram:00029092    0020            movs        param_1,#0x0                            
ram:00029094    7047            bx          lr                                      
                            ;************************************************************************************************
                            ;*                                           FUNCTION                                           *
                            ;************************************************************************************************
                            ;undefined4 FUN_00029096(char * param_1, undefined4 * param_2)
          ;param_1       char *              r0                      
          ;param_2       undefined4 *        r1                      
                                                          ;XREF[1,0]:   000289a6
ram:00029096    60b1            cbz         param_1,LAB_000290b2                    
ram:00029098    59b1            cbz         param_2,LAB_000290b2                    
ram:0002909a    0278            ldrb        r2,[param_1,#0x0]                       
ram:0002909c    de2a            cmp         r2,#0xde                                
ram:0002909e    0ad0            beq         LAB_000290b6                            
ram:000290a0    0968            ldr         param_2,[param_2,#0x0]                  
ram:000290a2    4160            str         param_2,[param_1,#0x4]                  
ram:000290a4    de21            movs        param_2,#0xde                           
ram:000290a6    0170            strb        param_2,[param_1,#0x0]                  
ram:000290a8    4ff6ff71        movw        param_2,#0xffff                         
ram:000290ac    4180            strh        param_2,[param_1,#0x2]                  
ram:000290ae    0020            movs        param_1,#0x0                            
ram:000290b0    7047            bx          lr                                      
                            LAB_000290b2:                 ;XREF[2,0]:   00029096,00029098
ram:000290b2    0e20            movs        param_1,#0xe                            
ram:000290b4    7047            bx          lr                                      
                            LAB_000290b6:                 ;XREF[1,0]:   0002909e
ram:000290b6    0820            movs        param_1,#0x8                            
ram:000290b8    7047            bx          lr                                      
                            ;************************************************************************************************
                            ;*                                           FUNCTION                                           *
                            ;************************************************************************************************
                            ;ulonglong FUN_000290ba(short * param_1, char * param_2)
          ;param_1       short *             r0                      
          ;param_2       char *              r1                      
          ;local_14      undefined4         -14                      ;XREF[1,0]:   00029120
          ;local_18      undefined4         -18                      ;XREF[1,0]:   0002911e
          ;local_1c      undefined4         -1c                      ;XREF[3,0]:   00029118,00029122,0002914c
          ;local_20      undefined4         -20                      ;XREF[2,0]:   00029110,00029114
ram:000290ba    7fb5            push        {param_1,param_2,r2,r3,r4,r5,r6,lr}     
ram:000290bc    0546            mov         r5,param_1                              
ram:000290be    0029            cmp         param_2,#0x0                            
ram:000290c0    4dd0            beq         LAB_0002915e                            
ram:000290c2    002d            cmp         r5,#0x0                                 
ram:000290c4    4bd0            beq         LAB_0002915e                            
ram:000290c6    0878            ldrb        param_1,[param_2,#0x0]                  
ram:000290c8    0c46            mov         r4,param_2                              
ram:000290ca    de28            cmp         param_1,#0xde                           
ram:000290cc    47d1            bne         LAB_0002915e                            
ram:000290ce    a888            ldrh        param_1,[r5,#0x4]                       
ram:000290d0    6188            ldrh        param_2,[r4,#0x2]                       
ram:000290d2    8842            cmp         param_1,param_2                         
ram:000290d4    02d1            bne         LAB_000290dc                            
ram:000290d6    2046            mov         param_1,r4                              
ram:000290d8    01f048f9        bl          FUN_0002a36c                            ;undefined FUN_0002a36c(int param_1)
                            LAB_000290dc:                 ;XREF[1,0]:   000290d4
ram:000290dc    2888            ldrh        param_1,[r5,#0x0]                       
ram:000290de    0128            cmp         param_1,#0x1                            
ram:000290e0    25d0            beq         LAB_0002912e                            
ram:000290e2    0228            cmp         param_1,#0x2                            
ram:000290e4    3bd0            beq         LAB_0002915e                            
ram:000290e6    1128            cmp         param_1,#0x11                           
ram:000290e8    3ad0            beq         LAB_00029160                            
ram:000290ea    5128            cmp         param_1,#0x51                           
ram:000290ec    37d1            bne         LAB_0002915e                            
ram:000290ee    35f8040f        ldrh.w      param_1,[r5,#0x4]!                      
ram:000290f2    6188            ldrh        param_2,[r4,#0x2]                       
ram:000290f4    8842            cmp         param_1,param_2                         
ram:000290f6    32d1            bne         LAB_0002915e                            
ram:000290f8    a978            ldrb        param_2,[r5,#0x2]                       
ram:000290fa    a81c            adds        param_1,r5,#0x2                         
ram:000290fc    0229            cmp         param_2,#0x2                            
ram:000290fe    2ed1            bne         LAB_0002915e                            
ram:00029100    017a            ldrb        param_2,[param_1,#0x8]                  
ram:00029102    0429            cmp         param_2,#0x4                            
ram:00029104    03d0            beq         LAB_0002910e                            
ram:00029106    0629            cmp         param_2,#0x6                            
ram:00029108    01d0            beq         LAB_0002910e                            
ram:0002910a    0529            cmp         param_2,#0x5                            
ram:0002910c    27d1            bne         LAB_0002915e                            
                            LAB_0002910e:                 ;XREF[2,0]:   00029104,00029108
ram:0002910e    0021            movs        param_2,#0x0                            
ram:00029110    0091            str         param_2,[sp,#0x0]=>local_20             
ram:00029112    0222            movs        r2,#0x2                                 
ram:00029114    8df80020        strb.w      r2,[sp,#0x0]=>local_20                  
ram:00029118    0191            str         param_2,[sp,#local_1c+0x20]             
ram:0002911a    4ff4c072        mov.w       r2,#0x180                               
ram:0002911e    0291            str         param_2,[sp,#local_18+0x20]             
ram:00029120    0391            str         param_2,[sp,#local_14+0x20]             
ram:00029122    adf80420        strh.w      r2,[sp,#local_1c+0x20]                  
ram:00029126    007a            ldrb        param_1,[param_1,#0x8]                  
ram:00029128    0528            cmp         param_1,#0x5                            
ram:0002912a    0fd0            beq         LAB_0002914c                            
ram:0002912c    10e0            b           LAB_00029150                            
                            LAB_0002912e:                 ;XREF[1,0]:   000290e0
ram:0002912e    297a            ldrb        param_2,[r5,#0x8]                       
ram:00029130    2046            mov         param_1,r4                              
ram:00029132    0129            cmp         param_2,#0x1                            
ram:00029134    13d1            bne         LAB_0002915e                            
ram:00029136    a988            ldrh        param_2,[r5,#0x4]                       
ram:00029138    4288            ldrh        r2,[param_1,#0x2]                       
ram:0002913a    9142            cmp         param_2,r2                              
ram:0002913c    0fd1            bne         LAB_0002915e                            
ram:0002913e    0121            movs        param_2,#0x1                            
ram:00029140    0172            strb        param_2,[param_1,#0x8]                  
ram:00029142    04b0            add         sp,#0x10                                
ram:00029144    bde87040        pop.w       {r4,r5,r6,lr}                           
ram:00029148    01f010b9        b.w         FUN_0002a36c                            ;undefined FUN_0002a36c(int param_1)
                            LAB_0002914c:                 ;XREF[1,0]:   0002912a
ram:0002914c    adf80410        strh.w      param_2,[sp,#local_1c+0x20]             
                            LAB_00029150:                 ;XREF[1,0]:   0002912c
ram:00029150    2888            ldrh        param_1,[r5,#0x0]                       
ram:00029152    6946            mov         param_2,sp                              
ram:00029154    b0df            svc         0xb0                                    
ram:00029156    0028            cmp         param_1,#0x0                            
ram:00029158    01d0            beq         LAB_0002915e                            
ram:0002915a    6168            ldr         param_2,[r4,#0x4]                       
ram:0002915c    8847            blx         param_2                                 
                            LAB_0002915e:                 ;XREF[12,0]:  000290c0,000290c4,000290cc,000290e4
                                                          ;             000290ec,000290f6,000290fe,0002910c
                                                          ;             00029134,0002913c,00029158,00029166
ram:0002915e    7fbd            pop         {param_1,param_2,r2,r3,r4,r5,r6,pc}     
                            LAB_00029160:                 ;XREF[1,0]:   000290e8
ram:00029160    a888            ldrh        param_1,[r5,#0x4]                       
ram:00029162    6188            ldrh        param_2,[r4,#0x2]                       
ram:00029164    8842            cmp         param_1,param_2                         
ram:00029166    fad1            bne         LAB_0002915e                            
ram:00029168    4ff6ff70        movw        param_1,#0xffff                         
ram:0002916c    6080            strh        param_1,[r4,#0x2]                       
ram:0002916e    7fbd            pop         {param_1,param_2,r2,r3,r4,r5,r6,pc}     
                            ;************************************************************************************************
                            ;*                                           FUNCTION                                           *
                            ;************************************************************************************************
                            ;int FUN_00029170(int param_1)
          ;param_1       int                 r0                      
                                                          ;XREF[4,0]:   00026aa2,00026acc,00026aea,00026b08
ram:00029170    00f18040        add.w       param_1,param_1,#0x40000000             
ram:00029174    0068            ldr         param_1,[param_1,#0x0]                  
ram:00029176    0028            cmp         param_1,#0x0                            
ram:00029178    00d0            beq         LAB_0002917c                            
ram:0002917a    0120            movs        param_1,#0x1                            
                            LAB_0002917c:                 ;XREF[1,0]:   00029178
ram:0002917c    7047            bx          lr                                      
                            ;************************************************************************************************
                            ;*                                           FUNCTION                                           *
                            ;************************************************************************************************
                            ;undefined FUN_0002917e(int param_1)
          ;param_1       int                 r0                      
          ;local_8       undefined4          -8                      ;XREF[1,0]:   0002918a
                                                          ;XREF[4,0]:   00026aae,00026ad4,00026af2,00026b18
ram:0002917e    08b5            push        {r3,lr}                                 
ram:00029180    00f18040        add.w       param_1,param_1,#0x40000000             
ram:00029184    0021            movs        r1,#0x0                                 
ram:00029186    0160            str         r1,[param_1,#0x0]                       
ram:00029188    0068            ldr         param_1,[param_1,#0x0]                  
ram:0002918a    0090            str         param_1,[sp,#0x0]=>local_8              
ram:0002918c    08bd            pop         {r3,pc}                                 
ram:0002918e    0000            movs        r0,r0                                   
                            ;************************************************************************************************
                            ;*                                           FUNCTION                                           *
                            ;************************************************************************************************
                            ;undefined4 FUN_00029190(void)
                                                          ;XREF[2,0]:   0002890e,00029d52
ram:00029190    70b5            push        {r4,r5,r6,lr}                           
ram:00029192    0b4c            ldr         r4,[DAT_000291c0]                       ;= 200030B4h
ram:00029194    2078            ldrb        r0,[r4,#0x0]=>DAT_200030b4              
ram:00029196    08b1            cbz         r0,LAB_0002919c                         
ram:00029198    8525            movs        r5,#0x85                                
ram:0002919a    0fe0            b           LAB_000291bc                            
                            LAB_0002919c:                 ;XREF[1,0]:   00029196
ram:0002919c    0020            movs        r0,#0x0                                 
ram:0002919e    a060            str         r0,[r4,#0x8]=>DAT_200030bc              
ram:000291a0    6060            str         r0,[r4,#0x4]=>DAT_200030b8              
ram:000291a2    2061            str         r0,[r4,#0x10]=>DAT_200030c4             
ram:000291a4    e060            str         r0,[r4,#0xc]=>DAT_200030c0              
ram:000291a6    0748            ldr         r0=>LAB_00028390...,[PTR_LAB_00028390...;= 00028391
ram:000291a8    00f062fb        bl          FUN_00029870                            ;undefined4 FUN_00029870(undefined4 p...
ram:000291ac    0546            mov         r5,r0                                   
ram:000291ae    00f0e1fa        bl          FUN_00029774                            ;undefined FUN_00029774(void)
ram:000291b2    08b9            cbnz        r0,LAB_000291b8                         
ram:000291b4    00f046fb        bl          FUN_00029844                            ;undefined FUN_00029844(void)
                            LAB_000291b8:                 ;XREF[1,0]:   000291b2
ram:000291b8    0120            movs        r0,#0x1                                 
ram:000291ba    2070            strb        r0,[r4,#0x0]=>DAT_200030b4              
                            LAB_000291bc:                 ;XREF[1,0]:   0002919a
ram:000291bc    2846            mov         r0,r5                                   
ram:000291be    70bd            pop         {r4,r5,r6,pc}                           
                            DAT_000291c0:                 ;XREF[1,0]:   00029192
ram:000291c0    b4300020        undefined4  200030B4h                               
                            PTR_LAB_00028390+1+1_000291c4:;XREF[1,0]:   000291a6
ram:000291c4    91830200        addr        LAB_00028390+1+1                        
                            ;************************************************************************************************
                            ;*                                           FUNCTION                                           *
                            ;************************************************************************************************
                            ;undefined FUN_000291c8(void)
          ;local_10      undefined1         -10                      ;XREF[2,0]:   000291cc,000291e8
                                                          ;XREF[1,0]:   00029d34
ram:000291c8    38b5            push        {r3,r4,r5,lr}                           
ram:000291ca    0025            movs        r5,#0x0                                 
ram:000291cc    8df80050        strb.w      r5,[sp,#0x0]=>local_10                  
ram:000291d0    6846            mov         r0,sp                                   
ram:000291d2    fef71ff8        bl          FUN_00027214                            ;undefined FUN_00027214(undefined * p...
ram:000291d6    074c            ldr         r4,[DAT_000291f4]                       ;= 200030B4h
ram:000291d8    e068            ldr         r0,[r4,#0xc]=>DAT_200030c0              
ram:000291da    401e            subs        r0,r0,#0x1                              
ram:000291dc    e060            str         r0,[r4,#0xc]=>DAT_200030c0              
ram:000291de    e068            ldr         r0,[r4,#0xc]=>DAT_200030c0              
ram:000291e0    10b9            cbnz        r0,LAB_000291e8                         
ram:000291e2    00f055fb        bl          FUN_00029890                            ;undefined FUN_00029890(void)
ram:000291e6    a570            strb        r5,[r4,#0x2]=>DAT_200030b6              
                            LAB_000291e8:                 ;XREF[1,0]:   000291e0
ram:000291e8    9df80000        ldrb.w      r0,[sp,#0x0]=>local_10                  
ram:000291ec    fef736f8        bl          FUN_0002725c                            ;undefined FUN_0002725c(int param_1)
ram:000291f0    38bd            pop         {r3,r4,r5,pc}                           
ram:000291f2    0000            movs        r0,r0                                   
                            DAT_000291f4:                 ;XREF[1,0]:   000291d6
ram:000291f4    b4300020        undefined4  200030B4h                               
                            ;************************************************************************************************
                            ;*                                           FUNCTION                                           *
                            ;************************************************************************************************
                            ;undefined4 FUN_000291f8(int * param_1, uint param_2, int param_3, undefined4 param_4)
          ;param_1       int *               r0                      
          ;param_2       uint                r1                      
          ;param_3       int                 r2                      
          ;param_4       undefined4          r3                      
                                                          ;XREF[1,0]:   00028b6a
ram:000291f8    2de9f041        push        {r4,r5,r6,r7,r8,lr}                     
ram:000291fc    1f46            mov         r7,param_4                              
ram:000291fe    1646            mov         r6,param_3                              
ram:00029200    0400            movs        r4,param_1                              
ram:00029202    0d46            mov         r5,param_2                              
ram:00029204    16d0            beq         LAB_00029234                            
ram:00029206    2068            ldr         param_1,[r4,#0x0]                       
ram:00029208    b8b1            cbz         param_1,LAB_0002923a                    
ram:0002920a    c6b1            cbz         r6,LAB_0002923e                         
ram:0002920c    6068            ldr         param_1,[r4,#0x4]                       
ram:0002920e    0268            ldr         param_3,[param_1,#0x0]                  
ram:00029210    501e            subs        param_1,param_3,#0x1                    
ram:00029212    2842            tst         param_1,r5                              
ram:00029214    15d1            bne         LAB_00029242                            
ram:00029216    7243            muls        param_3,r6                              
ram:00029218    2046            mov         param_1,r4                              
ram:0002921a    fdf71fff        bl          FUN_0002705c                            ;undefined4 FUN_0002705c(int param_1,...
ram:0002921e    80b1            cbz         param_1,LAB_00029242                    
ram:00029220    2068            ldr         param_1,[r4,#0x0]                       
ram:00029222    3b46            mov         param_4,r7                              
ram:00029224    3246            mov         param_3,r6                              
ram:00029226    d0f810c0        ldr.w       r12,[param_1,#0x10]                     
ram:0002922a    2946            mov         param_2,r5                              
ram:0002922c    2046            mov         param_1,r4                              
ram:0002922e    bde8f041        pop.w       {r4,r5,r6,r7,r8,lr}                     
ram:00029232    6047            bx          r12                                     
                            LAB_00029234:                 ;XREF[1,0]:   00029204
ram:00029234    0e20            movs        param_1,#0xe                            
                            LAB_00029236:                 ;XREF[3,0]:   0002923c,00029240,00029244
ram:00029236    bde8f081        pop.w       {r4,r5,r6,r7,r8,pc}                     
                            LAB_0002923a:                 ;XREF[1,0]:   00029208
ram:0002923a    0820            movs        param_1,#0x8                            
ram:0002923c    fbe7            b           LAB_00029236                            
                            LAB_0002923e:                 ;XREF[1,0]:   0002920a
ram:0002923e    0920            movs        param_1,#0x9                            
ram:00029240    f9e7            b           LAB_00029236                            
                            LAB_00029242:                 ;XREF[2,0]:   00029214,0002921e
ram:00029242    1020            movs        param_1,#0x10                           
ram:00029244    f7e7            b           LAB_00029236                            
                            ;************************************************************************************************
                            ;*                                           FUNCTION                                           *
                            ;************************************************************************************************
                            ;undefined4 FUN_00029246(int * param_1, undefined * * param_2, undefined4 param_3)
          ;param_1       int *               r0                      
          ;param_2       undefined * *       r1                      
          ;param_3       undefined4          r2                      
                                                          ;XREF[1,0]:   00028a64
ram:00029246    20b1            cbz         param_1,LAB_00029252                    
ram:00029248    19b1            cbz         param_2,LAB_00029252                    
ram:0002924a    0160            str         param_2,[param_1,#0x0]                  
ram:0002924c    0b68            ldr         r3,[param_2,#0x0]                       
ram:0002924e    1146            mov         param_2,param_3                         
ram:00029250    1847            bx          r3                                      
                            LAB_00029252:                 ;XREF[2,0]:   00029246,00029248
ram:00029252    0e20            movs        param_1,#0xe                            
ram:00029254    7047            bx          lr                                      
                            ;************************************************************************************************
                            ;*                                           FUNCTION                                           *
                            ;************************************************************************************************
                            ;undefined4 FUN_00029256(int * param_1, uint param_2, int param_3, int param_4)
          ;param_1       int *               r0                      
          ;param_2       uint                r1                      
          ;param_3       int                 r2                      
          ;param_4       int                 r3                      
                                                          ;XREF[1,0]:   00028a78
ram:00029256    2de9f041        push        {r4,r5,r6,r7,r8,lr}                     
ram:0002925a    1d46            mov         r5,param_4                              
ram:0002925c    1646            mov         r6,param_3                              
ram:0002925e    0400            movs        r4,param_1                              
ram:00029260    0f46            mov         r7,param_2                              
ram:00029262    17d0            beq         LAB_00029294                            
ram:00029264    b6b1            cbz         r6,LAB_00029294                         
ram:00029266    2068            ldr         param_1,[r4,#0x0]                       
ram:00029268    b8b1            cbz         param_1,LAB_0002929a                    
ram:0002926a    c5b1            cbz         r5,LAB_0002929e                         
ram:0002926c    0846            mov         param_1,param_2                         
ram:0002926e    fdf7effe        bl          FUN_00027050                            ;undefined4 FUN_00027050(uint param_1)
ram:00029272    b0b1            cbz         param_1,LAB_000292a2                    
ram:00029274    2a46            mov         param_3,r5                              
ram:00029276    3946            mov         param_2,r7                              
ram:00029278    2046            mov         param_1,r4                              
ram:0002927a    fdf7effe        bl          FUN_0002705c                            ;undefined4 FUN_0002705c(int param_1,...
ram:0002927e    80b1            cbz         param_1,LAB_000292a2                    
ram:00029280    2068            ldr         param_1,[r4,#0x0]                       
ram:00029282    2b46            mov         param_4,r5                              
ram:00029284    3246            mov         param_3,r6                              
ram:00029286    d0f808c0        ldr.w       r12,[param_1,#0x8]                      
ram:0002928a    3946            mov         param_2,r7                              
ram:0002928c    2046            mov         param_1,r4                              
ram:0002928e    bde8f041        pop.w       {r4,r5,r6,r7,r8,lr}                     
ram:00029292    6047            bx          r12                                     
                            LAB_00029294:                 ;XREF[2,0]:   00029262,00029264
ram:00029294    0e20            movs        param_1,#0xe                            
                            LAB_00029296:                 ;XREF[3,0]:   0002929c,000292a0,000292a4
ram:00029296    bde8f081        pop.w       {r4,r5,r6,r7,r8,pc}                     
                            LAB_0002929a:                 ;XREF[1,0]:   00029268
ram:0002929a    0820            movs        param_1,#0x8                            
ram:0002929c    fbe7            b           LAB_00029296                            
                            LAB_0002929e:                 ;XREF[1,0]:   0002926a
ram:0002929e    0920            movs        param_1,#0x9                            
ram:000292a0    f9e7            b           LAB_00029296                            
                            LAB_000292a2:                 ;XREF[2,0]:   00029272,0002927e
ram:000292a2    1020            movs        param_1,#0x10                           
ram:000292a4    f7e7            b           LAB_00029296                            
ram:000292a6    0000            movs        r0,r0                                   
                            ;************************************************************************************************
                            ;*                                           FUNCTION                                           *
                            ;************************************************************************************************
                            ;undefined4 LAB_000292a8+1(void)
                                                          ;XREF[0,1]:   0002a720
ram:000292a8    0448            ldr         r0,[DAT_000292bc]                       ;= 20003320h
ram:000292aa    0121            movs        r1,#0x1                                 
ram:000292ac    4174            strb        r1,[r0,#0x11]=>DAT_20003331             
ram:000292ae    007a            ldrb        r0,[r0,#0x8]=>DAT_20003328              
ram:000292b0    08b1            cbz         r0,LAB_000292b6                         
ram:000292b2    0020            movs        r0,#0x0                                 
ram:000292b4    7047            bx          lr                                      
                            LAB_000292b6:                 ;XREF[1,0]:   000292b0
ram:000292b6    0120            movs        r0,#0x1                                 
ram:000292b8    7047            bx          lr                                      
ram:000292ba    0000            movs        r0,r0                                   
                            DAT_000292bc:                 ;XREF[1,0]:   000292a8
ram:000292bc    20330020        undefined4  20003320h                               
                            ;************************************************************************************************
                            ;*                                           FUNCTION                                           *
                            ;************************************************************************************************
                            ;undefined * * * FUN_000292e0(undefined * * * param_1, undefined4 param_2, undefined4 param_3, undefined * * param_4)
          ;param_1       undefined *...      r0                      
          ;param_2       undefined4          r1                      
          ;param_3       undefined4          r2                      
          ;param_4       undefined * *       r3                      
          ;local_18      undefined1         -18                      ;XREF[2,0]:   000296a4,000296b4
                                                          ;XREF[1,0]:   00029c94
ram:000292e0    70b5            push        {r4,r5,r6,lr}                           
ram:000292e2    0246            mov         param_3,param_1                         
ram:000292e4    0228            cmp         param_1,#0x2                            
ram:000292e6    01d0            beq         LAB_000292ec                            
ram:000292e8    032a            cmp         param_3,#0x3                            
ram:000292ea    45d1            bne         LAB_00029378                            
                            LAB_000292ec:                 ;XREF[1,0]:   000292e6
ram:000292ec    234c            ldr         r4,[DAT_0002937c]                       ;= 20003320h
ram:000292ee    207a            ldrb        param_1,[r4,#0x8]=>DAT_20003328         
ram:000292f0    0028            cmp         param_1,#0x0                            
ram:000292f2    41d0            beq         LAB_00029378                            
ram:000292f4    0128            cmp         param_1,#0x1                            
ram:000292f6    33d0            beq         LAB_00029360                            
ram:000292f8    0228            cmp         param_1,#0x2                            
ram:000292fa    31d1            bne         LAB_00029360                            
ram:000292fc    2048            ldr         param_1,[DAT_00029380]                  ;= 20002B4Ch
ram:000292fe    0023            movs        param_4,#0x0                            
ram:00029300    022a            cmp         param_3,#0x2                            
ram:00029302    0068            ldr         param_1,[param_1,#0x0]=>DAT_20002b4c    
ram:00029304    02d0            beq         LAB_0002930c                            
ram:00029306    032a            cmp         param_3,#0x3                            
ram:00029308    2ad1            bne         LAB_00029360                            
ram:0002930a    1be0            b           LAB_00029344                            
                            LAB_0002930c:                 ;XREF[1,0]:   00029304
ram:0002930c    e360            str         param_4,[r4,#0xc]=>DAT_2000332c         
ram:0002930e    0179            ldrb        param_2,[param_1,#0x4]                  
ram:00029310    11b1            cbz         param_2,LAB_00029318                    
ram:00029312    0129            cmp         param_2,#0x1                            
ram:00029314    24d1            bne         LAB_00029360                            
ram:00029316    0de0            b           LAB_00029334                            
                            LAB_00029318:                 ;XREF[1,0]:   00029310
ram:00029318    d0e90565        ldrd        r6,r5,[param_1,#0x14]                   
ram:0002931c    711b            subs        param_2,r6,r5                           
ram:0002931e    4ff48056        mov.w       r6,#0x1000                              
ram:00029322    b142            cmp         param_2,r6                              
ram:00029324    00d3            bcc         LAB_00029328                            
ram:00029326    3146            mov         param_2,r6                              
                            LAB_00029328:                 ;XREF[1,0]:   00029324
ram:00029328    2944            add         param_2,r5                              
ram:0002932a    8161            str         param_2,[param_1,#0x18]                 
ram:0002932c    4569            ldr         r5,[param_1,#0x14]                      
ram:0002932e    a942            cmp         param_2,r5                              
ram:00029330    0ed0            beq         LAB_00029350                            
ram:00029332    15e0            b           LAB_00029360                            
                            LAB_00029334:                 ;XREF[1,0]:   00029316
ram:00029334    0169            ldr         param_2,[param_1,#0x10]                 
ram:00029336    491c            adds        param_2,param_2,#0x1                    
ram:00029338    0161            str         param_2,[param_1,#0x10]                 
ram:0002933a    4269            ldr         param_3,[param_1,#0x14]                 
ram:0002933c    9142            cmp         param_2,param_3                         
ram:0002933e    0fd1            bne         LAB_00029360                            
ram:00029340    2372            strb        param_4,[r4,#0x8]=>DAT_20003328         
ram:00029342    13e0            b           LAB_0002936c                            
                            LAB_00029344:                 ;XREF[1,0]:   0002930a
ram:00029344    e168            ldr         param_2,[r4,#0xc]=>DAT_2000332c         
ram:00029346    491c            adds        param_2,param_2,#0x1                    
ram:00029348    e160            str         param_2,[r4,#0xc]=>DAT_2000332c         
ram:0002934a    0829            cmp         param_2,#0x8                            
ram:0002934c    08d9            bls         LAB_00029360                            
ram:0002934e    e360            str         param_4,[r4,#0xc]=>DAT_2000332c         
                            LAB_00029350:                 ;XREF[1,0]:   00029330
ram:00029350    2372            strb        param_4,[r4,#0x8]=>DAT_20003328         
ram:00029352    022a            cmp         param_3,#0x2                            
ram:00029354    0ad0            beq         LAB_0002936c                            
ram:00029356    0d21            movs        param_2,#0xd                            
                            LAB_00029358:                 ;XREF[1,0]:   0002936e
ram:00029358    fff75ef9        bl          FUN_00028618                            ;undefined FUN_00028618(int * param_1...
ram:0002935c    00f04afc        bl          FUN_00029bf4                            ;undefined4 FUN_00029bf4(void)
                            LAB_00029360:                 ;XREF[7,0]:   000292f6,000292fa,00029308,00029314
                                                          ;             00029332,0002933e,0002934c
ram:00029360    607c            ldrb        param_1,[r4,#0x11]=>DAT_20003331        
ram:00029362    28b1            cbz         param_1,LAB_00029370                    
ram:00029364    bde87040        pop.w       {r4,r5,r6,lr}                           
ram:00029368    00f00aba        b.w         LAB_00029780                            
                            LAB_0002936c:                 ;XREF[2,0]:   00029342,00029354
ram:0002936c    0021            movs        param_2,#0x0                            
ram:0002936e    f3e7            b           LAB_00029358                            
                            LAB_00029370:                 ;XREF[1,0]:   00029362
ram:00029370    bde87040        pop.w       {r4,r5,r6,lr}                           
ram:00029374    00f048bc        b.w         LAB_00029c08                            
                            LAB_00029378:                 ;XREF[2,0]:   000292ea,000292f2
ram:00029378    70bd            pop         {r4,r5,r6,pc}                           
ram:0002937a    0000            movs        r0,r0                                   
                            DAT_0002937c:                 ;XREF[1,0]:   000292ec
ram:0002937c    20330020        undefined4  20003320h                               
                            DAT_00029380:                 ;XREF[1,0]:   000292fc
ram:00029380    4c2b0020        undefined4  20002B4Ch                               
                            ;************************************************************************************************
                            ;*                                           FUNCTION                                           *
                            ;************************************************************************************************
                            ;undefined4 FUN_00029384(int * param_1, uint param_2, uint param_3, uint param_4, undefined4 param_5)
          ;param_1       int *               r0                      
          ;param_2       uint                r1                      
          ;param_3       uint                r2                      
          ;param_4       uint                r3                      
          ;param_5       undefined4           0                      ;XREF[1,0]:   0002938a
          ;local_20      undefined4         -20                      ;XREF[1,0]:   000293d4
                                                          ;XREF[1,0]:   00028b96
ram:00029384    2de9f843        push        {param_4,r4,r5,r6,r7,r8,r9,lr}          
ram:00029388    1d46            mov         r5,param_4                              
ram:0002938a    089f            ldr         r7,[sp,#param_5+0x20]                   
ram:0002938c    1646            mov         r6,param_3                              
ram:0002938e    8846            mov         r8,param_2                              
ram:00029390    0400            movs        r4,param_1                              
ram:00029392    0dd0            beq         LAB_000293b0                            
ram:00029394    66b1            cbz         r6,LAB_000293b0                         
ram:00029396    2068            ldr         param_1,[r4,#0x0]                       
ram:00029398    60b1            cbz         param_1,LAB_000293b4                    
ram:0002939a    35b1            cbz         r5,LAB_000293aa                         
ram:0002939c    6068            ldr         param_1,[r4,#0x4]                       
ram:0002939e    4068            ldr         param_1,[param_1,#0x4]                  
ram:000293a0    b5fbf0f1        udiv        param_2,r5,param_1                      
ram:000293a4    00fb1150        mls         param_1,param_1,param_2,r5              
ram:000293a8    30b1            cbz         param_1,LAB_000293b8                    
                            LAB_000293aa:                 ;XREF[1,0]:   0002939a
ram:000293aa    0920            movs        param_1,#0x9                            
                            LAB_000293ac:                 ;XREF[4,0]:   000293b2,000293b6,000293e4,000293e8
ram:000293ac    bde8f883        pop.w       {param_4,r4,r5,r6,r7,r8,r9,pc}          
                            LAB_000293b0:                 ;XREF[2,0]:   00029392,00029394
ram:000293b0    0e20            movs        param_1,#0xe                            
ram:000293b2    fbe7            b           LAB_000293ac                            
                            LAB_000293b4:                 ;XREF[1,0]:   00029398
ram:000293b4    0820            movs        param_1,#0x8                            
ram:000293b6    f9e7            b           LAB_000293ac                            
                            LAB_000293b8:                 ;XREF[1,0]:   000293a8
ram:000293b8    4046            mov         param_1,r8                              
ram:000293ba    fdf749fe        bl          FUN_00027050                            ;undefined4 FUN_00027050(uint param_1)
ram:000293be    90b1            cbz         param_1,LAB_000293e6                    
ram:000293c0    3046            mov         param_1,r6                              
ram:000293c2    fdf745fe        bl          FUN_00027050                            ;undefined4 FUN_00027050(uint param_1)
ram:000293c6    70b1            cbz         param_1,LAB_000293e6                    
ram:000293c8    2a46            mov         param_3,r5                              
ram:000293ca    4146            mov         param_2,r8                              
ram:000293cc    2046            mov         param_1,r4                              
ram:000293ce    fdf745fe        bl          FUN_0002705c                            ;undefined4 FUN_0002705c(int param_1,...
ram:000293d2    40b1            cbz         param_1,LAB_000293e6                    
ram:000293d4    0097            str         r7,[sp,#0x0]=>local_20                  
ram:000293d6    2068            ldr         param_1,[r4,#0x0]                       
ram:000293d8    2b46            mov         param_4,r5                              
ram:000293da    3246            mov         param_3,r6                              
ram:000293dc    c768            ldr         r7,[param_1,#0xc]                       
ram:000293de    4146            mov         param_2,r8                              
ram:000293e0    2046            mov         param_1,r4                              
ram:000293e2    b847            blx         r7                                      
ram:000293e4    e2e7            b           LAB_000293ac                            
                            LAB_000293e6:                 ;XREF[3,0]:   000293be,000293c6,000293d2
ram:000293e6    1020            movs        param_1,#0x10                           
ram:000293e8    e0e7            b           LAB_000293ac                            
                            ;************************************************************************************************
                            ;*                                           FUNCTION                                           *
                            ;************************************************************************************************
                            ;undefined FUN_000293ea(int param_1, uint param_2, int param_3, int param_4, int param_5, int param_6)
          ;param_1       int                 r0                      
          ;param_2       uint                r1                      
          ;param_3       int                 r2                      
          ;param_4       int                 r3                      
          ;param_5       int                  0                      ;XREF[1,0]:   000293f0
          ;param_6       int                  4                      
                                                          ;XREF[2,0]:   0002941a,0002942e
ram:000293ea    70b5            push        {r4,r5,r6,lr}                           
ram:000293ec    41ea4201        orr.w       param_2,param_2,param_3, lsl #0x1       
ram:000293f0    dde90456        ldrd        r5,r6,[sp,#param_5+0x10]                
ram:000293f4    4ff0a044        mov.w       r4,#0x50000000                          
ram:000293f8    41ea8301        orr.w       param_2,param_2,param_4, lsl #0x2       
ram:000293fc    41ea0521        orr.w       param_2,param_2,r5, lsl #0x8            
ram:00029400    04eb8000        add.w       param_1,r4,param_1, lsl #0x2            
ram:00029404    41ea0641        orr.w       param_2,param_2,r6, lsl #0x10           
ram:00029408    c0f80017        str.w       param_2,[param_1,#0x700]                
ram:0002940c    70bd            pop         {r4,r5,r6,pc}                           
                            ;************************************************************************************************
                            ;*                                           FUNCTION                                           *
                            ;************************************************************************************************
                            ;undefined FUN_0002940e(int param_1, int param_2)
          ;param_1       int                 r0                      
          ;param_2       int                 r1                      
          ;local_c       undefined4          -c                      ;XREF[1,0]:   00029418
          ;local_10      undefined4         -10                      ;XREF[1,0]:   00029414
                                                          ;XREF[8,0]:   0002667a,00026682,0002668a,00026692
                                                          ;             0002669a,000266a2,000266aa,0002674e
ram:0002940e    1cb5            push        {r2,r3,r4,lr}                           
ram:00029410    0022            movs        r2,#0x0                                 
ram:00029412    0b46            mov         r3,param_2                              
ram:00029414    0092            str         r2,[sp,#0x0]=>local_10                  
ram:00029416    1146            mov         param_2,r2                              
ram:00029418    0192            str         r2,[sp,#local_c+0x10]                   
ram:0002941a    fff7e6ff        bl          FUN_000293ea                            ;undefined FUN_000293ea(int param_1, ...
ram:0002941e    1cbd            pop         {r2,r3,r4,pc}                           
                            ;************************************************************************************************
                            ;*                                           FUNCTION                                           *
                            ;************************************************************************************************
                            ;undefined FUN_00029420(int param_1)
          ;param_1       int                 r0                      
          ;local_c       undefined4          -c                      ;XREF[1,0]:   00029428
          ;local_10      undefined4         -10                      ;XREF[1,0]:   00029424
                                                          ;XREF[14,0]:  000266b0,000266b6,000266bc,000266c2
                                                          ;             000266c8,000266ce,000266d4,000266da
                                                          ;             000266e0,000266e6,000266ec,000266f2
                                                          ;             00026740,00026746
ram:00029420    1cb5            push        {r2,r3,r4,lr}                           
ram:00029422    0021            movs        r1,#0x0                                 
ram:00029424    0091            str         r1,[sp,#0x0]=>local_10                  
ram:00029426    0a46            mov         r2,r1                                   
ram:00029428    0191            str         r1,[sp,#local_c+0x10]                   
ram:0002942a    0323            movs        r3,#0x3                                 
ram:0002942c    0121            movs        r1,#0x1                                 
ram:0002942e    fff7dcff        bl          FUN_000293ea                            ;undefined FUN_000293ea(int param_1, ...
ram:00029432    1cbd            pop         {r2,r3,r4,pc}                           
                            ;************************************************************************************************
                            ;*                                           FUNCTION                                           *
                            ;************************************************************************************************
                            ;undefined FUN_00029434(int param_1, int param_2)
          ;param_1       int                 r0                      
          ;param_2       int                 r1                      
                                                          ;XREF[1,0]:   00026628
ram:00029434    4ff0a042        mov.w       r2,#0x50000000                          
ram:00029438    02eb8000        add.w       param_1,r2,param_1, lsl #0x2            
ram:0002943c    d0f80027        ldr.w       r2,[param_1,#0x700]                     
ram:00029440    22f44032        bic         r2,r2,#0x30000                          
ram:00029444    c0f80027        str.w       r2,[param_1,#0x700]                     
ram:00029448    d0f80027        ldr.w       r2,[param_1,#0x700]                     
ram:0002944c    42ea0141        orr.w       param_2,r2,param_2, lsl #0x10           
ram:00029450    c0f80017        str.w       param_2,[param_1,#0x700]                
ram:00029454    7047            bx          lr                                      
                            ;************************************************************************************************
                            ;*                                           FUNCTION                                           *
                            ;************************************************************************************************
                            ;undefined FUN_00029456(uint param_1)
          ;param_1       uint                r0                      
                                                          ;XREF[5,0]:   0002a006,0002a038,0002a048,0002a050
                                                          ;             0002a056
ram:00029456    4ff0a042        mov.w       r2,#0x50000000                          
ram:0002945a    0121            movs        r1,#0x1                                 
ram:0002945c    8140            lsls        r1,param_1                              
ram:0002945e    c2f80c15        str.w       r1,[r2,#offset DAT_5000050c &0xffff]    
ram:00029462    7047            bx          lr                                      
                            ;************************************************************************************************
                            ;*                                           FUNCTION                                           *
                            ;************************************************************************************************
                            ;undefined FUN_00029464(uint param_1)
          ;param_1       uint                r0                      
                                                          ;XREF[12,0]:  00026792,000267c6,000267f0,0002681a
                                                          ;             00026854,0002687e,000268a8,000268d6
                                                          ;             00026904,00026932,0002695c,00026986
ram:00029464    4ff0a042        mov.w       r2,#0x50000000                          
ram:00029468    0121            movs        r1,#0x1                                 
ram:0002946a    8140            lsls        r1,param_1                              
ram:0002946c    c2f80c15        str.w       r1,[r2,#offset DAT_5000050c &0xffff]    
ram:00029470    7047            bx          lr                                      
                            ;************************************************************************************************
                            ;*                                           FUNCTION                                           *
                            ;************************************************************************************************
                            ;uint FUN_00029472(uint param_1)
          ;param_1       uint                r0                      
                                                          ;XREF[8,0]:   000269e4,00029dde,00029df4,00029dfc
                                                          ;             00029e04,00029e0c,00029e14,00029e1c
ram:00029472    4ff0a041        mov.w       r1,#0x50000000                          
ram:00029476    d1f81015        ldr.w       r1,[r1,#offset DAT_50000510 &0xffff]    
ram:0002947a    c140            lsrs        r1,param_1                              
ram:0002947c    01f00100        and         param_1,r1,#0x1                         
ram:00029480    7047            bx          lr                                      
                            ;************************************************************************************************
                            ;*                                           FUNCTION                                           *
                            ;************************************************************************************************
                            ;undefined FUN_00029482(uint param_1)
          ;param_1       uint                r0                      
                                                          ;XREF[27,0]:  000266f8,000266fe,00026704,0002670a
                                                          ;             00026710,00026716,0002671c,00026722
                                                          ;             00026728,0002672e,00026734,0002673a
                                                          ;             0002675e,00026768,000267ba,000267e4
                                                          ;             0002680e,00026840,0002684e,00026872
                                                          ;             0002689c,000268ca,000268f8,00026926
                                                          ;             00026950,0002697a,000269a4
ram:00029482    4ff0a042        mov.w       r2,#0x50000000                          
ram:00029486    0121            movs        r1,#0x1                                 
ram:00029488    8140            lsls        r1,param_1                              
ram:0002948a    c2f80815        str.w       r1,[r2,#offset DAT_50000508 &0xffff]    
ram:0002948e    7047            bx          lr                                      
                            LAB_00029490:                 ;XREF[2,0]:   00027e6a,00027e7a
ram:00029490    0122            movs        r2,#0x1                                 
ram:00029492    4ff0a043        mov.w       r3,#0x50000000                          
ram:00029496    8240            lsls        r2,param_1                              
ram:00029498    11b1            cbz         r1,LAB_000294a0                         
ram:0002949a    c3f80825        str.w       r2,[r3,#offset DAT_50000508 &0xffff]    
ram:0002949e    7047            bx          lr                                      
                            LAB_000294a0:                 ;XREF[1,0]:   00029498
ram:000294a0    c3f80c25        str.w       r2,[r3,#offset DAT_5000050c &0xffff]    
ram:000294a4    7047            bx          lr                                      
ram:000294a6    0000            movs        r0,r0                                   
                            ;************************************************************************************************
                            ;*                                           FUNCTION                                           *
                            ;************************************************************************************************
                            ;undefined FUN_000294a8(uint param_1, int param_2, undefined4 * param_3)
          ;param_1       uint                r0                      
          ;param_2       int                 r1                      
          ;param_3       undefined4 *        r2                      
          ;local_c       undefined4          -c                      ;XREF[1,0]:   000294b2
                                                          ;XREF[2,0]:   00026568,00026648
ram:000294a8    18b5            push        {r3,r4,lr}                              
ram:000294aa    084b            ldr         r3,[PTR_DAT_000294cc]                   ;= 0002a5b4
ram:000294ac    6c46            mov         r4,sp                                   
ram:000294ae    0144            add         param_2,param_1                         
ram:000294b0    1b68            ldr         r3,[r3,#0x0]=>DAT_0002a5b4              ;= 50000000h
ram:000294b2    0093            str         r3,[sp,#0x0]=>local_c                   
ram:000294b4    06e0            b           LAB_000294c4                            
ram:000294b6    00bf            nop                                                  
                            LAB_000294b8:                 ;XREF[1,0]:   000294c6
ram:000294b8    54f82030        ldr.w       r3,r4,param_1,0x2                       
ram:000294bc    d3f81035        ldr.w       r3,[r3,#0x510]                          
ram:000294c0    401c            adds        param_1,param_1,#0x1                    
ram:000294c2    08c2            stmia       param_3!,{r3}                           
                            LAB_000294c4:                 ;XREF[1,0]:   000294b4
ram:000294c4    8142            cmp         param_2,param_1                         
ram:000294c6    f7d8            bhi         LAB_000294b8                            
ram:000294c8    18bd            pop         {r3,r4,pc}                              
ram:000294ca    0000            movs        r0,r0                                   
                            PTR_DAT_000294cc:             ;XREF[1,0]:   000294aa
ram:000294cc    b4a50200        addr        DAT_0002a5b4                            ;= 50000000h
                            ;************************************************************************************************
                            ;*                                           FUNCTION                                           *
                            ;************************************************************************************************
                            ;undefined FUN_000294d0(int param_1)
          ;param_1       int                 r0                      
          ;local_8       undefined4          -8                      ;XREF[1,0]:   000294dc
                                                          ;XREF[2,0]:   0002653a,0002655a
ram:000294d0    0349            ldr         r1,[DAT_000294e0]                       ;= 40006000h
ram:000294d2    08b5            push        {r3,lr}                                 
ram:000294d4    0844            add         param_1,r1                              
ram:000294d6    0021            movs        r1,#0x0                                 
ram:000294d8    0160            str         r1,[param_1,#0x0]                       
ram:000294da    0068            ldr         param_1,[param_1,#0x0]                  
ram:000294dc    0090            str         param_1,[sp,#0x0]=>local_8              
ram:000294de    08bd            pop         {r3,pc}                                 
                            DAT_000294e0:                 ;XREF[1,0]:   000294d0
ram:000294e0    00600040        undefined4  40006000h                               
                            ;************************************************************************************************
                            ;*                                           FUNCTION                                           *
                            ;************************************************************************************************
                            ;int FUN_000294e4(int param_1)
          ;param_1       int                 r0                      
                                                          ;XREF[2,0]:   0002652a,00026552
ram:000294e4    0249            ldr         r1,[DAT_000294f0]                       ;= 40006000h
ram:000294e6    4058            ldr         param_1,[param_1,r1]                    
ram:000294e8    0128            cmp         param_1,#0x1                            
ram:000294ea    00d0            beq         LAB_000294ee                            
ram:000294ec    0020            movs        param_1,#0x0                            
                            LAB_000294ee:                 ;XREF[1,0]:   000294ea
ram:000294ee    7047            bx          lr                                      
                            DAT_000294f0:                 ;XREF[1,0]:   000294e4
ram:000294f0    00600040        undefined4  40006000h                               
                            ;************************************************************************************************
                            ;*                                           FUNCTION                                           *
                            ;************************************************************************************************
                            ;undefined4 FUN_000294f4(void)
                                                          ;XREF[1,0]:   00028920
ram:000294f4    0649            ldr         r1,[DAT_00029510]                       ;= 20002B44h
ram:000294f6    10b5            push        {r4,lr}                                 
ram:000294f8    0020            movs        r0,#0x0                                 
ram:000294fa    4870            strb        r0,[r1,#0x1]=>DAT_20002b45              
ram:000294fc    091d            adds        r1,r1,#0x4                              
ram:000294fe    0860            str         r0,[r1,#0x0]=>DAT_20002b48              
ram:00029500    bff35f8f        dmb         0x1f                                    
ram:00029504    0349            ldr         r1=>PTR_FUN_0002...,[PTR_PTR_FUN_0002...;= 0002a5c8
                                                                                    ;= 0002a5e0
ram:00029506    0448            ldr         r0,[DAT_00029518]                       ;= 20003278h
ram:00029508    00f066f9        bl          FUN_000297d8                            ;undefined FUN_000297d8(int * * param...
ram:0002950c    0020            movs        r0,#0x0                                 
ram:0002950e    10bd            pop         {r4,pc}                                 
                            DAT_00029510:                 ;XREF[1,0]:   000294f4
ram:00029510    442b0020        undefined4  20002B44h                               
                            PTR_PTR_FUN_00029514:         ;XREF[1,0]:   00029504
ram:00029514    e0a50200        addr        PTR_FUN_0002a5e0                        ;= 0002a5c8
                            DAT_00029518:                 ;XREF[1,0]:   00029506
ram:00029518    78320020        undefined4  20003278h                               
                            ;************************************************************************************************
                            ;*                                           FUNCTION                                           *
                            ;************************************************************************************************
                            ;undefined FUN_0002951c(void)
          ;local_8       undefined1          -8                      ;XREF[2,0]:   00029520,00029542
                                                          ;XREF[1,0]:   00028c26
ram:0002951c    08b5            push        {r3,lr}                                 
ram:0002951e    0020            movs        r0,#0x0                                 
ram:00029520    8df80000        strb.w      r0,[sp,#0x0]=>local_8                   
ram:00029524    6846            mov         r0,sp                                   
ram:00029526    fdf775fe        bl          FUN_00027214                            ;undefined FUN_00027214(undefined * p...
ram:0002952a    f1ee100a        vmrs        r0,fpscr                                
ram:0002952e    20f09f00        bic         r0,r0,#0x9f                             
ram:00029532    e1ee100a        vmsr        fpscr,r0                                
ram:00029536    bff35f8f        dmb         0x1f                                    
ram:0002953a    0849            ldr         r1,[DAT_0002955c]                       ;= E000E004h
ram:0002953c    4020            movs        r0,#0x40                                
ram:0002953e    c1f88002        str.w       r0,[r1,#0x280]=>DAT_e000e284            
ram:00029542    9df80000        ldrb.w      r0,[sp,#0x0]=>local_8                   
ram:00029546    fdf789fe        bl          FUN_0002725c                            ;undefined FUN_0002725c(int param_1)
ram:0002954a    00f013f9        bl          FUN_00029774                            ;undefined FUN_00029774(void)
ram:0002954e    08b1            cbz         r0,LAB_00029554                         
ram:00029550    41df            svc         0x41                                    
ram:00029552    08bd            pop         {r3,pc}                                 
                            LAB_00029554:                 ;XREF[1,0]:   0002954e
ram:00029554    20bf            wfe                                                  
ram:00029556    40bf            sev                                                  
ram:00029558    20bf            wfe                                                  
ram:0002955a    08bd            pop         {r3,pc}                                 
                            DAT_0002955c:                 ;XREF[1,0]:   0002953a
ram:0002955c    04e000e0        undefined4  E000E004h                               
                            ;************************************************************************************************
                            ;*                                           FUNCTION                                           *
                            ;************************************************************************************************
                            ;undefined thunk_FUN_000270dc(void)
                                                          ;XREF[0,2]:   000289a0,00028c38
ram:00029560    fdf7bcbd        b.w         FUN_000270dc                            ;undefined FUN_000270dc(void)
                            ;************************************************************************************************
                            ;*                                           FUNCTION                                           *
                            ;************************************************************************************************
                            ;undefined4 FUN_00029564(undefined4 * param_1)
          ;param_1       undefined4 *        r0                      
                                                          ;XREF[1,0]:   00029580
ram:00029564    20b1            cbz         param_1,LAB_00029570                    
ram:00029566    0349            ldr         r1,[PTR_DAT_00029574]                   ;= 0002a694
ram:00029568    0968            ldr         r1,[r1,#0x0]=>DAT_0002a694              ;= 20002A98h
ram:0002956a    0160            str         r1,[param_1,#0x0]                       
ram:0002956c    0020            movs        param_1,#0x0                            
ram:0002956e    7047            bx          lr                                      
                            LAB_00029570:                 ;XREF[1,0]:   00029564
ram:00029570    0e20            movs        param_1,#0xe                            
ram:00029572    7047            bx          lr                                      
                            PTR_DAT_00029574:             ;XREF[1,0]:   00029566
ram:00029574    94a60200        addr        DAT_0002a694                            ;= 20002A98h
                            ;************************************************************************************************
                            ;*                                           FUNCTION                                           *
                            ;************************************************************************************************
                            ;undefined8 FUN_00029578(undefined4 param_1, undefined4 * param_2)
          ;param_1       undefined4          r0                      
          ;param_2       undefined4 *        r1                      
          ;local_18      undefined4         -18                      ;XREF[6,0]:   0002959a,000295b4,000295d0,000295de,000295f4
                                                                     ;             00029602
          ;local_1c      undefined4         -1c                      ;XREF[7,0]:   0002958c,00029596,000295b2,000295ce,000295dc
                                                                     ;             000295f2,00029600
          ;local_20      undefined4         -20                      ;XREF[10,5]:  0002958a,00029592,000295a8,000295c2,000295c4
                                                                     ;             000295da,000295e0,000295f0,000295fe,00029604
                                                                     ;             0002959c,000295aa,000295ae,000295b6,000295ca
                                                          ;XREF[1,0]:   0002893c
ram:00029578    feb5            push        {param_2,r2,r3,r4,r5,r6,r7,lr}          
ram:0002957a    0646            mov         r6,param_1                              
ram:0002957c    0d46            mov         r5,param_2                              
ram:0002957e    0846            mov         param_1,param_2                         
ram:00029580    fff7f0ff        bl          FUN_00029564                            ;undefined4 FUN_00029564(undefined4 *...
ram:00029584    0028            cmp         param_1,#0x0                            
ram:00029586    44d1            bne         LAB_00029612                            
ram:00029588    0024            movs        r4,#0x0                                 
ram:0002958a    0094            str         r4,[sp,#0x0]=>local_20                  
ram:0002958c    0194            str         r4,[sp,#local_1c+0x20]                  
ram:0002958e    0127            movs        r7,#0x1                                 
ram:00029590    0620            movs        param_1,#0x6                            
ram:00029592    8df80060        strb.w      r6,[sp,#0x0]=>local_20                  
ram:00029596    adf80400        strh.w      param_1,[sp,#local_1c+0x20]             
ram:0002959a    0294            str         r4,[sp,#local_18+0x20]                  
ram:0002959c    8df80270        strb.w      r7,[sp,#local_20+0x22]                  
ram:000295a0    6946            mov         param_2,sp                              
ram:000295a2    2020            movs        param_1,#0x20                           
ram:000295a4    2a68            ldr         r2,[r5,#0x0]                            
ram:000295a6    69df            svc         0x69                                    
ram:000295a8    0094            str         r4,[sp,#0x0]=>local_20                  
ram:000295aa    8df80170        strb.w      r7,[sp,#local_20+0x21]                  
ram:000295ae    8df80240        strb.w      r4,[sp,#local_20+0x22]                  
ram:000295b2    0194            str         r4,[sp,#local_1c+0x20]                  
ram:000295b4    0294            str         r4,[sp,#local_18+0x20]                  
ram:000295b6    8df80340        strb.w      r4,[sp,#local_20+0x23]                  
ram:000295ba    6946            mov         param_2,sp                              
ram:000295bc    4020            movs        param_1,#0x40                           
ram:000295be    2a68            ldr         r2,[r5,#0x0]                            
ram:000295c0    69df            svc         0x69                                    
ram:000295c2    0094            str         r4,[sp,#0x0]=>local_20                  
ram:000295c4    8df80060        strb.w      r6,[sp,#0x0]=>local_20                  
ram:000295c8    f720            movs        param_1,#0xf7                           
ram:000295ca    adf80200        strh.w      param_1,[sp,#local_20+0x22]             
ram:000295ce    0194            str         r4,[sp,#local_1c+0x20]                  
ram:000295d0    0294            str         r4,[sp,#local_18+0x20]                  
ram:000295d2    6946            mov         param_2,sp                              
ram:000295d4    2320            movs        param_1,#0x23                           
ram:000295d6    2a68            ldr         r2,[r5,#0x0]                            
ram:000295d8    69df            svc         0x69                                    
ram:000295da    0094            str         r4,[sp,#0x0]=>local_20                  
ram:000295dc    0194            str         r4,[sp,#local_1c+0x20]                  
ram:000295de    0294            str         r4,[sp,#local_18+0x20]                  
ram:000295e0    8df80070        strb.w      r7,[sp,#0x0]=>local_20                  
ram:000295e4    6946            mov         param_2,sp                              
ram:000295e6    0120            movs        param_1,#0x1                            
ram:000295e8    2a68            ldr         r2,[r5,#0x0]                            
ram:000295ea    69df            svc         0x69                                    
ram:000295ec    4ff4b060        mov.w       param_1,#0x580                          
ram:000295f0    0090            str         param_1,[sp,#0x0]=>local_20             
ram:000295f2    0194            str         r4,[sp,#local_1c+0x20]                  
ram:000295f4    0294            str         r4,[sp,#local_18+0x20]                  
ram:000295f6    6946            mov         param_2,sp                              
ram:000295f8    a120            movs        param_1,#0xa1                           
ram:000295fa    2a68            ldr         r2,[r5,#0x0]                            
ram:000295fc    69df            svc         0x69                                    
ram:000295fe    0094            str         r4,[sp,#0x0]=>local_20                  
ram:00029600    0194            str         r4,[sp,#local_1c+0x20]                  
ram:00029602    0294            str         r4,[sp,#local_18+0x20]                  
ram:00029604    8df80040        strb.w      r4,[sp,#0x0]=>local_20                  
ram:00029608    6946            mov         param_2,sp                              
ram:0002960a    a020            movs        param_1,#0xa0                           
ram:0002960c    2a68            ldr         r2,[r5,#0x0]                            
ram:0002960e    69df            svc         0x69                                    
ram:00029610    0020            movs        param_1,#0x0                            
                            LAB_00029612:                 ;XREF[1,0]:   00029586
ram:00029612    febd            pop         {param_2,r2,r3,r4,r5,r6,r7,pc}          
                            ;************************************************************************************************
                            ;*                                           FUNCTION                                           *
                            ;************************************************************************************************
                            ;undefined FUN_00029614(int param_1)
          ;param_1       int                 r0                      
                                                          ;XREF[1,0]:   00028948
ram:00029614    60df            svc         0x60                                    
ram:00029616    0028            cmp         param_1,#0x0                            
ram:00029618    02d1            bne         LAB_00029620                            
ram:0002961a    024a            ldr         r2,[DAT_00029624]                       ;= 20002B57h
ram:0002961c    0121            movs        r1,#0x1                                 
ram:0002961e    1170            strb        r1,[r2,#0x0]=>DAT_20002b57              
                            LAB_00029620:                 ;XREF[1,0]:   00029618
ram:00029620    7047            bx          lr                                      
ram:00029622    0000            movs        r0,r0                                   
                            DAT_00029624:                 ;XREF[1,0]:   0002961a
ram:00029624    572b0020        undefined4  20002B57h                               
                            ;************************************************************************************************
                            ;*                                           FUNCTION                                           *
                            ;************************************************************************************************
                            ;undefined FUN_00029628(void)
          ;local_10      undefined2         -10                      ;XREF[1,0]:   0002963c
          ;local_14      undefined4         -14                      ;XREF[1,0]:   00029672
                                                          ;XREF[0,1]:   0002a740
ram:00029628    30b5            push        {r4,r5,lr}                              
ram:0002962a    1548            ldr         r0,[DAT_00029680]                       ;= 20002B57h
ram:0002962c    adf5017d        sub.w       sp,sp,#0x204                            
ram:00029630    0078            ldrb        r0,[r0,#0x0]=>DAT_20002b57              
ram:00029632    0028            cmp         r0,#0x0                                 
ram:00029634    21d0            beq         LAB_0002967a                            
ram:00029636    4ff4fa75        mov.w       r5,#0x1f4                               
ram:0002963a    00bf            nop                                                  
                            LAB_0002963c:                 ;XREF[1,0]:   00029676
ram:0002963c    adf80052        strh.w      r5,[sp,#local_10+0x210]                 
ram:00029640    80a9            add         r1,sp,#0x200                            
ram:00029642    6846            mov         r0,sp                                   
ram:00029644    61df            svc         0x61                                    
ram:00029646    38b1            cbz         r0,LAB_00029658                         
ram:00029648    0528            cmp         r0,#0x5                                 
ram:0002964a    16d0            beq         LAB_0002967a                            
ram:0002964c    0df5017d        add.w       sp,sp,#0x204                            
ram:00029650    bde83040        pop.w       {r4,r5,lr}                              
ram:00029654    fdf742bd        b.w         FUN_000270dc                            ;undefined FUN_000270dc(void)
                            LAB_00029658:                 ;XREF[1,0]:   00029646
ram:00029658    6c46            mov         r4,sp                                   
ram:0002965a    0a49            ldr         r1=>PTR_PTR_DAT_...,[PTR_PTR_00029684]  ;= 0002a674
                                                                                    ;= 0002a698
ram:0002965c    7da8            add         r0,sp,#0x1f4                            
ram:0002965e    00f0bbf8        bl          FUN_000297d8                            ;undefined FUN_000297d8(int * * param...
ram:00029662    06e0            b           LAB_00029672                            
                            LAB_00029664:                 ;XREF[1,0]:   00029678
ram:00029664    d0e90021        ldrd        r2,r1,[r0,#0x0]                         
ram:00029668    2046            mov         r0,r4                                   
ram:0002966a    9047            blx         r2                                      
ram:0002966c    7da8            add         r0,sp,#0x1f4                            
ram:0002966e    00f0caf8        bl          FUN_00029806                            ;undefined FUN_00029806(int * param_1)
                            LAB_00029672:                 ;XREF[1,0]:   00029662
ram:00029672    7f98            ldr         r0,[sp,#local_14+0x210]                 
ram:00029674    0028            cmp         r0,#0x0                                 
ram:00029676    e1d0            beq         LAB_0002963c                            
ram:00029678    f4e7            b           LAB_00029664                            
                            LAB_0002967a:                 ;XREF[2,0]:   00029634,0002964a
ram:0002967a    0df5017d        add.w       sp,sp,#0x204                            
ram:0002967e    30bd            pop         {r4,r5,pc}                              
                            DAT_00029680:                 ;XREF[1,0]:   0002962a
ram:00029680    572b0020        undefined4  20002B57h                               
                            PTR_PTR_00029684:             ;XREF[1,0]:   0002965a
ram:00029684    98a60200        addr        PTR_PTR_DAT_0002a698                    ;= 0002a674
                            LAB_00029688:                 ;XREF[1,0]:   0002978a
ram:00029688    f8b5            push        {param_4,r4,r5,r6,r7,lr}                
ram:0002968a    134c            ldr         r4,[DAT_000296d8]                       ;= 20002B54h
ram:0002968c    2078            ldrb        param_1,[r4,#0x0]=>DAT_20002b54         
ram:0002968e    c0b1            cbz         param_1,LAB_000296c2                    
ram:00029690    0120            movs        param_1,#0x1                            
ram:00029692    a070            strb        param_1,[r4,#0x2]=>DAT_20002b56         
ram:00029694    00f06afb        bl          FUN_00029d6c                            ;longlong FUN_00029d6c(undefined4 par...
ram:00029698    1128            cmp         param_1,#0x11                           
ram:0002969a    14d0            beq         LAB_000296c6                            
ram:0002969c    0220            movs        param_1,#0x2                            
ram:0002969e    00f07dfb        bl          FUN_00029d9c                            ;undefined FUN_00029d9c(undefined4 pa...
ram:000296a2    0025            movs        r5,#0x0                                 
ram:000296a4    8df80050        strb.w      r5,[sp,#0x0]=>local_18                  
ram:000296a8    6846            mov         param_1,sp                              
ram:000296aa    fdf7b3fd        bl          FUN_00027214                            ;undefined FUN_00027214(undefined * p...
ram:000296ae    11df            svc         0x11                                    
ram:000296b0    0646            mov         r6,param_1                              
ram:000296b2    2570            strb        r5,[r4,#0x0]=>DAT_20002b54              
ram:000296b4    9df80000        ldrb.w      param_1,[sp,#0x0]=>local_18             
ram:000296b8    fdf7d0fd        bl          FUN_0002725c                            ;undefined FUN_0002725c(int param_1)
ram:000296bc    2eb1            cbz         r6,LAB_000296ca                         
ram:000296be    3046            mov         param_1,r6                              
ram:000296c0    f8bd            pop         {param_4,r4,r5,r6,r7,pc}                
                            LAB_000296c2:                 ;XREF[1,0]:   0002968e
ram:000296c2    0820            movs        param_1,#0x8                            
ram:000296c4    f8bd            pop         {param_4,r4,r5,r6,r7,pc}                
                            LAB_000296c6:                 ;XREF[2,0]:   0002969a,000296d6
ram:000296c6    0020            movs        param_1,#0x0                            
ram:000296c8    f8bd            pop         {param_4,r4,r5,r6,r7,pc}                
                            LAB_000296ca:                 ;XREF[1,0]:   000296bc
ram:000296ca    a570            strb        r5,[r4,#0x2]=>DAT_20002b56              
ram:000296cc    00f038fc        bl          FUN_00029f40                            ;undefined FUN_00029f40(void)
ram:000296d0    0320            movs        param_1,#0x3                            
ram:000296d2    00f063fb        bl          FUN_00029d9c                            ;undefined FUN_00029d9c(undefined4 pa...
ram:000296d6    f6e7            b           LAB_000296c6                            
                            DAT_000296d8:                 ;XREF[1,0]:   0002968a
ram:000296d8    542b0020        undefined4  20002B54h                               
                            ;************************************************************************************************
                            ;*                                           FUNCTION                                           *
                            ;************************************************************************************************
                            ;undefined * * * FUN_000296dc(undefined4 param_1, int * param_2, uint param_3, undefined * * param_4)
          ;param_1       undefined4          r0                      
          ;param_2       int *               r1                      
          ;param_3       uint                r2                      
          ;param_4       undefined * *       r3                      
          ;local_14      undefined4         -14                      ;XREF[1,0]:   00029702
          ;local_18      undefined1         -18                      ;XREF[2,0]:   00029704,0002971c
                                                          ;XREF[2,0]:   0002892a,00029792
ram:000296dc    7cb5            push        {param_3,param_4,r4,r5,r6,lr}           
ram:000296de    194c            ldr         r4,[DAT_00029744]                       ;= 20002B54h
ram:000296e0    2078            ldrb        param_1,[r4,#0x0]=>DAT_20002b54         
ram:000296e2    08b1            cbz         param_1,LAB_000296e8                    
ram:000296e4    0820            movs        param_1,#0x8                            
ram:000296e6    7cbd            pop         {param_3,param_4,r4,r5,r6,pc}           
                            LAB_000296e8:                 ;XREF[1,0]:   000296e2
ram:000296e8    0120            movs        param_1,#0x1                            
ram:000296ea    a070            strb        param_1,[r4,#0x2]=>DAT_20002b56         
ram:000296ec    0020            movs        param_1,#0x0                            
ram:000296ee    00f03dfb        bl          FUN_00029d6c                            ;longlong FUN_00029d6c(undefined4 par...
ram:000296f2    1128            cmp         param_1,#0x11                           
ram:000296f4    19d0            beq         LAB_0002972a                            
ram:000296f6    0020            movs        param_1,#0x0                            
ram:000296f8    00f050fb        bl          FUN_00029d9c                            ;undefined FUN_00029d9c(undefined4 pa...
ram:000296fc    1248            ldr         param_1,[PTR_DAT_00029748]              ;= 0002a62c
ram:000296fe    0026            movs        r6,#0x0                                 
ram:00029700    0068            ldr         param_1,[param_1,#0x0]=>DAT_0002a62c    ;= 07000001h
ram:00029702    0190            str         param_1,[sp,#local_14+0x18]             
ram:00029704    8df80060        strb.w      r6,[sp,#0x0]=>local_18                  
ram:00029708    6846            mov         param_1,sp                              
ram:0002970a    fdf783fd        bl          FUN_00027214                            ;undefined FUN_00027214(undefined * p...
ram:0002970e    0f49            ldr         param_2,[DAT_0002974c]                  ;= 000270ADh
ram:00029710    01a8            add         param_1,sp,#0x4                         
ram:00029712    10df            svc         0x10                                    
ram:00029714    0500            movs        r5,param_1                              
ram:00029716    0ad0            beq         LAB_0002972e                            
ram:00029718    0020            movs        param_1,#0x0                            
                            LAB_0002971a:                 ;XREF[1,0]:   00029730
ram:0002971a    2070            strb        param_1,[r4,#0x0]=>DAT_20002b54         
ram:0002971c    9df80000        ldrb.w      param_1,[sp,#0x0]=>local_18             
ram:00029720    fdf79cfd        bl          FUN_0002725c                            ;undefined FUN_0002725c(int param_1)
ram:00029724    2db1            cbz         r5,LAB_00029732                         
ram:00029726    2846            mov         param_1,r5                              
ram:00029728    7cbd            pop         {param_3,param_4,r4,r5,r6,pc}           
                            LAB_0002972a:                 ;XREF[2,0]:   000296f4,00029740
ram:0002972a    0020            movs        param_1,#0x0                            
ram:0002972c    7cbd            pop         {param_3,param_4,r4,r5,r6,pc}           
                            LAB_0002972e:                 ;XREF[1,0]:   00029716
ram:0002972e    0120            movs        param_1,#0x1                            
ram:00029730    f3e7            b           LAB_0002971a                            
                            LAB_00029732:                 ;XREF[1,0]:   00029724
ram:00029732    a670            strb        r6,[r4,#0x2]=>DAT_20002b56              
ram:00029734    6670            strb        r6,[r4,#0x1]=>DAT_20002b55              
ram:00029736    00f01ffc        bl          FUN_00029f78                            ;undefined FUN_00029f78(void)
ram:0002973a    0120            movs        param_1,#0x1                            
ram:0002973c    00f02efb        bl          FUN_00029d9c                            ;undefined FUN_00029d9c(undefined4 pa...
ram:00029740    f3e7            b           LAB_0002972a                            
ram:00029742    0000            movs        r0,r0                                   
                            DAT_00029744:                 ;XREF[1,0]:   000296de
ram:00029744    542b0020        undefined4  20002B54h                               
                            PTR_DAT_00029748:             ;XREF[1,0]:   000296fc
ram:00029748    2ca60200        addr        DAT_0002a62c                            ;= 07000001h
                            DAT_0002974c:                 ;XREF[1,0]:   0002970e
ram:0002974c    ad700200        undefined4  000270ADh                               ;?  ->  000270ad
                            ;************************************************************************************************
                            ;*                                           FUNCTION                                           *
                            ;************************************************************************************************
                            ;undefined FUN_00029750(undefined4 param_1, int * param_2, undefined4 param_3, undefined * * param_4)
          ;param_1       undefined4          r0                      
          ;param_2       int *               r1                      
          ;param_3       undefined4          r2                      
          ;param_4       undefined * *       r3                      
          ;local_8       undefined4          -8                      ;XREF[1,0]:   00029768
                                                          ;XREF[1,0]:   00026b64
ram:00029750    0eb5            push        {param_2,param_3,param_4,lr}            
ram:00029752    0749            ldr         param_2=>PTR_PTR...,[PTR_PTR_00029770]  ;= 0002a664
                                                                                    ;= 0002a648
ram:00029754    6846            mov         param_1,sp                              
ram:00029756    00f03ff8        bl          FUN_000297d8                            ;undefined FUN_000297d8(int * * param...
ram:0002975a    05e0            b           LAB_00029768                            
                            LAB_0002975c:                 ;XREF[1,0]:   0002976c
ram:0002975c    d0e90010        ldrd        param_2,param_1,[param_1,#0x0]          
ram:00029760    8847            blx         param_2                                 
ram:00029762    6846            mov         param_1,sp                              
ram:00029764    00f04ff8        bl          FUN_00029806                            ;undefined FUN_00029806(int * param_1)
                            LAB_00029768:                 ;XREF[1,0]:   0002975a
ram:00029768    0298            ldr         param_1,[sp,#local_8+0x10]              
ram:0002976a    0028            cmp         param_1,#0x0                            
ram:0002976c    f6d1            bne         LAB_0002975c                            
ram:0002976e    0ebd            pop         {param_2,param_3,param_4,pc}            
                            PTR_PTR_00029770:             ;XREF[1,0]:   00029752
ram:00029770    48a60200        addr        PTR_PTR_0002a648                        ;= 0002a664
                            ;************************************************************************************************
                            ;*                                           FUNCTION                                           *
                            ;************************************************************************************************
                            ;undefined FUN_00029774(void)
                                                          ;XREF[3,0]:   000286f2,000291ae,0002954a
ram:00029774    0148            ldr         r0,[DAT_0002977c]                       ;= 20002B54h
ram:00029776    0078            ldrb        r0,[r0,#0x0]=>DAT_20002b54              
ram:00029778    7047            bx          lr                                      
ram:0002977a    0000            movs        r0,r0                                   
                            DAT_0002977c:                 ;XREF[1,0]:   00029774
ram:0002977c    542b0020        undefined4  20002B54h                               
                            LAB_00029780:                 ;XREF[1,0]:   00029368
ram:00029780    0548            ldr         param_1,[DAT_00029798]                  ;= 20002B54h
ram:00029782    8178            ldrb        param_2,[param_1,#0x2]=>DAT_20002b56    
ram:00029784    19b1            cbz         param_2,LAB_0002978e                    
ram:00029786    0078            ldrb        param_1,[param_1,#0x0]=>DAT_20002b54    
ram:00029788    18b1            cbz         param_1,LAB_00029792                    
ram:0002978a    fff77dbf        b.w         LAB_00029688                            
                            LAB_0002978e:                 ;XREF[1,0]:   00029784
ram:0002978e    0820            movs        param_1,#0x8                            
ram:00029790    7047            bx          lr                                      
                            LAB_00029792:                 ;XREF[1,0]:   00029788
ram:00029792    fff7a3bf        b.w         FUN_000296dc                            ;undefined * * * FUN_000296dc(undefin...
                            DAT_00029798:                 ;XREF[1,0]:   00029780
ram:00029798    542b0020        undefined4  20002B54h                               
                            ;************************************************************************************************
                            ;*                                           FUNCTION                                           *
                            ;************************************************************************************************
                            ;undefined FUN_000297d8(int * * param_1, int * param_2)
          ;param_1       int * *             r0                      
          ;param_2       int *               r1                      
                                                          ;XREF[5,0]:   00029508,0002965e,00029756,00029d74
                                                          ;             00029da4
ram:000297d8    0160            str         param_2,[param_1,#0x0]                  
ram:000297da    0968            ldr         param_2,[param_2,#0x0]                  
ram:000297dc    4160            str         param_2,[param_1,#0x4]                  
ram:000297de    aff30080        nop.w                                                
                            LAB_000297e2:                 ;XREF[1,0]:   00029820
ram:000297e2    10b5            push        {r4,lr}                                 
ram:000297e4    d0e90021        ldrd        r2,param_2,[param_1,#0x0]               
                            LAB_000297e8:                 ;XREF[1,0]:   00029804
ram:000297e8    5368            ldr         r3,[r2,#0x4]                            
ram:000297ea    9942            cmp         param_2,r3                              
ram:000297ec    01d1            bne         LAB_000297f2                            
ram:000297ee    0021            movs        param_2,#0x0                            
ram:000297f0    04e0            b           LAB_000297fc                            
                            LAB_000297f2:                 ;XREF[1,0]:   000297ec
ram:000297f2    d1e90034        ldrd        r3,r4,[param_2,#0x0]                    
ram:000297f6    a342            cmp         r3,r4                                   
ram:000297f8    02d0            beq         LAB_00029800                            
ram:000297fa    1946            mov         param_2,r3                              
                            LAB_000297fc:                 ;XREF[1,0]:   000297f0
ram:000297fc    8160            str         param_2,[param_1,#0x8]                  
ram:000297fe    10bd            pop         {r4,pc}                                 
                            LAB_00029800:                 ;XREF[1,0]:   000297f8
ram:00029800    0831            adds        param_2,#0x8                            
ram:00029802    4160            str         param_2,[param_1,#0x4]                  
ram:00029804    f0e7            b           LAB_000297e8                            
                            ;************************************************************************************************
                            ;*                                           FUNCTION                                           *
                            ;************************************************************************************************
                            ;undefined FUN_00029806(int * param_1)
          ;param_1       int *               r0                      
                                                          ;XREF[4,0]:   0002966e,00029764,00029d88,00029db6
ram:00029806    8168            ldr         r1,[param_1,#0x8]                       
ram:00029808    0029            cmp         r1,#0x0                                 
ram:0002980a    0bd0            beq         LAB_00029824                            
ram:0002980c    0268            ldr         r2,[param_1,#0x0]                       
ram:0002980e    9268            ldr         r2,[r2,#0x8]                            
ram:00029810    0a44            add         r2,r1                                   
ram:00029812    8260            str         r2,[param_1,#0x8]                       
ram:00029814    4168            ldr         r1,[param_1,#0x4]                       
ram:00029816    4b68            ldr         r3,[r1,#0x4]                            
ram:00029818    9a42            cmp         r2,r3                                   
ram:0002981a    03d1            bne         LAB_00029824                            
ram:0002981c    0831            adds        r1,#0x8                                 
ram:0002981e    4160            str         r1,[param_1,#0x4]                       
ram:00029820    fff7dfbf        b.w         LAB_000297e2                            
                            LAB_00029824:                 ;XREF[2,0]:   0002980a,0002981a
ram:00029824    7047            bx          lr                                      
                            ;************************************************************************************************
                            ;*                                           FUNCTION                                           *
                            ;************************************************************************************************
                            ;undefined FUN_00029826(int param_1, int param_2)
          ;param_1       int                 r0                      
          ;param_2       int                 r1                      
          ;local_8       undefined4          -8                      ;XREF[1,0]:   0002982e
                                                          ;XREF[3,0]:   0002875a,000298f8,00029992
ram:00029826    08b5            push        {r3,lr}                                 
ram:00029828    0022            movs        r2,#0x0                                 
ram:0002982a    4250            str         r2,[param_1,param_2]                    
ram:0002982c    4058            ldr         param_1,[param_1,param_2]               
ram:0002982e    0090            str         param_1,[sp,#0x0]=>local_8              
ram:00029830    08bd            pop         {r3,pc}                                 
ram:00029832    0000            movs        r0,r0                                   
                            ;************************************************************************************************
                            ;*                                           FUNCTION                                           *
                            ;************************************************************************************************
                            ;int FUN_00029834(void)
                                                          ;XREF[2,0]:   00028b10,00028b16
ram:00029834    0248            ldr         r0,[DAT_00029840]                       ;= 40010400h
ram:00029836    0068            ldr         r0,[r0,#0x0]=>DAT_40010400              
ram:00029838    0028            cmp         r0,#0x0                                 
ram:0002983a    00d0            beq         LAB_0002983e                            
ram:0002983c    0120            movs        r0,#0x1                                 
                            LAB_0002983e:                 ;XREF[1,0]:   0002983a
ram:0002983e    7047            bx          lr                                      
                            DAT_00029840:                 ;XREF[1,0]:   00029834
ram:00029840    00040140        undefined4  40010400h                               
                            ;************************************************************************************************
                            ;*                                           FUNCTION                                           *
                            ;************************************************************************************************
                            ;undefined FUN_00029844(void)
                                                          ;XREF[2,0]:   000291b4,00029d2c
ram:00029844    0848            ldr         r0,[DAT_00029868]                       ;= E000E100h
ram:00029846    0068            ldr         r0,[r0,#0x0]=>DAT_e000e100              
ram:00029848    0121            movs        r1,#0x1                                 
ram:0002984a    10f0010f        tst         r0,#0x1                                 
ram:0002984e    06d1            bne         LAB_0002985e                            
ram:00029850    4ff0e020        mov.w       r0,#0xe000e000                          
ram:00029854    c022            movs        r2,#0xc0                                
ram:00029856    80f80024        strb.w      r2,[r0,#0x400]=>DAT_e000e400            
ram:0002985a    c0f80011        str.w       r1,[r0,#0x100]=>DAT_e000e100            
                            LAB_0002985e:                 ;XREF[1,0]:   0002984e
ram:0002985e    0349            ldr         r1,[DAT_0002986c]                       ;= 40000518h
ram:00029860    0020            movs        r0,#0x0                                 
ram:00029862    0860            str         r0,[r1,#0x0]=>DAT_40000518              
ram:00029864    7047            bx          lr                                      
ram:00029866    0000            movs        r0,r0                                   
                            DAT_00029868:                 ;XREF[1,0]:   00029844
ram:00029868    00e100e0        undefined4  E000E100h                               
                            DAT_0002986c:                 ;XREF[1,0]:   0002985e
ram:0002986c    18050040        undefined4  40000518h                               
                            ;************************************************************************************************
                            ;*                                           FUNCTION                                           *
                            ;************************************************************************************************
                            ;undefined4 FUN_00029870(undefined4 param_1)
          ;param_1       undefined4          r0                      
                                                          ;XREF[1,0]:   000291a8
ram:00029870    0649            ldr         r1,[DAT_0002988c]                       ;= 20002B20h
ram:00029872    0246            mov         r2,param_1                              
ram:00029874    0020            movs        param_1,#0x0                            
ram:00029876    0b79            ldrb        r3,[r1,#0x4]=>DAT_20002b24              
ram:00029878    0bb1            cbz         r3,LAB_0002987e                         
ram:0002987a    8520            movs        param_1,#0x85                           
ram:0002987c    7047            bx          lr                                      
                            LAB_0002987e:                 ;XREF[1,0]:   00029878
ram:0002987e    0023            movs        r3,#0x0                                 
ram:00029880    8b71            strb        r3,[r1,#0x6]=>DAT_20002b26              
ram:00029882    0a60            str         r2,[r1,#0x0]=>DAT_20002b20              
ram:00029884    0122            movs        r2,#0x1                                 
ram:00029886    0a71            strb        r2,[r1,#0x4]=>DAT_20002b24              
ram:00029888    4b71            strb        r3,[r1,#0x5]=>DAT_20002b25              
ram:0002988a    7047            bx          lr                                      
                            DAT_0002988c:                 ;XREF[1,0]:   00029870
ram:0002988c    202b0020        undefined4  20002B20h                               
                            ;************************************************************************************************
                            ;*                                           FUNCTION                                           *
                            ;************************************************************************************************
                            ;undefined FUN_00029890(void)
                                                          ;XREF[1,0]:   000291e2
ram:00029890    0449            ldr         r1,[DAT_000298a4]                       ;= 4000000Ch
ram:00029892    0120            movs        r0,#0x1                                 
ram:00029894    0860            str         r0,[r1,#0x0]=>DAT_4000000c              
ram:00029896    0448            ldr         r0=>DAT_40000418,[DAT_000298a8]         ;= 40000418h
                            LAB_00029898:                 ;XREF[1,0]:   000298a0
ram:00029898    0168            ldr         r1,[r0,#0x0]=>DAT_40000418              
ram:0002989a    c1f30041        ubfx        r1,r1,#0x10,#0x1                        
ram:0002989e    0029            cmp         r1,#0x0                                 
ram:000298a0    fad1            bne         LAB_00029898                            
ram:000298a2    7047            bx          lr                                      
                            DAT_000298a4:                 ;XREF[1,0]:   00029890
ram:000298a4    0c000040        undefined4  4000000Ch                               
                            DAT_000298a8:                 ;XREF[1,0]:   00029896
ram:000298a8    18040040        undefined4  40000418h                               
                            ;************************************************************************************************
                            ;*                                           FUNCTION                                           *
                            ;************************************************************************************************
                            ;undefined FUN_000298ac(int param_1)
          ;param_1       int                 r0                      
                                                          ;XREF[2,0]:   00028bbe,00028bf8
ram:000298ac    0028            cmp         param_1,#0x0                            
ram:000298ae    02d0            beq         LAB_000298b6                            
ram:000298b0    0149            ldr         r1,[DAT_000298b8]                       ;= 0002A521h
ram:000298b2    8001            lsls        param_1,param_1,#0x6                    
ram:000298b4    0847            bx          r1=>LAB_0002a520                        
                            LAB_000298b6:                 ;XREF[1,0]:   000298ae
ram:000298b6    7047            bx          lr                                      
                            DAT_000298b8:                 ;XREF[1,0]:   000298b0
ram:000298b8    21a50200        undefined4  0002A521h                               ;?  ->  0002a521
                            ;************************************************************************************************
                            ;*                                           FUNCTION                                           *
                            ;************************************************************************************************
                            ;undefined FUN_000298bc(int param_1)
          ;param_1       int                 r0                      
                                                          ;XREF[12,0]:  00026798,000267d2,000267fc,00026820
                                                          ;             0002685a,00026884,000268ae,000268dc
                                                          ;             0002690a,00026938,00026962,0002698c
ram:000298bc    0028            cmp         param_1,#0x0                            
ram:000298be    02d0            beq         LAB_000298c6                            
ram:000298c0    0149            ldr         r1,[DAT_000298c8]                       ;= 0002A551h
ram:000298c2    8001            lsls        param_1,param_1,#0x6                    
ram:000298c4    0847            bx          r1=>LAB_0002a550                        
                            LAB_000298c6:                 ;XREF[1,0]:   000298be
ram:000298c6    7047            bx          lr                                      
                            DAT_000298c8:                 ;XREF[1,0]:   000298c0
ram:000298c8    51a50200        undefined4  0002A551h                               ;?  ->  0002a551
                            ;************************************************************************************************
                            ;*                                           FUNCTION                                           *
                            ;************************************************************************************************
                            ;undefined FUN_000298cc(int param_1)
          ;param_1       int                 r0                      
                                                          ;XREF[5,0]:   000283f6,0002842e,00029d00,00029d0c
                                                          ;             0002a19e
ram:000298cc    0028            cmp         param_1,#0x0                            
ram:000298ce    02d0            beq         LAB_000298d6                            
ram:000298d0    0149            ldr         r1,[DAT_000298d8]                       ;= 0002A5C1h
ram:000298d2    8001            lsls        param_1,param_1,#0x6                    
ram:000298d4    0847            bx          r1=>LAB_0002a5c0                        
                            LAB_000298d6:                 ;XREF[1,0]:   000298ce
ram:000298d6    7047            bx          lr                                      
                            DAT_000298d8:                 ;XREF[1,0]:   000298d0
ram:000298d8    c1a50200        undefined4  0002A5C1h                               ;?  ->  0002a5c1
                            ;************************************************************************************************
                            ;*                                           FUNCTION                                           *
                            ;************************************************************************************************
                            ;undefined FUN_000298dc(int * param_1, uint param_2, undefined4 param_3, int param_4)
          ;param_1       int *               r0                      
          ;param_2       uint                r1                      
          ;param_3       undefined4          r2                      
          ;param_4       int                 r3                      
                                                          ;XREF[1,0]:   0002995a
ram:000298dc    2de9f041        push        {r4,r5,r6,r7,r8,lr}                     
ram:000298e0    0646            mov         r6,param_1                              
ram:000298e2    0d46            mov         r5,param_2                              
ram:000298e4    4ff48034        mov.w       r4,#0x10000                             
ram:000298e8    0068            ldr         param_1,[param_1,#0x0]                  
ram:000298ea    1746            mov         r7,param_3                              
ram:000298ec    ac40            lsls        r4,r5                                   
ram:000298ee    4bb1            cbz         param_4,LAB_00029904                    
ram:000298f0    4ff4a071        mov.w       param_2,#0x140                          
ram:000298f4    01eb8501        add.w       param_2,param_2,r5, lsl #0x2            
ram:000298f8    fff795ff        bl          FUN_00029826                            ;undefined FUN_00029826(int param_1, ...
ram:000298fc    3068            ldr         param_1,[r6,#0x0]                       
ram:000298fe    c0f80443        str.w       r4,[param_1,#0x304]                     
ram:00029902    01e0            b           LAB_00029908                            
                            LAB_00029904:                 ;XREF[1,0]:   000298ee
ram:00029904    c0f80843        str.w       r4,[param_1,#0x308]                     
                            LAB_00029908:                 ;XREF[1,0]:   00029902
ram:00029908    3068            ldr         param_1,[r6,#0x0]                       
ram:0002990a    00eb8500        add.w       param_1,param_1,r5, lsl #0x2            
ram:0002990e    c0f84075        str.w       r7,[param_1,#0x540]                     
ram:00029912    bde8f081        pop.w       {r4,r5,r6,r7,r8,pc}                     
                            ;************************************************************************************************
                            ;*                                           FUNCTION                                           *
                            ;************************************************************************************************
                            ;undefined FUN_00029918(undefined4 * param_1)
          ;param_1       undefined4 *        r0                      
                                                          ;XREF[2,0]:   00026f9a,00026ff2
ram:00029918    0168            ldr         r1,[param_1,#0x0]                       
ram:0002991a    0122            movs        r2,#0x1                                 
ram:0002991c    0a60            str         r2,[r1,#0x0]                            
ram:0002991e    0079            ldrb        param_1,[param_1,#0x4]                  
ram:00029920    034a            ldr         r2,[DAT_00029930]                       ;= 20003124h
ram:00029922    00eb4000        add.w       param_1,param_1,param_1, lsl #0x1       
ram:00029926    02eb8000        add.w       param_1,r2,param_1, lsl #0x2            
ram:0002992a    0221            movs        r1,#0x2                                 
ram:0002992c    0172            strb        r1,[param_1,#0x8]                       
ram:0002992e    7047            bx          lr                                      
                            DAT_00029930:                 ;XREF[1,0]:   00029920
ram:00029930    24310020        undefined4  20003124h                               
                            ;************************************************************************************************
                            ;*                                           FUNCTION                                           *
                            ;************************************************************************************************
                            ;undefined FUN_00029934(int * param_1, uint param_2, undefined4 param_3, uint param_4, int param_5)
          ;param_1       int *               r0                      
          ;param_2       uint                r1                      
          ;param_3       undefined4          r2                      
          ;param_4       uint                r3                      
          ;param_5       int                  0                      ;XREF[1,0]:   00029938
                                                          ;XREF[2,0]:   00026f94,00026fea
ram:00029934    f0b4            push        {r4,r5,r6,r7}                           
ram:00029936    0468            ldr         r4,[param_1,#0x0]                       
ram:00029938    049e            ldr         r6,[sp,#param_5+0x10]                   
ram:0002993a    40f20115        movw        r5,#0x101                               
ram:0002993e    d4f80072        ldr.w       r7,[r4,#0x200]                          
ram:00029942    8d40            lsls        r5,param_2                              
ram:00029944    af43            bics        r7,r5                                   
ram:00029946    c4f80072        str.w       r7,[r4,#0x200]                          
ram:0002994a    0468            ldr         r4,[param_1,#0x0]                       
ram:0002994c    d4f80052        ldr.w       r5,[r4,#0x200]                          
ram:00029950    1d43            orrs        r5,param_4                              
ram:00029952    c4f80052        str.w       r5,[r4,#0x200]                          
ram:00029956    3346            mov         param_4,r6                              
ram:00029958    f0bc            pop         {r4,r5,r6,r7}                           
ram:0002995a    fff7bfbf        b.w         FUN_000298dc                            ;undefined FUN_000298dc(int * param_1...
                            ;************************************************************************************************
                            ;*                                           FUNCTION                                           *
                            ;************************************************************************************************
                            ;undefined4 FUN_00029960(int * param_1, byte * param_2, undefined4 param_3)
          ;param_1       int *               r0                      
          ;param_2       byte *              r1                      
          ;param_3       undefined4          r2                      
                                                          ;XREF[2,0]:   00026f6a,00026fbc
ram:00029960    2de9f041        push        {r4,r5,r6,r7,r8,lr}                     
ram:00029964    0446            mov         r4,param_1                              
ram:00029966    0e46            mov         r6,param_2                              
ram:00029968    0079            ldrb        param_1,[param_1,#0x4]                  
ram:0002996a    2b49            ldr         param_2,[DAT_00029a18]                  ;= 20003124h
ram:0002996c    00eb4000        add.w       param_1,param_1,param_1, lsl #0x1       
ram:00029970    01eb8007        add.w       r7,param_2,param_1, lsl #0x2            
ram:00029974    387a            ldrb        param_1,[r7,#0x8]                       
ram:00029976    10b1            cbz         param_1,LAB_0002997e                    
ram:00029978    0820            movs        param_1,#0x8                            
                            LAB_0002997a:                 ;XREF[1,0]:   00029a16
ram:0002997a    bde8f081        pop.w       {r4,r5,r6,r7,r8,pc}                     
                            LAB_0002997e:                 ;XREF[1,0]:   00029976
ram:0002997e    3a60            str         param_3,[r7,#0x0]                       
ram:00029980    7068            ldr         param_1,[r6,#0x4]                       
ram:00029982    0025            movs        r5,#0x0                                 
ram:00029984    4ff4a078        mov.w       r8,#0x140                               
ram:00029988    7860            str         param_1,[r7,#0x4]                       
ram:0002998a    06e0            b           LAB_0002999a                            
                            LAB_0002998c:                 ;XREF[1,0]:   0002999e
ram:0002998c    08eb8501        add.w       param_2,r8,r5, lsl #0x2                 
ram:00029990    2068            ldr         param_1,[r4,#0x0]                       
ram:00029992    fff748ff        bl          FUN_00029826                            ;undefined FUN_00029826(int param_1, ...
ram:00029996    6d1c            adds        r5,r5,#0x1                              
ram:00029998    edb2            uxtb        r5,r5                                   
                            LAB_0002999a:                 ;XREF[1,0]:   0002998a
ram:0002999a    6079            ldrb        param_1,[r4,#0x5]                       
ram:0002999c    a842            cmp         param_1,r5                              
ram:0002999e    f5d8            bhi         LAB_0002998c                            
ram:000299a0    2068            ldr         param_1,[r4,#0x0]                       
ram:000299a2    f178            ldrb        param_2,[r6,#0x3]                       
ram:000299a4    40f30730        sbfx        param_1,param_1,#0xc,#0x8               
ram:000299a8    0028            cmp         param_1,#0x0                            
ram:000299aa    4fea4111        lsl.w       param_2,param_2,#0x5                    
ram:000299ae    06da            bge         LAB_000299be                            
ram:000299b0    00f00f00        and         param_1,param_1,#0xf                    
ram:000299b4    00f1e020        add.w       param_1,param_1,#0xe000e000             
ram:000299b8    80f8141d        strb.w      param_2,[param_1,#0xd14]                
ram:000299bc    03e0            b           LAB_000299c6                            
                            LAB_000299be:                 ;XREF[1,0]:   000299ae
ram:000299be    00f1e020        add.w       param_1,param_1,#0xe000e000             
ram:000299c2    80f80014        strb.w      param_2,[param_1,#0x400]=>DAT_e000e400  
                            LAB_000299c6:                 ;XREF[1,0]:   000299bc
ram:000299c6    2068            ldr         param_1,[r4,#0x0]                       
ram:000299c8    0121            movs        param_2,#0x1                            
ram:000299ca    40f30730        sbfx        param_1,param_1,#0xc,#0x8               
ram:000299ce    00f01f02        and         param_3,param_1,#0x1f                   
ram:000299d2    01fa02f2        lsl.w       param_3,param_2,param_3                 
ram:000299d6    4009            lsrs        param_1,param_1,#0x5                    
ram:000299d8    8000            lsls        param_1,param_1,#0x2                    
ram:000299da    00f1e020        add.w       param_1,param_1,#0xe000e000             
ram:000299de    c0f80021        str.w       param_3,[param_1,#0x100]=>DAT_e000e100  
ram:000299e2    2068            ldr         param_1,[r4,#0x0]                       
ram:000299e4    7278            ldrb        param_3,[r6,#0x1]                       
ram:000299e6    d0f80435        ldr.w       r3,[param_1,#0x504]                     
ram:000299ea    62f30103        bfi         r3,param_3,#0x0,#0x2                    
ram:000299ee    c0f80435        str.w       r3,[param_1,#0x504]                     
ram:000299f2    2068            ldr         param_1,[r4,#0x0]                       
ram:000299f4    b278            ldrb        param_3,[r6,#0x2]                       
ram:000299f6    d0f80835        ldr.w       r3,[param_1,#0x508]                     
ram:000299fa    62f30103        bfi         r3,param_3,#0x0,#0x2                    
ram:000299fe    c0f80835        str.w       r3,[param_1,#0x508]                     
ram:00029a02    2068            ldr         param_1,[r4,#0x0]                       
ram:00029a04    3278            ldrb        param_3,[r6,#0x0]                       
ram:00029a06    d0f81035        ldr.w       r3,[param_1,#0x510]                     
ram:00029a0a    62f30303        bfi         r3,param_3,#0x0,#0x4                    
ram:00029a0e    c0f81035        str.w       r3,[param_1,#0x510]                     
ram:00029a12    3972            strb        param_2,[r7,#0x8]                       
ram:00029a14    0020            movs        param_1,#0x0                            
ram:00029a16    b0e7            b           LAB_0002997a                            
                            DAT_00029a18:                 ;XREF[1,0]:   0002996a
ram:00029a18    24310020        undefined4  20003124h                               
                            ;************************************************************************************************
                            ;*                                           FUNCTION                                           *
                            ;************************************************************************************************
                            ;undefined LAB_00029a1c+1(char * param_1)
          ;param_1       char *              r0                      
                                                          ;XREF[0,2]:   000289b2,00028c40
ram:00029a1c    30b4            push        {r4,r5}                                 
ram:00029a1e    0178            ldrb        r1,[param_1,#0x0]                       
ram:00029a20    0029            cmp         r1,#0x0                                 
ram:00029a22    17d1            bne         LAB_00029a54                            
ram:00029a24    1b49            ldr         r1,[DAT_00029a94]                       ;= 20002AA0h
ram:00029a26    848a            ldrh        r4,[param_1,#0x14]                      
ram:00029a28    0a46            mov         r2,r1                                   
ram:00029a2a    0c81            strh        r4,[r1,#0x8]=>DAT_20002aa8              
ram:00029a2c    9388            ldrh        r3,[r2,#0x4]=>DAT_20002aa4              
ram:00029a2e    0125            movs        r5,#0x1                                 
ram:00029a30    194a            ldr         r2,[DAT_00029a98]                       ;= 20002AE8h
ram:00029a32    012c            cmp         r4,#0x1                                 
ram:00029a34    10d0            beq         LAB_00029a58                            
ram:00029a36    022c            cmp         r4,#0x2                                 
ram:00029a38    15d0            beq         LAB_00029a66                            
ram:00029a3a    0c2c            cmp         r4,#0xc                                 
ram:00029a3c    0ad1            bne         LAB_00029a54                            
ram:00029a3e    0069            ldr         param_1,[param_1,#0x10]                 
ram:00029a40    837a            ldrb        r3,[param_1,#0xa]                       
ram:00029a42    342b            cmp         r3,#0x34                                
ram:00029a44    19d0            beq         LAB_00029a7a                            
ram:00029a46    262b            cmp         r3,#0x26                                
ram:00029a48    04d1            bne         LAB_00029a54                            
ram:00029a4a    c07a            ldrb        param_1,[param_1,#0xb]                  
ram:00029a4c    2728            cmp         param_1,#0x27                           
ram:00029a4e    01d1            bne         LAB_00029a54                            
ram:00029a50    4d70            strb        r5,[r1,#0x1]=>DAT_20002aa1              
                            LAB_00029a52:                 ;XREF[1,0]:   00029a92
ram:00029a52    0d70            strb        r5,[r1,#0x0]=>DAT_20002aa0              
                            LAB_00029a54:                 ;XREF[5,0]:   00029a22,00029a3c,00029a48,00029a4e
                                                          ;             00029a7e
ram:00029a54    30bc            pop         {r4,r5}                                 
ram:00029a56    7047            bx          lr                                      
                            LAB_00029a58:                 ;XREF[1,0]:   00029a34
ram:00029a58    1068            ldr         param_1,[r2,#0x0]=>DAT_20002ae8         
ram:00029a5a    1121            movs        r1,#0x11                                
ram:00029a5c    b0fbf1f0        udiv        param_1,param_1,r1                      
ram:00029a60    0e49            ldr         r1,[DAT_00029a9c]                       ;= 20002EDCh
ram:00029a62    0870            strb        param_1,[r1,#0x0]=>DAT_20002edc         
ram:00029a64    01e0            b           LAB_00029a6a                            
                            LAB_00029a66:                 ;XREF[1,0]:   00029a38
ram:00029a66    1020            movs        param_1,#0x10                           
ram:00029a68    0881            strh        param_1,[r1,#0x8]=>DAT_20002aa8         
                            LAB_00029a6a:                 ;XREF[1,0]:   00029a64
ram:00029a6a    0a4a            ldr         r2,[DAT_00029a94]                       ;= 20002AA0h
ram:00029a6c    30bc            pop         {r4,r5}                                 
ram:00029a6e    0832            adds        r2=>DAT_20002aa8,#0x8                   
ram:00029a70    0a49            ldr         r1=>DAT_20002edc,[DAT_00029a9c]         ;= 20002EDCh
ram:00029a72    02f10c00        add.w       param_1,r2,#0xc                         
ram:00029a76    fef7ffb8        b.w         FUN_00027c78                            ;uint FUN_00027c78(int param_1, undef...
                            LAB_00029a7a:                 ;XREF[1,0]:   00029a44
ram:00029a7a    c37a            ldrb        r3,[param_1,#0xb]                       
ram:00029a7c    352b            cmp         r3,#0x35                                
ram:00029a7e    e9d1            bne         LAB_00029a54                            
ram:00029a80    0078            ldrb        param_1,[param_1,#0x0]                  
ram:00029a82    1060            str         param_1,[r2,#0x0]=>DAT_20002ae8         
ram:00029a84    1428            cmp         param_1,#0x14                           
ram:00029a86    01d9            bls         LAB_00029a8c                            
ram:00029a88    1420            movs        param_1,#0x14                           
ram:00029a8a    1060            str         param_1,[r2,#0x0]=>DAT_20002ae8         
                            LAB_00029a8c:                 ;XREF[1,0]:   00029a86
ram:00029a8c    00eb0010        add.w       param_1,param_1,param_1, lsl #0x4       
ram:00029a90    1060            str         param_1,[r2,#0x0]=>DAT_20002ae8         
ram:00029a92    dee7            b           LAB_00029a52                            
                            DAT_00029a94:                 ;XREF[2,0]:   00029a24,00029a6a
ram:00029a94    a02a0020        undefined4  20002AA0h                               
                            DAT_00029a98:                 ;XREF[1,0]:   00029a30
ram:00029a98    e82a0020        undefined4  20002AE8h                               
                            DAT_00029a9c:                 ;XREF[2,0]:   00029a60,00029a70
ram:00029a9c    dc2e0020        undefined4  20002EDCh                               
                            ;************************************************************************************************
                            ;*                                           FUNCTION                                           *
                            ;************************************************************************************************
                            ;undefined LAB_00029aa0+1(int param_1, undefined4 param_2, undefined4 param_3, undefined4 param_4)
          ;param_1       int                 r0                      
          ;param_2       undefined4          r1                      
          ;param_3       undefined4          r2                      
          ;param_4       undefined4          r3                      
                                                          ;XREF[0,2]:   000289f2,00028c48
ram:00029aa0    10b5            push        {r4,lr}                                 
ram:00029aa2    28b1            cbz         param_1,LAB_00029ab0                    
ram:00029aa4    0328            cmp         param_1,#0x3                            
ram:00029aa6    15d1            bne         LAB_00029ad4                            
ram:00029aa8    0220            movs        param_1,#0x2                            
ram:00029aaa    fef799fa        bl          FUN_00027fe0                            ;int FUN_00027fe0(uint param_1, undef...
ram:00029aae    0be0            b           LAB_00029ac8                            
                            LAB_00029ab0:                 ;XREF[1,0]:   00029aa2
ram:00029ab0    0020            movs        param_1,#0x0                            
ram:00029ab2    fef795fa        bl          FUN_00027fe0                            ;int FUN_00027fe0(uint param_1, undef...
ram:00029ab6    08b1            cbz         param_1,LAB_00029abc                    
ram:00029ab8    fdf710fb        bl          FUN_000270dc                            ;undefined FUN_000270dc(void)
                            LAB_00029abc:                 ;XREF[1,0]:   00029ab6
ram:00029abc    fef716fa        bl          FUN_00027eec                            ;int FUN_00027eec(void)
ram:00029ac0    08b1            cbz         param_1,LAB_00029ac6                    
ram:00029ac2    fdf70bfb        bl          FUN_000270dc                            ;undefined FUN_000270dc(void)
                            LAB_00029ac6:                 ;XREF[1,0]:   00029ac0
ram:00029ac6    33df            svc         0x33                                    
                            LAB_00029ac8:                 ;XREF[1,0]:   00029aae
ram:00029ac8    0028            cmp         param_1,#0x0                            
ram:00029aca    03d0            beq         LAB_00029ad4                            
ram:00029acc    bde81040        pop.w       {r4,lr}                                 
ram:00029ad0    fdf704bb        b.w         FUN_000270dc                            ;undefined FUN_000270dc(void)
                            LAB_00029ad4:                 ;XREF[2,0]:   00029aa6,00029aca
ram:00029ad4    10bd            pop         {r4,pc}                                 
ram:00029ad6    0000            movs        r0,r0                                   
                            ;************************************************************************************************
                            ;*                                           FUNCTION                                           *
                            ;************************************************************************************************
                            ;undefined LAB_00029ad8+1(char * param_1)
          ;param_1       char *              r0                      
                                                          ;XREF[0,2]:   00028a2c,00028c4c
ram:00029ad8    0078            ldrb        param_1,[param_1,#0x0]                  
ram:00029ada    0028            cmp         param_1,#0x0                            
ram:00029adc    07d1            bne         LAB_00029aee                            
ram:00029ade    0448            ldr         param_1,[DAT_00029af0]                  ;= 20002AA0h
ram:00029ae0    3b21            movs        r1,#0x3b                                
ram:00029ae2    8088            ldrh        param_1,[param_1,#0x4]=>DAT_20002aa4    
ram:00029ae4    76df            svc         0x76                                    
ram:00029ae6    0028            cmp         param_1,#0x0                            
ram:00029ae8    01d0            beq         LAB_00029aee                            
ram:00029aea    fdf7f7ba        b.w         FUN_000270dc                            ;undefined FUN_000270dc(void)
                            LAB_00029aee:                 ;XREF[2,0]:   00029adc,00029ae8
ram:00029aee    7047            bx          lr                                      
                            DAT_00029af0:                 ;XREF[1,0]:   00029ade
ram:00029af0    a02a0020        undefined4  20002AA0h                               
                            ;************************************************************************************************
                            ;*                                           FUNCTION                                           *
                            ;************************************************************************************************
                            ;undefined FUN_00029af4(int param_1, int param_2)
          ;param_1       int                 r0                      
          ;param_2       int                 r1                      
          ;local_1c      undefined4         -1c                      ;XREF[1,0]:   00029b2c
          ;local_20      undefined4         -20                      ;XREF[2,1]:   00029b0c,00029b12,00029b16
          ;local_2c      undefined4         -2c                      ;XREF[1,0]:   00029b52
          ;local_30      undefined2         -30                      ;XREF[1,0]:   00029b4e
          ;local_34      undefined4         -34                      ;XREF[1,0]:   00029b4a
          ;local_38      undefined1         -38                      ;XREF[1,0]:   00029b46
          ;local_3c      undefined4         -3c                      ;XREF[2,0]:   00029afa,00029b36
                                                          ;XREF[1,0]:   00027e1c
ram:00029af4    f0b5            push        {r4,r5,r6,r7,lr}                        
ram:00029af6    8bb0            sub         sp,#0x2c                                
ram:00029af8    0026            movs        r6,#0x0                                 
ram:00029afa    0196            str         r6,[sp,#local_3c+0x40]                  
ram:00029afc    0d46            mov         r5,param_2                              
ram:00029afe    0446            mov         r4,param_1                              
ram:00029b00    8988            ldrh        param_2,[param_2,#0x4]                  
ram:00029b02    4069            ldr         param_1,[param_1,#0x14]                 
ram:00029b04    01aa            add         r2,sp,#0x4                              
ram:00029b06    fdf7c3fb        bl          FUN_00027290                            ;undefined4 FUN_00027290(int * param_...
ram:00029b0a    0aa8            add         param_1,sp,#0x28                        
ram:00029b0c    cde90860        strd        r6,param_1,[sp,#local_20+0x40]          
ram:00029b10    0227            movs        r7,#0x2                                 
ram:00029b12    adf82070        strh.w      r7,[sp,#local_20+0x40]                  
ram:00029b16    adf82260        strh.w      r6,[sp,#local_20+0x42]                  
ram:00029b1a    218a            ldrh        param_2,[r4,#0x10]                      
ram:00029b1c    a888            ldrh        param_1,[r5,#0x4]                       
ram:00029b1e    08aa            add         r2,sp,#0x20                             
ram:00029b20    addf            svc         0xad                                    
ram:00029b22    0028            cmp         param_1,#0x0                            
ram:00029b24    19d1            bne         LAB_00029b5a                            
ram:00029b26    a069            ldr         param_1,[r4,#0x18]                      
ram:00029b28    0028            cmp         param_1,#0x0                            
ram:00029b2a    16d0            beq         LAB_00029b5a                            
ram:00029b2c    0998            ldr         param_1,[sp,#local_1c+0x40]             
ram:00029b2e    fef77df9        bl          FUN_00027e2c                            ;byte FUN_00027e2c(byte * param_1)
ram:00029b32    0028            cmp         param_1,#0x0                            
ram:00029b34    11d0            beq         LAB_00029b5a                            
ram:00029b36    019e            ldr         r6,[sp,#local_3c+0x40]                  
ram:00029b38    0eb1            cbz         r6,LAB_00029b3e                         
ram:00029b3a    0120            movs        param_1,#0x1                            
ram:00029b3c    3070            strb        param_1,[r6,#0x0]                       
                            LAB_00029b3e:                 ;XREF[1,0]:   00029b38
ram:00029b3e    1821            movs        param_2,#0x18                           
ram:00029b40    02a8            add         param_1,sp,#0x8                         
ram:00029b42    fcf7b8fc        bl          FUN_000264b6                            ;undefined FUN_000264b6(undefined * p...
ram:00029b46    8df80870        strb.w      r7,[sp,#local_38+0x40]                  
ram:00029b4a    0394            str         r4,[sp,#local_34+0x40]                  
ram:00029b4c    a888            ldrh        param_1,[r5,#0x4]                       
ram:00029b4e    adf81000        strh.w      param_1,[sp,#local_30+0x40]             
ram:00029b52    0596            str         r6,[sp,#local_2c+0x40]                  
ram:00029b54    a169            ldr         param_2,[r4,#0x18]                      
ram:00029b56    02a8            add         param_1,sp,#0x8                         
ram:00029b58    8847            blx         param_2                                 
                            LAB_00029b5a:                 ;XREF[3,0]:   00029b24,00029b2a,00029b34
ram:00029b5a    0bb0            add         sp,#0x2c                                
ram:00029b5c    f0bd            pop         {r4,r5,r6,r7,pc}                        
                            ;************************************************************************************************
                            ;*                                           FUNCTION                                           *
                            ;************************************************************************************************
                            ;undefined FUN_00029b5e(int param_1, int param_2)
          ;param_1       int                 r0                      
          ;param_2       int                 r1                      
          ;local_18      undefined4         -18                      ;XREF[3,0]:   00029b7e,00029bc0,00029bca
          ;local_1c      undefined2         -1c                      ;XREF[1,0]:   00029bae
          ;local_20      undefined4         -20                      ;XREF[1,0]:   00029baa
          ;local_24      undefined4         -24                      ;XREF[1,0]:   00029b84
          ;local_28      undefined2         -28                      ;XREF[1,0]:   00029b80
          ;local_2c      undefined4         -2c                      ;XREF[1,0]:   00029b7a
          ;local_30      undefined1         -30                      ;XREF[2,0]:   00029ba6,00029bd0
                                                          ;XREF[1,0]:   00027e28
ram:00029b5e    f0b5            push        {r4,r5,r6,r7,lr}                        
ram:00029b60    87b0            sub         sp,#0x1c                                
ram:00029b62    0c46            mov         r4,param_2                              
ram:00029b64    0546            mov         r5,param_1                              
ram:00029b66    8e1d            adds        r6,param_2,#0x6                         
ram:00029b68    8988            ldrh        param_2,[param_2,#0x4]                  
ram:00029b6a    4069            ldr         param_1,[param_1,#0x14]                 
ram:00029b6c    06aa            add         r2,sp,#0x18                             
ram:00029b6e    fdf78ffb        bl          FUN_00027290                            ;undefined4 FUN_00027290(int * param_...
ram:00029b72    1821            movs        param_2,#0x18                           
ram:00029b74    6846            mov         param_1,sp                              
ram:00029b76    fcf79efc        bl          FUN_000264b6                            ;undefined FUN_000264b6(undefined * p...
ram:00029b7a    0195            str         r5,[sp,#local_2c+0x30]                  
ram:00029b7c    a088            ldrh        param_1,[r4,#0x4]                       
ram:00029b7e    069a            ldr         r2=>local_18,[sp,#0x18]                 
ram:00029b80    adf80800        strh.w      param_1,[sp,#local_28+0x30]             
ram:00029b84    0392            str         r2,[sp,#local_24+0x30]                  
ram:00029b86    3188            ldrh        param_2,[r6,#0x0]                       
ram:00029b88    2b89            ldrh        r3,[r5,#0x8]                            
ram:00029b8a    0027            movs        r7,#0x0                                 
ram:00029b8c    04f11200        add.w       param_1,r4,#0x12                        
ram:00029b90    9942            cmp         param_2,r3                              
ram:00029b92    02d1            bne         LAB_00029b9a                            
ram:00029b94    7389            ldrh        r3,[r6,#0xa]                            
ram:00029b96    022b            cmp         r3,#0x2                                 
ram:00029b98    0dd0            beq         LAB_00029bb6                            
                            LAB_00029b9a:                 ;XREF[1,0]:   00029b92
ram:00029b9a    aa89            ldrh        r2,[r5,#0xc]                            
ram:00029b9c    9142            cmp         param_2,r2                              
ram:00029b9e    1ed1            bne         LAB_00029bde                            
ram:00029ba0    a969            ldr         param_2,[r5,#0x18]                      
ram:00029ba2    0029            cmp         param_2,#0x0                            
ram:00029ba4    1bd0            beq         LAB_00029bde                            
ram:00029ba6    8df80070        strb.w      r7,[sp,#0x0]=>local_30                  
ram:00029baa    0490            str         param_1,[sp,#local_20+0x30]             
ram:00029bac    7089            ldrh        param_1,[r6,#0xa]                       
ram:00029bae    adf81400        strh.w      param_1,[sp,#local_1c+0x30]             
ram:00029bb2    a969            ldr         param_2,[r5,#0x18]                      
ram:00029bb4    11e0            b           LAB_00029bda                            
                            LAB_00029bb6:                 ;XREF[1,0]:   00029b98
ram:00029bb6    002a            cmp         r2,#0x0                                 
ram:00029bb8    11d0            beq         LAB_00029bde                            
ram:00029bba    fef737f9        bl          FUN_00027e2c                            ;byte FUN_00027e2c(byte * param_1)
ram:00029bbe    20b1            cbz         param_1,LAB_00029bca                    
ram:00029bc0    0699            ldr         param_2,[sp,#local_18+0x30]             
ram:00029bc2    0120            movs        param_1,#0x1                            
ram:00029bc4    0870            strb        param_1,[param_2,#0x0]                  
ram:00029bc6    0220            movs        param_1,#0x2                            
ram:00029bc8    02e0            b           LAB_00029bd0                            
                            LAB_00029bca:                 ;XREF[1,0]:   00029bbe
ram:00029bca    0698            ldr         param_1,[sp,#local_18+0x30]             
ram:00029bcc    0770            strb        r7,[param_1,#0x0]                       
ram:00029bce    0320            movs        param_1,#0x3                            
                            LAB_00029bd0:                 ;XREF[1,0]:   00029bc8
ram:00029bd0    8df80000        strb.w      param_1,[sp,#0x0]=>local_30             
ram:00029bd4    a969            ldr         param_2,[r5,#0x18]                      
ram:00029bd6    0029            cmp         param_2,#0x0                            
ram:00029bd8    01d0            beq         LAB_00029bde                            
                            LAB_00029bda:                 ;XREF[1,0]:   00029bb4
ram:00029bda    6846            mov         param_1,sp                              
ram:00029bdc    8847            blx         param_2                                 
                            LAB_00029bde:                 ;XREF[4,0]:   00029b9e,00029ba4,00029bb8,00029bd8
ram:00029bde    07b0            add         sp,#0x1c                                
ram:00029be0    f0bd            pop         {r4,r5,r6,r7,pc}                        
                            ;************************************************************************************************
                            ;*                                           FUNCTION                                           *
                            ;************************************************************************************************
                            ;undefined4 FUN_00029be2(int * param_1)
          ;param_1       int *               r0                      
                                                          ;XREF[2,0]:   0002770c,00027736
ram:00029be2    0068            ldr         param_1,[param_1,#0x0]                  
ram:00029be4    0128            cmp         param_1,#0x1                            
ram:00029be6    03d0            beq         LAB_00029bf0                            
ram:00029be8    0228            cmp         param_1,#0x2                            
ram:00029bea    01d0            beq         LAB_00029bf0                            
ram:00029bec    0020            movs        param_1,#0x0                            
ram:00029bee    7047            bx          lr                                      
                            LAB_00029bf0:                 ;XREF[2,0]:   00029be6,00029bea
ram:00029bf0    0120            movs        param_1,#0x1                            
ram:00029bf2    7047            bx          lr                                      
                            ;************************************************************************************************
                            ;*                                           FUNCTION                                           *
                            ;************************************************************************************************
                            ;undefined4 FUN_00029bf4(void)
                                                          ;XREF[2,0]:   0002935c,00029c82
ram:00029bf4    0348            ldr         r0,[PTR_DAT_00029c04]                   ;= 0002a5ec
ram:00029bf6    0249            ldr         r1=>DAT_20002b50,[DAT_00029c00]         ;= 20002B50h
ram:00029bf8    0068            ldr         r0,[r0,#0x0]=>DAT_0002a5ec              ;= 20003284h
ram:00029bfa    fff702b9        b.w         FUN_00028e02                            ;undefined4 FUN_00028e02(int param_1,...
                            DAT_00029c00:                 ;XREF[1,0]:   00029bf6
ram:00029c00    502b0020        undefined4  20002B50h                               
                            PTR_DAT_00029c04:             ;XREF[1,0]:   00029bf4
ram:00029c04    eca50200        addr        DAT_0002a5ec                            ;= 20003284h
                            LAB_00029c08:                 ;XREF[2,0]:   00029374,00029cc0
ram:00029c08    2de9f041        push        {r4,r5,r6,r7,r8,lr}                     
ram:00029c0c    234c            ldr         r4,[DAT_00029c9c]                       ;= 20003320h
ram:00029c0e    0025            movs        r5,#0x0                                 
ram:00029c10    234e            ldr         r6,[DAT_00029ca0]                       ;= 20002B4Ch
ram:00029c12    207a            ldrb        param_1,[r4,#0x8]=>DAT_20003328         
ram:00029c14    0127            movs        r7,#0x1                                 
ram:00029c16    30b9            cbnz        param_1,LAB_00029c26                    
ram:00029c18    2248            ldr         param_1,[PTR_DAT_00029ca4]              ;= 0002a5ec
ram:00029c1a    311d            adds        param_2=>DAT_20002b50,r6,#0x4           
ram:00029c1c    0068            ldr         param_1,[param_1,#0x0]=>DAT_0002a5ec    ;= 20003284h
ram:00029c1e    fff7fbf8        bl          FUN_00028e18                            ;int FUN_00028e18(int * param_1, uint...
ram:00029c22    3060            str         param_1,[r6,#0x0]=>DAT_20002b4c         
ram:00029c24    38b1            cbz         param_1,LAB_00029c36                    
                            LAB_00029c26:                 ;XREF[1,0]:   00029c16
ram:00029c26    0220            movs        param_1,#0x2                            
ram:00029c28    2072            strb        param_1,[r4,#0x8]=>DAT_20003328         
ram:00029c2a    3168            ldr         param_2,[r6,#0x0]=>DAT_20002b4c         
ram:00029c2c    0879            ldrb        param_1,[param_2,#0x4]                  
ram:00029c2e    28b1            cbz         param_1,LAB_00029c3c                    
ram:00029c30    0128            cmp         param_1,#0x1                            
ram:00029c32    1ed1            bne         LAB_00029c72                            
ram:00029c34    16e0            b           LAB_00029c64                            
                            LAB_00029c36:                 ;XREF[1,0]:   00029c24
ram:00029c36    6560            str         r5,[r4,#0x4]=>DAT_20003324              
                            LAB_00029c38:                 ;XREF[2,0]:   00029c8a,00029c9a
ram:00029c38    bde8f081        pop.w       {r4,r5,r6,r7,r8,pc}                     
                            LAB_00029c3c:                 ;XREF[1,0]:   00029c2e
ram:00029c3c    d1e90503        ldrd        param_1,param_4,[param_2,#0x14]         
ram:00029c40    c01a            subs        param_1,param_1,param_4                 
ram:00029c42    4ff48052        mov.w       param_3,#0x1000                         
ram:00029c46    9042            cmp         param_1,param_3                         
ram:00029c48    00d3            bcc         LAB_00029c4c                            
ram:00029c4a    1046            mov         param_1,param_3                         
                            LAB_00029c4c:                 ;XREF[1,0]:   00029c48
ram:00029c4c    b7eb900f        cmp.w       r7,param_1, lsr #0x2                    
ram:00029c50    01d2            bcs         LAB_00029c56                            
ram:00029c52    8208            lsrs        param_3,param_1,#0x2                    
ram:00029c54    00e0            b           LAB_00029c58                            
                            LAB_00029c56:                 ;XREF[1,0]:   00029c50
ram:00029c56    0122            movs        param_3,#0x1                            
                            LAB_00029c58:                 ;XREF[1,0]:   00029c54
ram:00029c58    0869            ldr         param_1,[param_2,#0x10]                 
ram:00029c5a    c968            ldr         param_2,[param_2,#0xc]                  
ram:00029c5c    1844            add         param_1,param_4                         
ram:00029c5e    1944            add         param_2,param_4                         
ram:00029c60    29df            svc         0x29                                    
ram:00029c62    03e0            b           LAB_00029c6c                            
                            LAB_00029c64:                 ;XREF[1,0]:   00029c34
ram:00029c64    d1e90301        ldrd        param_1,param_2,[param_2,#0xc]          
ram:00029c68    0844            add         param_1,param_2                         
ram:00029c6a    28df            svc         0x28                                    
                            LAB_00029c6c:                 ;XREF[1,0]:   00029c62
ram:00029c6c    58b1            cbz         param_1,LAB_00029c86                    
ram:00029c6e    1128            cmp         param_1,#0x11                           
ram:00029c70    12d0            beq         LAB_00029c98                            
                            LAB_00029c72:                 ;XREF[1,0]:   00029c32
ram:00029c72    0321            movs        param_2,#0x3                            
ram:00029c74    3068            ldr         param_1,[r6,#0x0]=>DAT_20002b4c         
ram:00029c76    fef7cffc        bl          FUN_00028618                            ;undefined FUN_00028618(int * param_1...
ram:00029c7a    2572            strb        r5,[r4,#0x8]=>DAT_20003328              
ram:00029c7c    6560            str         r5,[r4,#0x4]=>DAT_20003324              
ram:00029c7e    bde8f041        pop.w       {r4,r5,r6,r7,r8,lr}                     
ram:00029c82    fff7b7bf        b.w         FUN_00029bf4                            ;undefined4 FUN_00029bf4(void)
                            LAB_00029c86:                 ;XREF[1,0]:   00029c6c
ram:00029c86    207c            ldrb        param_1,[r4,#0x10]=>DAT_20003330        
ram:00029c88    0028            cmp         param_1,#0x0                            
ram:00029c8a    d5d1            bne         LAB_00029c38                            
ram:00029c8c    bde8f041        pop.w       {r4,r5,r6,r7,r8,lr}                     
ram:00029c90    0021            movs        param_2,#0x0                            
ram:00029c92    0220            movs        param_1,#0x2                            
ram:00029c94    fff724bb        b.w         FUN_000292e0                            
                            LAB_00029c98:                 ;XREF[1,0]:   00029c70
ram:00029c98    2772            strb        r7,[r4,#0x8]=>DAT_20003328              
ram:00029c9a    cde7            b           LAB_00029c38                            
                            DAT_00029c9c:                 ;XREF[1,0]:   00029c0c
ram:00029c9c    20330020        undefined4  20003320h                               
                            DAT_00029ca0:                 ;XREF[1,0]:   00029c10
ram:00029ca0    4c2b0020        undefined4  20002B4Ch                               
                            PTR_DAT_00029ca4:             ;XREF[1,0]:   00029c18
ram:00029ca4    eca50200        addr        DAT_0002a5ec                            ;= 20003284h
                            ;************************************************************************************************
                            ;*                                           FUNCTION                                           *
                            ;************************************************************************************************
                            ;undefined * * * FUN_00029ca8(undefined4 param_1, undefined4 param_2, undefined4 param_3, undefined * * param_4)
          ;param_1       undefined4          r0                      
          ;param_2       undefined4          r1                      
          ;param_3       undefined4          r2                      
          ;param_4       undefined * *       r3                      
          ;local_18      undefined1         -18                      
                                                          ;XREF[2,0]:   00028606,0002a508
ram:00029ca8    10b5            push        {r4,lr}                                 
ram:00029caa    074c            ldr         r4,[DAT_00029cc8]                       ;= 20003320h
ram:00029cac    201d            adds        param_1=>DAT_20003324,r4,#0x4           
ram:00029cae    fff7e9f8        bl          FUN_00028e84                            ;undefined FUN_00028e84(uint * param_...
ram:00029cb2    0028            cmp         param_1,#0x0                            
ram:00029cb4    06d1            bne         LAB_00029cc4                            
ram:00029cb6    607c            ldrb        param_1,[r4,#0x11]=>DAT_20003331        
ram:00029cb8    0028            cmp         param_1,#0x0                            
ram:00029cba    03d1            bne         LAB_00029cc4                            
ram:00029cbc    bde81040        pop.w       {r4,lr}                                 
ram:00029cc0    fff7a2bf        b.w         LAB_00029c08                            
                            LAB_00029cc4:                 ;XREF[2,0]:   00029cb4,00029cba
ram:00029cc4    10bd            pop         {r4,pc}                                 
ram:00029cc6    0000            movs        r0,r0                                   
                            DAT_00029cc8:                 ;XREF[1,0]:   00029caa
ram:00029cc8    20330020        undefined4  20003320h                               
                            ;************************************************************************************************
                            ;*                                           FUNCTION                                           *
                            ;************************************************************************************************
                            ;undefined4 FUN_00029ccc(undefined4 param_1, undefined4 * param_2, undefined4 * param_3, uint param_4)
          ;param_1       undefined4          r0                      
          ;param_2       undefined4 *        r1                      
          ;param_3       undefined4 *        r2                      
          ;param_4       uint                r3                      
                                                          ;XREF[0,1]:   0002a604
ram:00029ccc    10b5            push        {r4,lr}                                 
ram:00029cce    1046            mov         param_1,param_3                         
ram:00029cd0    1a46            mov         param_3,param_4                         
ram:00029cd2    fcf7d7fb        bl          FUN_00026484                            ;undefined FUN_00026484(undefined4 * ...
ram:00029cd6    0020            movs        param_1,#0x0                            
ram:00029cd8    10bd            pop         {r4,pc}                                 
                            ;************************************************************************************************
                            ;*                                           FUNCTION                                           *
                            ;************************************************************************************************
                            ;undefined4 LAB_00029cda+1(undefined4 param_1, undefined4 param_2)
          ;param_1       undefined4          r0                      
          ;param_2       undefined4          r1                      
                                                          ;XREF[0,1]:   0002a610
ram:00029cda    0846            mov         param_1,param_2                         
ram:00029cdc    7047            bx          lr                                      
ram:00029cde    0000            movs        r0,r0                                   
                            ;************************************************************************************************
                            ;*                                           FUNCTION                                           *
                            ;************************************************************************************************
                            ;undefined FUN_00029ce0(void)
                                                          ;XREF[2,0]:   0002711a,00028444
ram:00029ce0    70b5            push        {r4,r5,r6,lr}                           
ram:00029ce2    0126            movs        r6,#0x1                                 
ram:00029ce4    7004            lsls        r0,r6,#0x11                             
ram:00029ce6    4ff0e021        mov.w       r1,#0xe000e000                          
ram:00029cea    0025            movs        r5,#0x0                                 
ram:00029cec    c1f88001        str.w       r0,[r1,#0x180]=>DAT_e000e180            
ram:00029cf0    084c            ldr         r4,[DAT_00029d14]                       ;= 40011000h
ram:00029cf2    4010            asrs        r0,r0,#0x1                              
ram:00029cf4    c4f84803        str.w       r0,[r4,#0x348]=>DAT_40011348            
ram:00029cf8    c4f80803        str.w       r0,[r4,#0x308]=>DAT_40011308            
ram:00029cfc    6660            str         r6,[r4,#offset DAT_40011004 &0xff]      
ram:00029cfe    2f20            movs        r0,#0x2f                                
ram:00029d00    fff7e4fd        bl          FUN_000298cc                            ;undefined FUN_000298cc(int param_1)
ram:00029d04    a660            str         r6,[r4,#offset DAT_40011008 &0xff]      
ram:00029d06    044c            ldr         r4,[DAT_00029d18]                       ;= 20002B30h
ram:00029d08    2f20            movs        r0,#0x2f                                
ram:00029d0a    a560            str         r5,[r4,#0x8]=>DAT_20002b38              
ram:00029d0c    fff7defd        bl          FUN_000298cc                            ;undefined FUN_000298cc(int param_1)
ram:00029d10    a570            strb        r5,[r4,#0x2]=>DAT_20002b32              
ram:00029d12    70bd            pop         {r4,r5,r6,pc}                           
                            DAT_00029d14:                 ;XREF[1,0]:   00029cf0
ram:00029d14    00100140        undefined4  40011000h                               
                            DAT_00029d18:                 ;XREF[1,0]:   00029d06
ram:00029d18    302b0020        undefined4  20002B30h                               
                            ;************************************************************************************************
                            ;*                                           FUNCTION                                           *
                            ;************************************************************************************************
                            ;undefined LAB_00029d1c+1(int param_1, undefined4 param_2, undefined4 param_3, uint param_4)
          ;param_1       int                 r0                      
          ;param_2       undefined4          r1                      
          ;param_3       undefined4          r2                      
          ;param_4       uint                r3                      
          ;local_10      undefined1         -10                      ;XREF[2,0]:   00029d42,00029d5e
                                                          ;XREF[0,1]:   0002a750
ram:00029d1c    38b5            push        {param_4,r4,r5,lr}                      
ram:00029d1e    0021            movs        param_2,#0x0                            
ram:00029d20    0125            movs        r5,#0x1                                 
ram:00029d22    48b1            cbz         param_1,LAB_00029d38                    
ram:00029d24    0128            cmp         param_1,#0x1                            
ram:00029d26    0cd0            beq         LAB_00029d42                            
ram:00029d28    0328            cmp         param_1,#0x3                            
ram:00029d2a    09d1            bne         LAB_00029d40                            
ram:00029d2c    fff78afd        bl          FUN_00029844                            ;undefined FUN_00029844(void)
ram:00029d30    bde83840        pop.w       {param_4,r4,r5,lr}                      
ram:00029d34    fff748ba        b.w         FUN_000291c8                            ;undefined FUN_000291c8(void)
                            LAB_00029d38:                 ;XREF[1,0]:   00029d22
ram:00029d38    4ff0e020        mov.w       param_1,#0xe000e000                     
ram:00029d3c    c0f88051        str.w       r5,[param_1,#0x180]=>DAT_e000e180       
                            LAB_00029d40:                 ;XREF[1,0]:   00029d2a
ram:00029d40    38bd            pop         {param_4,r4,r5,pc}                      
                            LAB_00029d42:                 ;XREF[1,0]:   00029d26
ram:00029d42    8df80010        strb.w      param_2,[sp,#0x0]=>local_10             
ram:00029d46    6846            mov         param_1,sp                              
ram:00029d48    fdf764fa        bl          FUN_00027214                            ;undefined FUN_00027214(undefined * p...
ram:00029d4c    064c            ldr         r4,[DAT_00029d68]                       ;= 200030B4h
ram:00029d4e    2078            ldrb        param_1,[r4,#0x0]=>DAT_200030b4         
ram:00029d50    08b9            cbnz        param_1,LAB_00029d56                    
ram:00029d52    fff71dfa        bl          FUN_00029190                            ;undefined4 FUN_00029190(void)
                            LAB_00029d56:                 ;XREF[1,0]:   00029d50
ram:00029d56    e068            ldr         param_1,[r4,#0xc]=>DAT_200030c0         
ram:00029d58    401c            adds        param_1,param_1,#0x1                    
ram:00029d5a    e060            str         param_1,[r4,#0xc]=>DAT_200030c0         
ram:00029d5c    a570            strb        r5,[r4,#0x2]=>DAT_200030b6              
ram:00029d5e    9df80000        ldrb.w      param_1,[sp,#0x0]=>local_10             
ram:00029d62    fdf77bfa        bl          FUN_0002725c                            ;undefined FUN_0002725c(int param_1)
ram:00029d66    38bd            pop         {param_4,r4,r5,pc}                      
                            DAT_00029d68:                 ;XREF[1,0]:   00029d4c
ram:00029d68    b4300020        undefined4  200030B4h                               
                            ;************************************************************************************************
                            ;*                                           FUNCTION                                           *
                            ;************************************************************************************************
                            ;longlong FUN_00029d6c(undefined4 param_1, int * param_2, undefined4 param_3, undefined * * param_4)
          ;param_1       undefined4          r0                      
          ;param_2       int *               r1                      
          ;param_3       undefined4          r2                      
          ;param_4       undefined * *       r3                      
          ;local_10      undefined4         -10                      ;XREF[1,0]:   00029d8c
                                                          ;XREF[2,0]:   00029694,000296ee
ram:00029d6c    3eb5            push        {param_2,param_3,param_4,r4,r5,lr}      
ram:00029d6e    0446            mov         r4,param_1                              
ram:00029d70    0949            ldr         param_2=>PTR_PTR...,[PTR_PTR_00029d98]  ;= 0002a61c
                                                                                    ;= 0002a630
ram:00029d72    6846            mov         param_1,sp                              
ram:00029d74    fff730fd        bl          FUN_000297d8                            ;undefined FUN_000297d8(int * * param...
ram:00029d78    08e0            b           LAB_00029d8c                            
ram:00029d7a    00bf            nop                                                  
                            LAB_00029d7c:                 ;XREF[1,0]:   00029d90
ram:00029d7c    d0e90021        ldrd        param_3,param_2,[param_1,#0x0]          
ram:00029d80    2046            mov         param_1,r4                              
ram:00029d82    9047            blx         param_3                                 
ram:00029d84    30b1            cbz         param_1,LAB_00029d94                    
ram:00029d86    6846            mov         param_1,sp                              
ram:00029d88    fff73dfd        bl          FUN_00029806                            ;undefined FUN_00029806(int * param_1)
                            LAB_00029d8c:                 ;XREF[1,0]:   00029d78
ram:00029d8c    0298            ldr         param_1,[sp,#local_10+0x18]             
ram:00029d8e    0028            cmp         param_1,#0x0                            
ram:00029d90    f4d1            bne         LAB_00029d7c                            
ram:00029d92    3ebd            pop         {param_2,param_3,param_4,r4,r5,pc}      
                            LAB_00029d94:                 ;XREF[1,0]:   00029d84
ram:00029d94    1120            movs        param_1,#0x11                           
ram:00029d96    3ebd            pop         {param_2,param_3,param_4,r4,r5,pc}      
                            PTR_PTR_00029d98:             ;XREF[1,0]:   00029d70
ram:00029d98    30a60200        addr        PTR_PTR_0002a630                        ;= 0002a61c
                            ;************************************************************************************************
                            ;*                                           FUNCTION                                           *
                            ;************************************************************************************************
                            ;undefined FUN_00029d9c(undefined4 param_1, int * param_2, undefined4 param_3, undefined * * param_4)
          ;param_1       undefined4          r0                      
          ;param_2       int *               r1                      
          ;param_3       undefined4          r2                      
          ;param_4       undefined * *       r3                      
          ;local_10      undefined4         -10                      ;XREF[1,0]:   00029dba
                                                          ;XREF[4,0]:   0002969e,000296d2,000296f8,0002973c
ram:00029d9c    3eb5            push        {param_2,param_3,param_4,r4,r5,lr}      
ram:00029d9e    0446            mov         r4,param_1                              
ram:00029da0    0849            ldr         param_2=>PTR_PTR...,[PTR_PTR_00029dc4]  ;= 0002a654
                                                                                    ;= 0002a63c
ram:00029da2    6846            mov         param_1,sp                              
ram:00029da4    fff718fd        bl          FUN_000297d8                            ;undefined FUN_000297d8(int * * param...
ram:00029da8    07e0            b           LAB_00029dba                            
ram:00029daa    00bf            nop                                                  
                            LAB_00029dac:                 ;XREF[1,0]:   00029dbe
ram:00029dac    d0e90021        ldrd        param_3,param_2,[param_1,#0x0]          
ram:00029db0    2046            mov         param_1,r4                              
ram:00029db2    9047            blx         param_3                                 
ram:00029db4    6846            mov         param_1,sp                              
ram:00029db6    fff726fd        bl          FUN_00029806                            ;undefined FUN_00029806(int * param_1)
                            LAB_00029dba:                 ;XREF[1,0]:   00029da8
ram:00029dba    0298            ldr         param_1,[sp,#local_10+0x18]             
ram:00029dbc    0028            cmp         param_1,#0x0                            
ram:00029dbe    f5d1            bne         LAB_00029dac                            
ram:00029dc0    3ebd            pop         {param_2,param_3,param_4,r4,r5,pc}      
ram:00029dc2    0000            movs        r0,r0                                   
                            PTR_PTR_00029dc4:             ;XREF[1,0]:   00029da0
ram:00029dc4    3ca60200        addr        PTR_PTR_0002a63c                        ;= 0002a654
                            ;************************************************************************************************
                            ;*                                           FUNCTION                                           *
                            ;************************************************************************************************
                            ;undefined FUN_00029dc8(void)
                                                          ;XREF[5,0]:   00027b20,00027b3a,00028560,0002a318
                                                          ;             0002a336
ram:00029dc8    0249            ldr         r1,[DAT_00029dd4]                       ;= 20003020h
ram:00029dca    8969            ldr         r1,[r1,#0x18]=>DAT_20003038             
ram:00029dcc    0029            cmp         r1,#0x0                                 
ram:00029dce    00d0            beq         LAB_00029dd2                            
ram:00029dd0    0847            bx          r1                                      
                            LAB_00029dd2:                 ;XREF[1,0]:   00029dce
ram:00029dd2    7047            bx          lr                                      
                            DAT_00029dd4:                 ;XREF[1,0]:   00029dc8
ram:00029dd4    20300020        undefined4  20003020h                               
                            ;************************************************************************************************
                            ;*                                           FUNCTION                                           *
                            ;************************************************************************************************
                            ;undefined FUN_00029dd8(void)
                                                          ;XREF[12,0]:  000267b4,000267de,00026808,0002683a
                                                          ;             0002686c,00026896,000268c4,000268f2
                                                          ;             00026920,0002694a,00026974,0002699e
ram:00029dd8    2de9f041        push        {r4,r5,r6,r7,r8,lr}                     
ram:00029ddc    1120            movs        r0,#0x11                                
ram:00029dde    fff748fb        bl          FUN_00029472                            ;uint FUN_00029472(uint param_1)
ram:00029de2    224d            ldr         r5,[DAT_00029e6c]                       ;= 20002AF0h
ram:00029de4    4026            movs        r6,#0x40                                
ram:00029de6    0427            movs        r7,#0x4                                 
ram:00029de8    4ff00508        mov.w       r8,#0x5                                 
ram:00029dec    a5f11404        sub.w       r4,r5,#0x14                             
ram:00029df0    d8b1            cbz         r0,LAB_00029e2a                         
ram:00029df2    1220            movs        r0,#0x12                                
ram:00029df4    fff73dfb        bl          FUN_00029472                            ;uint FUN_00029472(uint param_1)
ram:00029df8    f8b1            cbz         r0,LAB_00029e3a                         
ram:00029dfa    1320            movs        r0,#0x13                                
ram:00029dfc    fff739fb        bl          FUN_00029472                            ;uint FUN_00029472(uint param_1)
ram:00029e00    18b3            cbz         r0,LAB_00029e4a                         
ram:00029e02    1620            movs        r0,#0x16                                
ram:00029e04    fff735fb        bl          FUN_00029472                            ;uint FUN_00029472(uint param_1)
ram:00029e08    10b3            cbz         r0,LAB_00029e50                         
ram:00029e0a    1420            movs        r0,#0x14                                
ram:00029e0c    fff731fb        bl          FUN_00029472                            ;uint FUN_00029472(uint param_1)
ram:00029e10    08b3            cbz         r0,LAB_00029e56                         
ram:00029e12    1020            movs        r0,#0x10                                
ram:00029e14    fff72dfb        bl          FUN_00029472                            ;uint FUN_00029472(uint param_1)
ram:00029e18    00b3            cbz         r0,LAB_00029e5c                         
ram:00029e1a    1720            movs        r0,#0x17                                
ram:00029e1c    fff729fb        bl          FUN_00029472                            ;uint FUN_00029472(uint param_1)
ram:00029e20    0028            cmp         r0,#0x0                                 
ram:00029e22    08d1            bne         LAB_00029e36                            
ram:00029e24    a978            ldrb        r1,[r5,#0x2]=>DAT_20002af2              
ram:00029e26    3620            movs        r0,#0x36                                
ram:00029e28    09e0            b           LAB_00029e3e                            
                            LAB_00029e2a:                 ;XREF[1,0]:   00029df0
ram:00029e2a    a978            ldrb        r1,[r5,#0x2]=>DAT_20002af2              
ram:00029e2c    3120            movs        r0,#0x31                                
ram:00029e2e    06e0            b           LAB_00029e3e                            
                            LAB_00029e30:                 ;XREF[2,0]:   00029e48,00029e68
ram:00029e30    e068            ldr         r0,[r4,#0xc]=>DAT_20002ae8              
ram:00029e32    401d            adds        r0,r0,#0x5                              
ram:00029e34    6060            str         r0,[r4,#0x4]=>DAT_20002ae0              
                            LAB_00029e36:                 ;XREF[1,0]:   00029e22
ram:00029e36    bde8f081        pop.w       {r4,r5,r6,r7,r8,pc}                     
                            LAB_00029e3a:                 ;XREF[1,0]:   00029df8
ram:00029e3a    a978            ldrb        r1,[r5,#0x2]=>DAT_20002af2              
ram:00029e3c    3220            movs        r0,#0x32                                
                            LAB_00029e3e:                 ;XREF[6,0]:   00029e28,00029e2e,00029e4e,00029e54
                                                          ;             00029e5a,00029e60
ram:00029e3e    81b1            cbz         r1,LAB_00029e62                         
ram:00029e40    e870            strb        r0,[r5,#0x3]=>DAT_20002af3              
ram:00029e42    2e71            strb        r6,[r5,#0x4]=>DAT_20002af4              
ram:00029e44    84f80080        strb.w      r8,[r4,#0x0]=>DAT_20002adc              
ram:00029e48    f2e7            b           LAB_00029e30                            
                            LAB_00029e4a:                 ;XREF[1,0]:   00029e00
ram:00029e4a    a978            ldrb        r1,[r5,#0x2]=>DAT_20002af2              
ram:00029e4c    3320            movs        r0,#0x33                                
ram:00029e4e    f6e7            b           LAB_00029e3e                            
                            LAB_00029e50:                 ;XREF[1,0]:   00029e08
ram:00029e50    a978            ldrb        r1,[r5,#0x2]=>DAT_20002af2              
ram:00029e52    3520            movs        r0,#0x35                                
ram:00029e54    f3e7            b           LAB_00029e3e                            
                            LAB_00029e56:                 ;XREF[1,0]:   00029e10
ram:00029e56    a978            ldrb        r1,[r5,#0x2]=>DAT_20002af2              
ram:00029e58    3420            movs        r0,#0x34                                
ram:00029e5a    f0e7            b           LAB_00029e3e                            
                            LAB_00029e5c:                 ;XREF[1,0]:   00029e18
ram:00029e5c    a978            ldrb        r1,[r5,#0x2]=>DAT_20002af2              
ram:00029e5e    3020            movs        r0,#0x30                                
ram:00029e60    ede7            b           LAB_00029e3e                            
                            LAB_00029e62:                 ;XREF[1,0]:   00029e3e
ram:00029e62    a870            strb        r0,[r5,#0x2]=>DAT_20002af2              
ram:00029e64    ee70            strb        r6,[r5,#0x3]=>DAT_20002af3              
ram:00029e66    2770            strb        r7,[r4,#0x0]=>DAT_20002adc              
ram:00029e68    e2e7            b           LAB_00029e30                            
ram:00029e6a    0000            movs        r0,r0                                   
                            DAT_00029e6c:                 ;XREF[1,0]:   00029de2
ram:00029e6c    f02a0020        undefined4  20002AF0h                               
                            ;************************************************************************************************
                            ;*                                           FUNCTION                                           *
                            ;************************************************************************************************
                            ;undefined4 FUN_00029e70(int param_1, int param_2, ushort * param_3)
          ;param_1       int                 r0                      
          ;param_2       int                 r1                      
          ;param_3       ushort *            r2                      
                                                          ;XREF[1,0]:   0002743a
ram:00029e70    2de9f041        push        {r4,r5,r6,r7,r8,lr}                     
ram:00029e74    0746            mov         r7,param_1                              
ram:00029e76    806a            ldr         param_1,[param_1,#0x28]                 
ram:00029e78    1446            mov         r4,param_3                              
ram:00029e7a    8846            mov         r8,param_2                              
ram:00029e7c    c8b3            cbz         param_1,LAB_00029ef2                    
ram:00029e7e    0025            movs        r5,#0x0                                 
ram:00029e80    31e0            b           LAB_00029ee6                            
ram:00029e82    00bf            nop                                                  
                            LAB_00029e84:                 ;XREF[1,0]:   00029eec
ram:00029e84    b96a            ldr         param_2,[r7,#0x28]                      
ram:00029e86    05eb4500        add.w       param_1,r5,r5, lsl #0x1                 
ram:00029e8a    01eb8006        add.w       r6,param_2,param_1, lsl #0x2            
ram:00029e8e    b088            ldrh        param_1,[r6,#0x4]                       
ram:00029e90    801c            adds        param_1,param_1,#0x2                    
ram:00029e92    fe28            cmp         param_1,#0xfe                           
ram:00029e94    02d9            bls         LAB_00029e9c                            
ram:00029e96    0c20            movs        param_1,#0xc                            
                            LAB_00029e98:                 ;XREF[2,0]:   00029ef0,00029ef6
ram:00029e98    bde8f081        pop.w       {r4,r5,r6,r7,r8,pc}                     
                            LAB_00029e9c:                 ;XREF[1,0]:   00029e94
ram:00029e9c    2288            ldrh        param_3,[r4,#0x0]                       
ram:00029e9e    401c            adds        param_1,param_1,#0x1                    
ram:00029ea0    08f80200        strb.w      param_1,r8,param_3,0x0                  
ram:00029ea4    2088            ldrh        param_1,[r4,#0x0]                       
ram:00029ea6    1622            movs        param_3,#0x16                           
ram:00029ea8    401c            adds        param_1,param_1,#0x1                    
ram:00029eaa    80b2            uxth        param_1,param_1                         
ram:00029eac    2080            strh        param_1,[r4,#0x0]                       
ram:00029eae    08f80020        strb.w      param_3,r8,param_1,0x0                  
ram:00029eb2    2088            ldrh        param_1,[r4,#0x0]                       
ram:00029eb4    401c            adds        param_1,param_1,#0x1                    
ram:00029eb6    80b2            uxth        param_1,param_1                         
ram:00029eb8    2080            strh        param_1,[r4,#0x0]                       
ram:00029eba    00eb0801        add.w       param_2,param_1,r8                      
ram:00029ebe    3088            ldrh        param_1,[r6,#0x0]                       
ram:00029ec0    00f0fef9        bl          FUN_0002a2c0                            ;undefined4 FUN_0002a2c0(undefined4 p...
ram:00029ec4    2188            ldrh        param_2,[r4,#0x0]                       
ram:00029ec6    0844            add         param_1,param_2                         
ram:00029ec8    80b2            uxth        param_1,param_1                         
ram:00029eca    2080            strh        param_1,[r4,#0x0]                       
ram:00029ecc    b288            ldrh        param_3,[r6,#0x4]                       
ram:00029ece    42b1            cbz         param_3,LAB_00029ee2                    
ram:00029ed0    b168            ldr         param_2,[r6,#0x8]                       
ram:00029ed2    71b1            cbz         param_2,LAB_00029ef2                    
ram:00029ed4    4044            add         param_1,r8                              
ram:00029ed6    fcf7d5fa        bl          FUN_00026484                            ;undefined FUN_00026484(undefined4 * ...
ram:00029eda    2088            ldrh        param_1,[r4,#0x0]                       
ram:00029edc    b188            ldrh        param_2,[r6,#0x4]                       
ram:00029ede    0844            add         param_1,param_2                         
ram:00029ee0    2080            strh        param_1,[r4,#0x0]                       
                            LAB_00029ee2:                 ;XREF[1,0]:   00029ece
ram:00029ee2    6d1c            adds        r5,r5,#0x1                              
ram:00029ee4    edb2            uxtb        r5,r5                                   
                            LAB_00029ee6:                 ;XREF[1,0]:   00029e80
ram:00029ee6    97f82c00        ldrb.w      param_1,[r7,#0x2c]                      
ram:00029eea    a842            cmp         param_1,r5                              
ram:00029eec    cad8            bhi         LAB_00029e84                            
ram:00029eee    0020            movs        param_1,#0x0                            
ram:00029ef0    d2e7            b           LAB_00029e98                            
                            LAB_00029ef2:                 ;XREF[2,0]:   00029e7c,00029ed2
ram:00029ef2    ffe7            b           LAB_00029ef4                            
                            LAB_00029ef4:                 ;XREF[1,0]:   00029ef2
ram:00029ef4    0720            movs        param_1,#0x7                            
ram:00029ef6    cfe7            b           LAB_00029e98                            
                            ;************************************************************************************************
                            ;*                                           FUNCTION                                           *
                            ;************************************************************************************************
                            ;undefined FUN_00029ef8(undefined4 param_1, undefined * param_2)
          ;param_1       undefined4          r0                      
          ;param_2       undefined *         r1                      
                                                          ;XREF[5,0]:   000281fc,00028206,00028272,000282ec
                                                          ;             000282f6
ram:00029ef8    0a78            ldrb        r2,[param_2,#0x0]                       
ram:00029efa    0628            cmp         param_1,#0x6                            
ram:00029efc    22f0ff02        bic         r2,r2,#0xff                             
ram:00029f00    0a70            strb        r2,[param_2,#0x0]                       
ram:00029f02    10d2            bcs         switchD_00029f04::caseD_6               
                            switchD:                      ; FWD[8,0]:   00029f08,00029f0e,00029f12,00029f16
                                                          ;             00029f1a,00029f1e,00029f22,00029f26
ram:00029f04    dfe800f0        tbb         [switchD_00029f04::switchdataD_00029f...;= 3h
                            switchdataD_00029f08:         ;XREF[1,0]:   00029f04
ram:00029f08    03              db          3h                                      
ram:00029f09    05              db          5h                                      
ram:00029f0a    07              db          7h                                      
ram:00029f0b    09              db          9h                                      
ram:00029f0c    0b              db          Bh                                      
ram:00029f0d    0d              db          Dh                                      
                            caseD_0:                      ;XREF[1,0]:   00029f04
ram:00029f0e    0020            movs        param_1,#0x0                            
ram:00029f10    08e0            b           LAB_00029f24                            
                            caseD_1:                      ;XREF[1,0]:   00029f04
ram:00029f12    1120            movs        param_1,#0x11                           
ram:00029f14    06e0            b           LAB_00029f24                            
                            caseD_2:                      ;XREF[1,0]:   00029f04
ram:00029f16    2120            movs        param_1,#0x21                           
ram:00029f18    04e0            b           LAB_00029f24                            
                            caseD_3:                      ;XREF[1,0]:   00029f04
ram:00029f1a    3120            movs        param_1,#0x31                           
ram:00029f1c    02e0            b           LAB_00029f24                            
                            caseD_4:                      ;XREF[1,0]:   00029f04
ram:00029f1e    1220            movs        param_1,#0x12                           
ram:00029f20    00e0            b           LAB_00029f24                            
                            caseD_5:                      ;XREF[1,0]:   00029f04
ram:00029f22    2220            movs        param_1,#0x22                           
                            LAB_00029f24:                 ;XREF[5,0]:   00029f10,00029f14,00029f18,00029f1c
                                                          ;             00029f20
ram:00029f24    0870            strb        param_1,[param_2,#0x0]                  
                            caseD_6:                      ;XREF[2,0]:   00029f02,00029f04
ram:00029f26    7047            bx          lr                                      
                            ;************************************************************************************************
                            ;*                                           FUNCTION                                           *
                            ;************************************************************************************************
                            ;undefined LAB_00029f28+1(int param_1)
          ;param_1       int                 r0                      
                                                          ;XREF[0,1]:   0002a728
ram:00029f28    0028            cmp         param_1,#0x0                            
ram:00029f2a    05d1            bne         LAB_00029f38                            
ram:00029f2c    0349            ldr         r1=>DAT_200030b4,[DAT_00029f3c]         ;= 200030B4h
ram:00029f2e    0120            movs        param_1,#0x1                            
ram:00029f30    4870            strb        param_1,[r1,#0x1]=>DAT_200030b5         
ram:00029f32    0020            movs        param_1,#0x0                            
ram:00029f34    fef718ba        b.w         FUN_00028368                            ;undefined FUN_00028368(int param_1)
                            LAB_00029f38:                 ;XREF[1,0]:   00029f2a
ram:00029f38    7047            bx          lr                                      
ram:00029f3a    0000            movs        r0,r0                                   
                            DAT_00029f3c:                 ;XREF[1,0]:   00029f2c
ram:00029f3c    b4300020        undefined4  200030B4h                               
                            ;************************************************************************************************
                            ;*                                           FUNCTION                                           *
                            ;************************************************************************************************
                            ;undefined FUN_00029f40(void)
                                                          ;XREF[1,0]:   000296cc
ram:00029f40    10b5            push        {r4,lr}                                 
ram:00029f42    1620            movs        r0,#0x16                                
ram:00029f44    fdf772f8        bl          FUN_0002702c                            ;undefined4 FUN_0002702c(uint param_1)
ram:00029f48    48b1            cbz         r0,LAB_00029f5e                         
ram:00029f4a    0a48            ldr         r0=>DAT_2000326c,[DAT_00029f74]         ;= 2000326Ch
ram:00029f4c    8268            ldr         r2,[r0,#0x8]=>DAT_20003274              
ram:00029f4e    4ff48001        mov.w       r1,#0x400000                            
ram:00029f52    52b1            cbz         r2,LAB_00029f6a                         
ram:00029f54    0168            ldr         r1,[r0,#0x0]=>DAT_2000326c              
ram:00029f56    21f48001        bic         r1,r1,#0x400000                         
ram:00029f5a    0160            str         r1,[r0,#0x0]=>DAT_2000326c              
ram:00029f5c    10bd            pop         {r4,pc}                                 
                            LAB_00029f5e:                 ;XREF[1,0]:   00029f48
ram:00029f5e    bde81040        pop.w       {r4,lr}                                 
ram:00029f62    42f20100        movw        r0,#0x2001                              
ram:00029f66    fdf7b9b8        b.w         FUN_000270dc                            ;undefined FUN_000270dc(void)
                            LAB_00029f6a:                 ;XREF[1,0]:   00029f52
ram:00029f6a    4ff0e020        mov.w       r0,#0xe000e000                          
ram:00029f6e    c0f88011        str.w       r1,[r0,#0x180]=>DAT_e000e180            
ram:00029f72    10bd            pop         {r4,pc}                                 
                            DAT_00029f74:                 ;XREF[1,0]:   00029f4a
ram:00029f74    6c320020        undefined4  2000326Ch                               
                            ;************************************************************************************************
                            ;*                                           FUNCTION                                           *
                            ;************************************************************************************************
                            ;undefined FUN_00029f78(void)
                                                          ;XREF[1,0]:   00029736
ram:00029f78    10b5            push        {r4,lr}                                 
ram:00029f7a    1620            movs        r0,#0x16                                
ram:00029f7c    fdf756f8        bl          FUN_0002702c                            ;undefined4 FUN_0002702c(uint param_1)
ram:00029f80    a0b1            cbz         r0,LAB_00029fac                         
ram:00029f82    1148            ldr         r0,[DAT_00029fc8]                       ;= E000E016h
ram:00029f84    90f80004        ldrb.w      r0,[r0,#0x400]=>DAT_e000e416            
ram:00029f88    4009            lsrs        r0,r0,#0x5                              
ram:00029f8a    0828            cmp         r0,#0x8                                 
ram:00029f8c    11d2            bcs         LAB_00029fb2                            
ram:00029f8e    0121            movs        r1,#0x1                                 
ram:00029f90    8140            lsls        r1,r0                                   
ram:00029f92    11f0ec0f        tst         r1,#0xec                                
ram:00029f96    0cd0            beq         LAB_00029fb2                            
ram:00029f98    0c48            ldr         r0=>DAT_2000326c,[DAT_00029fcc]         ;= 2000326Ch
ram:00029f9a    8268            ldr         r2,[r0,#0x8]=>DAT_20003274              
ram:00029f9c    4ff48001        mov.w       r1,#0x400000                            
ram:00029fa0    6ab1            cbz         r2,LAB_00029fbe                         
ram:00029fa2    0168            ldr         r1,[r0,#0x0]=>DAT_2000326c              
ram:00029fa4    41f48001        orr         r1,r1,#0x400000                         
ram:00029fa8    0160            str         r1,[r0,#0x0]=>DAT_2000326c              
ram:00029faa    10bd            pop         {r4,pc}                                 
                            LAB_00029fac:                 ;XREF[1,0]:   00029f80
ram:00029fac    42f20100        movw        r0,#0x2001                              
ram:00029fb0    01e0            b           LAB_00029fb6                            
                            LAB_00029fb2:                 ;XREF[2,0]:   00029f8c,00029f96
ram:00029fb2    42f20200        movw        r0,#0x2002                              
                            LAB_00029fb6:                 ;XREF[1,0]:   00029fb0
ram:00029fb6    bde81040        pop.w       {r4,lr}                                 
ram:00029fba    fdf78fb8        b.w         FUN_000270dc                            ;undefined FUN_000270dc(void)
                            LAB_00029fbe:                 ;XREF[1,0]:   00029fa0
ram:00029fbe    4ff0e020        mov.w       r0,#0xe000e000                          
ram:00029fc2    c0f80011        str.w       r1,[r0,#0x100]=>DAT_e000e100            
ram:00029fc6    10bd            pop         {r4,pc}                                 
                            DAT_00029fc8:                 ;XREF[1,0]:   00029f82
ram:00029fc8    16e000e0        undefined4  E000E016h                               
                            DAT_00029fcc:                 ;XREF[1,0]:   00029f98
ram:00029fcc    6c320020        undefined4  2000326Ch                               
                            ;************************************************************************************************
                            ;*                                           FUNCTION                                           *
                            ;************************************************************************************************
                            ;undefined FUN_00029fd0(int param_1)
          ;param_1       int                 r0                      
ram:00029fd0    2de9f041        push        {r4,r5,r6,r7,r8,lr}                     
ram:00029fd4    2d4c            ldr         r4,[DAT_0002a08c]                       ;= 20002AD4h
ram:00029fd6    6168            ldr         r1,[r4,#0x4]=>DAT_20002ad8              
ram:00029fd8    491c            adds        r1,r1,#0x1                              
ram:00029fda    6160            str         r1,[r4,#0x4]=>DAT_20002ad8              
ram:00029fdc    b0f5a07f        cmp.w       param_1,#0x140                          
ram:00029fe0    51d1            bne         LAB_0002a086                            
ram:00029fe2    a078            ldrb        param_1,[r4,#0x2]=>DAT_20002ad6         
ram:00029fe4    401c            adds        param_1,param_1,#0x1                    
ram:00029fe6    c0b2            uxtb        param_1,param_1                         
ram:00029fe8    a070            strb        param_1,[r4,#0x2]=>DAT_20002ad6         
ram:00029fea    0328            cmp         param_1,#0x3                            
ram:00029fec    4bd3            bcc         LAB_0002a086                            
ram:00029fee    2849            ldr         r1,[DAT_0002a090]                       ;= 20002ADDh
ram:00029ff0    0020            movs        param_1,#0x0                            
ram:00029ff2    a070            strb        param_1,[r4,#0x2]=>DAT_20002ad6         
ram:00029ff4    0978            ldrb        r1,[r1,#0x0]=>DAT_20002add              
ram:00029ff6    274d            ldr         r5,[DAT_0002a094]                       ;= 20002AECh
ram:00029ff8    0127            movs        r7,#0x1                                 
ram:00029ffa    4ff0a046        mov.w       r6,#0x50000000                          
ram:00029ffe    0129            cmp         r1,#0x1                                 
ram:0002a000    0cd0            beq         LAB_0002a01c                            
ram:0002a002    2070            strb        param_1,[r4,#0x0]=>DAT_20002ad4         
ram:0002a004    1920            movs        param_1,#0x19                           
ram:0002a006    fff726fa        bl          FUN_00029456                            ;undefined FUN_00029456(uint param_1)
ram:0002a00a    b806            lsls        param_1,r7,#0x1a                        
ram:0002a00c    c6f80805        str.w       param_1,[r6,#offset DAT_50000508 &0xf...
                            LAB_0002a010:                 ;XREF[2,0]:   0002a042,0002a05a
ram:0002a010    2868            ldr         param_1,[r5,#0x0]=>DAT_20002aec         
ram:0002a012    28b3            cbz         param_1,LAB_0002a060                    
ram:0002a014    401e            subs        param_1,param_1,#0x1                    
ram:0002a016    2860            str         param_1,[r5,#0x0]=>DAT_20002aec         
ram:0002a018    20d0            beq         LAB_0002a05c                            
ram:0002a01a    21e0            b           LAB_0002a060                            
                            LAB_0002a01c:                 ;XREF[1,0]:   0002a000
ram:0002a01c    2968            ldr         r1,[r5,#0x0]=>DAT_20002aec              
ram:0002a01e    b1b1            cbz         r1,LAB_0002a04e                         
ram:0002a020    6178            ldrb        r1,[r4,#0x1]=>DAT_20002ad5              
ram:0002a022    9629            cmp         r1,#0x96                                
ram:0002a024    0ad9            bls         LAB_0002a03c                            
ram:0002a026    6070            strb        param_1,[r4,#0x1]=>DAT_20002ad5         
ram:0002a028    2178            ldrb        r1,[r4,#0x0]=>DAT_20002ad4              
ram:0002a02a    59b1            cbz         r1,LAB_0002a044                         
ram:0002a02c    2070            strb        param_1,[r4,#0x0]=>DAT_20002ad4         
ram:0002a02e    4ff00070        mov.w       param_1,#0x2000000                      
ram:0002a032    c6f80805        str.w       param_1,[r6,#offset DAT_50000508 &0xf...
                            LAB_0002a036:                 ;XREF[1,0]:   0002a04c
ram:0002a036    1a20            movs        param_1,#0x1a                           
ram:0002a038    fff70dfa        bl          FUN_00029456                            ;undefined FUN_00029456(uint param_1)
                            LAB_0002a03c:                 ;XREF[1,0]:   0002a024
ram:0002a03c    6078            ldrb        param_1,[r4,#0x1]=>DAT_20002ad5         
ram:0002a03e    401c            adds        param_1,param_1,#0x1                    
ram:0002a040    6070            strb        param_1,[r4,#0x1]=>DAT_20002ad5         
ram:0002a042    e5e7            b           LAB_0002a010                            
                            LAB_0002a044:                 ;XREF[1,0]:   0002a02a
ram:0002a044    2770            strb        r7,[r4,#0x0]=>DAT_20002ad4              
ram:0002a046    1920            movs        param_1,#0x19                           
ram:0002a048    fff705fa        bl          FUN_00029456                            ;undefined FUN_00029456(uint param_1)
ram:0002a04c    f3e7            b           LAB_0002a036                            
                            LAB_0002a04e:                 ;XREF[1,0]:   0002a01e
ram:0002a04e    1920            movs        param_1,#0x19                           
ram:0002a050    fff701fa        bl          FUN_00029456                            ;undefined FUN_00029456(uint param_1)
ram:0002a054    1a20            movs        param_1,#0x1a                           
ram:0002a056    fff7fef9        bl          FUN_00029456                            ;undefined FUN_00029456(uint param_1)
ram:0002a05a    d9e7            b           LAB_0002a010                            
                            LAB_0002a05c:                 ;XREF[1,0]:   0002a018
ram:0002a05c    0e48            ldr         param_1,[DAT_0002a098]                  ;= 20002AFCh
ram:0002a05e    0770            strb        r7,[param_1,#0x0]=>DAT_20002afc         
                            LAB_0002a060:                 ;XREF[2,0]:   0002a012,0002a01a
ram:0002a060    0e48            ldr         param_1,[DAT_0002a09c]                  ;= 20002AE0h
ram:0002a062    0168            ldr         r1,[param_1,#0x0]=>DAT_20002ae0         
ram:0002a064    09b1            cbz         r1,LAB_0002a06a                         
ram:0002a066    491e            subs        r1,r1,#0x1                              
ram:0002a068    0160            str         r1,[param_1,#0x0]=>DAT_20002ae0         
                            LAB_0002a06a:                 ;XREF[1,0]:   0002a064
ram:0002a06a    0d49            ldr         r1,[DAT_0002a0a0]                       ;= 20002AE4h
ram:0002a06c    0868            ldr         param_1,[r1,#0x0]=>DAT_20002ae4         
ram:0002a06e    08b1            cbz         param_1,LAB_0002a074                    
ram:0002a070    401e            subs        param_1,param_1,#0x1                    
ram:0002a072    0860            str         param_1,[r1,#0x0]=>DAT_20002ae4         
                            LAB_0002a074:                 ;XREF[1,0]:   0002a06e
ram:0002a074    0b49            ldr         r1,[DAT_0002a0a4]                       ;= 20002AF8h
ram:0002a076    0868            ldr         param_1,[r1,#0x0]=>DAT_20002af8         
ram:0002a078    0028            cmp         param_1,#0x0                            
ram:0002a07a    04d0            beq         LAB_0002a086                            
ram:0002a07c    401e            subs        param_1,param_1,#0x1                    
ram:0002a07e    0860            str         param_1,[r1,#0x0]=>DAT_20002af8         
ram:0002a080    01d1            bne         LAB_0002a086                            
ram:0002a082    0948            ldr         param_1=>DAT_20002af7,[DAT_0002a0a8]    ;= 20002AF7h
ram:0002a084    0770            strb        r7,[param_1,#0x0]=>DAT_20002af7         
                            LAB_0002a086:                 ;XREF[4,0]:   00029fe0,00029fec,0002a07a,0002a080
ram:0002a086    bde8f081        pop.w       {r4,r5,r6,r7,r8,pc}                     
                            DAT_0002a08c:                 ;XREF[1,0]:   00029fd4
ram:0002a08c    d42a0020        undefined4  20002AD4h                               
                            DAT_0002a090:                 ;XREF[1,0]:   00029fee
ram:0002a090    dd2a0020        undefined4  20002ADDh                               
                            DAT_0002a094:                 ;XREF[1,0]:   00029ff6
ram:0002a094    ec2a0020        undefined4  20002AECh                               
                            DAT_0002a098:                 ;XREF[1,0]:   0002a05c
ram:0002a098    fc2a0020        undefined4  20002AFCh                               
                            DAT_0002a09c:                 ;XREF[1,0]:   0002a060
ram:0002a09c    e02a0020        undefined4  20002AE0h                               
                            DAT_0002a0a0:                 ;XREF[1,0]:   0002a06a
ram:0002a0a0    e42a0020        undefined4  20002AE4h                               
                            DAT_0002a0a4:                 ;XREF[1,0]:   0002a074
ram:0002a0a4    f82a0020        undefined4  20002AF8h                               
                            DAT_0002a0a8:                 ;XREF[1,0]:   0002a082
ram:0002a0a8    f72a0020        undefined4  20002AF7h                               
                            ;************************************************************************************************
                            ;*                                           FUNCTION                                           *
                            ;************************************************************************************************
                            ;undefined FUN_0002a0ac(void)
          ;local_28      undefined4         -28                      ;XREF[1,0]:   0002a0c4
                                                          ;XREF[1,0]:   00026b60
ram:0002a0ac    2de9f84f        push        {r3,r4,r5,r6,r7,r8,r9,r10,r11,lr}       
ram:0002a0b0    1d4c            ldr         r4,[DAT_0002a128]                       ;= 20002B30h
ram:0002a0b2    0025            movs        r5,#0x0                                 
ram:0002a0b4    6846            mov         r0,sp                                   
                                                          ; FWD[2,0]:   20002b34,20002b38
ram:0002a0b6    d4e901a6        ldrd        r10,r6,[r4,#0x4]=>DAT_20002b34          
ram:0002a0ba    fef767fa        bl          FUN_0002858c                            ;undefined4 FUN_0002858c(int * param_1)
ram:0002a0be    0027            movs        r7,#0x0                                 
ram:0002a0c0    38b3            cbz         r0,LAB_0002a112                         
ram:0002a0c2    0023            movs        r3,#0x0                                 
ram:0002a0c4    009a            ldr         r2,[sp,#0x0]=>local_28                  
ram:0002a0c6    6168            ldr         r1,[r4,#0x4]=>DAT_20002b34              
ram:0002a0c8    1ce0            b           LAB_0002a104                            
                            LAB_0002a0ca:                 ;XREF[1,0]:   0002a106
ram:0002a0ca    d1f800c0        ldr.w       r12,[r1,#0x0]                           
ram:0002a0ce    0846            mov         r0,r1                                   
ram:0002a0d0    9445            cmp         r12,r2                                  
ram:0002a0d2    03d9            bls         LAB_0002a0dc                            
ram:0002a0d4    aceb0202        sub.w       r2,r12,r2                               
ram:0002a0d8    0a60            str         r2,[r1,#0x0]                            
ram:0002a0da    15e0            b           LAB_0002a108                            
                            LAB_0002a0dc:                 ;XREF[1,0]:   0002a0d2
ram:0002a0dc    a2eb0c02        sub.w       r2,r2,r12                               
ram:0002a0e0    6344            add         r3,r12                                  
ram:0002a0e2    0760            str         r7,[r0,#0x0]                            
ram:0002a0e4    d0f80cc0        ldr.w       r12,[r0,#0xc]                           
ram:0002a0e8    c169            ldr         r1,[r0,#0x1c]                           
ram:0002a0ea    8146            mov         r9,r0                                   
ram:0002a0ec    bcf1000f        cmp.w       r12,#0x0                                
ram:0002a0f0    08d0            beq         LAB_0002a104                            
ram:0002a0f2    06eb0308        add.w       r8,r6,r3                                
ram:0002a0f6    28f07f48        bic         r8,r8,#0xff000000                       
ram:0002a0fa    c0e9018c        strd        r8,r12,[r0,#0x4]                        
ram:0002a0fe    c9f81c50        str.w       r5,[r9,#0x1c]                           
ram:0002a102    0546            mov         r5,r0                                   
                            LAB_0002a104:                 ;XREF[2,0]:   0002a0c8,0002a0f0
ram:0002a104    0029            cmp         r1,#0x0                                 
ram:0002a106    e0d1            bne         LAB_0002a0ca                            
                            LAB_0002a108:                 ;XREF[1,0]:   0002a0da
ram:0002a108    2846            mov         r0,r5                                   
ram:0002a10a    6160            str         r1,[r4,#0x4]=>DAT_20002b34              
ram:0002a10c    fef780fb        bl          FUN_00028810                            ;undefined4 FUN_00028810(uint * param_1)
ram:0002a110    03e0            b           LAB_0002a11a                            
                            LAB_0002a112:                 ;XREF[1,0]:   0002a0c0
ram:0002a112    2846            mov         r0,r5                                   
ram:0002a114    fef77cfb        bl          FUN_00028810                            ;undefined4 FUN_00028810(uint * param_1)
ram:0002a118    10b1            cbz         r0,LAB_0002a120                         
                            LAB_0002a11a:                 ;XREF[1,0]:   0002a110
ram:0002a11a    5046            mov         r0,r10                                  
ram:0002a11c    fef746f9        bl          FUN_000283ac                            ;undefined FUN_000283ac(void)
                            LAB_0002a120:                 ;XREF[1,0]:   0002a118
ram:0002a120    e770            strb        r7,[r4,#0x3]=>DAT_20002b33              
ram:0002a122    bde8f88f        pop.w       {r3,r4,r5,r6,r7,r8,r9,r10,r11,pc}       
                            DAT_0002a128:                 ;XREF[1,0]:   0002a0b0
ram:0002a128    302b0020        undefined4  20002B30h                               
                            ;************************************************************************************************
                            ;*                                           FUNCTION                                           *
                            ;************************************************************************************************
                            ;undefined FUN_0002a12c(uint * param_1)
          ;param_1       uint *              r0                      
                                                          ;XREF[1,0]:   000288d2
ram:0002a12c    0d4b            ldr         r3,[DAT_0002a164]                       ;= 20002B30h
ram:0002a12e    10b5            push        {r4,lr}                                 
ram:0002a130    5968            ldr         r1,[r3,#0x4]=>DAT_20002b34              
ram:0002a132    31b1            cbz         r1,LAB_0002a142                         
ram:0002a134    0268            ldr         r2,[param_1,#0x0]                       
ram:0002a136    0c68            ldr         r4,[r1,#0x0]                            
ram:0002a138    a242            cmp         r2,r4                                   
ram:0002a13a    04d8            bhi         LAB_0002a146                            
ram:0002a13c    a21a            subs        r2,r4,r2                                
ram:0002a13e    0a60            str         r2,[r1,#0x0]                            
ram:0002a140    c161            str         r1,[param_1,#0x1c]                      
                            LAB_0002a142:                 ;XREF[1,0]:   0002a132
ram:0002a142    5860            str         param_1,[r3,#0x4]=>DAT_20002b34         
ram:0002a144    10bd            pop         {r4,pc}                                 
                            LAB_0002a146:                 ;XREF[1,0]:   0002a13a
ram:0002a146    0b46            mov         r3,r1                                   
ram:0002a148    03e0            b           LAB_0002a152                            
                            LAB_0002a14a:                 ;XREF[1,0]:   0002a156
ram:0002a14a    0b46            mov         r3,r1                                   
ram:0002a14c    c969            ldr         r1,[r1,#0x1c]                           
ram:0002a14e    121b            subs        r2,r2,r4                                
ram:0002a150    21b1            cbz         r1,LAB_0002a15c                         
                            LAB_0002a152:                 ;XREF[1,0]:   0002a148
ram:0002a152    0c68            ldr         r4,[r1,#0x0]                            
ram:0002a154    9442            cmp         r4,r2                                   
ram:0002a156    f8d3            bcc         LAB_0002a14a                            
ram:0002a158    a41a            subs        r4,r4,r2                                
ram:0002a15a    0c60            str         r4,[r1,#0x0]                            
                            LAB_0002a15c:                 ;XREF[1,0]:   0002a150
ram:0002a15c    0260            str         r2,[param_1,#0x0]                       
ram:0002a15e    c161            str         r1,[param_1,#0x1c]                      
ram:0002a160    d861            str         param_1,[r3,#0x1c]                      
ram:0002a162    10bd            pop         {r4,pc}                                 
                            DAT_0002a164:                 ;XREF[1,0]:   0002a12c
ram:0002a164    302b0020        undefined4  20002B30h                               
                            ;************************************************************************************************
                            ;*                                           FUNCTION                                           *
                            ;************************************************************************************************
                            ;undefined4 FUN_0002a168(int * param_1)
          ;param_1       int *               r0                      
                                                          ;XREF[1,0]:   00028866
ram:0002a168    2de9f041        push        {r4,r5,r6,r7,r8,lr}                     
ram:0002a16c    144e            ldr         r6,[DAT_0002a1c0]                       ;= 20002B30h
ram:0002a16e    7768            ldr         r7,[r6,#0x4]=>DAT_20002b34              
ram:0002a170    3d46            mov         r5,r7                                   
ram:0002a172    2c46            mov         r4,r5                                   
ram:0002a174    03e0            b           LAB_0002a17e                            
                            LAB_0002a176:                 ;XREF[1,0]:   0002a180
ram:0002a176    8442            cmp         r4,param_1                              
ram:0002a178    04d0            beq         LAB_0002a184                            
ram:0002a17a    2546            mov         r5,r4                                   
ram:0002a17c    e469            ldr         r4,[r4,#0x1c]                           
                            LAB_0002a17e:                 ;XREF[1,0]:   0002a174
ram:0002a17e    002c            cmp         r4,#0x0                                 
ram:0002a180    f9d1            bne         LAB_0002a176                            
ram:0002a182    1be0            b           LAB_0002a1bc                            
                            LAB_0002a184:                 ;XREF[1,0]:   0002a178
ram:0002a184    d4b1            cbz         r4,LAB_0002a1bc                         
ram:0002a186    a542            cmp         r5,r4                                   
ram:0002a188    0bd1            bne         LAB_0002a1a2                            
ram:0002a18a    f869            ldr         param_1,[r7,#0x1c]                      
ram:0002a18c    7060            str         param_1,[r6,#0x4]=>DAT_20002b34         
ram:0002a18e    40b9            cbnz        param_1,LAB_0002a1a2                    
ram:0002a190    0c49            ldr         r1,[DAT_0002a1c4]                       ;= 40011000h
ram:0002a192    0120            movs        param_1,#0x1                            
ram:0002a194    8860            str         param_1,[r1,#offset DAT_40011008 &0xff] 
ram:0002a196    0021            movs        r1,#0x0                                 
ram:0002a198    b160            str         r1,[r6,#0x8]=>DAT_20002b38              
ram:0002a19a    f070            strb        param_1,[r6,#0x3]=>DAT_20002b33         
ram:0002a19c    2f20            movs        param_1,#0x2f                           
ram:0002a19e    fff795fb        bl          FUN_000298cc                            ;undefined FUN_000298cc(int param_1)
                            LAB_0002a1a2:                 ;XREF[2,0]:   0002a188,0002a18e
ram:0002a1a2    2168            ldr         r1,[r4,#0x0]                            
ram:0002a1a4    e069            ldr         param_1,[r4,#0x1c]                      
ram:0002a1a6    e861            str         param_1,[r5,#0x1c]                      
ram:0002a1a8    10b1            cbz         param_1,LAB_0002a1b0                    
ram:0002a1aa    0268            ldr         r2,[param_1,#0x0]                       
ram:0002a1ac    1144            add         r1,r2                                   
ram:0002a1ae    0160            str         r1,[param_1,#0x0]                       
                            LAB_0002a1b0:                 ;XREF[1,0]:   0002a1a8
ram:0002a1b0    7068            ldr         param_1,[r6,#0x4]=>DAT_20002b34         
ram:0002a1b2    8742            cmp         r7,param_1                              
ram:0002a1b4    02d0            beq         LAB_0002a1bc                            
ram:0002a1b6    0120            movs        param_1,#0x1                            
                            LAB_0002a1b8:                 ;XREF[1,0]:   0002a1be
ram:0002a1b8    bde8f081        pop.w       {r4,r5,r6,r7,r8,pc}                     
                            LAB_0002a1bc:                 ;XREF[3,0]:   0002a182,0002a184,0002a1b4
ram:0002a1bc    0020            movs        param_1,#0x0                            
ram:0002a1be    fbe7            b           LAB_0002a1b8                            
                            DAT_0002a1c0:                 ;XREF[1,0]:   0002a16c
ram:0002a1c0    302b0020        undefined4  20002B30h                               
                            DAT_0002a1c4:                 ;XREF[1,0]:   0002a190
ram:0002a1c4    00100140        undefined4  40011000h                               
                            LAB_0002a1c8:                 ;XREF[1,0]:   00027206
ram:0002a1c8    7cb5            push        {param_3,param_4,r4,r5,r6,lr}           
ram:0002a1ca    0646            mov         r6,param_1                              
ram:0002a1cc    0024            movs        r4,#0x0                                 
ram:0002a1ce    0d46            mov         r5,param_2                              
ram:0002a1d0    8df80040        strb.w      r4,[sp,#0x0]=>local_18                  
ram:0002a1d4    6846            mov         param_1,sp                              
ram:0002a1d6    fdf71df8        bl          FUN_00027214                            ;undefined FUN_00027214(undefined * p...
ram:0002a1da    01a8            add         param_1,sp,#0x4                         
ram:0002a1dc    00f0d8f8        bl          FUN_0002a390                            ;char * FUN_0002a390(char * param_1)
ram:0002a1e0    70b1            cbz         param_1,LAB_0002a200                    
ram:0002a1e2    0570            strb        r5,[param_1,#0x0]                       
ram:0002a1e4    0949            ldr         param_2=>DAT_20003160,[DAT_0002a20c]    ;= 20003160h
ram:0002a1e6    4660            str         r6,[param_1,#0x4]                       
ram:0002a1e8    9df80400        ldrb.w      param_1,[sp,#local_14+0x18]             
ram:0002a1ec    4870            strb        param_1,[param_2,#0x1]=>DAT_20003161    
ram:0002a1ee    9df80000        ldrb.w      param_1,[sp,#0x0]=>local_18             
ram:0002a1f2    fdf733f8        bl          FUN_0002725c                            ;undefined FUN_0002725c(int param_1)
ram:0002a1f6    1420            movs        param_1,#0x14                           
ram:0002a1f8    fcf720fc        bl          FUN_00026a3c                            ;undefined FUN_00026a3c(uint param_1)
                            LAB_0002a1fc:                 ;XREF[1,0]:   0002a20a
ram:0002a1fc    2046            mov         param_1,r4                              
ram:0002a1fe    7cbd            pop         {param_3,param_4,r4,r5,r6,pc}           
                            LAB_0002a200:                 ;XREF[1,0]:   0002a1e0
ram:0002a200    0424            movs        r4,#0x4                                 
ram:0002a202    9df80000        ldrb.w      param_1,[sp,#0x0]=>local_18             
ram:0002a206    fdf729f8        bl          FUN_0002725c                            ;undefined FUN_0002725c(int param_1)
ram:0002a20a    f7e7            b           LAB_0002a1fc                            
                            DAT_0002a20c:                 ;XREF[1,0]:   0002a1e4
ram:0002a20c    60310020        undefined4  20003160h                               
                            ;************************************************************************************************
                            ;*                                           FUNCTION                                           *
                            ;************************************************************************************************
                            ;undefined FUN_0002a210(void)
                                                          ;XREF[1,0]:   00026b58
ram:0002a210    2de9f041        push        {r4,r5,r6,r7,r8,lr}                     
ram:0002a214    194d            ldr         r5,[DAT_0002a27c]                       ;= 20002B30h
ram:0002a216    6c68            ldr         r4,[r5,#0x4]=>DAT_20002b34              
ram:0002a218    002c            cmp         r4,#0x0                                 
ram:0002a21a    2cd0            beq         LAB_0002a276                            
ram:0002a21c    1848            ldr         r0,[DAT_0002a280]                       ;= 40011504h
ram:0002a21e    0027            movs        r7,#0x0                                 
ram:0002a220    0068            ldr         r0,[r0,#0x0]=>DAT_40011504              
ram:0002a222    a968            ldr         r1,[r5,#0x8]=>DAT_20002b38              
ram:0002a224    b846            mov         r8,r7                                   
ram:0002a226    401a            subs        r0,r0,r1                                
ram:0002a228    20f07f46        bic         r6,r0,#0xff000000                       
                            LAB_0002a22c:                 ;XREF[1,0]:   0002a24a
ram:0002a22c    2068            ldr         r0,[r4,#0x0]                            
ram:0002a22e    b042            cmp         r0,r6                                   
ram:0002a230    0cd8            bhi         LAB_0002a24c                            
ram:0002a232    2146            mov         r1,r4                                   
ram:0002a234    361a            subs        r6,r6,r0                                
ram:0002a236    0744            add         r7,r0                                   
ram:0002a238    e469            ldr         r4,[r4,#0x1c]                           
ram:0002a23a    087c            ldrb        r0,[r1,#0x10]                           
ram:0002a23c    20b1            cbz         r0,LAB_0002a248                         
ram:0002a23e    81f81080        strb.w      r8,[r1,#0x10]                           
ram:0002a242    8869            ldr         r0,[r1,#0x18]                           
ram:0002a244    4969            ldr         r1,[r1,#0x14]                           
ram:0002a246    8847            blx         r1                                      
                            LAB_0002a248:                 ;XREF[1,0]:   0002a23c
ram:0002a248    002c            cmp         r4,#0x0                                 
ram:0002a24a    efd1            bne         LAB_0002a22c                            
                            LAB_0002a24c:                 ;XREF[1,0]:   0002a230
ram:0002a24c    2978            ldrb        r1,[r5,#0x0]=>DAT_20002b30              
ram:0002a24e    6878            ldrb        r0,[r5,#0x1]=>DAT_20002b31              
ram:0002a250    8142            cmp         r1,r0                                   
ram:0002a252    06d1            bne         LAB_0002a262                            
ram:0002a254    401c            adds        r0,r0,#0x1                              
ram:0002a256    c0b2            uxtb        r0,r0                                   
ram:0002a258    6870            strb        r0,[r5,#0x1]=>DAT_20002b31              
ram:0002a25a    0228            cmp         r0,#0x2                                 
ram:0002a25c    01d1            bne         LAB_0002a262                            
ram:0002a25e    85f80180        strb.w      r8,[r5,#0x1]=>DAT_20002b31              
                            LAB_0002a262:                 ;XREF[2,0]:   0002a252,0002a25c
ram:0002a262    0648            ldr         r0,[DAT_0002a27c]                       ;= 20002B30h
ram:0002a264    6978            ldrb        r1,[r5,#0x1]=>DAT_20002b31              
ram:0002a266    0c30            adds        r0,#0xc                                 
ram:0002a268    40f82170        str.w       r7,r0=>DAT_20002b3c,r1,0x2              
ram:0002a26c    bde8f041        pop.w       {r4,r5,r6,r7,r8,lr}                     
ram:0002a270    1420            movs        r0,#0x14                                
ram:0002a272    fcf7e3bb        b.w         FUN_00026a3c                            ;undefined FUN_00026a3c(uint param_1)
                            LAB_0002a276:                 ;XREF[1,0]:   0002a21a
ram:0002a276    bde8f081        pop.w       {r4,r5,r6,r7,r8,pc}                     
                            DAT_0002a27c:                 ;XREF[2,0]:   0002a214,0002a262
ram:0002a27c    302b0020        undefined4  20002B30h                               
                            DAT_0002a280:                 ;XREF[1,0]:   0002a21c
ram:0002a280    04150140        undefined4  40011504h                               
                            ;************************************************************************************************
                            ;*                                           FUNCTION                                           *
                            ;************************************************************************************************
                            ;undefined LAB_0002a284+1(int param_1)
          ;param_1       int                 r0                      
                                                          ;XREF[0,2]:   00026fac,00026ffc
ram:0002a284    10b5            push        {r4,lr}                                 
ram:0002a286    b0f5a27f        cmp.w       param_1,#0x144                          
ram:0002a28a    11d1            bne         LAB_0002a2b0                            
ram:0002a28c    0948            ldr         param_1,[DAT_0002a2b4]                  ;= 20002AE0h
ram:0002a28e    0a49            ldr         r1,[DAT_0002a2b8]                       ;= 20002ADCh
ram:0002a290    0a4c            ldr         r4,[DAT_0002a2bc]                       ;= 20002AE4h
ram:0002a292    0068            ldr         param_1,[param_1,#0x0]=>DAT_20002ae0    
ram:0002a294    0978            ldrb        r1,[r1,#0x0]=>DAT_20002adc              
ram:0002a296    0843            orrs        param_1,r1                              
ram:0002a298    2168            ldr         r1,[r4,#0x0]=>DAT_20002ae4              
ram:0002a29a    0843            orrs        param_1,r1                              
ram:0002a29c    01d1            bne         LAB_0002a2a2                            
ram:0002a29e    fcf775fa        bl          FUN_0002678c                            ;undefined FUN_0002678c(void)
                            LAB_0002a2a2:                 ;XREF[1,0]:   0002a29c
ram:0002a2a2    2068            ldr         param_1,[r4,#0x0]=>DAT_20002ae4         
ram:0002a2a4    0028            cmp         param_1,#0x0                            
ram:0002a2a6    03d1            bne         LAB_0002a2b0                            
ram:0002a2a8    bde81040        pop.w       {r4,lr}                                 
ram:0002a2ac    fcf798bb        b.w         LAB_000269e0                            
                            LAB_0002a2b0:                 ;XREF[2,0]:   0002a28a,0002a2a6
ram:0002a2b0    10bd            pop         {r4,pc}                                 
ram:0002a2b2    0000            movs        r0,r0                                   
                            DAT_0002a2b4:                 ;XREF[1,0]:   0002a28c
ram:0002a2b4    e02a0020        undefined4  20002AE0h                               
                            DAT_0002a2b8:                 ;XREF[1,0]:   0002a28e
ram:0002a2b8    dc2a0020        undefined4  20002ADCh                               
                            DAT_0002a2bc:                 ;XREF[1,0]:   0002a290
ram:0002a2bc    e42a0020        undefined4  20002AE4h                               
                            ;************************************************************************************************
                            ;*                                           FUNCTION                                           *
                            ;************************************************************************************************
                            ;undefined4 FUN_0002a2c0(undefined4 param_1, undefined * param_2)
          ;param_1       undefined4          r0                      
          ;param_2       undefined *         r1                      
                                                          ;XREF[5,0]:   00027342,00028500,00028510,00028ce6
                                                          ;             00029ec0
ram:0002a2c0    0870            strb        param_1,[param_2,#0x0]                  
ram:0002a2c2    000a            lsrs        param_1,param_1,#0x8                    
ram:0002a2c4    4870            strb        param_1,[param_2,#0x1]                  
ram:0002a2c6    0220            movs        param_1,#0x2                            
ram:0002a2c8    7047            bx          lr                                      
ram:0002a2ca    0000            movs        r0,r0                                   
                            ;************************************************************************************************
                            ;*                                           FUNCTION                                           *
                            ;************************************************************************************************
                            ;undefined4 LAB_0002a2cc+1(void)
                                                          ;XREF[0,1]:   0002a600
ram:0002a2cc    10b5            push        {r4,lr}                                 
ram:0002a2ce    1421            movs        r1,#0x14                                
ram:0002a2d0    0448            ldr         r0,[DAT_0002a2e4]                       ;= 20003320h
ram:0002a2d2    fcf7f0f8        bl          FUN_000264b6                            ;undefined FUN_000264b6(undefined * p...
ram:0002a2d6    0448            ldr         r0,[PTR_DAT_0002a2e8]                   ;= 0002a5ec
ram:0002a2d8    0068            ldr         r0,[r0,#0x0]=>DAT_0002a5ec              ;= 20003284h
ram:0002a2da    fef76cfd        bl          FUN_00028db6                            ;undefined4 FUN_00028db6(int param_1)
ram:0002a2de    0020            movs        r0,#0x0                                 
ram:0002a2e0    10bd            pop         {r4,pc}                                 
ram:0002a2e2    0000            movs        r0,r0                                   
                            DAT_0002a2e4:                 ;XREF[1,0]:   0002a2d0
ram:0002a2e4    20330020        undefined4  20003320h                               
                            PTR_DAT_0002a2e8:             ;XREF[1,0]:   0002a2d6
ram:0002a2e8    eca50200        addr        DAT_0002a5ec                            ;= 20003284h
                            ;************************************************************************************************
                            ;*                                           FUNCTION                                           *
                            ;************************************************************************************************
                            ;undefined LAB_0002a2ec+1(ushort param_1, undefined4 param_2, undefined4 param_3, uint param_4)
          ;param_1       ushort              r0                      
          ;param_2       undefined4          r1                      
          ;param_3       undefined4          r2                      
          ;param_4       uint                r3                      
          ;local_16      undefined2         -16                      ;XREF[1,0]:   0002a344
          ;local_18      undefined1         -18                      ;XREF[1,0]:   0002a340
                                                          ;XREF[0,2]:   000278a0,000278c4
ram:0002a2ec    f8b5            push        {param_4,r4,r5,r6,r7,lr}                
ram:0002a2ee    0546            mov         r5,param_1                              
ram:0002a2f0    80b2            uxth        param_1,param_1                         
ram:0002a2f2    fef711fa        bl          FUN_00028718                            ;ushort * FUN_00028718(uint param_1)
ram:0002a2f6    0400            movs        r4,param_1                              
ram:0002a2f8    13d0            beq         LAB_0002a322                            
ram:0002a2fa    154e            ldr         r6,[DAT_0002a350]                       ;= 20003020h
ram:0002a2fc    207a            ldrb        param_1,[r4,#0x8]                       
ram:0002a2fe    0027            movs        r7,#0x0                                 
ram:0002a300    317b            ldrb        param_2,[r6,#0xc]=>DAT_2000302c         
ram:0002a302    8842            cmp         param_1,param_2                         
ram:0002a304    0ed2            bcs         LAB_0002a324                            
ram:0002a306    a8b2            uxth        param_1,r5                              
ram:0002a308    04f10a01        add.w       param_2,r4,#0xa                         
ram:0002a30c    75df            svc         0x75                                    
ram:0002a30e    28b1            cbz         param_1,LAB_0002a31c                    
ram:0002a310    1128            cmp         param_1,#0x11                           
ram:0002a312    06d0            beq         LAB_0002a322                            
ram:0002a314    bde8f840        pop.w       {param_4,r4,r5,r6,r7,lr}                
ram:0002a318    fff756bd        b.w         FUN_00029dc8                            ;undefined FUN_00029dc8(void)
                            LAB_0002a31c:                 ;XREF[1,0]:   0002a30e
ram:0002a31c    207a            ldrb        param_1,[r4,#0x8]                       
ram:0002a31e    401c            adds        param_1,param_1,#0x1                    
ram:0002a320    2072            strb        param_1,[r4,#0x8]                       
                            LAB_0002a322:                 ;XREF[3,0]:   0002a2f8,0002a312,0002a33e
ram:0002a322    f8bd            pop         {param_4,r4,r5,r6,r7,pc}                
                            LAB_0002a324:                 ;XREF[1,0]:   0002a304
ram:0002a324    2772            strb        r7,[r4,#0x8]                            
ram:0002a326    307c            ldrb        param_1,[r6,#0x10]=>DAT_20003030        
ram:0002a328    38b1            cbz         param_1,LAB_0002a33a                    
ram:0002a32a    a8b2            uxth        param_1,r5                              
ram:0002a32c    3b21            movs        param_2,#0x3b                           
ram:0002a32e    76df            svc         0x76                                    
ram:0002a330    18b1            cbz         param_1,LAB_0002a33a                    
ram:0002a332    0828            cmp         param_1,#0x8                            
ram:0002a334    01d0            beq         LAB_0002a33a                            
ram:0002a336    fff747fd        bl          FUN_00029dc8                            ;undefined FUN_00029dc8(void)
                            LAB_0002a33a:                 ;XREF[3,0]:   0002a328,0002a330,0002a334
ram:0002a33a    7169            ldr         param_2,[r6,#0x14]=>DAT_20003034        
ram:0002a33c    0029            cmp         param_2,#0x0                            
ram:0002a33e    f0d0            beq         LAB_0002a322                            
ram:0002a340    8df80070        strb.w      r7,[sp,#0x0]=>local_18                  
ram:0002a344    adf80250        strh.w      r5,[sp,#local_16+0x18]                  
ram:0002a348    6846            mov         param_1,sp                              
ram:0002a34a    8847            blx         param_2                                 
ram:0002a34c    f8bd            pop         {param_4,r4,r5,r6,r7,pc}                
ram:0002a34e    0000            movs        r0,r0                                   
                            DAT_0002a350:                 ;XREF[1,0]:   0002a2fa
ram:0002a350    20300020        undefined4  20003020h                               
                            ;************************************************************************************************
                            ;*                                           FUNCTION                                           *
                            ;************************************************************************************************
                            ;undefined4 FUN_0002a354(int param_1)
          ;param_1       int                 r0                      
                                                          ;XREF[2,0]:   000277c4,00027802
ram:0002a354    4179            ldrb        r1,[param_1,#0x5]                       
ram:0002a356    39b1            cbz         r1,LAB_0002a368                         
ram:0002a358    90f85212        ldrb.w      r1,[param_1,#0x252]                     
ram:0002a35c    21b9            cbnz        r1,LAB_0002a368                         
ram:0002a35e    90f85402        ldrb.w      param_1,[param_1,#0x254]                
ram:0002a362    08b1            cbz         param_1,LAB_0002a368                    
ram:0002a364    0120            movs        param_1,#0x1                            
ram:0002a366    7047            bx          lr                                      
                            LAB_0002a368:                 ;XREF[3,0]:   0002a356,0002a35c,0002a362
ram:0002a368    0020            movs        param_1,#0x0                            
ram:0002a36a    7047            bx          lr                                      
                            ;************************************************************************************************
                            ;*                                           FUNCTION                                           *
                            ;************************************************************************************************
                            ;undefined FUN_0002a36c(int param_1)
          ;param_1       int                 r0                      
                                                          ;XREF[2,0]:   000290d8,00029148
ram:0002a36c    30b4            push        {r4,r5}                                 
ram:0002a36e    0446            mov         r4,param_1                              
ram:0002a370    007a            ldrb        param_1,[param_1,#0x8]                  
ram:0002a372    0028            cmp         param_1,#0x0                            
ram:0002a374    0ad0            beq         LAB_0002a38c                            
ram:0002a376    6088            ldrh        param_1,[r4,#0x2]                       
ram:0002a378    0021            movs        r1,#0x0                                 
ram:0002a37a    66df            svc         0x66                                    
ram:0002a37c    28b1            cbz         param_1,LAB_0002a38a                    
ram:0002a37e    1128            cmp         param_1,#0x11                           
ram:0002a380    02d0            beq         LAB_0002a388                            
ram:0002a382    6168            ldr         r1,[r4,#0x4]                            
ram:0002a384    30bc            pop         {r4,r5}                                 
ram:0002a386    0847            bx          r1                                      
                            LAB_0002a388:                 ;XREF[1,0]:   0002a380
ram:0002a388    0120            movs        param_1,#0x1                            
                            LAB_0002a38a:                 ;XREF[1,0]:   0002a37c
ram:0002a38a    2072            strb        param_1,[r4,#0x8]                       
                            LAB_0002a38c:                 ;XREF[1,0]:   0002a374
ram:0002a38c    30bc            pop         {r4,r5}                                 
ram:0002a38e    7047            bx          lr                                      
                            ;************************************************************************************************
                            ;*                                           FUNCTION                                           *
                            ;************************************************************************************************
                            ;char * FUN_0002a390(char * param_1)
          ;param_1       char *              r0                      
                                                          ;XREF[2,0]:   000271a6,0002a1dc
ram:0002a390    0a49            ldr         r1,[DAT_0002a3bc]                       ;= 20003160h
ram:0002a392    4a78            ldrb        r2,[r1,#0x1]=>DAT_20003161              
ram:0002a394    8b78            ldrb        r3,[r1,#0x2]=>DAT_20003162              
ram:0002a396    521c            adds        r2,r2,#0x1                              
ram:0002a398    d2b2            uxtb        r2,r2                                   
ram:0002a39a    9342            cmp         r3,r2                                   
ram:0002a39c    00d1            bne         LAB_0002a3a0                            
ram:0002a39e    0022            movs        r2,#0x0                                 
                            LAB_0002a3a0:                 ;XREF[1,0]:   0002a39c
ram:0002a3a0    0b78            ldrb        r3,[r1,#0x0]=>DAT_20003160              
ram:0002a3a2    9342            cmp         r3,r2                                   
ram:0002a3a4    01d1            bne         LAB_0002a3aa                            
ram:0002a3a6    0020            movs        param_1,#0x0                            
ram:0002a3a8    7047            bx          lr                                      
                            LAB_0002a3aa:                 ;XREF[1,0]:   0002a3a4
ram:0002a3aa    0270            strb        r2,[param_1,#0x0]                       
ram:0002a3ac    4878            ldrb        param_1,[r1,#0x1]=>DAT_20003161         
ram:0002a3ae    00eb4000        add.w       param_1,param_1,param_1, lsl #0x1       
ram:0002a3b2    01ebc000        add.w       param_1,r1,param_1, lsl #0x3            
ram:0002a3b6    001d            adds        param_1,param_1,#0x4                    
ram:0002a3b8    7047            bx          lr                                      
ram:0002a3ba    0000            movs        r0,r0                                   
                            DAT_0002a3bc:                 ;XREF[1,0]:   0002a390
ram:0002a3bc    60310020        undefined4  20003160h                               
                            ;************************************************************************************************
                            ;*                                           FUNCTION                                           *
                            ;************************************************************************************************
                            ;undefined8 FUN_0002a3c0(ushort * param_1, byte * param_2, byte * param_3, int param_4, ushort * param_5, byte * param_6)
          ;param_1       ushort *            r0                      
          ;param_2       byte *              r1                      
          ;param_3       byte *              r2                      
          ;param_4       int                 r3                      
          ;param_5       ushort *             0                      ;XREF[1,0]:   0002a3c6
          ;param_6       byte *               4                      
          ;local_20      undefined4         -20                      ;XREF[2,0]:   0002a3ca,0002a3dc
                                                          ;XREF[3,0]:   000273cc,000273e6,00027400
ram:0002a3c0    2de9fc41        push        {param_3,param_4,r4,r5,r6,r7,r8,lr}     
ram:0002a3c4    1646            mov         r6,param_3                              
ram:0002a3c6    dde90854        ldrd        r5,r4,[sp,#param_5+0x20]                
ram:0002a3ca    cde90054        strd        r5,r4,[sp,#0x0]=>local_20               
ram:0002a3ce    1f46            mov         r7,param_4                              
ram:0002a3d0    8046            mov         r8,param_1                              
ram:0002a3d2    0222            movs        param_3,#0x2                            
ram:0002a3d4    00f00cf8        bl          FUN_0002a3f0                            ;undefined8 FUN_0002a3f0(ushort * par...
ram:0002a3d8    0028            cmp         param_1,#0x0                            
ram:0002a3da    07d1            bne         LAB_0002a3ec                            
ram:0002a3dc    cde90054        strd        r5,r4,[sp,#0x0]=>local_20               
ram:0002a3e0    3b46            mov         param_4,r7                              
ram:0002a3e2    1022            movs        param_3,#0x10                           
ram:0002a3e4    3146            mov         param_2,r6                              
ram:0002a3e6    4046            mov         param_1,r8                              
ram:0002a3e8    00f002f8        bl          FUN_0002a3f0                            ;undefined8 FUN_0002a3f0(ushort * par...
                            LAB_0002a3ec:                 ;XREF[1,0]:   0002a3da
ram:0002a3ec    bde8fc81        pop.w       {param_3,param_4,r4,r5,r6,r7,r8,pc}     
                            ;************************************************************************************************
                            ;*                                           FUNCTION                                           *
                            ;************************************************************************************************
                            ;undefined8 FUN_0002a3f0(ushort * param_1, byte * param_2, uint param_3, int param_4, ushort * param_5, byte * param_6)
          ;param_1       ushort *            r0                      
          ;param_2       byte *              r1                      
          ;param_3       uint                r2                      
          ;param_4       int                 r3                      
          ;param_5       ushort *             0                      ;XREF[1,0]:   0002a3f6
          ;param_6       byte *               4                      
          ;local_2c      undefined4         -2c                      ;XREF[1,0]:   0002a416
          ;local_30      undefined1         -30                      ;XREF[2,0]:   0002a420,0002a460
                                                          ;XREF[2,0]:   0002a3d4,0002a3e8
ram:0002a3f0    2de9fc5f        push        {param_3,param_4,r4,r5,r6,r7,r8,r9,r1...
ram:0002a3f4    0026            movs        r6,#0x0                                 
ram:0002a3f6    dde90c4b        ldrd        r4,r11,[sp,#param_5+0x30]               
ram:0002a3fa    9946            mov         r9,param_4                              
ram:0002a3fc    9246            mov         r10,param_3                             
ram:0002a3fe    8e46            mov         lr,param_2                              
ram:0002a400    8046            mov         r8,param_1                              
ram:0002a402    2788            ldrh        r7,[r4,#0x0]                            
ram:0002a404    3546            mov         r5,r6                                   
ram:0002a406    30e0            b           LAB_0002a46a                            
                            LAB_0002a408:                 ;XREF[1,0]:   0002a470
ram:0002a408    d8f80400        ldr.w       param_1,[r8,#0x4]                       
ram:0002a40c    0022            movs        param_3,#0x0                            
ram:0002a40e    00eb8500        add.w       param_1,param_1,r5, lsl #0x2            
ram:0002a412    6946            mov         param_2,sp                              
ram:0002a414    0068            ldr         param_1,[param_1,#0x0]                  
ram:0002a416    0190            str         param_1,[sp,#local_2c+0x30]             
ram:0002a418    01a8            add         param_1,sp,#0x4                         
ram:0002a41a    64df            svc         0x64                                    
ram:0002a41c    0028            cmp         param_1,#0x0                            
ram:0002a41e    30d1            bne         LAB_0002a482                            
ram:0002a420    9df80000        ldrb.w      param_1,[sp,#0x0]=>local_30             
ram:0002a424    5045            cmp         param_1,r10                             
ram:0002a426    1fd1            bne         LAB_0002a468                            
ram:0002a428    0eb1            cbz         r6,LAB_0002a42e                         
ram:0002a42a    0021            movs        param_2,#0x0                            
ram:0002a42c    00e0            b           LAB_0002a430                            
                            LAB_0002a42e:                 ;XREF[1,0]:   0002a428
ram:0002a42e    0221            movs        param_2,#0x2                            
                            LAB_0002a430:                 ;XREF[1,0]:   0002a42c
ram:0002a430    2288            ldrh        param_3,[r4,#0x0]                       
ram:0002a432    0844            add         param_1,param_2                         
ram:0002a434    1118            adds        param_2,param_3,param_1                 
ram:0002a436    5945            cmp         param_2,r11                             
ram:0002a438    22d8            bhi         LAB_0002a480                            
ram:0002a43a    46b9            cbnz        r6,LAB_0002a44e                         
ram:0002a43c    521c            adds        param_3,param_3,#0x1                    
ram:0002a43e    90b2            uxth        param_1,param_3                         
ram:0002a440    2080            strh        param_1,[r4,#0x0]                       
ram:0002a442    09f800e0        strb.w      lr,r9,param_1,0x0                       
ram:0002a446    2088            ldrh        param_1,[r4,#0x0]                       
ram:0002a448    401c            adds        param_1,param_1,#0x1                    
ram:0002a44a    2080            strh        param_1,[r4,#0x0]                       
ram:0002a44c    0126            movs        r6,#0x1                                 
                            LAB_0002a44e:                 ;XREF[1,0]:   0002a43a
ram:0002a44e    2188            ldrh        param_2,[r4,#0x0]                       
ram:0002a450    01a8            add         param_1,sp,#0x4                         
ram:0002a452    01eb0902        add.w       param_3,param_2,r9                      
ram:0002a456    6946            mov         param_2,sp                              
ram:0002a458    64df            svc         0x64                                    
ram:0002a45a    0028            cmp         param_1,#0x0                            
ram:0002a45c    11d1            bne         LAB_0002a482                            
ram:0002a45e    2088            ldrh        param_1,[r4,#0x0]                       
ram:0002a460    9df80010        ldrb.w      param_2=>local_30,[sp,#0x0]             
ram:0002a464    0844            add         param_1,param_2                         
ram:0002a466    2080            strh        param_1,[r4,#0x0]                       
                            LAB_0002a468:                 ;XREF[1,0]:   0002a426
ram:0002a468    6d1c            adds        r5,r5,#0x1                              
                            LAB_0002a46a:                 ;XREF[1,0]:   0002a406
ram:0002a46a    b8f80000        ldrh.w      param_1,[r8,#0x0]                       
ram:0002a46e    a842            cmp         param_1,r5                              
ram:0002a470    cadc            bgt         LAB_0002a408                            
ram:0002a472    56b1            cbz         r6,LAB_0002a48a                         
ram:0002a474    2088            ldrh        param_1,[r4,#0x0]                       
ram:0002a476    c01b            subs        param_1,param_1,r7                      
ram:0002a478    401e            subs        param_1,param_1,#0x1                    
ram:0002a47a    80b2            uxth        param_1,param_1                         
ram:0002a47c    ff28            cmp         param_1,#0xff                           
ram:0002a47e    02d9            bls         LAB_0002a486                            
                            LAB_0002a480:                 ;XREF[1,0]:   0002a438
ram:0002a480    0c20            movs        param_1,#0xc                            
                            LAB_0002a482:                 ;XREF[3,0]:   0002a41e,0002a45c,0002a48c
ram:0002a482    bde8fc9f        pop.w       {param_3,param_4,r4,r5,r6,r7,r8,r9,r1...
                            LAB_0002a486:                 ;XREF[1,0]:   0002a47e
ram:0002a486    09f80700        strb.w      param_1,r9,r7,0x0                       
                            LAB_0002a48a:                 ;XREF[1,0]:   0002a472
ram:0002a48a    0020            movs        param_1,#0x0                            
ram:0002a48c    f9e7            b           LAB_0002a482                            
                            LAB_0002a48e:                 ;XREF[1,0]:   000281c2
ram:0002a48e    10b5            push        {r4,lr}                                 
ram:0002a490    0428            cmp         param_1,#0x4                            
ram:0002a492    17d2            bcs         LAB_0002a4c4                            
ram:0002a494    09b1            cbz         r1,LAB_0002a49a                         
ram:0002a496    0324            movs        r4,#0x3                                 
ram:0002a498    00e0            b           LAB_0002a49c                            
                            LAB_0002a49a:                 ;XREF[1,0]:   0002a494
ram:0002a49a    0024            movs        r4,#0x0                                 
                            LAB_0002a49c:                 ;XREF[1,0]:   0002a498
ram:0002a49c    fdf7cafc        bl          FUN_00027e34                            ;undefined FUN_00027e34(int param_1)
ram:0002a4a0    4ff0a041        mov.w       r1,#0x50000000                          
ram:0002a4a4    01eb8000        add.w       param_1,r1,param_1, lsl #0x2            
ram:0002a4a8    d0f80017        ldr.w       r1,[param_1,#0x700]                     
ram:0002a4ac    21f44031        bic         r1,r1,#0x30000                          
ram:0002a4b0    c0f80017        str.w       r1,[param_1,#0x700]                     
ram:0002a4b4    d0f80017        ldr.w       r1,[param_1,#0x700]                     
ram:0002a4b8    41ea0441        orr.w       r1,r1,r4, lsl #0x10                     
ram:0002a4bc    c0f80017        str.w       r1,[param_1,#0x700]                     
ram:0002a4c0    0020            movs        param_1,#0x0                            
ram:0002a4c2    10bd            pop         {r4,pc}                                 
                            LAB_0002a4c4:                 ;XREF[1,0]:   0002a492
ram:0002a4c4    0620            movs        param_1,#0x6                            
ram:0002a4c6    10bd            pop         {r4,pc}                                 
                            ;************************************************************************************************
                            ;*                                           FUNCTION                                           *
                            ;************************************************************************************************
                            ;undefined4 LAB_0002a4c8+1(void)
                                                          ;XREF[0,1]:   0002a614
ram:0002a4c8    0020            movs        r0,#0x0                                 
ram:0002a4ca    7047            bx          lr                                      
                            ;************************************************************************************************
                            ;*                                           FUNCTION                                           *
                            ;************************************************************************************************
                            ;undefined4 FUN_0002a4cc(undefined4 param_1, undefined4 param_2, undefined4 param_3, undefined * * param_4, undefined4 param_5)
          ;param_1       undefined4          r0                      
          ;param_2       undefined4          r1                      
          ;param_3       undefined4          r2                      
          ;param_4       undefined * *       r3                      
          ;param_5       undefined4           0                      ;XREF[1,0]:   0002a4dc
                                                          ;XREF[0,1]:   0002a608
ram:0002a4cc    2de9f84f        push        {param_4,r4,r5,r6,r7,r8,r9,r10,r11,lr}  
ram:0002a4d0    114d            ldr         r5,[PTR_DAT_0002a518]                   ;= 0002a5ec
ram:0002a4d2    8846            mov         r8,param_2                              
ram:0002a4d4    8146            mov         r9,param_1                              
ram:0002a4d6    1e46            mov         r6,param_4                              
ram:0002a4d8    1746            mov         r7,param_3                              
ram:0002a4da    6946            mov         param_2,sp                              
ram:0002a4dc    ddf828a0        ldr.w       r10,[sp,#param_5+0x28]                  
ram:0002a4e0    2868            ldr         param_1,[r5,#0x0]=>DAT_0002a5ec         ;= 20003284h
ram:0002a4e2    fef783fc        bl          FUN_00028dec                            ;int FUN_00028dec(int * param_1, uint...
ram:0002a4e6    0400            movs        r4,param_1                              
ram:0002a4e8    13d0            beq         LAB_0002a512                            
ram:0002a4ea    1c21            movs        param_2,#0x1c                           
ram:0002a4ec    fbf7e3ff        bl          FUN_000264b6                            ;undefined FUN_000264b6(undefined * p...
ram:0002a4f0    0020            movs        param_1,#0x0                            
ram:0002a4f2    2071            strb        param_1,[r4,#0x4]                       
ram:0002a4f4    c4f80090        str.w       r9,[r4,#0x0]                            
ram:0002a4f8    c4e90486        strd        r8,r6,[r4,#0x10]                        
ram:0002a4fc    c4e902a7        strd        r10,r7,[r4,#0x8]                        
ram:0002a500    6946            mov         param_2,sp                              
ram:0002a502    2868            ldr         param_1,[r5,#0x0]=>DAT_0002a5ec         ;= 20003284h
ram:0002a504    fef793fc        bl          FUN_00028e2e                            ;undefined4 FUN_00028e2e(int param_1,...
ram:0002a508    fff7cefb        bl          FUN_00029ca8                            ;undefined * * * FUN_00029ca8(undefin...
ram:0002a50c    0020            movs        param_1,#0x0                            
                            LAB_0002a50e:                 ;XREF[1,0]:   0002a514
ram:0002a50e    bde8f88f        pop.w       {param_4,r4,r5,r6,r7,r8,r9,r10,r11,pc}  
                            LAB_0002a512:                 ;XREF[1,0]:   0002a4e8
ram:0002a512    0420            movs        param_1,#0x4                            
ram:0002a514    fbe7            b           LAB_0002a50e                            
ram:0002a516    0000            movs        r0,r0                                   
                            PTR_DAT_0002a518:             ;XREF[1,0]:   0002a4d0
ram:0002a518    eca50200        addr        DAT_0002a5ec                            ;= 20003284h
                            LAB_0002a520:                 ;XREF[2,0]:   000298b4,0002a522
ram:0002a520    0338            subs        param_1,#0x3                            
ram:0002a522    fdd8            bhi         LAB_0002a520                            
ram:0002a524    7047            bx          lr                                      
ram:0002a526    0000            movs        r0,r0                                   
                            DAT_0002a528:                 ;XREF[6,0]:   00026f68,00026f76,00026f92,00026f98
                                                          ;             00026fa0,00026ff8
ram:0002a528    00900040        undefined4  40009000h                               
                            DAT_0002a530:                 ;XREF[4,0]:   00026fba,00026fca,00026fe8,00026ff0
ram:0002a530    00a00040        undefined4  4000A000h                               
                            DAT_0002a538:                 ;XREF[1,0]:   00026f5e
ram:0002a538    04000006        undefined4  06000004h                               
                            DAT_0002a53c:                 ;XREF[1,0]:   00026f5e
ram:0002a53c    00000000        undefined4  00000000h                               
                            DAT_0002a540:                 ;XREF[1,0]:   00026fae
ram:0002a540    04000006        undefined4  06000004h                               
                            DAT_0002a544:                 ;XREF[1,0]:   00026fae
ram:0002a544    00000000        undefined4  00000000h                               
                            LAB_0002a550:                 ;XREF[2,0]:   000298c4,0002a552
ram:0002a550    0338            subs        param_1,#0x3                            
ram:0002a552    fdd8            bhi         LAB_0002a550                            
ram:0002a554    7047            bx          lr                                      
                            ;************************************************************************************************
                            ;*                                           FUNCTION                                           *
                            ;************************************************************************************************
                            ;undefined FUN_0002a556(undefined4 param_1, undefined4 param_2, int param_3)
          ;param_1       undefined4          r0                      
          ;param_2       undefined4          r1                      
          ;param_3       int                 r2                      
                                                          ;XREF[8,0]:   00027e42,00027e60,00027e66,00027e70
                                                          ;             00027e76,00027e80,00027e86,00027ea0
ram:0002a556    1112            asrs        param_2,param_3,#0x8                    
ram:0002a558    1314            asrs        r3,param_3,#0x10                        
                            DAT_0002a55a:                 ;XREF[4,0]:   00027e36,00027e3c,00027ed4,00027ee8
ram:0002a55a    0d              undefined1  0Dh                                     
                            DAT_0002a55b:                 ;XREF[1,0]:   00027ed4
ram:0002a55b    0e              undefined1  0Eh                                     
                            DAT_0002a560:                 ;XREF[5,0]:   00027f22,00027f90,00028042,000280ee
                                                          ;             000281bc
ram:0002a560    802f0020        undefined4  20002F80h                               
                            DAT_0002a564:                 ;XREF[2,0]:   0002812e,00028174
ram:0002a564    a02f0020        undefined4  20002FA0h                               
                            DAT_0002a568:                 ;XREF[2,0]:   00027f62,00027f76
ram:0002a568    cc2f0020        undefined4  20002FCCh                               
                            DAT_0002a58c:                 ;XREF[2,0]:   00028fb0,0002907c
ram:0002a58c    770a0000        undefined4  00000A77h                               
                            DAT_0002a590:                 ;XREF[1,0]:   00028fb0
ram:0002a590    00000000        undefined4  00000000h                               
                            DAT_0002a594:                 ;XREF[1,0]:   00029004
ram:0002a594    770a0000        undefined4  00000A77h                               
                            DAT_0002a598:                 ;XREF[1,0]:   00029004
ram:0002a598    00000000        undefined4  00000000h                               
                            DAT_0002a59c:                 ;XREF[1,0]:   0002903e
ram:0002a59c    7ada0000        undefined4  0000DA7Ah                               
                            DAT_0002a5a0:                 ;XREF[1,0]:   0002903e
ram:0002a5a0    00000000        undefined4  00000000h                               
                            DAT_0002a5a4:                 ;XREF[2,0]:   00027ce8,00027db8
ram:0002a5a4    eb532d21        undefined4  212D53EBh                               
                            DAT_0002a5a8:                 ;XREF[1,0]:   00027ce8
ram:0002a5a8    d4e1e1cb        undefined4  CBE1E1D4h                               
                            DAT_0002a5ac:                 ;XREF[1,0]:   00027ce8
ram:0002a5ac    289a008a        undefined4  8A009A28h                               
                            DAT_0002a5b0:                 ;XREF[1,0]:   00027ce8
ram:0002a5b0    00002f44        undefined4  442F0000h                               
                            DAT_0002a5b4:                 ;XREF[2,0]:   000294b0,000294cc
ram:0002a5b4    00000050        undefined4  50000000h                               
                            LAB_0002a5c0:                 ;XREF[2,0]:   000298d4,0002a5c2
ram:0002a5c0    0338            subs        param_1,#0x3                            
ram:0002a5c2    fdd8            bhi         LAB_0002a5c0                            
ram:0002a5c4    7047            bx          lr                                      
ram:0002a5c6    0000            movs        r0,r0                                   
                            ;************************************************************************************************
                            ;*                                           FUNCTION                                           *
                            ;************************************************************************************************
                            ;undefined FUN_0002a5c8(void)
                                                          ;XREF[1,0]:   0002a5e0
ram:0002a5c8    0000            movs        r0,r0                                   
ram:0002a5ca    0000            movs        r0,r0                                   
ram:0002a5cc    0000            movs        r0,r0                                   
ram:0002a5ce    0000            movs        r0,r0                                   
ram:0002a5d0    0000            movs        r0,r0                                   
ram:0002a5d2    0000            movs        r0,r0                                   
ram:0002a5d4    0000            movs        r0,r0                                   
ram:0002a5d6    0000            movs        r0,r0                                   
ram:0002a5d8    0000            movs        r0,r0                                   
ram:0002a5da    0000            movs        r0,r0                                   
ram:0002a5dc    0000            movs        r0,r0                                   
ram:0002a5de    0000            movs        r0,r0                                   
                            PTR_FUN_0002a5e0:             ;XREF[3,0]:   00029504,00029514,0002a5e4
ram:0002a5e0    c8a50200        addr        FUN_0002a5c8                            
ram:0002a5e4    e0a50200        addr        PTR_FUN_0002a5e0                        ;= 0002a5c8
                            DAT_0002a5ec:                 ;XREF[13,0]:  000285dc,00028600,00028614,00028704
                                                          ;             00029bf8,00029c04,00029c1c,00029ca4
                                                          ;             0002a2d8,0002a2e8,0002a4e0,0002a502
                                                          ;             0002a518
ram:0002a5ec    84320020        undefined4  20003284h                               
                            DAT_0002a5f0:                 ;XREF[3,0]:   000286e6,000286e8,00028710
                            PTR_FUN_000286e4+1_0002a5fc:  ;XREF[2,0]:   00028a60,00028c54
ram:0002a5fc    e5860200        addr        FUN_000286e4+1                          
ram:0002a600    cda20200        addr        LAB_0002a2cc+1+1                        
ram:0002a604    cd9c0200        addr        FUN_00029ccc+1                          
ram:0002a608    cda40200        addr        FUN_0002a4cc+1                          
ram:0002a60c    cd850200        addr        FUN_000285cc+1                          
ram:0002a610    db9c0200        addr        LAB_00029cda+1+1                        
ram:0002a614    c9a40200        addr        LAB_0002a4c8+1+1                        
ram:0002a618    75870200        addr        LAB_00028774+1+1                        
                            PTR_PTR_LAB_000292a8+1+1_00...;XREF[1,0]:   0002a630
ram:0002a61c    20a70200        addr        PTR_LAB_000292a8+1+1_0002a720           ;= 000292a9
ram:0002a620    28a70200        addr        PTR_LAB_00029f28+1+1_0002a728           ;= 00029f29
                            DAT_0002a62c:                 ;XREF[3,0]:   00029700,00029748,0002a634
ram:0002a62c    01000007        undefined4  07000001h                               
                            PTR_PTR_0002a630:             ;XREF[2,0]:   00029d70,00029d98
ram:0002a630    1ca60200        addr        PTR_PTR_LAB_000292a8+1+1_0002a61c       ;= 0002a720
ram:0002a634    2ca60200        addr        DAT_0002a62c                            ;= 07000001h
                            PTR_PTR_0002a63c:             ;XREF[2,0]:   00029da0,00029dc4
ram:0002a63c    54a60200        addr        PTR_PTR_LAB_00029d1c+1+1_0002a654       ;= 0002a750
ram:0002a640    64a60200        addr        PTR_PTR_FUN_00029628+1_0002a664         ;= 0002a740
                            PTR_PTR_0002a648:             ;XREF[2,0]:   00029752,00029770
ram:0002a648    64a60200        addr        PTR_PTR_FUN_00029628+1_0002a664         ;= 0002a740
ram:0002a64c    74a60200        addr        PTR_DAT_0002a674                        ;= 0002a6e0
                            PTR_PTR_LAB_00029d1c+1+1_00...;XREF[1,0]:   0002a63c
ram:0002a654    50a70200        addr        PTR_LAB_00029d1c+1+1_0002a750           ;= 00029d1d
ram:0002a658    60a70200        addr        DAT_0002a760                            ;= D0h
                            PTR_PTR_FUN_00029628+1_0002...;XREF[2,0]:   0002a640,0002a648
ram:0002a664    40a70200        addr        PTR_FUN_00029628+1_0002a740             ;= 00029629
ram:0002a668    50a70200        addr        PTR_LAB_00029d1c+1+1_0002a750           ;= 00029d1d
                            PTR_DAT_0002a674:             ;XREF[2,0]:   0002a64c,0002a698
ram:0002a674    e0a60200        addr        DAT_0002a6e0                            ;= 75h    u
ram:0002a678    e8a60200        addr        DAT_0002a6e8                            ;= 0Dh
ram:0002a67c    e8a60200        addr        DAT_0002a6e8                            ;= 0Dh
ram:0002a680    08a70200        addr        DAT_0002a708                            ;= BDh
ram:0002a684    08a70200        addr        DAT_0002a708                            ;= BDh
ram:0002a688    18a70200        addr        DAT_0002a718                            ;= 51h    Q
ram:0002a68c    18a70200        addr        DAT_0002a718                            ;= 51h    Q
ram:0002a690    20a70200        addr        PTR_LAB_000292a8+1+1_0002a720           ;= 000292a9
                            DAT_0002a694:                 ;XREF[3,0]:   00029568,00029574,0002a69c
ram:0002a694    982a0020        undefined4  20002A98h                               
                            PTR_PTR_DAT_0002a698:         ;XREF[2,0]:   0002965a,00029684
ram:0002a698    74a60200        addr        PTR_DAT_0002a674                        ;= 0002a6e0
ram:0002a69c    94a60200        addr        DAT_0002a694                            ;= 20002A98h
                            PTR_PTR_LAB_00029f28+1+1_00...;XREF[1,0]:   0002a6b4
ram:0002a6a4    28a70200        addr        PTR_LAB_00029f28+1+1_0002a728           ;= 00029f29
ram:0002a6a8    38a70200        addr        PTR_LAB_00027630+1+1_0002a738           ;= 00027631
ram:0002a6ac    38a70200        addr        PTR_LAB_00027630+1+1_0002a738           ;= 00027631
ram:0002a6b0    40a70200        addr        PTR_FUN_00029628+1_0002a740             ;= 00029629
                            PTR_PTR_0002a6b4:             ;XREF[1,0]:   0002a6b8
ram:0002a6b4    a4a60200        addr        PTR_PTR_LAB_00029f28+1+1_0002a6a4       ;= 0002a728
ram:0002a6b8    b4a60200        addr        PTR_PTR_0002a6b4                        ;= 0002a6a4
                            PTR_DAT_0002a6c0:             ;XREF[1,0]:   000264d8
ram:0002a6c0    60a70200        addr        DAT_0002a760                            ;= D0h
                            DAT_0002a6c4:                 ;XREF[1,0]:   000264d8
ram:0002a6c4    982a0020        undefined4  20002A98h                               
                            DAT_0002a6c8:                 ;XREF[1,0]:   000264d8
ram:0002a6c8    d8000000        undefined4  000000D8h                               
                            PTR_thunk_FUN_00027014_0002...;XREF[1,0]:   000264d2
ram:0002a6cc    0c700200        addr        thunk_FUN_00027014                      
                            DAT_0002a6e0:                 ;XREF[1,0]:   0002a674
                            DAT_0002a6e8:                 ;XREF[2,0]:   0002a678,0002a67c
                            DAT_0002a708:                 ;XREF[2,0]:   0002a680,0002a684
                            DAT_0002a718:                 ;XREF[2,0]:   0002a688,0002a68c
                            PTR_LAB_000292a8+1+1_0002a720:;XREF[2,0]:   0002a61c,0002a690
ram:0002a720    a9920200        addr        LAB_000292a8+1+1                        
                            PTR_LAB_00029f28+1+1_0002a728:;XREF[2,0]:   0002a620,0002a6a4
ram:0002a728    299f0200        addr        LAB_00029f28+1+1                        
                            PTR_LAB_00027630+1+1_0002a738:;XREF[2,0]:   0002a6a8,0002a6ac
ram:0002a738    31760200        addr        LAB_00027630+1+1                        
                            PTR_FUN_00029628+1_0002a740:  ;XREF[2,0]:   0002a664,0002a6b0
ram:0002a740    29960200        addr        FUN_00029628+1                          
                            PTR_LAB_00029d1c+1+1_0002a750:;XREF[2,0]:   0002a654,0002a668
ram:0002a750    1d9d0200        addr        LAB_00029d1c+1+1                        
                            DAT_0002a760:                 ;XREF[3,0]:   000264d8,0002a658,0002a6c0
