                            MasterStackPointer:           
ram:08000c00    a2f700b0        addr        DAT_b000f7a2                            
                            Reset:                        ;XREF[1,0]:   Entry Point
ram:08000c04    38490000        addr        DAT_00004938                            
                            NMI:                          ;XREF[1,0]:   Entry Point
ram:08000c08    2e000000        addr        DAT_0000002e                            
                            HardFault:                    ;XREF[1,0]:   Entry Point
ram:08000c0c    00000000        addr        00000000                                
                            MemManage:                    ;XREF[1,0]:   Entry Point
ram:08000c10    b0080020        addr        DAT_200008b0                            
                            BusFault:                     ;XREF[1,0]:   Entry Point
ram:08000c14    fd500008        addr        FUNC_Reset_080050fc+1                   
                            UsageFault:                   ;XREF[1,0]:   Entry Point
ram:08000c18    23510008        addr        FUNC_NMI_08005122+1                     
                            Reserved1:                    ;XREF[1,0]:   Entry Point
ram:08000c1c    25510008        addr        FUNC_HardFault_08005124+1               
                            Reserved2:                    ;XREF[1,0]:   Entry Point
ram:08000c20    00000000        addr        00000000                                
                            Reserved3:                    ;XREF[1,0]:   Entry Point
ram:08000c24    00000000        addr        00000000                                
                            Reserved5:                    ;XREF[1,0]:   Entry Point
                            Reserved6:                    
                            Reserved4:                    
ram:08000c28    00000000        addr        00000000                                
                            SVCall:                       ;XREF[1,0]:   Entry Point
ram:08000c2c    00000000        addr        00000000                                
ram:08000c30    00000000        addr        00000000                                
ram:08000c34    00000000        addr        00000000                                
                            ;************************************************************************************************
                            ;*                                           FUNCTION                                           *
                            ;************************************************************************************************
                            ;undefined PendSV(undefined4 param_1, undefined4 param_2)
          ;param_1       undefined4          r0                      
          ;param_2       undefined4          r1                      
                                                          ;XREF[1,0]:   Entry Point
ram:08000c38    00000000        addr        00000000                                
                            ;************************************************************************************************
                            ;*                                           FUNCTION                                           *
                            ;************************************************************************************************
                            ;undefined SysTick(undefined4 param_1, undefined4 param_2, undefined4 param_3, uint param_4)
          ;param_1       undefined4          r0                      
          ;param_2       undefined4          r1                      
          ;param_3       undefined4          r2                      
          ;param_4       uint                r3                      
                                                          ;XREF[1,0]:   Entry Point
ram:08000c3c    27510008        addr        FUNC_SVCall_08005126+1                  
                            IRQ:                          ;XREF[1,0]:   Entry Point
ram:08000c40    00000000        addr        00000000                                
ram:08000c44    00000000        addr        00000000                                
ram:08000c48    29510008        addr        FUNC_PendSV_08005128+1                  
ram:08000c4c    234a0008        addr        FUNC_SysTick_08004a22+1                 
ram:08000c50    2d510008        addr        FUNC_IRQ_0800512c+1                     
ram:08000c54    00000000        addr        00000000                                
ram:08000c58    2d510008        addr        FUNC_IRQ_0800512c+1                     
ram:08000c5c    2d510008        addr        FUNC_IRQ_0800512c+1                     
ram:08000c60    2d510008        addr        FUNC_IRQ_0800512c+1                     
ram:08000c64    2d510008        addr        FUNC_IRQ_0800512c+1                     
ram:08000c68    2d510008        addr        FUNC_IRQ_0800512c+1                     
ram:08000c6c    2d510008        addr        FUNC_IRQ_0800512c+1                     
ram:08000c70    00000000        addr        00000000                                
ram:08000c74    2d510008        addr        FUNC_IRQ_0800512c+1                     
ram:08000c78    2d510008        addr        FUNC_IRQ_0800512c+1                     
ram:08000c7c    2d510008        addr        FUNC_IRQ_0800512c+1                     
ram:08000c80    2d510008        addr        FUNC_IRQ_0800512c+1                     
ram:08000c84    2d510008        addr        FUNC_IRQ_0800512c+1                     
ram:08000c88    2d510008        addr        FUNC_IRQ_0800512c+1                     
ram:08000c8c    00000000        addr        00000000                                
ram:08000c90    212a0008        addr        FUNC_VT_08002a20+1                      
ram:08000c94    00000000        addr        00000000                                
ram:08000c98    00000000        addr        00000000                                
ram:08000c9c    2d510008        addr        FUNC_IRQ_0800512c+1                     
ram:08000ca0    2d510008        addr        FUNC_IRQ_0800512c+1                     
ram:08000ca4    2d510008        addr        FUNC_IRQ_0800512c+1                     
ram:08000ca8    2d510008        addr        FUNC_IRQ_0800512c+1                     
ram:08000cac    2d510008        addr        FUNC_IRQ_0800512c+1                     
ram:08000cb0    2d510008        addr        FUNC_IRQ_0800512c+1                     
ram:08000cb4    2d510008        addr        FUNC_IRQ_0800512c+1                     
ram:08000cb8    2d510008        addr        FUNC_IRQ_0800512c+1                     
ram:08000cbc    75260008        addr        FUNC_VT_08002674+1                      
ram:08000cc0    2d510008        addr        FUNC_IRQ_0800512c+1                     
                            ;************************************************************************************************
                            ;*                                           FUNCTION                                           *
                            ;************************************************************************************************
                            ;undefined FUN_08000cc4(undefined4 param_1, undefined4 param_2, undefined * param_3, uint param_4)
          ;param_1       undefined4          r0                      
          ;param_2       undefined4          r1                      
          ;param_3       undefined *         r2                      
          ;param_4       uint                r3                      
                                                          ;XREF[1,0]:   08005120
ram:08000cc4    0348            ldr         param_1,[DAT_08000cd4]                  ;= 200008B0h
ram:08000cc6    8546            mov         sp,param_1                              
ram:08000cc8    04f038fb        bl          FUN_0800533c                            ;undefined FUN_0800533c(undefined4 pa...
                            ;************************************************************************************************
                            ;*                                           FUNCTION                                           *
                            ;************************************************************************************************
                            ;undefined thunk_FUN_08004a56(void)
                                                          ;XREF[1,0]:   08005354
ram:08000ccc    0048            ldr         r0,[DAT_08000cd0]                       ;= 08004A57h
ram:08000cce    0047            bx          r0=>FUN_08004a56                        ;undefined FUN_08004a56(void)
                            DAT_08000cd0:                 ;XREF[1,0]:   08000ccc
ram:08000cd0    574a0008        undefined4  08004A57h                               ;?  ->  08004a57
                            DAT_08000cd4:                 ;XREF[1,0]:   08000cc4
ram:08000cd4    b0080020        undefined4  200008B0h                               
                            ;************************************************************************************************
                            ;*                                           FUNCTION                                           *
                            ;************************************************************************************************
                            ;undefined FUN_08000cd8(void)
          ;local_1c      undefined4         -1c                      ;XREF[2,0]:   08000ce0,08000e12
          ;local_20      undefined4         -20                      ;XREF[3,0]:   08000cea,08000d62,08000d76
                                                          ;XREF[1,0]:   08003488
ram:08000cd8    f0b5            push        {r4,r5,r6,r7,lr}                        
ram:08000cda    ff4c            ldr         r4,[DAT_080010d8]                       ;= 200000C4h
ram:08000cdc    83b0            sub         sp,#0xc                                 
ram:08000cde    e068            ldr         r0,[r4,#0xc]=>DAT_200000d0              
ram:08000ce0    0190            str         r0,[sp,#local_1c+0x20]                  
ram:08000ce2    fe48            ldr         r0,[DAT_080010dc]                       ;= 20000204h
ram:08000ce4    fe4b            ldr         r3=>DAT_20000238,[DAT_080010e0]         ;= 20000238h
ram:08000ce6    0068            ldr         r0,[r0,#0x0]=>DAT_20000204              
ram:08000ce8    e060            str         r0,[r4,#0xc]=>DAT_200000d0              
ram:08000cea    0090            str         r0,[sp,#0x0]=>local_20                  
ram:08000cec    0020            movs        r0,#0x0                                 
ram:08000cee    6060            str         r0,[r4,#0x4]=>DAT_200000c8              
ram:08000cf0    a060            str         r0,[r4,#0x8]=>DAT_200000cc              
ram:08000cf2    fc4a            ldr         r2,[DAT_080010e4]                       ;= 20000260h
ram:08000cf4    1868            ldr         r0,[r3,#0x0]=>DAT_20000238              
ram:08000cf6    6060            str         r0,[r4,#0x4]=>DAT_200000c8              
ram:08000cf8    1168            ldr         r1,[r2,#0x0]=>DAT_20000260              
ram:08000cfa    a160            str         r1,[r4,#0x8]=>DAT_200000cc              
ram:08000cfc    5e68            ldr         r6,[r3,#0x4]=>DAT_2000023c              
ram:08000cfe    5568            ldr         r5,[r2,#0x4]=>DAT_20000264              
ram:08000d00    0424            movs        r4,#0x4                                 
                            LAB_08000d02:                 ;XREF[1,0]:   08000d20
                                                          ; FWD[2,0]:   20000240,20000248
ram:08000d02    9f68            ldr         r7,[r3,#0x8]=>DAT_20000240              
ram:08000d04    3043            orrs        r0,r6                                   
ram:08000d06    be46            mov         lr,r7                                   
                                                          ; FWD[2,0]:   20000268,20000270
ram:08000d08    9768            ldr         r7,[r2,#0x8]=>DAT_20000268              
ram:08000d0a    2943            orrs        r1,r5                                   
ram:08000d0c    bc46            mov         r12,r7                                  
ram:08000d0e    7746            mov         r7,lr                                   
ram:08000d10    3843            orrs        r0,r7                                   
                                                          ; FWD[2,0]:   20000244,2000024c
ram:08000d12    de68            ldr         r6,[r3,#0xc]=>DAT_20000244              
ram:08000d14    6746            mov         r7,r12                                  
                                                          ; FWD[2,0]:   2000026c,20000274
ram:08000d16    d568            ldr         r5,[r2,#0xc]=>DAT_2000026c              
ram:08000d18    3943            orrs        r1,r7                                   
ram:08000d1a    0832            adds        r2,#0x8                                 
ram:08000d1c    0833            adds        r3,#0x8                                 
ram:08000d1e    641e            subs        r4,r4,#0x1                              
ram:08000d20    efd1            bne         LAB_08000d02                            
ram:08000d22    ef4b            ldr         r3=>DAT_20000238,[DAT_080010e0]         ;= 20000238h
ram:08000d24    ec4a            ldr         r2,[DAT_080010d8]                       ;= 200000C4h
ram:08000d26    5c6a            ldr         r4,[r3,#0x24]=>DAT_2000025c             
ram:08000d28    0025            movs        r5,#0x0                                 
ram:08000d2a    0443            orrs        r4,r0                                   
ram:08000d2c    ed48            ldr         r0,[DAT_080010e4]                       ;= 20000260h
ram:08000d2e    5460            str         r4,[r2,#0x4]=>DAT_200000c8              
ram:08000d30    406a            ldr         r0,[r0,#0x24]=>DAT_20000284             
ram:08000d32    0843            orrs        r0,r1                                   
ram:08000d34    9060            str         r0,[r2,#0x8]=>DAT_200000cc              
ram:08000d36    1d60            str         r5,[r3,#0x0]=>DAT_20000238              
ram:08000d38    5d60            str         r5,[r3,#0x4]=>DAT_2000023c              
ram:08000d3a    9d60            str         r5,[r3,#0x8]=>DAT_20000240              
ram:08000d3c    dd60            str         r5,[r3,#0xc]=>DAT_20000244              
ram:08000d3e    1d61            str         r5,[r3,#0x10]=>DAT_20000248             
ram:08000d40    5d61            str         r5,[r3,#0x14]=>DAT_2000024c             
ram:08000d42    9d61            str         r5,[r3,#0x18]=>DAT_20000250             
ram:08000d44    dd61            str         r5,[r3,#0x1c]=>DAT_20000254             
ram:08000d46    1d62            str         r5,[r3,#0x20]=>DAT_20000258             
ram:08000d48    5d62            str         r5,[r3,#0x24]=>DAT_2000025c             
ram:08000d4a    9d62            str         r5,[r3,#0x28]=>DAT_20000260             
ram:08000d4c    dd62            str         r5,[r3,#0x2c]=>DAT_20000264             
ram:08000d4e    1d63            str         r5,[r3,#0x30]=>DAT_20000268             
ram:08000d50    5d63            str         r5,[r3,#0x34]=>DAT_2000026c             
ram:08000d52    9d63            str         r5,[r3,#0x38]=>DAT_20000270             
ram:08000d54    dd63            str         r5,[r3,#0x3c]=>DAT_20000274             
ram:08000d56    1d64            str         r5,[r3,#0x40]=>DAT_20000278             
ram:08000d58    5d64            str         r5,[r3,#0x44]=>DAT_2000027c             
ram:08000d5a    9d64            str         r5,[r3,#0x48]=>DAT_20000280             
ram:08000d5c    dd64            str         r5,[r3,#0x4c]=>DAT_20000284             
ram:08000d5e    9561            str         r5,[r2,#0x18]=>DAT_200000dc             
ram:08000d60    d561            str         r5,[r2,#0x1c]=>DAT_200000e0             
ram:08000d62    0098            ldr         r0,[sp,#0x0]=>local_20                  
ram:08000d64    2043            orrs        r0,r4                                   
ram:08000d66    01d0            beq         LAB_08000d6c                            
ram:08000d68    0120            movs        r0,#0x1                                 
ram:08000d6a    1070            strb        r0,[r2,#0x0]=>DAT_200000c4              
                            LAB_08000d6c:                 ;XREF[1,0]:   08000d66
ram:08000d6c    de4c            ldr         r4,[DAT_080010e8]                       ;= 20000388h
ram:08000d6e    0720            movs        r0,#0x7                                 
ram:08000d70    6070            strb        r0,[r4,#0x1]=>DAT_20000389              
ram:08000d72    1c20            movs        r0,#0x1c                                
ram:08000d74    2070            strb        r0,[r4,#0x0]=>DAT_20000388              
ram:08000d76    0099            ldr         r1,[sp,#0x0]=>local_20                  
ram:08000d78    2046            mov         r0,r4                                   
ram:08000d7a    8170            strb        r1,[r0,#0x2]=>DAT_2000038a              
ram:08000d7c    0a0a            lsrs        r2,r1,#0x8                              
ram:08000d7e    c270            strb        r2,[r0,#0x3]=>DAT_2000038b              
ram:08000d80    0a0c            lsrs        r2,r1,#0x10                             
ram:08000d82    0271            strb        r2,[r0,#0x4]=>DAT_2000038c              
ram:08000d84    090e            lsrs        r1,r1,#0x18                             
ram:08000d86    4171            strb        r1,[r0,#0x5]=>DAT_2000038d              
ram:08000d88    d849            ldr         r1,[DAT_080010ec]                       ;= 20000208h
ram:08000d8a    0968            ldr         r1,[r1,#0x0]=>DAT_20000208              
ram:08000d8c    8171            strb        r1,[r0,#0x6]=>DAT_2000038e              
ram:08000d8e    0a0a            lsrs        r2,r1,#0x8                              
ram:08000d90    c271            strb        r2,[r0,#0x7]=>DAT_2000038f              
ram:08000d92    0a0c            lsrs        r2,r1,#0x10                             
ram:08000d94    0272            strb        r2,[r0,#0x8]=>DAT_20000390              
ram:08000d96    090e            lsrs        r1,r1,#0x18                             
ram:08000d98    4172            strb        r1,[r0,#0x9]=>DAT_20000391              
ram:08000d9a    cf48            ldr         r0,[DAT_080010d8]                       ;= 200000C4h
ram:08000d9c    008d            ldrh        r0,[r0,#0x28]=>DAT_200000ec             
ram:08000d9e    a072            strb        r0,[r4,#0xa]=>DAT_20000392              
ram:08000da0    0020            movs        r0,#0x0                                 
ram:08000da2    02f0c9f8        bl          FUN_08002f38                            ;int FUN_08002f38(int param_1)
ram:08000da6    2746            mov         r7,r4                                   
ram:08000da8    f872            strb        r0,[r7,#0xb]=>DAT_20000393              
ram:08000daa    000a            lsrs        r0,r0,#0x8                              
ram:08000dac    3873            strb        r0,[r7,#0xc]=>DAT_20000394              
ram:08000dae    0120            movs        r0,#0x1                                 
ram:08000db0    02f0c2f8        bl          FUN_08002f38                            ;int FUN_08002f38(int param_1)
ram:08000db4    2646            mov         r6,r4                                   
ram:08000db6    7073            strb        r0,[r6,#0xd]=>DAT_20000395              
ram:08000db8    000a            lsrs        r0,r0,#0x8                              
ram:08000dba    b073            strb        r0,[r6,#0xe]=>DAT_20000396              
ram:08000dbc    0220            movs        r0,#0x2                                 
ram:08000dbe    02f0bbf8        bl          FUN_08002f38                            ;int FUN_08002f38(int param_1)
ram:08000dc2    f873            strb        r0,[r7,#0xf]=>DAT_20000397              
ram:08000dc4    000a            lsrs        r0,r0,#0x8                              
ram:08000dc6    3874            strb        r0,[r7,#0x10]=>DAT_20000398             
ram:08000dc8    0320            movs        r0,#0x3                                 
ram:08000dca    02f0b5f8        bl          FUN_08002f38                            ;int FUN_08002f38(int param_1)
ram:08000dce    7074            strb        r0,[r6,#0x11]=>DAT_20000399             
ram:08000dd0    000a            lsrs        r0,r0,#0x8                              
ram:08000dd2    b074            strb        r0,[r6,#0x12]=>DAT_2000039a             
ram:08000dd4    c649            ldr         r1,[DAT_080010f0]                       ;= 200001FCh
ram:08000dd6    e07c            ldrb        r0,[r4,#0x13]=>DAT_2000039b             
ram:08000dd8    0978            ldrb        r1,[r1,#0x0]=>DAT_200001fc              
ram:08000dda    4008            lsrs        r0,r0,#0x1                              
ram:08000ddc    c907            lsls        r1,r1,#0x1f                             
ram:08000dde    4000            lsls        r0,r0,#0x1                              
ram:08000de0    c90f            lsrs        r1,r1,#0x1f                             
ram:08000de2    0843            orrs        r0,r1                                   
ram:08000de4    bc49            ldr         r1,[DAT_080010d8]                       ;= 200000C4h
ram:08000de6    e074            strb        r0,[r4,#0x13]=>DAT_2000039b             
ram:08000de8    0978            ldrb        r1,[r1,#0x0]=>DAT_200000c4              
ram:08000dea    0129            cmp         r1,#0x1                                 
ram:08000dec    0ed0            beq         LAB_08000e0c                            
ram:08000dee    fd21            movs        r1,#0xfd                                
ram:08000df0    0840            ands        r0,r1                                   
                            LAB_08000df2:                 ;XREF[1,0]:   08000e10
ram:08000df2    fb21            movs        r1,#0xfb                                
ram:08000df4    0840            ands        r0,r1                                   
ram:08000df6    bf49            ldr         r1,[DAT_080010f4]                       ;= 200000F9h
ram:08000df8    b74e            ldr         r6,[DAT_080010d8]                       ;= 200000C4h
ram:08000dfa    0978            ldrb        r1,[r1,#0x0]=>DAT_200000f9              
ram:08000dfc    c907            lsls        r1,r1,#0x1f                             
ram:08000dfe    490f            lsrs        r1,r1,#0x1d                             
ram:08000e00    0843            orrs        r0,r1                                   
ram:08000e02    e074            strb        r0,[r4,#0x13]=>DAT_2000039b             
ram:08000e04    f068            ldr         r0,[r6,#0xc]=>DAT_200000d0              
ram:08000e06    0028            cmp         r0,#0x0                                 
ram:08000e08    06d1            bne         LAB_08000e18                            
ram:08000e0a    02e0            b           LAB_08000e12                            
                            LAB_08000e0c:                 ;XREF[1,0]:   08000dec
ram:08000e0c    0221            movs        r1,#0x2                                 
ram:08000e0e    0843            orrs        r0,r1                                   
ram:08000e10    efe7            b           LAB_08000df2                            
                            LAB_08000e12:                 ;XREF[1,0]:   08000e0a
ram:08000e12    0198            ldr         r0,[sp,#local_1c+0x20]                  
ram:08000e14    0028            cmp         r0,#0x0                                 
ram:08000e16    0bd1            bne         LAB_08000e30                            
                            LAB_08000e18:                 ;XREF[1,0]:   08000e08
ram:08000e18    00f0d3f9        bl          FUN_080011c2                            ;int FUN_080011c2(void)
ram:08000e1c    0028            cmp         r0,#0x0                                 
ram:08000e1e    03d1            bne         LAB_08000e28                            
ram:08000e20    b548            ldr         r0,[DAT_080010f8]                       ;= 20000118h
ram:08000e22    0068            ldr         r0,[r0,#0x0]=>DAT_20000118              
ram:08000e24    0028            cmp         r0,#0x0                                 
ram:08000e26    03d0            beq         LAB_08000e30                            
                            LAB_08000e28:                 ;XREF[1,0]:   08000e1e
ram:08000e28    e07c            ldrb        r0,[r4,#0x13]=>DAT_2000039b             
ram:08000e2a    0821            movs        r1,#0x8                                 
ram:08000e2c    0843            orrs        r0,r1                                   
ram:08000e2e    02e0            b           LAB_08000e36                            
                            LAB_08000e30:                 ;XREF[2,0]:   08000e16,08000e26
ram:08000e30    e07c            ldrb        r0,[r4,#0x13]=>DAT_2000039b             
ram:08000e32    f721            movs        r1,#0xf7                                
ram:08000e34    0840            ands        r0,r1                                   
                            LAB_08000e36:                 ;XREF[1,0]:   08000e2e
ram:08000e36    ef21            movs        r1,#0xef                                
ram:08000e38    0840            ands        r0,r1                                   
ram:08000e3a    b049            ldr         r1,[DAT_080010fc]                       ;= 20000104h
ram:08000e3c    0978            ldrb        r1,[r1,#0x0]=>DAT_20000104              
ram:08000e3e    c907            lsls        r1,r1,#0x1f                             
ram:08000e40    c90e            lsrs        r1,r1,#0x1b                             
ram:08000e42    0843            orrs        r0,r1                                   
ram:08000e44    e074            strb        r0,[r4,#0x13]=>DAT_2000039b             
ram:08000e46    ae48            ldr         r0,[DAT_08001100]                       ;= 20000114h
ram:08000e48    0088            ldrh        r0,[r0,#0x0]=>DAT_20000114              
ram:08000e4a    2075            strb        r0,[r4,#0x14]=>DAT_2000039c             
ram:08000e4c    000a            lsrs        r0,r0,#0x8                              
ram:08000e4e    6075            strb        r0,[r4,#0x15]=>DAT_2000039d             
ram:08000e50    ac48            ldr         r0,[DAT_08001104]                       ;= 20000178h
ram:08000e52    0188            ldrh        r1,[r0,#0x0]=>DAT_20000178              
ram:08000e54    a175            strb        r1,[r4,#0x16]=>DAT_2000039e             
ram:08000e56    090a            lsrs        r1,r1,#0x8                              
ram:08000e58    e175            strb        r1,[r4,#0x17]=>DAT_2000039f             
ram:08000e5a    4188            ldrh        r1,[r0,#0x2]=>DAT_2000017a              
ram:08000e5c    2176            strb        r1,[r4,#0x18]=>DAT_200003a0             
ram:08000e5e    090a            lsrs        r1,r1,#0x8                              
ram:08000e60    6176            strb        r1,[r4,#0x19]=>DAT_200003a1             
ram:08000e62    8188            ldrh        r1,[r0,#0x4]=>DAT_2000017c              
ram:08000e64    a176            strb        r1,[r4,#0x1a]=>DAT_200003a2             
ram:08000e66    090a            lsrs        r1,r1,#0x8                              
ram:08000e68    e176            strb        r1,[r4,#0x1b]=>DAT_200003a3             
ram:08000e6a    c088            ldrh        r0,[r0,#0x6]=>DAT_2000017e              
ram:08000e6c    2077            strb        r0,[r4,#0x1c]=>DAT_200003a4             
ram:08000e6e    000a            lsrs        r0,r0,#0x8                              
ram:08000e70    6077            strb        r0,[r4,#0x1d]=>DAT_200003a5             
ram:08000e72    01f0d0fb        bl          FUN_08002616                            ;undefined FUN_08002616(void)
ram:08000e76    04f041fa        bl          FUN_080052fc                            ;uint FUN_080052fc(void)
ram:08000e7a    1921            movs        r1,#0x19                                
ram:08000e7c    04f02afa        bl          FUN_080052d4                            ;int FUN_080052d4(uint param_1, uint ...
ram:08000e80    0846            mov         r0,r1                                   
ram:08000e82    6630            adds        r0,#0x66                                
ram:08000e84    02f085fa        bl          FUN_08003392                            ;undefined FUN_08003392(undefined4 pa...
ram:08000e88    3069            ldr         r0,[r6,#0x10]=>DAT_200000d4             
ram:08000e8a    0028            cmp         r0,#0x0                                 
ram:08000e8c    03d0            beq         LAB_08000e96                            
ram:08000e8e    401e            subs        r0,r0,#0x1                              
ram:08000e90    3061            str         r0,[r6,#0x10]=>DAT_200000d4             
ram:08000e92    03b0            add         sp,#0xc                                 
ram:08000e94    f0bd            pop         {r4,r5,r6,r7,pc}                        
                            LAB_08000e96:                 ;XREF[1,0]:   08000e8c
ram:08000e96    7562            str         r5,[r6,#0x24]=>DAT_200000e8             
ram:08000e98    03b0            add         sp,#0xc                                 
ram:08000e9a    f0bd            pop         {r4,r5,r6,r7,pc}                        
                            ;************************************************************************************************
                            ;*                                           FUNCTION                                           *
                            ;************************************************************************************************
                            ;undefined FUN_08000e9c(void)
                                                          ;XREF[1,0]:   0800340e
ram:08000e9c    f8b5            push        {r3,r4,r5,r6,r7,lr}                     
ram:08000e9e    924a            ldr         r2,[DAT_080010e8]                       ;= 20000388h
ram:08000ea0    5078            ldrb        r0,[r2,#0x1]=>DAT_20000389              
ram:08000ea2    0828            cmp         r0,#0x8                                 
ram:08000ea4    03d1            bne         LAB_08000eae                            
ram:08000ea6    ff21            movs        r1,#0xff                                
ram:08000ea8    974b            ldr         r3,[DAT_08001108]                       ;= 20000138h
ram:08000eaa    f531            adds        r1,#0xf5                                
ram:08000eac    1960            str         r1,[r3,#0x0]=>DAT_20000138              
                            LAB_08000eae:                 ;XREF[1,0]:   08000ea4
ram:08000eae    0521            movs        r1,#0x5                                 
ram:08000eb0    0140            ands        r1,r0                                   
ram:08000eb2    964f            ldr         r7,[DAT_0800110c]                       ;= 2000038Ah
ram:08000eb4    884c            ldr         r4,[DAT_080010d8]                       ;= 200000C4h
ram:08000eb6    0129            cmp         r1,#0x1                                 
ram:08000eb8    25d1            bne         LAB_08000f06                            
ram:08000eba    3d78            ldrb        r5,[r7,#0x0]=>DAT_2000038a              
ram:08000ebc    fb78            ldrb        r3,[r7,#0x3]=>DAT_2000038d              
ram:08000ebe    2946            mov         r1,r5                                   
ram:08000ec0    7d78            ldrb        r5,[r7,#0x1]=>DAT_2000038b              
ram:08000ec2    1b06            lsls        r3,r3,#0x18                             
ram:08000ec4    2d02            lsls        r5,r5,#0x8                              
ram:08000ec6    2943            orrs        r1,r5                                   
ram:08000ec8    bd78            ldrb        r5,[r7,#0x2]=>DAT_2000038c              
ram:08000eca    2d04            lsls        r5,r5,#0x10                             
ram:08000ecc    2943            orrs        r1,r5                                   
ram:08000ece    1943            orrs        r1,r3                                   
ram:08000ed0    9379            ldrb        r3,[r2,#0x6]=>DAT_2000038e              
ram:08000ed2    8f4d            ldr         r5,[DAT_08001110]                       ;= 48000800h
ram:08000ed4    db07            lsls        r3,r3,#0x1f                             
ram:08000ed6    ad8a            ldrh        r5,[r5,#offset DAT_48000814 &0xff]      
ram:08000ed8    db17            asrs        r3,r3,#0x1f                             
ram:08000eda    ad04            lsls        r5,r5,#0x12                             
ram:08000edc    ed0f            lsrs        r5,r5,#0x1f                             
ram:08000ede    5b1c            adds        r3,r3,#0x1                              
ram:08000ee0    ab42            cmp         r3,r5                                   
ram:08000ee2    08d0            beq         LAB_08000ef6                            
ram:08000ee4    a369            ldr         r3,[r4,#0x18]=>DAT_200000dc             
ram:08000ee6    0a2b            cmp         r3,#0xa                                 
ram:08000ee8    0dd2            bcs         LAB_08000f06                            
ram:08000eea    9e00            lsls        r6,r3,#0x2                              
ram:08000eec    7c4d            ldr         r5,[DAT_080010e0]                       ;= 20000238h
ram:08000eee    5b1c            adds        r3,r3,#0x1                              
ram:08000ef0    a951            str         r1,[r5,r6]                              
ram:08000ef2    a361            str         r3,[r4,#0x18]=>DAT_200000dc             
ram:08000ef4    07e0            b           LAB_08000f06                            
                            LAB_08000ef6:                 ;XREF[1,0]:   08000ee2
ram:08000ef6    e369            ldr         r3,[r4,#0x1c]=>DAT_200000e0             
ram:08000ef8    0a2b            cmp         r3,#0xa                                 
ram:08000efa    04d2            bcs         LAB_08000f06                            
ram:08000efc    9e00            lsls        r6,r3,#0x2                              
ram:08000efe    794d            ldr         r5,[DAT_080010e4]                       ;= 20000260h
ram:08000f00    5b1c            adds        r3,r3,#0x1                              
ram:08000f02    a951            str         r1,[r5,r6]                              
ram:08000f04    e361            str         r3,[r4,#0x1c]=>DAT_200000e0             
                            LAB_08000f06:                 ;XREF[4,0]:   08000eb8,08000ee8,08000ef4,08000efa
ram:08000f06    0025            movs        r5,#0x0                                 
ram:08000f08    824e            ldr         r6,[DAT_08001114]                       ;= 2000038Bh
ram:08000f0a    0728            cmp         r0,#0x7                                 
ram:08000f0c    71d1            bne         LAB_08000ff2                            
ram:08000f0e    02f016fa        bl          FUN_0800333e                            ;undefined FUN_0800333e(void)
ram:08000f12    4d20            movs        r0,#0x4d                                
ram:08000f14    02f03dfa        bl          FUN_08003392                            ;undefined FUN_08003392(undefined4 pa...
ram:08000f18    3a78            ldrb        r2,[r7,#0x0]=>DAT_2000038a              
ram:08000f1a    f978            ldrb        r1,[r7,#0x3]=>DAT_2000038d              
ram:08000f1c    1046            mov         r0,r2                                   
ram:08000f1e    7a78            ldrb        r2,[r7,#0x1]=>DAT_2000038b              
ram:08000f20    0906            lsls        r1,r1,#0x18                             
ram:08000f22    1202            lsls        r2,r2,#0x8                              
ram:08000f24    1043            orrs        r0,r2                                   
ram:08000f26    ba78            ldrb        r2,[r7,#0x2]=>DAT_2000038c              
ram:08000f28    1204            lsls        r2,r2,#0x10                             
ram:08000f2a    1043            orrs        r0,r2                                   
ram:08000f2c    0843            orrs        r0,r1                                   
ram:08000f2e    6062            str         r0,[r4,#0x24]=>DAT_200000e8             
ram:08000f30    707a            ldrb        r0,[r6,#0x9]=>DAT_20000394              
ram:08000f32    327a            ldrb        r2,[r6,#0x8]=>DAT_20000393              
ram:08000f34    0006            lsls        r0,r0,#0x18                             
ram:08000f36    0114            asrs        r1,r0,#0x10                             
ram:08000f38    7748            ldr         r0,[DAT_08001118]                       ;= 200000F0h
ram:08000f3a    1143            orrs        r1,r2                                   
ram:08000f3c    0180            strh        r1,[r0,#0x0]=>DAT_200000f0              
ram:08000f3e    f11e            subs        r1=>DAT_20000388,r6,#0x3                
ram:08000f40    8a7b            ldrb        r2,[r1,#0xe]=>DAT_20000396              
ram:08000f42    4b7b            ldrb        r3,[r1,#0xd]=>DAT_20000395              
ram:08000f44    1206            lsls        r2,r2,#0x18                             
ram:08000f46    1214            asrs        r2,r2,#0x10                             
ram:08000f48    1a43            orrs        r2,r3                                   
ram:08000f4a    4280            strh        r2,[r0,#0x2]=>DAT_200000f2              
ram:08000f4c    727b            ldrb        r2,[r6,#0xd]=>DAT_20000398              
ram:08000f4e    337b            ldrb        r3,[r6,#0xc]=>DAT_20000397              
ram:08000f50    1206            lsls        r2,r2,#0x18                             
ram:08000f52    1214            asrs        r2,r2,#0x10                             
ram:08000f54    1a43            orrs        r2,r3                                   
ram:08000f56    8280            strh        r2,[r0,#0x4]=>DAT_200000f4              
ram:08000f58    8a7c            ldrb        r2,[r1,#0x12]=>DAT_2000039a             
ram:08000f5a    497c            ldrb        r1,[r1,#0x11]=>DAT_20000399             
ram:08000f5c    1206            lsls        r2,r2,#0x18                             
ram:08000f5e    1214            asrs        r2,r2,#0x10                             
ram:08000f60    0a43            orrs        r2,r1                                   
ram:08000f62    c280            strh        r2,[r0,#0x6]=>DAT_200000f6              
ram:08000f64    a069            ldr         r0,[r4,#0x18]=>DAT_200000dc             
ram:08000f66    0a22            movs        r2,#0xa                                 
ram:08000f68    0a28            cmp         r0,#0xa                                 
ram:08000f6a    11d2            bcs         LAB_08000f90                            
ram:08000f6c    111a            subs        r1,r2,r0                                
ram:08000f6e    0029            cmp         r1,#0x0                                 
ram:08000f70    0edd            ble         LAB_08000f90                            
ram:08000f72    8300            lsls        r3,r0,#0x2                              
ram:08000f74    5a48            ldr         r0,[DAT_080010e0]                       ;= 20000238h
ram:08000f76    1818            adds        r0,r3,r0                                
ram:08000f78    001f            subs        r0,r0,#0x4                              
ram:08000f7a    cb07            lsls        r3,r1,#0x1f                             
ram:08000f7c    01d0            beq         LAB_08000f82                            
ram:08000f7e    4560            str         r5,[r0,#0x4]                            
ram:08000f80    001d            adds        r0,r0,#0x4                              
                            LAB_08000f82:                 ;XREF[1,0]:   08000f7c
ram:08000f82    4910            asrs        r1,r1,#0x1                              
ram:08000f84    04d0            beq         LAB_08000f90                            
                            LAB_08000f86:                 ;XREF[1,0]:   08000f8e
ram:08000f86    4560            str         r5,[r0,#0x4]                            
ram:08000f88    8560            str         r5,[r0,#0x8]                            
ram:08000f8a    0830            adds        r0,#0x8                                 
ram:08000f8c    491e            subs        r1,r1,#0x1                              
ram:08000f8e    fad1            bne         LAB_08000f86                            
                            LAB_08000f90:                 ;XREF[3,0]:   08000f6a,08000f70,08000f84
ram:08000f90    a561            str         r5,[r4,#0x18]=>DAT_200000dc             
ram:08000f92    e069            ldr         r0,[r4,#0x1c]=>DAT_200000e0             
ram:08000f94    0a28            cmp         r0,#0xa                                 
ram:08000f96    11d2            bcs         LAB_08000fbc                            
ram:08000f98    111a            subs        r1,r2,r0                                
ram:08000f9a    0029            cmp         r1,#0x0                                 
ram:08000f9c    0edd            ble         LAB_08000fbc                            
ram:08000f9e    8200            lsls        r2,r0,#0x2                              
ram:08000fa0    5048            ldr         r0,[DAT_080010e4]                       ;= 20000260h
ram:08000fa2    1018            adds        r0,r2,r0                                
ram:08000fa4    001f            subs        r0,r0,#0x4                              
ram:08000fa6    ca07            lsls        r2,r1,#0x1f                             
ram:08000fa8    01d0            beq         LAB_08000fae                            
ram:08000faa    4560            str         r5,[r0,#0x4]                            
ram:08000fac    001d            adds        r0,r0,#0x4                              
                            LAB_08000fae:                 ;XREF[1,0]:   08000fa8
ram:08000fae    4910            asrs        r1,r1,#0x1                              
ram:08000fb0    04d0            beq         LAB_08000fbc                            
                            LAB_08000fb2:                 ;XREF[1,0]:   08000fba
ram:08000fb2    4560            str         r5,[r0,#0x4]                            
ram:08000fb4    8560            str         r5,[r0,#0x8]                            
ram:08000fb6    0830            adds        r0,#0x8                                 
ram:08000fb8    491e            subs        r1,r1,#0x1                              
ram:08000fba    fad1            bne         LAB_08000fb2                            
                            LAB_08000fbc:                 ;XREF[3,0]:   08000f96,08000f9c,08000fb0
ram:08000fbc    4a48            ldr         r0,[DAT_080010e8]                       ;= 20000388h
ram:08000fbe    e561            str         r5,[r4,#0x1c]=>DAT_200000e0             
ram:08000fc0    c17c            ldrb        r1,[r0,#0x13]=>DAT_2000039b             
ram:08000fc2    564f            ldr         r7,[DAT_0800111c]                       ;= FFFFFFFFh
ram:08000fc4    8a07            lsls        r2,r1,#0x1e                             
ram:08000fc6    11d5            bpl         LAB_08000fec                            
ram:08000fc8    ca06            lsls        r2,r1,#0x1b                             
ram:08000fca    4c4b            ldr         r3=>DAT_20000104,[DAT_080010fc]         ;= 20000104h
ram:08000fcc    2570            strb        r5,[r4,#0x0]=>DAT_200000c4              
ram:08000fce    d20f            lsrs        r2,r2,#0x1f                             
ram:08000fd0    1a60            str         r2,[r3,#0x0]=>DAT_20000104              
ram:08000fd2    14d0            beq         LAB_08000ffe                            
ram:08000fd4    427d            ldrb        r2,[r0,#0x15]=>DAT_2000039d             
ram:08000fd6    007d            ldrb        r0,[r0,#0x14]=>DAT_2000039c             
ram:08000fd8    1202            lsls        r2,r2,#0x8                              
ram:08000fda    0243            orrs        r2,r0                                   
ram:08000fdc    4848            ldr         r0,[DAT_08001100]                       ;= 20000114h
ram:08000fde    0260            str         r2,[r0,#0x0]=>DAT_20000114              
ram:08000fe0    4348            ldr         r0,[DAT_080010f0]                       ;= 200001FCh
ram:08000fe2    0268            ldr         r2,[r0,#0x0]=>DAT_200001fc              
ram:08000fe4    06d0            beq         LAB_08000ff4                            
ram:08000fe6    002a            cmp         r2,#0x0                                 
ram:08000fe8    08d0            beq         LAB_08000ffc                            
ram:08000fea    08e0            b           LAB_08000ffe                            
                            LAB_08000fec:                 ;XREF[1,0]:   08000fc6
ram:08000fec    0120            movs        r0,#0x1                                 
ram:08000fee    2070            strb        r0,[r4,#0x0]=>DAT_200000c4              
ram:08000ff0    05e0            b           LAB_08000ffe                            
                            LAB_08000ff2:                 ;XREF[1,0]:   08000f0c
ram:08000ff2    0ee0            b           LAB_08001012                            
                            LAB_08000ff4:                 ;XREF[1,0]:   08000fe4
ram:08000ff4    002a            cmp         r2,#0x0                                 
ram:08000ff6    02d0            beq         LAB_08000ffe                            
ram:08000ff8    0560            str         r5,[r0,#0x0]=>DAT_200001fc              
ram:08000ffa    00e0            b           LAB_08000ffe                            
                            LAB_08000ffc:                 ;XREF[1,0]:   08000fe8
ram:08000ffc    0760            str         r7,[r0,#0x0]=>DAT_200001fc              
                            LAB_08000ffe:                 ;XREF[5,0]:   08000fd2,08000fea,08000ff0,08000ff6
                                                          ;             08000ffa
ram:08000ffe    4807            lsls        r0,r1,#0x1d                             
ram:08001000    01d5            bpl         LAB_08001006                            
ram:08001002    3c48            ldr         r0,[DAT_080010f4]                       ;= 200000F9h
ram:08001004    0770            strb        r7,[r0,#0x0]=>DAT_200000f9              
                            LAB_08001006:                 ;XREF[1,0]:   08001000
ram:08001006    0807            lsls        r0,r1,#0x1c                             
ram:08001008    4549            ldr         r1=>DAT_20000120,[DAT_08001120]         ;= 20000120h
ram:0800100a    c00f            lsrs        r0,r0,#0x1f                             
ram:0800100c    0860            str         r0,[r1,#0x0]=>DAT_20000120              
ram:0800100e    1920            movs        r0,#0x19                                
ram:08001010    2061            str         r0,[r4,#0x10]=>DAT_200000d4             
                            LAB_08001012:                 ;XREF[1,0]:   08000ff2
ram:08001012    354f            ldr         r7,[DAT_080010e8]                       ;= 20000388h
ram:08001014    7878            ldrb        r0,[r7,#0x1]=>DAT_20000389              
ram:08001016    8028            cmp         r0,#0x80                                
ram:08001018    13d1            bne         LAB_08001042                            
ram:0800101a    1920            movs        r0,#0x19                                
ram:0800101c    2561            str         r5,[r4,#0x10]=>DAT_200000d4             
ram:0800101e    6061            str         r0,[r4,#0x14]=>DAT_200000d8             
ram:08001020    6620            movs        r0,#0x66                                
ram:08001022    02f0b6f9        bl          FUN_08003392                            ;undefined FUN_08003392(undefined4 pa...
ram:08001026    3a78            ldrb        r2,[r7,#0x0]=>DAT_20000388              
ram:08001028    3946            mov         r1,r7                                   
ram:0800102a    002a            cmp         r2,#0x0                                 
ram:0800102c    09d0            beq         LAB_08001042                            
ram:0800102e    8878            ldrb        r0,[r1,#0x2]=>DAT_2000038a              
ram:08001030    0228            cmp         r0,#0x2                                 
ram:08001032    07d0            beq         LAB_08001044                            
ram:08001034    0328            cmp         r0,#0x3                                 
ram:08001036    10d0            beq         LAB_0800105a                            
ram:08001038    0428            cmp         r0,#0x4                                 
ram:0800103a    1cd0            beq         LAB_08001076                            
ram:0800103c    0628            cmp         r0,#0x6                                 
ram:0800103e    28d0            beq         LAB_08001092                            
ram:08001040    3d70            strb        r5,[r7,#0x0]=>DAT_20000388              
                            LAB_08001042:                 ;XREF[3,0]:   08001018,0800102c,08001046
ram:08001042    f8bd            pop         {r3,r4,r5,r6,r7,pc}                     
                            LAB_08001044:                 ;XREF[1,0]:   08001032
ram:08001044    012a            cmp         r2,#0x1                                 
ram:08001046    fcd1            bne         LAB_08001042                            
ram:08001048    bff34f8f        dsb         0xf                                     
ram:0800104c    3649            ldr         r1,[DAT_08001128]                       ;= E000ED00h
ram:0800104e    3548            ldr         r0,[DAT_08001124]                       ;= 05FA0004h
ram:08001050    c860            str         r0,[r1,#offset DAT_e000ed0c &0xff]      
ram:08001052    bff34f8f        dsb         0xf                                     
                            LAB_08001056:                 ;XREF[1,0]:   08001058
ram:08001056    00bf            nop                                                  
ram:08001058    fde7            b           LAB_08001056                            
                            LAB_0800105a:                 ;XREF[1,0]:   08001036
ram:0800105a    032a            cmp         r2,#0x3                                 
ram:0800105c    05d3            bcc         LAB_0800106a                            
ram:0800105e    7078            ldrb        r0,[r6,#0x1]=>DAT_2000038c              
ram:08001060    3278            ldrb        r2,[r6,#0x0]=>DAT_2000038b              
ram:08001062    0002            lsls        r0,r0,#0x8                              
ram:08001064    1043            orrs        r0,r2                                   
ram:08001066    2062            str         r0,[r4,#0x20]=>DAT_200000e4             
ram:08001068    00e0            b           LAB_0800106c                            
                            LAB_0800106a:                 ;XREF[1,0]:   0800105c
ram:0800106a    2562            str         r5,[r4,#0x20]=>DAT_200000e4             
                            LAB_0800106c:                 ;XREF[1,0]:   08001068
ram:0800106c    0120            movs        r0,#0x1                                 
ram:0800106e    3870            strb        r0,[r7,#0x0]=>DAT_20000388              
                            LAB_08001070:                 ;XREF[1,0]:   08001090
ram:08001070    01f0d1fa        bl          FUN_08002616                            ;undefined FUN_08002616(void)
ram:08001074    f8bd            pop         {r3,r4,r5,r6,r7,pc}                     
                            LAB_08001076:                 ;XREF[1,0]:   0800103a
ram:08001076    3d46            mov         r5,r7                                   
ram:08001078    f91c            adds        r1=>DAT_2000038b,r7,#0x3                
ram:0800107a    521e            subs        r2,r2,#0x1                              
ram:0800107c    206a            ldr         r0,[r4,#0x20]=>DAT_200000e4             
ram:0800107e    02f0a2f8        bl          FUN_080031c6                            ;undefined FUN_080031c6(uint param_1,...
ram:08001082    206a            ldr         r0,[r4,#0x20]=>DAT_200000e4             
ram:08001084    2978            ldrb        r1,[r5,#0x0]=>DAT_20000388              
ram:08001086    401e            subs        r0,r0,#0x1                              
ram:08001088    0818            adds        r0,r1,r0                                
ram:0800108a    2062            str         r0,[r4,#0x20]=>DAT_200000e4             
ram:0800108c    0120            movs        r0,#0x1                                 
ram:0800108e    2870            strb        r0,[r5,#0x0]=>DAT_20000388              
ram:08001090    eee7            b           LAB_08001070                            
                            LAB_08001092:                 ;XREF[1,0]:   0800103e
ram:08001092    7078            ldrb        r0,[r6,#0x1]=>DAT_2000038c              
ram:08001094    3278            ldrb        r2,[r6,#0x0]=>DAT_2000038b              
ram:08001096    0002            lsls        r0,r0,#0x8                              
ram:08001098    1043            orrs        r0,r2                                   
ram:0800109a    ff22            movs        r2,#0xff                                
ram:0800109c    0a70            strb        r2,[r1,#0x0]=>DAT_20000388              
ram:0800109e    fe22            movs        r2,#0xfe                                
ram:080010a0    f91c            adds        r1=>DAT_2000038b,r7,#0x3                
ram:080010a2    02f064f8        bl          FUN_0800316e                            ;int FUN_0800316e(uint param_1, int p...
ram:080010a6    01f0b6fa        bl          FUN_08002616                            ;undefined FUN_08002616(void)
ram:080010aa    f8bd            pop         {r3,r4,r5,r6,r7,pc}                     
                            ;************************************************************************************************
                            ;*                                           FUNCTION                                           *
                            ;************************************************************************************************
                            ;uint FUN_080010ac(void)
                                                          ;XREF[1,0]:   08004d02
ram:080010ac    f0b4            push        {r4,r5,r6,r7}                           
ram:080010ae    0c4a            ldr         r2,[DAT_080010e0]                       ;= 20000238h
ram:080010b0    0c49            ldr         r1,[DAT_080010e4]                       ;= 20000260h
ram:080010b2    1368            ldr         r3,[r2,#0x0]=>DAT_20000238              
ram:080010b4    0868            ldr         r0,[r1,#0x0]=>DAT_20000260              
ram:080010b6    5568            ldr         r5,[r2,#0x4]=>DAT_2000023c              
ram:080010b8    1843            orrs        r0,r3                                   
ram:080010ba    4c68            ldr         r4,[r1,#0x4]=>DAT_20000264              
ram:080010bc    0423            movs        r3,#0x4                                 
                            LAB_080010be:                 ;XREF[1,0]:   080010d4
ram:080010be    2843            orrs        r0,r5                                   
ram:080010c0    2043            orrs        r0,r4                                   
                                                          ; FWD[2,0]:   20000240,20000248
ram:080010c2    9768            ldr         r7,[r2,#0x8]=>DAT_20000240              
                                                          ; FWD[2,0]:   20000268,20000270
ram:080010c4    8e68            ldr         r6,[r1,#0x8]=>DAT_20000268              
                                                          ; FWD[2,0]:   20000244,2000024c
ram:080010c6    d568            ldr         r5,[r2,#0xc]=>DAT_20000244              
ram:080010c8    3843            orrs        r0,r7                                   
                                                          ; FWD[2,0]:   2000026c,20000274
ram:080010ca    cc68            ldr         r4,[r1,#0xc]=>DAT_2000026c              
ram:080010cc    3043            orrs        r0,r6                                   
ram:080010ce    0831            adds        r1,#0x8                                 
ram:080010d0    0832            adds        r2,#0x8                                 
ram:080010d2    5b1e            subs        r3,r3,#0x1                              
ram:080010d4    f3d1            bne         LAB_080010be                            
ram:080010d6    29e0            b           LAB_0800112c                            
                            DAT_080010d8:                 ;XREF[6,0]:   08000cda,08000d24,08000d9a,08000de4
                                                          ;             08000df8,08000eb4
ram:080010d8    c4000020        undefined4  200000C4h                               
                            DAT_080010dc:                 ;XREF[1,0]:   08000ce2
ram:080010dc    04020020        undefined4  20000204h                               
                            DAT_080010e0:                 ;XREF[5,0]:   08000ce4,08000d22,08000eec,08000f74
                                                          ;             080010ae
ram:080010e0    38020020        undefined4  20000238h                               
                            DAT_080010e4:                 ;XREF[5,0]:   08000cf2,08000d2c,08000efe,08000fa0
                                                          ;             080010b0
ram:080010e4    60020020        undefined4  20000260h                               
                            DAT_080010e8:                 ;XREF[4,0]:   08000d6c,08000e9e,08000fbc,08001012
ram:080010e8    88030020        undefined4  20000388h                               
                            DAT_080010ec:                 ;XREF[1,0]:   08000d88
ram:080010ec    08020020        undefined4  20000208h                               
                            DAT_080010f0:                 ;XREF[2,0]:   08000dd4,08000fe0
ram:080010f0    fc010020        undefined4  200001FCh                               
                            DAT_080010f4:                 ;XREF[2,0]:   08000df6,08001002
ram:080010f4    f9000020        undefined4  200000F9h                               
                            DAT_080010f8:                 ;XREF[1,0]:   08000e20
ram:080010f8    18010020        undefined4  20000118h                               
                            DAT_080010fc:                 ;XREF[2,0]:   08000e3a,08000fca
ram:080010fc    04010020        undefined4  20000104h                               
                            DAT_08001100:                 ;XREF[2,0]:   08000e46,08000fdc
ram:08001100    14010020        undefined4  20000114h                               
                            DAT_08001104:                 ;XREF[1,0]:   08000e50
ram:08001104    78010020        undefined4  20000178h                               
                            DAT_08001108:                 ;XREF[1,0]:   08000ea8
ram:08001108    38010020        undefined4  20000138h                               
                            DAT_0800110c:                 ;XREF[1,0]:   08000eb2
ram:0800110c    8a030020        undefined4  2000038Ah                               
                            DAT_08001110:                 ;XREF[1,0]:   08000ed2
ram:08001110    00080048        undefined4  48000800h                               
                            DAT_08001114:                 ;XREF[1,0]:   08000f08
ram:08001114    8b030020        undefined4  2000038Bh                               
                            DAT_08001118:                 ;XREF[1,0]:   08000f38
ram:08001118    f0000020        undefined4  200000F0h                               
                            DAT_0800111c:                 ;XREF[1,0]:   08000fc2
ram:0800111c    ffffffff        undefined4  FFFFFFFFh                               
                            DAT_08001120:                 ;XREF[1,0]:   08001008
ram:08001120    20010020        undefined4  20000120h                               
                            DAT_08001124:                 ;XREF[1,0]:   0800104e
ram:08001124    0400fa05        undefined4  05FA0004h                               
                            DAT_08001128:                 ;XREF[1,0]:   0800104c
ram:08001128    00ed00e0        undefined4  E000ED00h                               
                            LAB_0800112c:                 ;XREF[1,0]:   080010d6
ram:0800112c    0749            ldr         r1,[DAT_0800114c]                       ;= 20000238h
ram:0800112e    496a            ldr         r1,[r1,#0x24]=>DAT_2000025c             
ram:08001130    0143            orrs        r1,r0                                   
ram:08001132    0748            ldr         r0,[DAT_08001150]                       ;= 20000260h
ram:08001134    406a            ldr         r0,[r0,#0x24]=>DAT_20000284             
ram:08001136    0843            orrs        r0,r1                                   
ram:08001138    0649            ldr         r1,[DAT_08001154]                       ;= 200000C4h
ram:0800113a    4a68            ldr         r2,[r1,#0x4]=>DAT_200000c8              
ram:0800113c    1043            orrs        r0,r2                                   
ram:0800113e    8a68            ldr         r2,[r1,#0x8]=>DAT_200000cc              
ram:08001140    496a            ldr         r1,[r1,#0x24]=>DAT_200000e8             
ram:08001142    f0bc            pop         {r4,r5,r6,r7}                           
ram:08001144    1043            orrs        r0,r2                                   
ram:08001146    0843            orrs        r0,r1                                   
ram:08001148    7047            bx          lr                                      
ram:0800114a    0000            movs        r0,r0                                   
                            DAT_0800114c:                 ;XREF[1,0]:   0800112c
ram:0800114c    38020020        undefined4  20000238h                               
                            DAT_08001150:                 ;XREF[1,0]:   08001132
ram:08001150    60020020        undefined4  20000260h                               
                            DAT_08001154:                 ;XREF[1,0]:   08001138
ram:08001154    c4000020        undefined4  200000C4h                               
                            ;************************************************************************************************
                            ;*                                           FUNCTION                                           *
                            ;************************************************************************************************
                            ;int FUN_080011c2(void)
                                                          ;XREF[1,0]:   08000e18
ram:080011c2    e74a            ldr         r2,[DAT_08001560]                       ;= 20000144h
ram:080011c4    e549            ldr         r1,[DAT_0800155c]                       ;= FFFF8000h
ram:080011c6    0320            movs        r0,#0x3                                 
                            LAB_080011c8:                 ;XREF[1,0]:   080011d2
ram:080011c8    4300            lsls        r3,r0,#0x1                              
                                                          ; FWD[2,0]:   20000148,2000014a
ram:080011ca    d35e            ldrsh       r3,[r2,r3]=>DAT_2000014a                
ram:080011cc    8b42            cmp         r3,r1                                   
ram:080011ce    01d1            bne         LAB_080011d4                            
ram:080011d0    401e            subs        r0,r0,#0x1                              
ram:080011d2    f9d2            bcs         LAB_080011c8                            
                            LAB_080011d4:                 ;XREF[1,0]:   080011ce
ram:080011d4    401c            adds        r0,r0,#0x1                              
ram:080011d6    7047            bx          lr                                      
ram:080011d8    e249            ldr         r1,[DAT_08001564]                       ;= 00000002h
ram:080011da    c000            lsls        r0,r0,#0x3                              
ram:080011dc    10b5            push        {r4,lr}                                 
ram:080011de    4018            adds        r0,r0,r1                                
ram:080011e0    0822            movs        r2,#0x8                                 
ram:080011e2    df49            ldr         r1=>DAT_20000144,[DAT_08001560]         ;= 20000144h
ram:080011e4    01f0c3ff        bl          FUN_0800316e                            ;int FUN_0800316e(uint param_1, int p...
ram:080011e8    df48            ldr         r0,[DAT_08001568]                       ;= 200000D4h
ram:080011ea    0068            ldr         r0,[r0,#0x0]=>DAT_200000d4              
ram:080011ec    0028            cmp         r0,#0x0                                 
ram:080011ee    09d0            beq         FUN_08001204                            
ram:080011f0    de48            ldr         r0,[DAT_0800156c]                       ;= 200000E8h
ram:080011f2    df49            ldr         r1,[DAT_08001570]                       ;= 200000CCh
ram:080011f4    0068            ldr         r0,[r0,#0x0]=>DAT_200000e8              
ram:080011f6    0968            ldr         r1,[r1,#0x0]=>DAT_200000cc              
ram:080011f8    0843            orrs        r0,r1                                   
ram:080011fa    03d0            beq         FUN_08001204                            
ram:080011fc    0120            movs        r0,#0x1                                 
ram:080011fe    d849            ldr         r1,[DAT_08001560]                       ;= 20000144h
ram:08001200    c003            lsls        r0,r0,#0xf                              
ram:08001202    0880            strh        r0,[r1,#0x0]=>DAT_20000144              
                            ;************************************************************************************************
                            ;*                                           FUNCTION                                           *
                            ;************************************************************************************************
                            ;undefined FUN_08001204(void)
                                                          ;XREF[2,0]:   080011ee,080011fa
ram:08001204    10bd            pop         {r4,pc}                                 
                            ;************************************************************************************************
                            ;*                                           FUNCTION                                           *
                            ;************************************************************************************************
                            ;int FUN_08001206(uint param_1)
          ;param_1       uint                r0                      
                                                          ;XREF[4,0]:   08001270,08001282,08001294,080012a6
ram:08001206    70b5            push        {r4,r5,r6,lr}                           
ram:08001208    0028            cmp         param_1,#0x0                            
ram:0800120a    17d0            beq         LAB_0800123c                            
ram:0800120c    d649            ldr         r1,[DAT_08001568]                       ;= 200000D4h
ram:0800120e    0968            ldr         r1,[r1,#0x0]=>DAT_200000d4              
ram:08001210    0029            cmp         r1,#0x0                                 
ram:08001212    12d0            beq         LAB_0800123a                            
ram:08001214    d749            ldr         r1,[DAT_08001574]                       ;= 200000F8h
ram:08001216    c968            ldr         r1,[r1,#0xc]=>DAT_20000104              
ram:08001218    0029            cmp         r1,#0x0                                 
ram:0800121a    0ed0            beq         LAB_0800123a                            
ram:0800121c    d649            ldr         r1,[DAT_08001578]                       ;= 200000D0h
ram:0800121e    4400            lsls        r4,param_1,#0x1                         
ram:08001220    0a68            ldr         r2,[r1,#0x0]=>DAT_200000d0              
ram:08001222    d249            ldr         r1,[DAT_0800156c]                       ;= 200000E8h
ram:08001224    d54d            ldr         r5,[DAT_0800157c]                       ;= 200000F0h
ram:08001226    0968            ldr         r1,[r1,#0x0]=>DAT_200000e8              
ram:08001228    002a            cmp         r2,#0x0                                 
ram:0800122a    02d0            beq         LAB_08001232                            
ram:0800122c    0029            cmp         r1,#0x0                                 
ram:0800122e    04d0            beq         LAB_0800123a                            
ram:08001230    07e0            b           LAB_08001242                            
                            LAB_08001232:                 ;XREF[1,0]:   0800122a
ram:08001232    0029            cmp         r1,#0x0                                 
ram:08001234    05d0            beq         LAB_08001242                            
ram:08001236    285f            ldrsh       param_1,[r5,r4]=>DAT_200000f0           
ram:08001238    70bd            pop         {r4,r5,r6,pc}                           
                            LAB_0800123a:                 ;XREF[3,0]:   08001212,0800121a,0800122e
ram:0800123a    c0b2            uxtb        param_1,param_1                         
                            LAB_0800123c:                 ;XREF[1,0]:   0800120a
ram:0800123c    01f07cfe        bl          FUN_08002f38                            ;int FUN_08002f38(int param_1)
ram:08001240    70bd            pop         {r4,r5,r6,pc}                           
                            LAB_08001242:                 ;XREF[2,0]:   08001230,08001234
ram:08001242    c0b2            uxtb        param_1,param_1                         
ram:08001244    01f078fe        bl          FUN_08002f38                            ;int FUN_08002f38(int param_1)
ram:08001248    295f            ldrsh       r1,[r5,r4]=>DAT_200000f0                
ram:0800124a    0818            adds        param_1,r1,param_1                      
ram:0800124c    4010            asrs        param_1,param_1,#0x1                    
ram:0800124e    70bd            pop         {r4,r5,r6,pc}                           
                            ;************************************************************************************************
                            ;*                                           FUNCTION                                           *
                            ;************************************************************************************************
                            ;undefined FUN_08001250(int param_1)
          ;param_1       int                 r0                      
                                                          ;XREF[5,0]:   08001698,080016b6,080016d8,080016fa
                                                          ;             0800171c
ram:08001250    70b5            push        {r4,r5,r6,lr}                           
ram:08001252    c549            ldr         r1,[DAT_08001568]                       ;= 200000D4h
ram:08001254    c000            lsls        param_1,param_1,#0x3                    
ram:08001256    0a68            ldr         r2,[r1,#0x0]=>DAT_200000d4              
ram:08001258    c249            ldr         r1,[DAT_08001564]                       ;= 00000002h
ram:0800125a    c94d            ldr         r5,[DAT_08001580]                       ;= 200001B0h
ram:0800125c    4418            adds        r4,param_1,r1                           
ram:0800125e    002a            cmp         r2,#0x0                                 
ram:08001260    05d0            beq         LAB_0800126e                            
ram:08001262    c248            ldr         param_1,[DAT_0800156c]                  ;= 200000E8h
ram:08001264    c249            ldr         r1,[DAT_08001570]                       ;= 200000CCh
ram:08001266    0068            ldr         param_1,[param_1,#0x0]=>DAT_200000e8    
ram:08001268    0968            ldr         r1,[r1,#0x0]=>DAT_200000cc              
ram:0800126a    0843            orrs        param_1,r1                              
ram:0800126c    08d1            bne         LAB_08001280                            
                            LAB_0800126e:                 ;XREF[1,0]:   08001260
ram:0800126e    0020            movs        param_1,#0x0                            
ram:08001270    fff7c9ff        bl          FUN_08001206                            ;int FUN_08001206(uint param_1)
ram:08001274    2880            strh        param_1,[r5,#0x0]=>DAT_200001b0         
ram:08001276    2046            mov         param_1,r4                              
ram:08001278    0222            movs        r2,#0x2                                 
ram:0800127a    c149            ldr         r1=>DAT_200001b0,[DAT_08001580]         ;= 200001B0h
ram:0800127c    01f0a3ff        bl          FUN_080031c6                            ;undefined FUN_080031c6(uint param_1,...
                            LAB_08001280:                 ;XREF[1,0]:   0800126c
ram:08001280    0120            movs        param_1,#0x1                            
ram:08001282    fff7c0ff        bl          FUN_08001206                            ;int FUN_08001206(uint param_1)
ram:08001286    2880            strh        param_1,[r5,#0x0]=>DAT_200001b0         
ram:08001288    a01c            adds        param_1,r4,#0x2                         
ram:0800128a    0222            movs        r2,#0x2                                 
ram:0800128c    bc49            ldr         r1=>DAT_200001b0,[DAT_08001580]         ;= 200001B0h
ram:0800128e    01f09aff        bl          FUN_080031c6                            ;undefined FUN_080031c6(uint param_1,...
ram:08001292    0220            movs        param_1,#0x2                            
ram:08001294    fff7b7ff        bl          FUN_08001206                            ;int FUN_08001206(uint param_1)
ram:08001298    2880            strh        param_1,[r5,#0x0]=>DAT_200001b0         
ram:0800129a    201d            adds        param_1,r4,#0x4                         
ram:0800129c    0222            movs        r2,#0x2                                 
ram:0800129e    b849            ldr         r1=>DAT_200001b0,[DAT_08001580]         ;= 200001B0h
ram:080012a0    01f091ff        bl          FUN_080031c6                            ;undefined FUN_080031c6(uint param_1,...
ram:080012a4    0320            movs        param_1,#0x3                            
ram:080012a6    fff7aeff        bl          FUN_08001206                            ;int FUN_08001206(uint param_1)
ram:080012aa    2880            strh        param_1,[r5,#0x0]=>DAT_200001b0         
ram:080012ac    a01d            adds        param_1,r4,#0x6                         
ram:080012ae    0222            movs        r2,#0x2                                 
ram:080012b0    b349            ldr         r1=>DAT_200001b0,[DAT_08001580]         ;= 200001B0h
ram:080012b2    01f088ff        bl          FUN_080031c6                            ;undefined FUN_080031c6(uint param_1,...
ram:080012b6    70bd            pop         {r4,r5,r6,pc}                           
                            ;************************************************************************************************
                            ;*                                           FUNCTION                                           *
                            ;************************************************************************************************
                            ;undefined FUN_080012b8(void)
                                                          ;XREF[1,0]:   08004ccc
ram:080012b8    10b5            push        {r4,lr}                                 
ram:080012ba    0122            movs        r2,#0x1                                 
ram:080012bc    b149            ldr         r1,[DAT_08001584]                       ;= 200000FAh
ram:080012be    b248            ldr         r0,[DAT_08001588]                       
ram:080012c0    01f055ff        bl          FUN_0800316e                            ;int FUN_0800316e(uint param_1, int p...
ram:080012c4    0021            movs        r1,#0x0                                 
ram:080012c6    4156            ldrsb       r1,[r0,r1]                              
ram:080012c8    0122            movs        r2,#0x1                                 
ram:080012ca    b049            ldr         r1,[DAT_0800158c]                       ;= 200000FBh
ram:080012cc    b048            ldr         r0,[DAT_08001590]                       ;= 00000001h
ram:080012ce    01f04eff        bl          FUN_0800316e                            ;int FUN_0800316e(uint param_1, int p...
ram:080012d2    0021            movs        r1,#0x0                                 
ram:080012d4    4156            ldrsb       r1,[r0,r1]                              
ram:080012d6    10bd            pop         {r4,pc}                                 
                            ;************************************************************************************************
                            ;*                                           FUNCTION                                           *
                            ;************************************************************************************************
                            ;undefined FUN_080012d8(undefined4 param_1, uint param_2)
          ;param_1       undefined4          r0                      
          ;param_2       uint                r1                      
          ;local_18      undefined4         -18                      ;XREF[2,0]:   08001af2,08001e1e
          ;local_1a      undefined2         -1a                      ;XREF[1,0]:   080013c6
          ;local_1c      undefined2         -1c                      ;XREF[1,0]:   080013c2
          ;local_1e      undefined2         -1e                      ;XREF[1,0]:   080013be
          ;local_20      undefined2         -20                      ;XREF[1,0]:   080013ba
          ;local_24      undefined4         -24                      ;XREF[5,0]:   08001956,080019d6,08001af4,08001c56,08001cf2
          ;local_28      undefined4         -28                      ;XREF[7,0]:   08001338,080013e8,08001646,08001e24,08001f02
                                                                     ;             08001f1c,08001f36
                                                          ;XREF[1,0]:   08004cd6
ram:080012d8    f0b5            push        {r4,r5,r6,r7,lr}                        
ram:080012da    ae48            ldr         param_1,[DAT_08001594]                  ;= 20000234h
ram:080012dc    85b0            sub         sp,#0x14                                
ram:080012de    0268            ldr         r2,[param_1,#0x0]=>DAT_20000234         
ram:080012e0    a44e            ldr         r6,[DAT_08001574]                       ;= 200000F8h
ram:080012e2    521c            adds        r2,r2,#0x1                              
ram:080012e4    0260            str         r2,[param_1,#0x0]=>DAT_20000234         
ram:080012e6    a048            ldr         param_1,[DAT_08001568]                  ;= 200000D4h
ram:080012e8    a14a            ldr         r2,[DAT_08001570]                       ;= 200000CCh
ram:080012ea    0468            ldr         r4,[param_1,#0x0]=>DAT_200000d4         
ram:080012ec    aa48            ldr         param_1,[DAT_08001598]                  ;= 20000204h
ram:080012ee    1368            ldr         r3,[r2,#0x0]=>DAT_200000cc              
ram:080012f0    0068            ldr         param_1,[param_1,#0x0]=>DAT_20000204    
ram:080012f2    002c            cmp         r4,#0x0                                 
ram:080012f4    13d0            beq         LAB_0800131e                            
ram:080012f6    f268            ldr         r2,[r6,#0xc]=>DAT_20000104              
ram:080012f8    002a            cmp         r2,#0x0                                 
ram:080012fa    15d0            beq         LAB_08001328                            
ram:080012fc    9b4a            ldr         r2,[DAT_0800156c]                       ;= 200000E8h
ram:080012fe    9e48            ldr         param_1,[DAT_08001578]                  ;= 200000D0h
ram:08001300    1268            ldr         r2,[r2,#0x0]=>DAT_200000e8              
ram:08001302    0468            ldr         r4,[param_1,#0x0]=>DAT_200000d0         
ram:08001304    9508            lsrs        r5,r2,#0x2                              
ram:08001306    2046            mov         param_1,r4                              
ram:08001308    ad00            lsls        r5,r5,#0x2                              
ram:0800130a    2843            orrs        param_1,r5                              
ram:0800130c    a34d            ldr         r5,[DAT_0800159c]                       ;= 1A05F2FCh
ram:0800130e    2a40            ands        r2,r5                                   
ram:08001310    1443            orrs        r4,r2                                   
ram:08001312    9a08            lsrs        r2,r3,#0x2                              
ram:08001314    9200            lsls        r2,r2,#0x2                              
ram:08001316    1043            orrs        param_1,r2                              
ram:08001318    2b40            ands        r3,r5                                   
ram:0800131a    1c43            orrs        r4,r3                                   
ram:0800131c    07e0            b           LAB_0800132e                            
                            LAB_0800131e:                 ;XREF[1,0]:   080012f4
ram:0800131e    0022            movs        r2,#0x0                                 
ram:08001320    1843            orrs        param_1,r3                              
ram:08001322    0446            mov         r4,param_1                              
ram:08001324    b262            str         r2,[r6,#0x28]=>DAT_20000120             
ram:08001326    02e0            b           LAB_0800132e                            
                            LAB_08001328:                 ;XREF[1,0]:   080012fa
ram:08001328    0022            movs        r2,#0x0                                 
ram:0800132a    0446            mov         r4,param_1                              
ram:0800132c    b262            str         r2,[r6,#0x28]=>DAT_20000120             
                            LAB_0800132e:                 ;XREF[2,0]:   0800131c,08001326
ram:0800132e    9c4a            ldr         r2,[DAT_080015a0]                       ;= 200000C8h
ram:08001330    0027            movs        r7,#0x0                                 
ram:08001332    1268            ldr         r2,[r2,#0x0]=>DAT_200000c8              
ram:08001334    ff43            mvns        r7,r7                                   
ram:08001336    1043            orrs        param_1,r2                              
ram:08001338    0090            str         param_1,[sp,#0x0]=>local_28             
ram:0800133a    ff20            movs        param_1,#0xff                           
ram:0800133c    0130            adds        param_1,#0x1                            
ram:0800133e    1443            orrs        r4,r2                                   
ram:08001340    8143            bics        param_2,param_1                         
ram:08001342    e0b2            uxtb        param_1,r4                              
ram:08001344    c207            lsls        r2,param_1,#0x1f                        
ram:08001346    d20d            lsrs        r2,r2,#0x17                             
ram:08001348    1143            orrs        param_2,r2                              
ram:0800134a    0122            movs        r2,#0x1                                 
ram:0800134c    5202            lsls        r2,r2,#0x9                              
ram:0800134e    9143            bics        param_2,r2                              
ram:08001350    8207            lsls        r2,param_1,#0x1e                        
ram:08001352    d20f            lsrs        r2,r2,#0x1f                             
ram:08001354    5202            lsls        r2,r2,#0x9                              
ram:08001356    1143            orrs        param_2,r2                              
ram:08001358    0122            movs        r2,#0x1                                 
ram:0800135a    9202            lsls        r2,r2,#0xa                              
ram:0800135c    9143            bics        param_2,r2                              
ram:0800135e    4207            lsls        r2,param_1,#0x1d                        
ram:08001360    d20f            lsrs        r2,r2,#0x1f                             
ram:08001362    9202            lsls        r2,r2,#0xa                              
ram:08001364    1143            orrs        param_2,r2                              
ram:08001366    0122            movs        r2,#0x1                                 
ram:08001368    d202            lsls        r2,r2,#0xb                              
ram:0800136a    9143            bics        param_2,r2                              
ram:0800136c    0207            lsls        r2,param_1,#0x1c                        
ram:0800136e    d20f            lsrs        r2,r2,#0x1f                             
ram:08001370    d202            lsls        r2,r2,#0xb                              
ram:08001372    1143            orrs        param_2,r2                              
ram:08001374    0122            movs        r2,#0x1                                 
ram:08001376    1203            lsls        r2,r2,#0xc                              
ram:08001378    9143            bics        param_2,r2                              
ram:0800137a    c206            lsls        r2,param_1,#0x1b                        
ram:0800137c    d20f            lsrs        r2,r2,#0x1f                             
ram:0800137e    1203            lsls        r2,r2,#0xc                              
ram:08001380    1143            orrs        param_2,r2                              
ram:08001382    0122            movs        r2,#0x1                                 
ram:08001384    5203            lsls        r2,r2,#0xd                              
ram:08001386    9143            bics        param_2,r2                              
ram:08001388    8206            lsls        r2,param_1,#0x1a                        
ram:0800138a    d20f            lsrs        r2,r2,#0x1f                             
ram:0800138c    5203            lsls        r2,r2,#0xd                              
ram:0800138e    1143            orrs        param_2,r2                              
ram:08001390    0122            movs        r2,#0x1                                 
ram:08001392    9203            lsls        r2,r2,#0xe                              
ram:08001394    9143            bics        param_2,r2                              
ram:08001396    4206            lsls        r2,param_1,#0x19                        
ram:08001398    d20f            lsrs        r2,r2,#0x1f                             
ram:0800139a    9203            lsls        r2,r2,#0xe                              
ram:0800139c    1143            orrs        param_2,r2                              
ram:0800139e    4d04            lsls        r5,param_2,#0x11                        
ram:080013a0    c009            lsrs        param_1,param_1,#0x7                    
ram:080013a2    6d0c            lsrs        r5,r5,#0x11                             
ram:080013a4    c003            lsls        param_1,param_1,#0xf                    
ram:080013a6    0543            orrs        r5,param_1                              
ram:080013a8    7e48            ldr         param_1,[DAT_080015a4]                  ;= 2000016Ch
ram:080013aa    0068            ldr         param_1,[param_1,#0x0]=>DAT_2000016c    
ram:080013ac    0028            cmp         param_1,#0x0                            
ram:080013ae    25d0            beq         LAB_080013fc                            
ram:080013b0    0020            movs        param_1,#0x0                            
ram:080013b2    b063            str         param_1,[r6,#0x38]=>DAT_20000130        
                            LAB_080013b4:                 ;XREF[14,0]:  08001400,08001408,08001410,0800141a
                                                          ;             08001422,0800142a,08001434,0800143c
                                                          ;             08001444,0800144e,08001456,0800145e
                                                          ;             08001468,08001476
ram:080013b4    7c48            ldr         param_1,[DAT_080015a8]                  ;= 20000138h
ram:080013b6    6946            mov         param_2,sp                              
ram:080013b8    8289            ldrh        r2,[param_1,#0xc]=>DAT_20000144         
ram:080013ba    0a81            strh        r2,[r1,#local_20+0x28]                  
ram:080013bc    c289            ldrh        r2,[param_1,#0xe]=>DAT_20000146         
ram:080013be    4a81            strh        r2,[r1,#local_1e+0x28]                  
ram:080013c0    028a            ldrh        r2,[param_1,#0x10]=>DAT_20000148        
ram:080013c2    8a81            strh        r2,[r1,#local_1c+0x28]                  
ram:080013c4    428a            ldrh        r2,[param_1,#0x12]=>DAT_2000014a        
ram:080013c6    ca81            strh        r2,[r1,#local_1a+0x28]                  
ram:080013c8    0720            movs        param_1,#0x7                            
ram:080013ca    3056            ldrsb       param_1,[r6,param_1]=>DAT_200000ff      
ram:080013cc    0128            cmp         param_1,#0x1                            
ram:080013ce    07d0            beq         LAB_080013e0                            
ram:080013d0    401c            adds        param_1,param_1,#0x1                    
ram:080013d2    05d0            beq         LAB_080013e0                            
ram:080013d4    b770            strb        r7,[r6,#0x2]=>DAT_200000fa              
ram:080013d6    0122            movs        r2,#0x1                                 
ram:080013d8    6a49            ldr         param_2=>DAT_200000fa,[DAT_08001584]    ;= 200000FAh
ram:080013da    6b48            ldr         param_1,[DAT_08001588]                  
ram:080013dc    01f0f3fe        bl          FUN_080031c6                            ;undefined FUN_080031c6(uint param_1,...
                            LAB_080013e0:                 ;XREF[2,0]:   080013ce,080013d2
ram:080013e0    0020            movs        param_1,#0x0                            
ram:080013e2    c043            mvns        param_1,param_1                         
ram:080013e4    f071            strb        param_1,[r6,#0x7]=>DAT_200000ff         
ram:080013e6    0322            movs        r2,#0x3                                 
ram:080013e8    0098            ldr         param_1,[sp,#0x0]=>local_28             
ram:080013ea    d205            lsls        r2,r2,#0x17                             
ram:080013ec    1021            movs        param_2,#0x10                           
ram:080013ee    9042            cmp         param_1,r2                              
ram:080013f0    5dd1            bne         LAB_080014ae                            
ram:080013f2    6e48            ldr         param_1,[DAT_080015ac]                  ;= 2000012Ch
ram:080013f4    0368            ldr         r3,[param_1,#0x0]=>DAT_2000012c         
ram:080013f6    9343            bics        r3,r2                                   
ram:080013f8    3ed0            beq         LAB_08001478                            
ram:080013fa    58e0            b           LAB_080014ae                            
                            LAB_080013fc:                 ;XREF[1,0]:   080013ae
ram:080013fc    b06b            ldr         param_1,[r6,#0x38]=>DAT_20000130        
ram:080013fe    0028            cmp         param_1,#0x0                            
ram:08001400    d8d1            bne         LAB_080013b4                            
ram:08001402    6b48            ldr         param_1,[DAT_080015b0]                  ;= 200001AAh
ram:08001404    0078            ldrb        param_1,[param_1,#0x0]=>DAT_200001aa    
ram:08001406    0028            cmp         param_1,#0x0                            
ram:08001408    d4d1            bne         LAB_080013b4                            
ram:0800140a    6a48            ldr         param_1,[DAT_080015b4]                  ;= 20000180h
ram:0800140c    0078            ldrb        param_1,[param_1,#0x0]=>DAT_20000180    
ram:0800140e    c006            lsls        param_1,param_1,#0x1b                   
ram:08001410    d0d5            bpl         LAB_080013b4                            
ram:08001412    0020            movs        param_1,#0x0                            
ram:08001414    01f090fd        bl          FUN_08002f38                            ;int FUN_08002f38(int param_1)
ram:08001418    0028            cmp         param_1,#0x0                            
ram:0800141a    cbd1            bne         LAB_080013b4                            
ram:0800141c    6448            ldr         param_1,[DAT_080015b0]                  ;= 200001AAh
ram:0800141e    4078            ldrb        param_1,[param_1,#0x1]=>DAT_200001ab    
ram:08001420    0028            cmp         param_1,#0x0                            
ram:08001422    c7d1            bne         LAB_080013b4                            
ram:08001424    6348            ldr         param_1,[DAT_080015b4]                  ;= 20000180h
ram:08001426    0078            ldrb        param_1,[param_1,#0x0]=>DAT_20000180    
ram:08001428    8006            lsls        param_1,param_1,#0x1a                   
ram:0800142a    c3d5            bpl         LAB_080013b4                            
ram:0800142c    0120            movs        param_1,#0x1                            
ram:0800142e    01f083fd        bl          FUN_08002f38                            ;int FUN_08002f38(int param_1)
ram:08001432    0028            cmp         param_1,#0x0                            
ram:08001434    bed1            bne         LAB_080013b4                            
ram:08001436    5e48            ldr         param_1,[DAT_080015b0]                  ;= 200001AAh
ram:08001438    8078            ldrb        param_1,[param_1,#0x2]=>DAT_200001ac    
ram:0800143a    0028            cmp         param_1,#0x0                            
ram:0800143c    bad1            bne         LAB_080013b4                            
ram:0800143e    5d48            ldr         param_1,[DAT_080015b4]                  ;= 20000180h
ram:08001440    0078            ldrb        param_1,[param_1,#0x0]=>DAT_20000180    
ram:08001442    4006            lsls        param_1,param_1,#0x19                   
ram:08001444    b6d5            bpl         LAB_080013b4                            
ram:08001446    0220            movs        param_1,#0x2                            
ram:08001448    01f076fd        bl          FUN_08002f38                            ;int FUN_08002f38(int param_1)
ram:0800144c    0028            cmp         param_1,#0x0                            
ram:0800144e    b1d1            bne         LAB_080013b4                            
ram:08001450    5748            ldr         param_1,[DAT_080015b0]                  ;= 200001AAh
ram:08001452    c078            ldrb        param_1,[param_1,#0x3]=>DAT_200001ad    
ram:08001454    0028            cmp         param_1,#0x0                            
ram:08001456    add1            bne         LAB_080013b4                            
ram:08001458    5648            ldr         param_1,[DAT_080015b4]                  ;= 20000180h
ram:0800145a    0078            ldrb        param_1,[param_1,#0x0]=>DAT_20000180    
ram:0800145c    c009            lsrs        param_1,param_1,#0x7                    
ram:0800145e    a9d0            beq         LAB_080013b4                            
ram:08001460    0320            movs        param_1,#0x3                            
ram:08001462    01f069fd        bl          FUN_08002f38                            ;int FUN_08002f38(int param_1)
ram:08001466    0028            cmp         param_1,#0x0                            
ram:08001468    a4d1            bne         LAB_080013b4                            
ram:0800146a    0820            movs        param_1,#0x8                            
ram:0800146c    b763            str         r7,[r6,#0x38]=>DAT_20000130             
ram:0800146e    3070            strb        param_1,[r6,#0x0]=>DAT_200000f8         
ram:08001470    0120            movs        param_1,#0x1                            
ram:08001472    03f07ffd        bl          FUN_08004f74                            ;undefined FUN_08004f74(undefined4 pa...
ram:08001476    9de7            b           LAB_080013b4                            
                            LAB_08001478:                 ;XREF[1,0]:   080013f8
ram:08001478    8278            ldrb        r2,[param_1,#0x2]=>DAT_2000012e         
ram:0800147a    d209            lsrs        r2,r2,#0x7                              
ram:0800147c    02d0            beq         LAB_08001484                            
ram:0800147e    c078            ldrb        param_1,[param_1,#0x3]=>DAT_2000012f    
ram:08001480    c007            lsls        param_1,param_1,#0x1f                   
ram:08001482    04d1            bne         LAB_0800148e                            
                            LAB_08001484:                 ;XREF[1,0]:   0800147c
ram:08001484    b078            ldrb        param_1,[r6,#0x2]=>DAT_200000fa         
ram:08001486    0028            cmp         param_1,#0x0                            
ram:08001488    01d0            beq         LAB_0800148e                            
ram:0800148a    3220            movs        param_1,#0x32                           
ram:0800148c    7072            strb        param_1,[r6,#0x9]=>DAT_20000101         
                            LAB_0800148e:                 ;XREF[2,0]:   08001482,08001488
ram:0800148e    707a            ldrb        param_1,[r6,#0x9]=>DAT_20000101         
ram:08001490    0128            cmp         param_1,#0x1                            
ram:08001492    0cd1            bne         LAB_080014ae                            
ram:08001494    3170            strb        param_2,[r6,#0x0]=>DAT_200000f8         
ram:08001496    03f06dfd        bl          FUN_08004f74                            ;undefined FUN_08004f74(undefined4 pa...
ram:0800149a    00f08efe        bl          FUN_080021ba                            ;undefined FUN_080021ba(void)
ram:0800149e    0020            movs        param_1,#0x0                            
ram:080014a0    7072            strb        param_1,[r6,#0x9]=>DAT_20000101         
ram:080014a2    b070            strb        param_1,[r6,#0x2]=>DAT_200000fa         
ram:080014a4    0122            movs        r2,#0x1                                 
ram:080014a6    3749            ldr         param_2=>DAT_200000fa,[DAT_08001584]    ;= 200000FAh
ram:080014a8    3748            ldr         param_1,[DAT_08001588]                  
ram:080014aa    01f08cfe        bl          FUN_080031c6                            ;undefined FUN_080031c6(uint param_1,...
                            LAB_080014ae:                 ;XREF[3,0]:   080013f0,080013fa,08001492
ram:080014ae    b078            ldrb        param_1,[r6,#0x2]=>DAT_200000fa         
ram:080014b0    0028            cmp         param_1,#0x0                            
ram:080014b2    06d0            beq         LAB_080014c2                            
ram:080014b4    0020            movs        param_1,#0x0                            
ram:080014b6    b070            strb        param_1,[r6,#0x2]=>DAT_200000fa         
ram:080014b8    0122            movs        r2,#0x1                                 
ram:080014ba    3249            ldr         param_2=>DAT_200000fa,[DAT_08001584]    ;= 200000FAh
ram:080014bc    3248            ldr         param_1,[DAT_08001588]                  
ram:080014be    01f082fe        bl          FUN_080031c6                            ;undefined FUN_080031c6(uint param_1,...
                            LAB_080014c2:                 ;XREF[1,0]:   080014b2
ram:080014c2    3d49            ldr         param_2,[DAT_080015b8]                  ;= 10010000h
ram:080014c4    264f            ldr         r7,[DAT_08001560]                       ;= 20000144h
ram:080014c6    8c42            cmp         r4,param_2                              
ram:080014c8    1ad1            bne         LAB_08001500                            
ram:080014ca    3c48            ldr         param_1,[DAT_080015bc]                  ;= 20000128h
ram:080014cc    e243            mvns        r2,r4                                   
ram:080014ce    0168            ldr         param_2,[param_1,#0x0]=>DAT_20000128    
ram:080014d0    1142            tst         param_2,r2                              
ram:080014d2    15d1            bne         LAB_08001500                            
ram:080014d4    8178            ldrb        param_2,[param_1,#0x2]=>DAT_2000012a    
ram:080014d6    c907            lsls        param_2,param_2,#0x1f                   
ram:080014d8    02d0            beq         LAB_080014e0                            
ram:080014da    c078            ldrb        param_1,[param_1,#0x3]=>DAT_2000012b    
ram:080014dc    c006            lsls        param_1,param_1,#0x1b                   
ram:080014de    01d4            bmi         LAB_080014e4                            
                            LAB_080014e0:                 ;XREF[1,0]:   080014d8
ram:080014e0    3220            movs        param_1,#0x32                           
ram:080014e2    7072            strb        param_1,[r6,#0x9]=>DAT_20000101         
                            LAB_080014e4:                 ;XREF[1,0]:   080014de
ram:080014e4    b81e            subs        param_1,r7,#0x2                         
ram:080014e6    1d49            ldr         param_2,[DAT_0800155c]                  ;= FFFF8000h
ram:080014e8    0222            movs        r2,#0x2                                 
                            LAB_080014ea:                 ;XREF[1,0]:   080014f2
                                                          ; FWD[2,0]:   20000144,20000148
ram:080014ea    4180            strh        param_2,[param_1,#0x2]=>DAT_20000144    
                                                          ; FWD[2,0]:   20000146,2000014a
ram:080014ec    8180            strh        param_2,[param_1,#0x4]=>DAT_20000146    
ram:080014ee    001d            adds        param_1,param_1,#0x4                    
ram:080014f0    521e            subs        r2,r2,#0x1                              
ram:080014f2    fad1            bne         LAB_080014ea                            
ram:080014f4    0020            movs        param_1,#0x0                            
ram:080014f6    3062            str         param_1,[r6,#0x20]=>DAT_20000118        
ram:080014f8    707a            ldrb        param_1,[r6,#0x9]=>DAT_20000101         
ram:080014fa    0128            cmp         param_1,#0x1                            
ram:080014fc    0dd0            beq         LAB_0800151a                            
ram:080014fe    27e0            b           LAB_08001550                            
                            LAB_08001500:                 ;XREF[2,0]:   080014c8,080014d2
ram:08001500    2002            lsls        param_1,r4,#0x8                         
ram:08001502    000e            lsrs        param_1,param_1,#0x18                   
ram:08001504    c007            lsls        param_1,param_1,#0x1f                   
ram:08001506    23d0            beq         LAB_08001550                            
ram:08001508    0121            movs        param_2,#0x1                            
ram:0800150a    0904            lsls        param_2,param_2,#0x10                   
ram:0800150c    8c42            cmp         r4,param_2                              
ram:0800150e    67d1            bne         LAB_080015e0                            
ram:08001510    2a48            ldr         param_1,[DAT_080015bc]                  ;= 20000128h
ram:08001512    0068            ldr         param_1,[param_1,#0x0]=>DAT_20000128    
ram:08001514    0028            cmp         param_1,#0x0                            
ram:08001516    0dd0            beq         LAB_08001534                            
ram:08001518    0ee0            b           LAB_08001538                            
                            LAB_0800151a:                 ;XREF[1,0]:   080014fc
ram:0800151a    0820            movs        param_1,#0x8                            
ram:0800151c    3070            strb        param_1,[r6,#0x0]=>DAT_200000f8         
ram:0800151e    0120            movs        param_1,#0x1                            
ram:08001520    03f028fd        bl          FUN_08004f74                            ;undefined FUN_08004f74(undefined4 pa...
ram:08001524    0020            movs        param_1,#0x0                            
ram:08001526    7072            strb        param_1,[r6,#0x9]=>DAT_20000101         
ram:08001528    2822            movs        r2,#0x28                                
ram:0800152a    2549            ldr         param_2=>LAB_080053d4,[PTR_LAB_080015c0];= 080053d4
ram:0800152c    0d48            ldr         param_1,[DAT_08001564]                  ;= 00000002h
ram:0800152e    01f04afe        bl          FUN_080031c6                            ;undefined FUN_080031c6(uint param_1,...
ram:08001532    0de0            b           LAB_08001550                            
                            LAB_08001534:                 ;XREF[1,0]:   08001516
ram:08001534    1e20            movs        param_1,#0x1e                           
ram:08001536    7072            strb        param_1,[r6,#0x9]=>DAT_20000101         
                            LAB_08001538:                 ;XREF[1,0]:   08001518
ram:08001538    707a            ldrb        param_1,[r6,#0x9]=>DAT_20000101         
ram:0800153a    0128            cmp         param_1,#0x1                            
ram:0800153c    08d1            bne         LAB_08001550                            
ram:0800153e    0420            movs        param_1,#0x4                            
ram:08001540    3070            strb        param_1,[r6,#0x0]=>DAT_200000f8         
ram:08001542    2049            ldr         param_2,[DAT_080015c4]                  ;= 20000218h
ram:08001544    0220            movs        param_1,#0x2                            
ram:08001546    0860            str         param_1,[param_2,#0x0]=>DAT_20000218    
ram:08001548    0120            movs        param_1,#0x1                            
ram:0800154a    7071            strb        param_1,[r6,#0x5]=>DAT_200000fd         
ram:0800154c    0020            movs        param_1,#0x0                            
                            LAB_0800154e:                 ;XREF[1,0]:   080015e4
ram:0800154e    7072            strb        param_1,[r6,#0x9]=>DAT_20000101         
                            LAB_08001550:                 ;XREF[4,0]:   080014fe,08001506,08001532,0800153c
ram:08001550    0121            movs        param_2,#0x1                            
ram:08001552    39e0            b           LAB_080015c8                            
ram:08001554    a802            lsls        r0,r5,#0xa                              
ram:08001556    0020            movs        r0,#0x0                                 
ram:08001558    4201            lsls        r2,r0,#0x5                              
ram:0800155a    0020            movs        r0,#0x0                                 
                            DAT_0800155c:                 ;XREF[2,0]:   080011c4,080014e6
ram:0800155c    0080ffff        undefined4  FFFF8000h                               
                            DAT_08001560:                 ;XREF[4,0]:   080011c2,080011e2,080011fe,080014c4
ram:08001560    44010020        undefined4  20000144h                               
                            DAT_08001564:                 ;XREF[3,0]:   080011d8,08001258,0800152c
ram:08001564    02000000        undefined4  00000002h                               
                            DAT_08001568:                 ;XREF[4,0]:   080011e8,0800120c,08001252,080012e6
ram:08001568    d4000020        undefined4  200000D4h                               
                            DAT_0800156c:                 ;XREF[4,0]:   080011f0,08001222,08001262,080012fc
ram:0800156c    e8000020        undefined4  200000E8h                               
                            DAT_08001570:                 ;XREF[3,0]:   080011f2,08001264,080012e8
ram:08001570    cc000020        undefined4  200000CCh                               
                            DAT_08001574:                 ;XREF[2,0]:   08001214,080012e0
ram:08001574    f8000020        undefined4  200000F8h                               
                            DAT_08001578:                 ;XREF[2,0]:   0800121c,080012fe
ram:08001578    d0000020        undefined4  200000D0h                               
                            DAT_0800157c:                 ;XREF[1,0]:   08001224
ram:0800157c    f0000020        undefined4  200000F0h                               
                            DAT_08001580:                 ;XREF[5,0]:   0800125a,0800127a,0800128c,0800129e
                                                          ;             080012b0
ram:08001580    b0010020        undefined4  200001B0h                               
                            DAT_08001584:                 ;XREF[4,0]:   080012bc,080013d8,080014a6,080014ba
ram:08001584    fa000020        undefined4  200000FAh                               
                            DAT_08001588:                 ;XREF[4,0]:   080012be,080013da,080014a8,080014bc
ram:08001588    00000000        undefined4  00000000h                               
                            DAT_0800158c:                 ;XREF[1,0]:   080012ca
ram:0800158c    fb000020        undefined4  200000FBh                               
                            DAT_08001590:                 ;XREF[1,0]:   080012cc
ram:08001590    01000000        undefined4  00000001h                               
                            DAT_08001594:                 ;XREF[1,0]:   080012da
ram:08001594    34020020        undefined4  20000234h                               
                            DAT_08001598:                 ;XREF[1,0]:   080012ec
ram:08001598    04020020        undefined4  20000204h                               
                            DAT_0800159c:                 ;XREF[1,0]:   0800130c
ram:0800159c    fcf2051a        undefined4  1A05F2FCh                               
                            DAT_080015a0:                 ;XREF[1,0]:   0800132e
ram:080015a0    c8000020        undefined4  200000C8h                               
                            DAT_080015a4:                 ;XREF[1,0]:   080013a8
ram:080015a4    6c010020        undefined4  2000016Ch                               
                            DAT_080015a8:                 ;XREF[1,0]:   080013b4
ram:080015a8    38010020        undefined4  20000138h                               
                            DAT_080015ac:                 ;XREF[1,0]:   080013f2
ram:080015ac    2c010020        undefined4  2000012Ch                               
                            DAT_080015b0:                 ;XREF[4,0]:   08001402,0800141c,08001436,08001450
ram:080015b0    aa010020        undefined4  200001AAh                               
                            DAT_080015b4:                 ;XREF[4,0]:   0800140a,08001424,0800143e,08001458
ram:080015b4    80010020        undefined4  20000180h                               
                            DAT_080015b8:                 ;XREF[1,0]:   080014c2
ram:080015b8    00000110        undefined4  10010000h                               
                            DAT_080015bc:                 ;XREF[2,0]:   080014ca,08001510
ram:080015bc    28010020        undefined4  20000128h                               
                            PTR_LAB_080015c0:             ;XREF[1,0]:   0800152a
ram:080015c0    d4530008        addr        LAB_080053d4                            
                            DAT_080015c4:                 ;XREF[1,0]:   08001542
ram:080015c4    18020020        undefined4  20000218h                               
                            LAB_080015c8:                 ;XREF[1,0]:   08001552
ram:080015c8    0904            lsls        param_2,param_2,#0x10                   
ram:080015ca    8c42            cmp         r4,param_2                              
ram:080015cc    14d1            bne         LAB_080015f8                            
ram:080015ce    7169            ldr         param_2,[r6,#0x14]=>DAT_2000010c        
ram:080015d0    1e29            cmp         param_2,#0x1e                           
ram:080015d2    02d2            bcs         LAB_080015da                            
ram:080015d4    0020            movs        param_1,#0x0                            
ram:080015d6    7071            strb        param_1,[r6,#0x5]=>DAT_200000fd         
ram:080015d8    7072            strb        param_1,[r6,#0x9]=>DAT_20000101         
                            LAB_080015da:                 ;XREF[1,0]:   080015d2
ram:080015da    0029            cmp         param_2,#0x0                            
ram:080015dc    03d0            beq         LAB_080015e6                            
ram:080015de    0de0            b           LAB_080015fc                            
                            LAB_080015e0:                 ;XREF[1,0]:   0800150e
ram:080015e0    0020            movs        param_1,#0x0                            
ram:080015e2    7071            strb        param_1,[r6,#0x5]=>DAT_200000fd         
ram:080015e4    b3e7            b           LAB_0800154e                            
                            LAB_080015e6:                 ;XREF[1,0]:   080015dc
ram:080015e6    b069            ldr         param_1,[r6,#0x18]=>DAT_20000110        
ram:080015e8    0028            cmp         param_1,#0x0                            
ram:080015ea    02d1            bne         LAB_080015f2                            
ram:080015ec    fe48            ldr         param_1,[DAT_080019e8]                  ;= 20000218h
ram:080015ee    0121            movs        param_2,#0x1                            
ram:080015f0    0160            str         param_2,[param_1,#0x0]=>DAT_20000218    
                            LAB_080015f2:                 ;XREF[1,0]:   080015ea
ram:080015f2    0a20            movs        param_1,#0xa                            
ram:080015f4    b061            str         param_1,[r6,#0x18]=>DAT_20000110        
ram:080015f6    04e0            b           LAB_08001602                            
                            LAB_080015f8:                 ;XREF[1,0]:   080015cc
ram:080015f8    5a20            movs        param_1,#0x5a                           
ram:080015fa    7061            str         param_1,[r6,#0x14]=>DAT_2000010c        
                            LAB_080015fc:                 ;XREF[1,0]:   080015de
ram:080015fc    b069            ldr         param_1,[r6,#0x18]=>DAT_20000110        
ram:080015fe    0028            cmp         param_1,#0x0                            
ram:08001600    21d0            beq         LAB_08001646                            
                            LAB_08001602:                 ;XREF[1,0]:   080015f6
ram:08001602    2002            lsls        param_1,r4,#0x8                         
ram:08001604    000e            lsrs        param_1,param_1,#0x18                   
ram:08001606    8007            lsls        param_1,param_1,#0x1e                   
ram:08001608    1dd5            bpl         LAB_08001646                            
ram:0800160a    0020            movs        param_1,#0x0                            
ram:0800160c    f74a            ldr         r2=>DAT_20000128,[DAT_080019ec]         ;= 20000128h
ram:0800160e    b061            str         param_1,[r6,#0x18]=>DAT_20000110        
ram:08001610    9078            ldrb        param_1,[r2,#0x2]=>DAT_2000012a         
ram:08001612    0221            movs        param_2,#0x2                            
ram:08001614    0843            orrs        param_1,param_2                         
ram:08001616    9070            strb        param_1,[r2,#0x2]=>DAT_2000012a         
ram:08001618    0820            movs        param_1,#0x8                            
ram:0800161a    3070            strb        param_1,[r6,#0x0]=>DAT_200000f8         
ram:0800161c    0120            movs        param_1,#0x1                            
ram:0800161e    03f0a9fc        bl          FUN_08004f74                            ;undefined FUN_08004f74(undefined4 pa...
ram:08001622    f149            ldr         param_2,[DAT_080019e8]                  ;= 20000218h
ram:08001624    0220            movs        param_1,#0x2                            
ram:08001626    0860            str         param_1,[param_2,#0x0]=>DAT_20000218    
ram:08001628    0020            movs        param_1,#0x0                            
ram:0800162a    7072            strb        param_1,[r6,#0x9]=>DAT_20000101         
ram:0800162c    2822            movs        r2,#0x28                                
ram:0800162e    f049            ldr         param_2=>LAB_080053d4,[PTR_LAB_080019f0];= 080053d4
ram:08001630    f048            ldr         param_1,[DAT_080019f4]                  ;= 00000002h
ram:08001632    01f0c8fd        bl          FUN_080031c6                            ;undefined FUN_080031c6(uint param_1,...
ram:08001636    0020            movs        param_1,#0x0                            
ram:08001638    c043            mvns        param_1,param_1                         
ram:0800163a    b070            strb        param_1,[r6,#0x2]=>DAT_200000fa         
ram:0800163c    0122            movs        r2,#0x1                                 
ram:0800163e    ee49            ldr         param_2=>DAT_200000fa,[DAT_080019f8]    ;= 200000FAh
ram:08001640    ee48            ldr         param_1,[DAT_080019fc]                  
ram:08001642    01f0c0fd        bl          FUN_080031c6                            ;undefined FUN_080031c6(uint param_1,...
                            LAB_08001646:                 ;XREF[2,0]:   08001600,08001608
ram:08001646    0098            ldr         param_1,[sp,#0x0]=>local_28             
ram:08001648    0028            cmp         param_1,#0x0                            
ram:0800164a    02d1            bne         LAB_08001652                            
ram:0800164c    7079            ldrb        param_1,[r6,#0x5]=>DAT_200000fd         
ram:0800164e    0028            cmp         param_1,#0x0                            
ram:08001650    77d0            beq         LAB_08001742                            
                            LAB_08001652:                 ;XREF[1,0]:   0800164a
ram:08001652    7079            ldrb        param_1,[r6,#0x5]=>DAT_200000fd         
ram:08001654    0128            cmp         param_1,#0x1                            
ram:08001656    75d1            bne         LAB_08001744                            
ram:08001658    2002            lsls        param_1,r4,#0x8                         
ram:0800165a    000e            lsrs        param_1,param_1,#0x18                   
ram:0800165c    c007            lsls        param_1,param_1,#0x1f                   
ram:0800165e    71d1            bne         LAB_08001744                            
ram:08001660    0f21            movs        param_2,#0xf                            
ram:08001662    2046            mov         param_1,r4                              
ram:08001664    0903            lsls        param_2,param_2,#0xc                    
ram:08001666    8843            bics        param_1,param_2                         
ram:08001668    07d1            bne         LAB_0800167a                            
ram:0800166a    e048            ldr         param_1,[DAT_080019ec]                  ;= 20000128h
ram:0800166c    0168            ldr         param_2,[param_1,#0x0]=>DAT_20000128    
ram:0800166e    0120            movs        param_1,#0x1                            
ram:08001670    0004            lsls        param_1,param_1,#0x10                   
ram:08001672    8142            cmp         param_2,param_1                         
ram:08001674    01d1            bne         LAB_0800167a                            
ram:08001676    6420            movs        param_1,#0x64                           
ram:08001678    7072            strb        param_1,[r6,#0x9]=>DAT_20000101         
                            LAB_0800167a:                 ;XREF[2,0]:   08001668,08001674
ram:0800167a    707a            ldrb        param_1,[r6,#0x9]=>DAT_20000101         
ram:0800167c    0128            cmp         param_1,#0x1                            
ram:0800167e    02d8            bhi         LAB_08001686                            
ram:08001680    0020            movs        param_1,#0x0                            
ram:08001682    7071            strb        param_1,[r6,#0x5]=>DAT_200000fd         
ram:08001684    7072            strb        param_1,[r6,#0x9]=>DAT_20000101         
                            LAB_08001686:                 ;XREF[1,0]:   0800167e
ram:08001686    a004            lsls        param_1,r4,#0x12                        
ram:08001688    800f            lsrs        param_1,param_1,#0x1e                   
ram:0800168a    0328            cmp         param_1,#0x3                            
ram:0800168c    12d0            beq         LAB_080016b4                            
ram:0800168e    2004            lsls        param_1,r4,#0x10                        
ram:08001690    000e            lsrs        param_1,param_1,#0x18                   
ram:08001692    c106            lsls        param_2,param_1,#0x1b                   
ram:08001694    1dd5            bpl         LAB_080016d2                            
ram:08001696    0020            movs        param_1,#0x0                            
ram:08001698    fff7dafd        bl          FUN_08001250                            ;undefined FUN_08001250(int param_1)
ram:0800169c    0820            movs        param_1,#0x8                            
ram:0800169e    3070            strb        param_1,[r6,#0x0]=>DAT_200000f8         
ram:080016a0    0120            movs        param_1,#0x1                            
ram:080016a2    03f067fc        bl          FUN_08004f74                            ;undefined FUN_08004f74(undefined4 pa...
ram:080016a6    d049            ldr         param_2,[DAT_080019e8]                  ;= 20000218h
ram:080016a8    0220            movs        param_1,#0x2                            
ram:080016aa    0860            str         param_1,[param_2,#0x0]=>DAT_20000218    
ram:080016ac    0020            movs        param_1,#0x0                            
ram:080016ae    7071            strb        param_1,[r6,#0x5]=>DAT_200000fd         
ram:080016b0    7072            strb        param_1,[r6,#0x9]=>DAT_20000101         
ram:080016b2    47e0            b           LAB_08001744                            
                            LAB_080016b4:                 ;XREF[1,0]:   0800168c
ram:080016b4    0420            movs        param_1,#0x4                            
ram:080016b6    fff7cbfd        bl          FUN_08001250                            ;undefined FUN_08001250(int param_1)
ram:080016ba    0820            movs        param_1,#0x8                            
ram:080016bc    3070            strb        param_1,[r6,#0x0]=>DAT_200000f8         
ram:080016be    0120            movs        param_1,#0x1                            
ram:080016c0    03f058fc        bl          FUN_08004f74                            ;undefined FUN_08004f74(undefined4 pa...
ram:080016c4    c849            ldr         param_2,[DAT_080019e8]                  ;= 20000218h
ram:080016c6    0220            movs        param_1,#0x2                            
ram:080016c8    0860            str         param_1,[param_2,#0x0]=>DAT_20000218    
ram:080016ca    0020            movs        param_1,#0x0                            
ram:080016cc    7071            strb        param_1,[r6,#0x5]=>DAT_200000fd         
ram:080016ce    7072            strb        param_1,[r6,#0x9]=>DAT_20000101         
ram:080016d0    38e0            b           LAB_08001744                            
                            LAB_080016d2:                 ;XREF[1,0]:   08001694
ram:080016d2    8106            lsls        param_2,param_1,#0x1a                   
ram:080016d4    0ed5            bpl         LAB_080016f4                            
ram:080016d6    0120            movs        param_1,#0x1                            
ram:080016d8    fff7bafd        bl          FUN_08001250                            ;undefined FUN_08001250(int param_1)
ram:080016dc    0820            movs        param_1,#0x8                            
ram:080016de    3070            strb        param_1,[r6,#0x0]=>DAT_200000f8         
ram:080016e0    0120            movs        param_1,#0x1                            
ram:080016e2    03f047fc        bl          FUN_08004f74                            ;undefined FUN_08004f74(undefined4 pa...
ram:080016e6    c049            ldr         param_2,[DAT_080019e8]                  ;= 20000218h
ram:080016e8    0220            movs        param_1,#0x2                            
ram:080016ea    0860            str         param_1,[param_2,#0x0]=>DAT_20000218    
ram:080016ec    0020            movs        param_1,#0x0                            
ram:080016ee    7071            strb        param_1,[r6,#0x5]=>DAT_200000fd         
ram:080016f0    7072            strb        param_1,[r6,#0x9]=>DAT_20000101         
ram:080016f2    27e0            b           LAB_08001744                            
                            LAB_080016f4:                 ;XREF[1,0]:   080016d4
ram:080016f4    4106            lsls        param_2,param_1,#0x19                   
ram:080016f6    0ed5            bpl         LAB_08001716                            
ram:080016f8    0220            movs        param_1,#0x2                            
ram:080016fa    fff7a9fd        bl          FUN_08001250                            ;undefined FUN_08001250(int param_1)
ram:080016fe    0820            movs        param_1,#0x8                            
ram:08001700    3070            strb        param_1,[r6,#0x0]=>DAT_200000f8         
ram:08001702    0120            movs        param_1,#0x1                            
ram:08001704    03f036fc        bl          FUN_08004f74                            ;undefined FUN_08004f74(undefined4 pa...
ram:08001708    b748            ldr         param_1,[DAT_080019e8]                  ;= 20000218h
ram:0800170a    0221            movs        param_2,#0x2                            
ram:0800170c    0160            str         param_2,[param_1,#0x0]=>DAT_20000218    
ram:0800170e    0020            movs        param_1,#0x0                            
ram:08001710    7071            strb        param_1,[r6,#0x5]=>DAT_200000fd         
ram:08001712    7072            strb        param_1,[r6,#0x9]=>DAT_20000101         
ram:08001714    16e0            b           LAB_08001744                            
                            LAB_08001716:                 ;XREF[1,0]:   080016f6
ram:08001716    c009            lsrs        param_1,param_1,#0x7                    
ram:08001718    0fd0            beq         LAB_0800173a                            
ram:0800171a    0320            movs        param_1,#0x3                            
ram:0800171c    fff798fd        bl          FUN_08001250                            ;undefined FUN_08001250(int param_1)
ram:08001720    0820            movs        param_1,#0x8                            
ram:08001722    3070            strb        param_1,[r6,#0x0]=>DAT_200000f8         
ram:08001724    0120            movs        param_1,#0x1                            
ram:08001726    03f025fc        bl          FUN_08004f74                            ;undefined FUN_08004f74(undefined4 pa...
ram:0800172a    af48            ldr         param_1,[DAT_080019e8]                  ;= 20000218h
ram:0800172c    0221            movs        param_2,#0x2                            
ram:0800172e    0160            str         param_2,[param_1,#0x0]=>DAT_20000218    
ram:08001730    0020            movs        param_1,#0x0                            
ram:08001732    7071            strb        param_1,[r6,#0x5]=>DAT_200000fd         
ram:08001734    7072            strb        param_1,[r6,#0x9]=>DAT_20000101         
ram:08001736    05e0            b           LAB_08001744                            
ram:08001738    03e0            b           LAB_08001742                            
                            LAB_0800173a:                 ;XREF[1,0]:   08001718
ram:0800173a    002c            cmp         r4,#0x0                                 
ram:0800173c    02d0            beq         LAB_08001744                            
ram:0800173e    0020            movs        param_1,#0x0                            
ram:08001740    7071            strb        param_1,[r6,#0x5]=>DAT_200000fd         
                            LAB_08001742:                 ;XREF[2,0]:   08001650,08001738
ram:08001742    7072            strb        param_1,[r6,#0x9]=>DAT_20000101         
                            LAB_08001744:                 ;XREF[8,0]:   08001656,0800165e,080016b2,080016d0
                                                          ;             080016f2,08001714,08001736,0800173c
ram:08001744    7079            ldrb        param_1,[r6,#0x5]=>DAT_200000fd         
ram:08001746    0128            cmp         param_1,#0x1                            
ram:08001748    0bd0            beq         LAB_08001762                            
ram:0800174a    0321            movs        param_2,#0x3                            
                            LAB_0800174c:                 ;XREF[1,0]:   08001764
ram:0800174c    ac48            ldr         param_1,[DAT_08001a00]                  ;= 8201F000h
ram:0800174e    03f033f9        bl          FUN_080049b8                            ;undefined FUN_080049b8(uint param_1,...
ram:08001752    a648            ldr         param_1,[DAT_080019ec]                  ;= 20000128h
ram:08001754    ab49            ldr         param_2,[DAT_08001a04]                  ;= 200000F8h
ram:08001756    0122            movs        r2,#0x1                                 
ram:08001758    0068            ldr         param_1,[param_1,#0x0]=>DAT_20000128    
ram:0800175a    8a56            ldrsb       r2,[param_2,r2]=>DAT_200000f9           
ram:0800175c    1043            orrs        param_1,r2                              
ram:0800175e    02d0            beq         LAB_08001766                            
ram:08001760    98e0            b           LAB_08001894                            
                            LAB_08001762:                 ;XREF[1,0]:   08001748
ram:08001762    0121            movs        param_2,#0x1                            
ram:08001764    f2e7            b           LAB_0800174c                            
                            LAB_08001766:                 ;XREF[1,0]:   0800175e
ram:08001766    002c            cmp         r4,#0x0                                 
ram:08001768    1fd0            beq         LAB_080017aa                            
ram:0800176a    a749            ldr         param_2,[DAT_08001a08]                  ;= FFFF8000h
ram:0800176c    0320            movs        param_1,#0x3                            
                            LAB_0800176e:                 ;XREF[1,0]:   08001778
ram:0800176e    4200            lsls        r2,param_1,#0x1                         
                                                          ; FWD[2,0]:   20000148,2000014a
ram:08001770    ba5e            ldrsh       r2,[r7,r2]=>DAT_2000014a                
ram:08001772    8a42            cmp         r2,param_2                              
ram:08001774    01d1            bne         LAB_0800177a                            
ram:08001776    401e            subs        param_1,param_1,#0x1                    
ram:08001778    f9d2            bcs         LAB_0800176e                            
                            LAB_0800177a:                 ;XREF[1,0]:   08001774
ram:0800177a    401c            adds        param_1,param_1,#0x1                    
ram:0800177c    06d1            bne         LAB_0800178c                            
ram:0800177e    a148            ldr         param_1,[DAT_08001a04]                  ;= 200000F8h
ram:08001780    026a            ldr         r2,[param_1,#0x20]=>DAT_20000118        
ram:08001782    002a            cmp         r2,#0x0                                 
ram:08001784    02d1            bne         LAB_0800178c                            
ram:08001786    806a            ldr         param_1,[param_1,#0x28]=>DAT_20000120   
ram:08001788    0028            cmp         param_1,#0x0                            
ram:0800178a    0ed0            beq         LAB_080017aa                            
                            LAB_0800178c:                 ;XREF[2,0]:   0800177c,08001784
ram:0800178c    b81e            subs        param_1,r7,#0x2                         
ram:0800178e    0222            movs        r2,#0x2                                 
                            LAB_08001790:                 ;XREF[1,0]:   08001798
                                                          ; FWD[2,0]:   20000144,20000148
ram:08001790    4180            strh        param_2,[param_1,#0x2]=>DAT_20000144    
                                                          ; FWD[2,0]:   20000146,2000014a
ram:08001792    8180            strh        param_2,[param_1,#0x4]=>DAT_20000146    
ram:08001794    001d            adds        param_1,param_1,#0x4                    
ram:08001796    521e            subs        r2,r2,#0x1                              
ram:08001798    fad1            bne         LAB_08001790                            
ram:0800179a    9a48            ldr         param_1,[DAT_08001a04]                  ;= 200000F8h
ram:0800179c    0021            movs        param_2,#0x0                            
ram:0800179e    0162            str         param_2,[param_1,#0x20]=>DAT_20000118   
ram:080017a0    0246            mov         r2,param_1                              
ram:080017a2    5164            str         param_2,[r2,#0x44]=>DAT_2000013c        
ram:080017a4    491e            subs        param_2,param_2,#0x1                    
ram:080017a6    4170            strb        param_2,[param_1,#0x1]=>DAT_200000f9    
ram:080017a8    74e0            b           LAB_08001894                            
                            LAB_080017aa:                 ;XREF[2,0]:   08001768,0800178a
ram:080017aa    a004            lsls        param_1,r4,#0x12                        
ram:080017ac    800f            lsrs        param_1,param_1,#0x1e                   
ram:080017ae    0328            cmp         param_1,#0x3                            
ram:080017b0    13d0            beq         LAB_080017da                            
ram:080017b2    2004            lsls        param_1,r4,#0x10                        
ram:080017b4    000e            lsrs        param_1,param_1,#0x18                   
ram:080017b6    c106            lsls        param_2,param_1,#0x1b                   
ram:080017b8    21d5            bpl         LAB_080017fe                            
ram:080017ba    8e48            ldr         param_1,[DAT_080019f4]                  ;= 00000002h
ram:080017bc    0822            movs        r2,#0x8                                 
ram:080017be    9349            ldr         param_2=>DAT_20000144,[DAT_08001a0c]    ;= 20000144h
ram:080017c0    01f0d5fc        bl          FUN_0800316e                            ;int FUN_0800316e(uint param_1, int p...
ram:080017c4    9248            ldr         param_1,[DAT_08001a10]                  ;= 200000D4h
ram:080017c6    0068            ldr         param_1,[param_1,#0x0]=>DAT_200000d4    
ram:080017c8    0028            cmp         param_1,#0x0                            
ram:080017ca    63d0            beq         LAB_08001894                            
ram:080017cc    9148            ldr         param_1,[DAT_08001a14]                  ;= 200000E8h
ram:080017ce    0168            ldr         param_2,[param_1,#0x0]=>DAT_200000e8    
ram:080017d0    9148            ldr         param_1,[DAT_08001a18]                  ;= 200000CCh
ram:080017d2    0068            ldr         param_1,[param_1,#0x0]=>DAT_200000cc    
ram:080017d4    0143            orrs        param_2,param_1                         
ram:080017d6    4ad1            bne         LAB_0800186e                            
ram:080017d8    5ce0            b           LAB_08001894                            
                            LAB_080017da:                 ;XREF[1,0]:   080017b0
ram:080017da    9048            ldr         param_1,[DAT_08001a1c]                  ;= 00000022h
ram:080017dc    0822            movs        r2,#0x8                                 
ram:080017de    8b49            ldr         param_2=>DAT_20000144,[DAT_08001a0c]    ;= 20000144h
ram:080017e0    01f0c5fc        bl          FUN_0800316e                            ;int FUN_0800316e(uint param_1, int p...
ram:080017e4    8a48            ldr         param_1,[DAT_08001a10]                  ;= 200000D4h
ram:080017e6    0068            ldr         param_1,[param_1,#0x0]=>DAT_200000d4    
ram:080017e8    0028            cmp         param_1,#0x0                            
ram:080017ea    2bd0            beq         LAB_08001844                            
ram:080017ec    8948            ldr         param_1,[DAT_08001a14]                  ;= 200000E8h
ram:080017ee    0168            ldr         param_2,[param_1,#0x0]=>DAT_200000e8    
ram:080017f0    8948            ldr         param_1,[DAT_08001a18]                  ;= 200000CCh
ram:080017f2    0068            ldr         param_1,[param_1,#0x0]=>DAT_200000cc    
ram:080017f4    0143            orrs        param_2,param_1                         
ram:080017f6    25d0            beq         LAB_08001844                            
                            LAB_080017f8:                 ;XREF[2,0]:   0800181e,08001842
ram:080017f8    8348            ldr         param_1,[DAT_08001a08]                  ;= FFFF8000h
ram:080017fa    3880            strh        param_1,[r7,#0x0]=>DAT_20000144         
ram:080017fc    22e0            b           LAB_08001844                            
                            LAB_080017fe:                 ;XREF[1,0]:   080017b8
ram:080017fe    c109            lsrs        param_2,param_1,#0x7                    
ram:08001800    0fd0            beq         LAB_08001822                            
ram:08001802    8748            ldr         param_1,[DAT_08001a20]                  ;= 0000001Ah
ram:08001804    0822            movs        r2,#0x8                                 
ram:08001806    8149            ldr         param_2=>DAT_20000144,[DAT_08001a0c]    ;= 20000144h
ram:08001808    01f0b1fc        bl          FUN_0800316e                            ;int FUN_0800316e(uint param_1, int p...
ram:0800180c    8048            ldr         param_1,[DAT_08001a10]                  ;= 200000D4h
ram:0800180e    0068            ldr         param_1,[param_1,#0x0]=>DAT_200000d4    
ram:08001810    0028            cmp         param_1,#0x0                            
ram:08001812    17d0            beq         LAB_08001844                            
ram:08001814    7f48            ldr         param_1,[DAT_08001a14]                  ;= 200000E8h
ram:08001816    0168            ldr         param_2,[param_1,#0x0]=>DAT_200000e8    
ram:08001818    7f48            ldr         param_1,[DAT_08001a18]                  ;= 200000CCh
ram:0800181a    0068            ldr         param_1,[param_1,#0x0]=>DAT_200000cc    
ram:0800181c    0143            orrs        param_2,param_1                         
ram:0800181e    ebd1            bne         LAB_080017f8                            
ram:08001820    10e0            b           LAB_08001844                            
                            LAB_08001822:                 ;XREF[1,0]:   08001800
ram:08001822    4106            lsls        param_2,param_1,#0x19                   
ram:08001824    12d5            bpl         LAB_0800184c                            
ram:08001826    7f48            ldr         param_1,[DAT_08001a24]                  ;= 00000012h
ram:08001828    0822            movs        r2,#0x8                                 
ram:0800182a    7849            ldr         param_2=>DAT_20000144,[DAT_08001a0c]    ;= 20000144h
ram:0800182c    01f09ffc        bl          FUN_0800316e                            ;int FUN_0800316e(uint param_1, int p...
ram:08001830    7748            ldr         param_1,[DAT_08001a10]                  ;= 200000D4h
ram:08001832    0068            ldr         param_1,[param_1,#0x0]=>DAT_200000d4    
ram:08001834    0028            cmp         param_1,#0x0                            
ram:08001836    05d0            beq         LAB_08001844                            
ram:08001838    7648            ldr         param_1,[DAT_08001a14]                  ;= 200000E8h
ram:0800183a    0168            ldr         param_2,[param_1,#0x0]=>DAT_200000e8    
ram:0800183c    7648            ldr         param_1,[DAT_08001a18]                  ;= 200000CCh
ram:0800183e    0068            ldr         param_1,[param_1,#0x0]=>DAT_200000cc    
ram:08001840    0143            orrs        param_2,param_1                         
ram:08001842    d9d1            bne         LAB_080017f8                            
                            LAB_08001844:                 ;XREF[6,0]:   080017ea,080017f6,080017fc,08001812
                                                          ;             08001820,08001836
ram:08001844    7048            ldr         param_1,[DAT_08001a08]                  ;= FFFF8000h
ram:08001846    b880            strh        param_1,[r7,#0x4]=>DAT_20000148         
ram:08001848    f880            strh        param_1,[r7,#0x6]=>DAT_2000014a         
ram:0800184a    23e0            b           LAB_08001894                            
                            LAB_0800184c:                 ;XREF[1,0]:   08001824
ram:0800184c    8006            lsls        param_1,param_1,#0x1a                   
ram:0800184e    11d5            bpl         LAB_08001874                            
ram:08001850    7548            ldr         param_1,[DAT_08001a28]                  ;= 0000000Ah
ram:08001852    0822            movs        r2,#0x8                                 
ram:08001854    6d49            ldr         param_2=>DAT_20000144,[DAT_08001a0c]    ;= 20000144h
ram:08001856    01f08afc        bl          FUN_0800316e                            ;int FUN_0800316e(uint param_1, int p...
ram:0800185a    6d48            ldr         param_1,[DAT_08001a10]                  ;= 200000D4h
ram:0800185c    0068            ldr         param_1,[param_1,#0x0]=>DAT_200000d4    
ram:0800185e    0028            cmp         param_1,#0x0                            
ram:08001860    18d0            beq         LAB_08001894                            
ram:08001862    6c48            ldr         param_1,[DAT_08001a14]                  ;= 200000E8h
ram:08001864    0168            ldr         param_2,[param_1,#0x0]=>DAT_200000e8    
ram:08001866    6c48            ldr         param_1,[DAT_08001a18]                  ;= 200000CCh
ram:08001868    0068            ldr         param_1,[param_1,#0x0]=>DAT_200000cc    
ram:0800186a    0143            orrs        param_2,param_1                         
ram:0800186c    12d0            beq         LAB_08001894                            
                            LAB_0800186e:                 ;XREF[1,0]:   080017d6
ram:0800186e    6648            ldr         param_1,[DAT_08001a08]                  ;= FFFF8000h
ram:08001870    3880            strh        param_1,[r7,#0x0]=>DAT_20000144         
ram:08001872    0fe0            b           LAB_08001894                            
                            LAB_08001874:                 ;XREF[1,0]:   0800184e
ram:08001874    200e            lsrs        param_1,r4,#0x18                        
ram:08001876    c006            lsls        param_1,param_1,#0x1b                   
ram:08001878    0cd4            bmi         LAB_08001894                            
ram:0800187a    002c            cmp         r4,#0x0                                 
ram:0800187c    0ad0            beq         LAB_08001894                            
ram:0800187e    b81e            subs        param_1,r7,#0x2                         
ram:08001880    6149            ldr         param_2,[DAT_08001a08]                  ;= FFFF8000h
ram:08001882    0222            movs        r2,#0x2                                 
                            LAB_08001884:                 ;XREF[1,0]:   0800188c
                                                          ; FWD[2,0]:   20000144,20000148
ram:08001884    4180            strh        param_2,[param_1,#0x2]=>DAT_20000144    
                                                          ; FWD[2,0]:   20000146,2000014a
ram:08001886    8180            strh        param_2,[param_1,#0x4]=>DAT_20000146    
ram:08001888    001d            adds        param_1,param_1,#0x4                    
ram:0800188a    521e            subs        r2,r2,#0x1                              
ram:0800188c    fad1            bne         LAB_08001884                            
ram:0800188e    5d48            ldr         param_1,[DAT_08001a04]                  ;= 200000F8h
ram:08001890    0021            movs        param_2,#0x0                            
ram:08001892    0162            str         param_2,[param_1,#0x20]=>DAT_20000118   
                            LAB_08001894:                 ;XREF[10,0]:  08001760,080017a8,080017ca,080017d8
                                                          ;             0800184a,08001860,0800186c,08001872
                                                          ;             08001878,0800187c
ram:08001894    260e            lsrs        r6,r4,#0x18                             
ram:08001896    0122            movs        r2,#0x1                                 
ram:08001898    f006            lsls        param_1,r6,#0x1b                        
ram:0800189a    2146            mov         param_2,r4                              
ram:0800189c    1207            lsls        r2,r2,#0x1c                             
ram:0800189e    c00f            lsrs        param_1,param_1,#0x1f                   
ram:080018a0    9143            bics        param_2,r2                              
ram:080018a2    0028            cmp         param_1,#0x0                            
ram:080018a4    02d1            bne         LAB_080018ac                            
ram:080018a6    614a            ldr         r2,[DAT_08001a2c]                       ;= 200002A8h
ram:080018a8    0f20            movs        param_1,#0xf                            
ram:080018aa    9060            str         param_1,[r2,#0x8]=>DAT_200002b0         
                            LAB_080018ac:                 ;XREF[1,0]:   080018a4
ram:080018ac    0029            cmp         param_2,#0x0                            
ram:080018ae    04d0            beq         LAB_080018ba                            
ram:080018b0    0021            movs        param_2,#0x0                            
ram:080018b2    5e48            ldr         param_1,[DAT_08001a2c]                  ;= 200002A8h
ram:080018b4    c943            mvns        param_2,param_2                         
ram:080018b6    8160            str         param_2,[param_1,#0x8]=>DAT_200002b0    
ram:080018b8    19e0            b           LAB_080018ee                            
                            LAB_080018ba:                 ;XREF[1,0]:   080018ae
ram:080018ba    5c48            ldr         param_1,[DAT_08001a2c]                  ;= 200002A8h
ram:080018bc    8168            ldr         param_2,[param_1,#0x8]=>DAT_200002b0    
ram:080018be    0029            cmp         param_2,#0x0                            
ram:080018c0    15d1            bne         LAB_080018ee                            
ram:080018c2    4b1e            subs        r3,param_2,#0x1                         
ram:080018c4    8360            str         r3,[param_1,#0x8]=>DAT_200002b0         
ram:080018c6    4f48            ldr         param_1=>DAT_200000f8,[DAT_08001a04]    ;= 200000F8h
ram:080018c8    ff21            movs        param_2,#0xff                           
ram:080018ca    0162            str         param_2,[param_1,#0x20]=>DAT_20000118   
ram:080018cc    7d21            movs        param_2,#0x7d                           
ram:080018ce    4901            lsls        param_2,param_2,#0x5                    
ram:080018d0    4162            str         param_2,[param_1,#0x24]=>DAT_2000011c   
ram:080018d2    4f49            ldr         param_2,[DAT_08001a10]                  ;= 200000D4h
ram:080018d4    0968            ldr         param_2,[param_2,#0x0]=>DAT_200000d4    
ram:080018d6    0029            cmp         param_2,#0x0                            
ram:080018d8    11d0            beq         LAB_080018fe                            
ram:080018da    4e49            ldr         param_2,[DAT_08001a14]                  ;= 200000E8h
ram:080018dc    0a68            ldr         r2,[param_2,#0x0]=>DAT_200000e8         
ram:080018de    4e49            ldr         param_2,[DAT_08001a18]                  ;= 200000CCh
ram:080018e0    0968            ldr         param_2,[param_2,#0x0]=>DAT_200000cc    
ram:080018e2    0a43            orrs        r2,param_2                              
ram:080018e4    0bd0            beq         LAB_080018fe                            
ram:080018e6    0021            movs        param_2,#0x0                            
ram:080018e8    c163            str         param_2,[param_1,#0x3c]=>DAT_20000134   
                            LAB_080018ea:                 ;XREF[1,0]:   08001900
ram:080018ea    00f066fc        bl          FUN_080021ba                            ;undefined FUN_080021ba(void)
                            LAB_080018ee:                 ;XREF[2,0]:   080018b8,080018c0
ram:080018ee    4548            ldr         param_1,[DAT_08001a04]                  ;= 200000F8h
ram:080018f0    8078            ldrb        param_1,[param_1,#0x2]=>DAT_200000fa    
ram:080018f2    0028            cmp         param_1,#0x0                            
ram:080018f4    12d0            beq         LAB_0800191c                            
ram:080018f6    2004            lsls        param_1,r4,#0x10                        
ram:080018f8    000f            lsrs        param_1,param_1,#0x1c                   
ram:080018fa    02d0            beq         LAB_08001902                            
ram:080018fc    09e0            b           LAB_08001912                            
                            LAB_080018fe:                 ;XREF[2,0]:   080018d8,080018e4
ram:080018fe    c363            str         r3,[param_1,#0x3c]=>DAT_20000134        
ram:08001900    f3e7            b           LAB_080018ea                            
                            LAB_08001902:                 ;XREF[1,0]:   080018fa
ram:08001902    b81e            subs        param_1,r7,#0x2                         
ram:08001904    4049            ldr         param_2,[DAT_08001a08]                  ;= FFFF8000h
ram:08001906    0222            movs        r2,#0x2                                 
                            LAB_08001908:                 ;XREF[1,0]:   08001910
                                                          ; FWD[2,0]:   20000144,20000148
ram:08001908    4180            strh        param_2,[param_1,#0x2]=>DAT_20000144    
                                                          ; FWD[2,0]:   20000146,2000014a
ram:0800190a    8180            strh        param_2,[param_1,#0x4]=>DAT_20000146    
ram:0800190c    001d            adds        param_1,param_1,#0x4                    
ram:0800190e    521e            subs        r2,r2,#0x1                              
ram:08001910    fad1            bne         LAB_08001908                            
                            LAB_08001912:                 ;XREF[1,0]:   080018fc
ram:08001912    f006            lsls        param_1,r6,#0x1b                        
ram:08001914    02d4            bmi         LAB_0800191c                            
ram:08001916    3b48            ldr         param_1,[DAT_08001a04]                  ;= 200000F8h
ram:08001918    0021            movs        param_2,#0x0                            
ram:0800191a    0162            str         param_2,[param_1,#0x20]=>DAT_20000118   
                            LAB_0800191c:                 ;XREF[2,0]:   080018f4,08001914
ram:0800191c    0822            movs        r2,#0x8                                 
ram:0800191e    3b49            ldr         param_2=>DAT_20000144,[DAT_08001a0c]    ;= 20000144h
ram:08001920    02a8            add         param_1,sp,#0x8                         
ram:08001922    03f0fdfc        bl          FUN_08005320                            ;undefined FUN_08005320(int param_1, ...
ram:08001926    4249            ldr         param_2,[DAT_08001a30]                  ;= 20000102h
ram:08001928    0028            cmp         param_1,#0x0                            
ram:0800192a    01d0            beq         LAB_08001930                            
ram:0800192c    0020            movs        param_1,#0x0                            
ram:0800192e    0880            strh        param_1,[param_2,#0x0]=>DAT_20000102    
                            LAB_08001930:                 ;XREF[1,0]:   0800192a
ram:08001930    0026            movs        r6,#0x0                                 
                            LAB_08001932:                 ;XREF[1,0]:   08001a98
ram:08001932    3648            ldr         param_1,[DAT_08001a0c]                  ;= 20000144h
ram:08001934    7700            lsls        r7,r6,#0x1                              
                                                          ; FWD[2,0]:   20000144,20000146
ram:08001936    c15f            ldrsh       param_2,[param_1,r7]=>DAT_20000144      
ram:08001938    0120            movs        param_1,#0x1                            
ram:0800193a    c003            lsls        param_1,param_1,#0xf                    
ram:0800193c    c142            cmn         param_2,param_1                         
ram:0800193e    06d1            bne         LAB_0800194e                            
ram:08001940    3b48            ldr         param_1,[DAT_08001a30]                  ;= 20000102h
ram:08001942    0322            movs        r2,#0x3                                 
ram:08001944    0188            ldrh        param_2,[param_1,#0x0]=>DAT_20000102    
ram:08001946    1202            lsls        r2,r2,#0x8                              
ram:08001948    9143            bics        param_2,r2                              
ram:0800194a    0180            strh        param_2,[param_1,#0x0]=>DAT_20000102    
ram:0800194c    94e0            b           LAB_08001a78                            
                            LAB_0800194e:                 ;XREF[1,0]:   0800193e
ram:0800194e    0320            movs        param_1,#0x3                            
ram:08001950    0002            lsls        param_1,param_1,#0x8                    
ram:08001952    8543            bics        r5,param_1                              
ram:08001954    3648            ldr         param_1,[DAT_08001a30]                  ;= 20000102h
ram:08001956    0195            str         r5,[sp,#local_24+0x28]                  
ram:08001958    0088            ldrh        param_1,[param_1,#0x0]=>DAT_20000102    
ram:0800195a    8005            lsls        param_1,param_1,#0x16                   
ram:0800195c    810f            lsrs        param_2,param_1,#0x1e                   
ram:0800195e    31d0            beq         LAB_080019c4                            
ram:08001960    0321            movs        param_2,#0x3                            
ram:08001962    0902            lsls        param_2,param_2,#0x8                    
ram:08001964    800f            lsrs        param_1,param_1,#0x1e                   
ram:08001966    8d43            bics        r5,param_2                              
ram:08001968    0002            lsls        param_1,param_1,#0x8                    
ram:0800196a    0543            orrs        r5,param_1                              
ram:0800196c    f0b2            uxtb        param_1,r6                              
ram:0800196e    01f0e3fa        bl          FUN_08002f38                            ;int FUN_08002f38(int param_1)
ram:08001972    2649            ldr         param_2,[DAT_08001a0c]                  ;= 20000144h
ram:08001974    c95f            ldrsh       param_2,[param_2,r7]=>DAT_20000144      
ram:08001976    8842            cmp         param_1,param_2                         
ram:08001978    02dc            bgt         LAB_08001980                            
ram:0800197a    0120            movs        param_1,#0x1                            
ram:0800197c    4002            lsls        param_1,param_1,#0x9                    
ram:0800197e    8543            bics        r5,param_1                              
                            LAB_08001980:                 ;XREF[1,0]:   08001978
ram:08001980    f0b2            uxtb        param_1,r6                              
ram:08001982    01f0d9fa        bl          FUN_08002f38                            ;int FUN_08002f38(int param_1)
ram:08001986    2149            ldr         param_2,[DAT_08001a0c]                  ;= 20000144h
ram:08001988    c95f            ldrsh       param_2,[param_2,r7]=>DAT_20000144      
ram:0800198a    8842            cmp         param_1,param_2                         
ram:0800198c    02db            blt         LAB_08001994                            
ram:0800198e    ff20            movs        param_1,#0xff                           
ram:08001990    0130            adds        param_1,#0x1                            
ram:08001992    8543            bics        r5,param_1                              
                            LAB_08001994:                 ;XREF[1,0]:   0800198c
ram:08001994    2748            ldr         param_1,[DAT_08001a34]                  ;= 20000196h
ram:08001996    c15b            ldrh        param_2,[param_1,r7]=>DAT_20000196      
ram:08001998    2748            ldr         param_1,[DAT_08001a38]                  ;= 00007FFFh
ram:0800199a    8142            cmp         param_2,param_1                         
ram:0800199c    0ad3            bcc         LAB_080019b4                            
ram:0800199e    2748            ldr         param_1,[DAT_08001a3c]                  ;= 2000019Eh
ram:080019a0    805d            ldrb        param_1,[param_1,r6]=>DAT_2000019e      
ram:080019a2    0128            cmp         param_1,#0x1                            
ram:080019a4    06d0            beq         LAB_080019b4                            
ram:080019a6    0428            cmp         param_1,#0x4                            
ram:080019a8    04d0            beq         LAB_080019b4                            
ram:080019aa    2548            ldr         param_1,[DAT_08001a40]                  ;= 20000288h
ram:080019ac    b100            lsls        param_2,r6,#0x2                         
ram:080019ae    4058            ldr         param_1,[param_1,param_2]=>DAT_20000288 
ram:080019b0    0028            cmp         param_1,#0x0                            
ram:080019b2    03d0            beq         LAB_080019bc                            
                            LAB_080019b4:                 ;XREF[3,0]:   0800199c,080019a4,080019a8
ram:080019b4    1421            movs        param_2,#0x14                           
ram:080019b6    2348            ldr         param_1,[DAT_08001a44]                  ;= 20000298h
ram:080019b8    b200            lsls        r2,r6,#0x2                              
ram:080019ba    8150            str         param_2,[param_1,r2]=>DAT_20000298      
                            LAB_080019bc:                 ;XREF[2,0]:   080019b2,08001a70
ram:080019bc    a805            lsls        param_1,r5,#0x16                        
ram:080019be    800f            lsrs        param_1,param_1,#0x1e                   
ram:080019c0    57d0            beq         LAB_08001a72                            
ram:080019c2    59e0            b           LAB_08001a78                            
                            LAB_080019c4:                 ;XREF[1,0]:   0800195e
ram:080019c4    f0b2            uxtb        param_1,r6                              
ram:080019c6    01f0b7fa        bl          FUN_08002f38                            ;int FUN_08002f38(int param_1)
ram:080019ca    1049            ldr         param_2,[DAT_08001a0c]                  ;= 20000144h
ram:080019cc    1438            subs        param_1,#0x14                           
ram:080019ce    c95f            ldrsh       param_2,[param_2,r7]=>DAT_20000144      
ram:080019d0    8842            cmp         param_1,param_2                         
ram:080019d2    03dd            ble         LAB_080019dc                            
ram:080019d4    0120            movs        param_1,#0x1                            
ram:080019d6    019d            ldr         r5,[sp,#local_24+0x28]                  
ram:080019d8    4002            lsls        param_1,param_1,#0x9                    
ram:080019da    0543            orrs        r5,param_1                              
                            LAB_080019dc:                 ;XREF[1,0]:   080019d2
ram:080019dc    f0b2            uxtb        param_1,r6                              
ram:080019de    01f0abfa        bl          FUN_08002f38                            ;int FUN_08002f38(int param_1)
ram:080019e2    0a49            ldr         param_2,[DAT_08001a0c]                  ;= 20000144h
ram:080019e4    c95f            ldrsh       param_2,[param_2,r7]=>DAT_20000144      
ram:080019e6    2fe0            b           LAB_08001a48                            
                            DAT_080019e8:                 ;XREF[7,0]:   080015ec,08001622,080016a6,080016c4
                                                          ;             080016e6,08001708,0800172a
ram:080019e8    18020020        undefined4  20000218h                               
                            DAT_080019ec:                 ;XREF[3,0]:   0800160c,0800166a,08001752
ram:080019ec    28010020        undefined4  20000128h                               
                            PTR_LAB_080019f0:             ;XREF[1,0]:   0800162e
ram:080019f0    d4530008        addr        LAB_080053d4                            
                            DAT_080019f4:                 ;XREF[2,0]:   08001630,080017ba
ram:080019f4    02000000        undefined4  00000002h                               
                            DAT_080019f8:                 ;XREF[1,0]:   0800163e
ram:080019f8    fa000020        undefined4  200000FAh                               
                            DAT_080019fc:                 ;XREF[1,0]:   08001640
ram:080019fc    00000000        undefined4  00000000h                               
                            DAT_08001a00:                 ;XREF[1,0]:   0800174c
ram:08001a00    00f00182        undefined4  8201F000h                               
                            DAT_08001a04:                 ;XREF[7,0]:   08001754,0800177e,0800179a,0800188e
                                                          ;             080018c6,080018ee,08001916
ram:08001a04    f8000020        undefined4  200000F8h                               
                            DAT_08001a08:                 ;XREF[6,0]:   0800176a,080017f8,08001844,0800186e
                                                          ;             08001880,08001904
ram:08001a08    0080ffff        undefined4  FFFF8000h                               
                            DAT_08001a0c:                 ;XREF[11,0]:  080017be,080017de,08001806,0800182a
                                                          ;             08001854,0800191e,08001932,08001972
                                                          ;             08001986,080019ca,080019e2
ram:08001a0c    44010020        undefined4  20000144h                               
                            DAT_08001a10:                 ;XREF[6,0]:   080017c4,080017e4,0800180c,08001830
                                                          ;             0800185a,080018d2
ram:08001a10    d4000020        undefined4  200000D4h                               
                            DAT_08001a14:                 ;XREF[6,0]:   080017cc,080017ec,08001814,08001838
                                                          ;             08001862,080018da
ram:08001a14    e8000020        undefined4  200000E8h                               
                            DAT_08001a18:                 ;XREF[6,0]:   080017d0,080017f0,08001818,0800183c
                                                          ;             08001866,080018de
ram:08001a18    cc000020        undefined4  200000CCh                               
                            DAT_08001a1c:                 ;XREF[1,0]:   080017da
ram:08001a1c    22000000        undefined4  00000022h                               
                            DAT_08001a20:                 ;XREF[1,0]:   08001802
ram:08001a20    1a000000        undefined4  0000001Ah                               
                            DAT_08001a24:                 ;XREF[1,0]:   08001826
ram:08001a24    12000000        undefined4  00000012h                               
                            DAT_08001a28:                 ;XREF[1,0]:   08001850
ram:08001a28    0a000000        undefined4  0000000Ah                               
                            DAT_08001a2c:                 ;XREF[3,0]:   080018a6,080018b2,080018ba
ram:08001a2c    a8020020        undefined4  200002A8h                               
                            DAT_08001a30:                 ;XREF[3,0]:   08001926,08001940,08001954
ram:08001a30    02010020        undefined4  20000102h                               
                            DAT_08001a34:                 ;XREF[1,0]:   08001994
ram:08001a34    96010020        undefined4  20000196h                               
                            DAT_08001a38:                 ;XREF[1,0]:   08001998
ram:08001a38    ff7f0000        undefined4  00007FFFh                               
                            DAT_08001a3c:                 ;XREF[1,0]:   0800199e
ram:08001a3c    9e010020        undefined4  2000019Eh                               
                            DAT_08001a40:                 ;XREF[1,0]:   080019aa
ram:08001a40    88020020        undefined4  20000288h                               
                            DAT_08001a44:                 ;XREF[1,0]:   080019b6
ram:08001a44    98020020        undefined4  20000298h                               
                            LAB_08001a48:                 ;XREF[1,0]:   080019e6
ram:08001a48    1430            adds        param_1,#0x14                           
ram:08001a4a    8842            cmp         param_1,param_2                         
ram:08001a4c    02da            bge         LAB_08001a54                            
ram:08001a4e    ff20            movs        param_1,#0xff                           
ram:08001a50    0130            adds        param_1,#0x1                            
ram:08001a52    0543            orrs        r5,param_1                              
                            LAB_08001a54:                 ;XREF[1,0]:   08001a4c
ram:08001a54    fe49            ldr         param_2,[DAT_08001e50]                  ;= 20000102h
ram:08001a56    0322            movs        r2,#0x3                                 
ram:08001a58    0888            ldrh        param_1,[param_2,#0x0]=>DAT_20000102    
ram:08001a5a    1202            lsls        r2,r2,#0x8                              
ram:08001a5c    9043            bics        param_1,r2                              
ram:08001a5e    aa05            lsls        r2,r5,#0x16                             
ram:08001a60    920f            lsrs        r2,r2,#0x1e                             
ram:08001a62    1202            lsls        r2,r2,#0x8                              
ram:08001a64    1043            orrs        param_1,r2                              
ram:08001a66    0880            strh        param_1,[param_2,#0x0]=>DAT_20000102    
ram:08001a68    ff21            movs        param_2,#0xff                           
ram:08001a6a    fa48            ldr         param_1,[DAT_08001e54]                  ;= 20000298h
ram:08001a6c    b200            lsls        r2,r6,#0x2                              
ram:08001a6e    8150            str         param_2,[param_1,r2]=>DAT_20000298      
ram:08001a70    a4e7            b           LAB_080019bc                            
                            LAB_08001a72:                 ;XREF[1,0]:   080019c0
ram:08001a72    fa48            ldr         param_1,[DAT_08001e5c]                  ;= 20000144h
ram:08001a74    f849            ldr         param_2,[DAT_08001e58]                  ;= FFFF8000h
ram:08001a76    c153            strh        param_2,[param_1,r7]=>DAT_20000144      
                            LAB_08001a78:                 ;XREF[2,0]:   0800194c,080019c2
ram:08001a78    f648            ldr         param_1,[DAT_08001e54]                  ;= 20000298h
ram:08001a7a    b100            lsls        param_2,r6,#0x2                         
ram:08001a7c    4058            ldr         param_1,[param_1,param_2]=>DAT_20000298 
ram:08001a7e    0028            cmp         param_1,#0x0                            
ram:08001a80    02d1            bne         LAB_08001a88                            
ram:08001a82    f649            ldr         param_2,[DAT_08001e5c]                  ;= 20000144h
ram:08001a84    f448            ldr         param_1,[DAT_08001e58]                  ;= FFFF8000h
ram:08001a86    c853            strh        param_1,[param_2,r7]=>DAT_20000144      
                            LAB_08001a88:                 ;XREF[1,0]:   08001a80
ram:08001a88    f148            ldr         param_1,[DAT_08001e50]                  ;= 20000102h
ram:08001a8a    ad08            lsrs        r5,r5,#0x2                              
ram:08001a8c    0188            ldrh        param_2,[param_1,#0x0]=>DAT_20000102    
ram:08001a8e    761c            adds        r6,r6,#0x1                              
ram:08001a90    8908            lsrs        param_2,param_2,#0x2                    
ram:08001a92    0180            strh        param_2,[param_1,#0x0]=>DAT_20000102    
ram:08001a94    042e            cmp         r6,#0x4                                 
ram:08001a96    00da            bge         LAB_08001a9a                            
ram:08001a98    4be7            b           LAB_08001932                            
                            LAB_08001a9a:                 ;XREF[1,0]:   08001a96
ram:08001a9a    2806            lsls        param_1,r5,#0x18                        
ram:08001a9c    ec49            ldr         param_2,[DAT_08001e50]                  ;= 20000102h
ram:08001a9e    050c            lsrs        r5,param_1,#0x10                        
ram:08001aa0    0878            ldrb        param_1,[param_2,#0x0]=>DAT_20000102    
ram:08001aa2    0002            lsls        param_1,param_1,#0x8                    
ram:08001aa4    0880            strh        param_1,[param_2,#0x0]=>DAT_20000102    
ram:08001aa6    ee48            ldr         param_1,[DAT_08001e60]                  ;= 200000F8h
ram:08001aa8    002c            cmp         r4,#0x0                                 
ram:08001aaa    14d0            beq         LAB_08001ad6                            
ram:08001aac    4078            ldrb        param_1,[param_1,#0x1]=>DAT_200000f9    
ram:08001aae    0028            cmp         param_1,#0x0                            
ram:08001ab0    18d0            beq         LAB_08001ae4                            
                            LAB_08001ab2:                 ;XREF[1,0]:   08001ae0
ram:08001ab2    ec48            ldr         param_1,[DAT_08001e64]                  ;= 20000142h
ram:08001ab4    e849            ldr         param_2,[DAT_08001e58]                  ;= FFFF8000h
ram:08001ab6    0222            movs        r2,#0x2                                 
                            LAB_08001ab8:                 ;XREF[1,0]:   08001ac0
                                                          ; FWD[2,0]:   20000144,20000148
ram:08001ab8    4180            strh        param_2,[param_1,#0x2]=>DAT_20000144    
                                                          ; FWD[2,0]:   20000146,2000014a
ram:08001aba    8180            strh        param_2,[param_1,#0x4]=>DAT_20000146    
ram:08001abc    001d            adds        param_1,param_1,#0x4                    
ram:08001abe    521e            subs        r2,r2,#0x1                              
ram:08001ac0    fad1            bne         LAB_08001ab8                            
ram:08001ac2    e748            ldr         param_1,[DAT_08001e60]                  ;= 200000F8h
ram:08001ac4    0024            movs        r4,#0x0                                 
ram:08001ac6    0462            str         r4,[param_1,#0x20]=>DAT_20000118        
ram:08001ac8    0146            mov         param_2,param_1                         
ram:08001aca    4c64            str         r4,[param_2,#0x44]=>DAT_2000013c        
ram:08001acc    4178            ldrb        param_2,[param_1,#0x1]=>DAT_200000f9    
ram:08001ace    2546            mov         r5,r4                                   
ram:08001ad0    0129            cmp         param_2,#0x1                            
ram:08001ad2    06d0            beq         LAB_08001ae2                            
ram:08001ad4    06e0            b           LAB_08001ae4                            
                            LAB_08001ad6:                 ;XREF[1,0]:   08001aaa
ram:08001ad6    4178            ldrb        param_2,[param_1,#0x1]=>DAT_200000f9    
ram:08001ad8    0029            cmp         param_2,#0x0                            
ram:08001ada    03d0            beq         LAB_08001ae4                            
ram:08001adc    0121            movs        param_2,#0x1                            
ram:08001ade    4170            strb        param_2,[param_1,#0x1]=>DAT_200000f9    
ram:08001ae0    e7e7            b           LAB_08001ab2                            
                            LAB_08001ae2:                 ;XREF[1,0]:   08001ad2
ram:08001ae2    4470            strb        r4,[param_1,#0x1]=>DAT_200000f9         
                            LAB_08001ae4:                 ;XREF[3,0]:   08001ab0,08001ad4,08001ada
ram:08001ae4    220e            lsrs        r2,r4,#0x18                             
ram:08001ae6    0121            movs        param_2,#0x1                            
ram:08001ae8    c905            lsls        param_2,param_2,#0x17                   
ram:08001aea    d307            lsls        r3,r2,#0x1f                             
ram:08001aec    db0f            lsrs        r3,r3,#0x1f                             
ram:08001aee    2046            mov         param_1,r4                              
ram:08001af0    0c42            tst         r4,param_2                              
ram:08001af2    0494            str         r4,[sp,#local_18+0x28]                  
ram:08001af4    0192            str         r2,[sp,#local_24+0x28]                  
ram:08001af6    02d1            bne         LAB_08001afe                            
ram:08001af8    db4e            ldr         r6,[DAT_08001e68]                       ;= 200002A8h
ram:08001afa    0f22            movs        r2,#0xf                                 
ram:08001afc    3260            str         r2,[r6,#0x0]=>DAT_200002a8              
                            LAB_08001afe:                 ;XREF[1,0]:   08001af6
ram:08001afe    002b            cmp         r3,#0x0                                 
ram:08001b00    04d0            beq         LAB_08001b0c                            
ram:08001b02    0022            movs        r2,#0x0                                 
ram:08001b04    d84b            ldr         r3=>DAT_200002a8,[DAT_08001e68]         ;= 200002A8h
ram:08001b06    d243            mvns        r2,r2                                   
ram:08001b08    1a60            str         r2,[r3,#0x0]=>DAT_200002a8              
ram:08001b0a    03e0            b           LAB_08001b14                            
                            LAB_08001b0c:                 ;XREF[1,0]:   08001b00
ram:08001b0c    d64a            ldr         r2,[DAT_08001e68]                       ;= 200002A8h
ram:08001b0e    1368            ldr         r3,[r2,#0x0]=>DAT_200002a8              
ram:08001b10    002b            cmp         r3,#0x0                                 
ram:08001b12    11d0            beq         LAB_08001b38                            
                            LAB_08001b14:                 ;XREF[1,0]:   08001b0a
ram:08001b14    8843            bics        param_1,param_2                         
                            LAB_08001b16:                 ;XREF[1,0]:   08001b3e
ram:08001b16    0122            movs        r2,#0x1                                 
ram:08001b18    2102            lsls        param_2,r4,#0x8                         
ram:08001b1a    1206            lsls        r2,r2,#0x18                             
ram:08001b1c    0f0e            lsrs        r7,param_2,#0x18                        
ram:08001b1e    f909            lsrs        param_2,r7,#0x7                         
ram:08001b20    1042            tst         param_1,r2                              
ram:08001b22    02d1            bne         LAB_08001b2a                            
ram:08001b24    d04e            ldr         r6,[DAT_08001e68]                       ;= 200002A8h
ram:08001b26    0f23            movs        r3,#0xf                                 
ram:08001b28    7360            str         r3,[r6,#0x4]=>DAT_200002ac              
                            LAB_08001b2a:                 ;XREF[1,0]:   08001b22
ram:08001b2a    0029            cmp         param_2,#0x0                            
ram:08001b2c    08d0            beq         LAB_08001b40                            
ram:08001b2e    0023            movs        r3,#0x0                                 
ram:08001b30    cd49            ldr         param_2=>DAT_200002a8,[DAT_08001e68]    ;= 200002A8h
ram:08001b32    db43            mvns        r3,r3                                   
ram:08001b34    4b60            str         r3,[param_2,#0x4]=>DAT_200002ac         
ram:08001b36    07e0            b           LAB_08001b48                            
                            LAB_08001b38:                 ;XREF[1,0]:   08001b12
ram:08001b38    0021            movs        param_2,#0x0                            
ram:08001b3a    c943            mvns        param_2,param_2                         
ram:08001b3c    1160            str         param_2,[r2,#0x0]=>DAT_200002a8         
ram:08001b3e    eae7            b           LAB_08001b16                            
                            LAB_08001b40:                 ;XREF[1,0]:   08001b2c
ram:08001b40    c94b            ldr         r3=>DAT_200002a8,[DAT_08001e68]         ;= 200002A8h
ram:08001b42    5968            ldr         param_2,[r3,#0x4]=>DAT_200002ac         
ram:08001b44    0029            cmp         param_2,#0x0                            
ram:08001b46    0fd0            beq         LAB_08001b68                            
                            LAB_08001b48:                 ;XREF[1,0]:   08001b36
ram:08001b48    9043            bics        param_1,r2                              
                            LAB_08001b4a:                 ;XREF[1,0]:   08001b6e
ram:08001b4a    00f03cfb        bl          FUN_080021c6                            ;undefined FUN_080021c6(uint param_1)
ram:08001b4e    c748            ldr         param_1,[DAT_08001e6c]                  ;= 200000D4h
ram:08001b50    0068            ldr         param_1,[param_1,#0x0]=>DAT_200000d4    
ram:08001b52    0028            cmp         param_1,#0x0                            
ram:08001b54    2ed0            beq         LAB_08001bb4                            
ram:08001b56    2004            lsls        param_1,r4,#0x10                        
ram:08001b58    000e            lsrs        param_1,param_1,#0x18                   
ram:08001b5a    c007            lsls        param_1,param_1,#0x1f                   
ram:08001b5c    08d0            beq         LAB_08001b70                            
ram:08001b5e    c048            ldr         param_1,[DAT_08001e60]                  ;= 200000F8h
ram:08001b60    0169            ldr         param_2,[param_1,#0x10]=>DAT_20000108   
ram:08001b62    0129            cmp         param_2,#0x1                            
ram:08001b64    09d0            beq         LAB_08001b7a                            
ram:08001b66    16e0            b           LAB_08001b96                            
                            LAB_08001b68:                 ;XREF[1,0]:   08001b46
ram:08001b68    0021            movs        param_2,#0x0                            
ram:08001b6a    c943            mvns        param_2,param_2                         
ram:08001b6c    5960            str         param_2,[r3,#0x4]=>DAT_200002ac         
ram:08001b6e    ece7            b           LAB_08001b4a                            
                            LAB_08001b70:                 ;XREF[1,0]:   08001b5c
ram:08001b70    ff21            movs        param_2,#0xff                           
ram:08001b72    bb48            ldr         param_1,[DAT_08001e60]                  ;= 200000F8h
ram:08001b74    2d31            adds        param_2,#0x2d                           
ram:08001b76    0161            str         param_2,[param_1,#0x10]=>DAT_20000108   
ram:08001b78    0de0            b           LAB_08001b96                            
                            LAB_08001b7a:                 ;XREF[1,0]:   08001b64
ram:08001b7a    0021            movs        param_2,#0x0                            
ram:08001b7c    0161            str         param_2,[param_1,#0x10]=>DAT_20000108   
ram:08001b7e    c268            ldr         r2,[param_1,#0xc]=>DAT_20000104         
ram:08001b80    002a            cmp         r2,#0x0                                 
ram:08001b82    0ed0            beq         LAB_08001ba2                            
ram:08001b84    c160            str         param_2,[param_1,#0xc]=>DAT_20000104    
                            LAB_08001b86:                 ;XREF[1,0]:   08001ba6
ram:08001b86    0821            movs        param_2,#0x8                            
ram:08001b88    0170            strb        param_2,[param_1,#0x0]=>DAT_200000f8    
ram:08001b8a    0120            movs        param_1,#0x1                            
ram:08001b8c    03f0f2f9        bl          FUN_08004f74                            ;undefined FUN_08004f74(undefined4 pa...
ram:08001b90    b748            ldr         param_1,[DAT_08001e70]                  ;= 20000218h
ram:08001b92    0221            movs        param_2,#0x2                            
ram:08001b94    0160            str         param_2,[param_1,#0x0]=>DAT_20000218    
                            LAB_08001b96:                 ;XREF[2,0]:   08001b66,08001b78
ram:08001b96    b248            ldr         param_1,[DAT_08001e60]                  ;= 200000F8h
ram:08001b98    c068            ldr         param_1,[param_1,#0xc]=>DAT_20000104    
ram:08001b9a    0028            cmp         param_1,#0x0                            
ram:08001b9c    04d0            beq         LAB_08001ba8                            
ram:08001b9e    0121            movs        param_2,#0x1                            
ram:08001ba0    03e0            b           LAB_08001baa                            
                            LAB_08001ba2:                 ;XREF[1,0]:   08001b82
ram:08001ba2    0121            movs        param_2,#0x1                            
ram:08001ba4    c160            str         param_2,[param_1,#0xc]=>DAT_20000104    
ram:08001ba6    eee7            b           LAB_08001b86                            
                            LAB_08001ba8:                 ;XREF[1,0]:   08001b9c
ram:08001ba8    0021            movs        param_2,#0x0                            
                            LAB_08001baa:                 ;XREF[1,0]:   08001ba0
ram:08001baa    0120            movs        param_1,#0x1                            
ram:08001bac    0007            lsls        param_1,param_1,#0x1c                   
ram:08001bae    02f003ff        bl          FUN_080049b8                            ;undefined FUN_080049b8(uint param_1,...
ram:08001bb2    09e0            b           LAB_08001bc8                            
                            LAB_08001bb4:                 ;XREF[1,0]:   08001b54
ram:08001bb4    0120            movs        param_1,#0x1                            
ram:08001bb6    0321            movs        param_2,#0x3                            
ram:08001bb8    0007            lsls        param_1,param_1,#0x1c                   
ram:08001bba    02f0fdfe        bl          FUN_080049b8                            ;undefined FUN_080049b8(uint param_1,...
ram:08001bbe    a848            ldr         param_1,[DAT_08001e60]                  ;= 200000F8h
ram:08001bc0    0121            movs        param_2,#0x1                            
ram:08001bc2    c160            str         param_2,[param_1,#0xc]=>DAT_20000104    
ram:08001bc4    0021            movs        param_2,#0x0                            
ram:08001bc6    0161            str         param_2,[param_1,#0x10]=>DAT_20000108   
                            LAB_08001bc8:                 ;XREF[1,0]:   08001bb2
ram:08001bc8    a54e            ldr         r6,[DAT_08001e60]                       ;= 200000F8h
ram:08001bca    706a            ldr         param_1,[r6,#0x24]=>DAT_2000011c        
ram:08001bcc    0028            cmp         param_1,#0x0                            
ram:08001bce    00d1            bne         LAB_08001bd2                            
ram:08001bd0    3062            str         param_1,[r6,#0x20]=>DAT_20000118        
                            LAB_08001bd2:                 ;XREF[1,0]:   08001bce
ram:08001bd2    306a            ldr         param_1,[r6,#0x20]=>DAT_20000118        
ram:08001bd4    0028            cmp         param_1,#0x0                            
ram:08001bd6    18d0            beq         LAB_08001c0a                            
ram:08001bd8    0020            movs        param_1,#0x0                            
ram:08001bda    01f0adf9        bl          FUN_08002f38                            ;int FUN_08002f38(int param_1)
ram:08001bde    0028            cmp         param_1,#0x0                            
ram:08001be0    02d0            beq         LAB_08001be8                            
ram:08001be2    f06b            ldr         param_1,[r6,#0x3c]=>DAT_20000134        
ram:08001be4    0028            cmp         param_1,#0x0                            
ram:08001be6    0ed1            bne         LAB_08001c06                            
                            LAB_08001be8:                 ;XREF[1,0]:   08001be0
ram:08001be8    0120            movs        param_1,#0x1                            
ram:08001bea    01f0a5f9        bl          FUN_08002f38                            ;int FUN_08002f38(int param_1)
ram:08001bee    0028            cmp         param_1,#0x0                            
ram:08001bf0    09d1            bne         LAB_08001c06                            
ram:08001bf2    0220            movs        param_1,#0x2                            
ram:08001bf4    01f0a0f9        bl          FUN_08002f38                            ;int FUN_08002f38(int param_1)
ram:08001bf8    0028            cmp         param_1,#0x0                            
ram:08001bfa    04d1            bne         LAB_08001c06                            
ram:08001bfc    0320            movs        param_1,#0x3                            
ram:08001bfe    01f09bf9        bl          FUN_08002f38                            ;int FUN_08002f38(int param_1)
ram:08001c02    0028            cmp         param_1,#0x0                            
ram:08001c04    01d0            beq         LAB_08001c0a                            
                            LAB_08001c06:                 ;XREF[3,0]:   08001be6,08001bf0,08001bfa
ram:08001c06    1420            movs        param_1,#0x14                           
ram:08001c08    3062            str         param_1,[r6,#0x20]=>DAT_20000118        
                            LAB_08001c0a:                 ;XREF[2,0]:   08001bd6,08001c04
ram:08001c0a    b807            lsls        param_1,r7,#0x1e                        
ram:08001c0c    994f            ldr         r7,[DAT_08001e74]                       ;= 200001FCh
ram:08001c0e    0fd5            bpl         LAB_08001c30                            
ram:08001c10    9948            ldr         param_1,[DAT_08001e78]                  ;= 20000128h
ram:08001c12    8078            ldrb        param_1,[param_1,#0x2]=>DAT_2000012a    
ram:08001c14    8007            lsls        param_1,param_1,#0x1e                   
ram:08001c16    0bd4            bmi         LAB_08001c30                            
ram:08001c18    3868            ldr         param_1,[r7,#0x0]=>DAT_200001fc         
ram:08001c1a    0028            cmp         param_1,#0x0                            
ram:08001c1c    02d0            beq         LAB_08001c24                            
ram:08001c1e    0020            movs        param_1,#0x0                            
ram:08001c20    3860            str         param_1,[r7,#0x0]=>DAT_200001fc         
ram:08001c22    03e0            b           LAB_08001c2c                            
                            LAB_08001c24:                 ;XREF[1,0]:   08001c1c
ram:08001c24    0020            movs        param_1,#0x0                            
ram:08001c26    c043            mvns        param_1,param_1                         
ram:08001c28    3860            str         param_1,[r7,#0x0]=>DAT_200001fc         
ram:08001c2a    9448            ldr         param_1,[DAT_08001e7c]                  ;= 00000BB8h
                            LAB_08001c2c:                 ;XREF[1,0]:   08001c22
ram:08001c2c    f061            str         param_1,[r6,#0x1c]=>DAT_20000114        
ram:08001c2e    05e0            b           LAB_08001c3c                            
                            LAB_08001c30:                 ;XREF[2,0]:   08001c0e,08001c16
ram:08001c30    f069            ldr         param_1,[r6,#0x1c]=>DAT_20000114        
ram:08001c32    0128            cmp         param_1,#0x1                            
ram:08001c34    02d1            bne         LAB_08001c3c                            
ram:08001c36    0020            movs        param_1,#0x0                            
ram:08001c38    3860            str         param_1,[r7,#0x0]=>DAT_200001fc         
ram:08001c3a    f061            str         param_1,[r6,#0x1c]=>DAT_20000114        
                            LAB_08001c3c:                 ;XREF[2,0]:   08001c2e,08001c34
ram:08001c3c    b079            ldrb        param_1,[r6,#0x6]=>DAT_200000fe         
ram:08001c3e    0228            cmp         param_1,#0x2                            
ram:08001c40    09d1            bne         LAB_08001c56                            
ram:08001c42    3868            ldr         param_1,[r7,#0x0]=>DAT_200001fc         
ram:08001c44    0028            cmp         param_1,#0x0                            
ram:08001c46    01d0            beq         LAB_08001c4c                            
ram:08001c48    0121            movs        param_2,#0x1                            
ram:08001c4a    00e0            b           LAB_08001c4e                            
                            LAB_08001c4c:                 ;XREF[1,0]:   08001c46
ram:08001c4c    0021            movs        param_2,#0x0                            
                            LAB_08001c4e:                 ;XREF[1,0]:   08001c4a
ram:08001c4e    0120            movs        param_1,#0x1                            
ram:08001c50    4004            lsls        param_1,param_1,#0x11                   
ram:08001c52    02f0b1fe        bl          FUN_080049b8                            ;undefined FUN_080049b8(uint param_1,...
                            LAB_08001c56:                 ;XREF[1,0]:   08001c40
ram:08001c56    0198            ldr         param_1,[sp,#local_24+0x28]             
ram:08001c58    0007            lsls        param_1,param_1,#0x1c                   
ram:08001c5a    17d5            bpl         LAB_08001c8c                            
ram:08001c5c    b06c            ldr         param_1,[r6,#0x48]=>DAT_20000140        
ram:08001c5e    0128            cmp         param_1,#0x1                            
ram:08001c60    16d1            bne         LAB_08001c90                            
ram:08001c62    0020            movs        param_1,#0x0                            
ram:08001c64    b064            str         param_1,[r6,#0x48]=>DAT_20000140        
ram:08001c66    f178            ldrb        param_2,[r6,#0x3]=>DAT_200000fb         
ram:08001c68    0029            cmp         param_2,#0x0                            
ram:08001c6a    00d1            bne         LAB_08001c6e                            
ram:08001c6c    401e            subs        param_1,param_1,#0x1                    
                            LAB_08001c6e:                 ;XREF[1,0]:   08001c6a
ram:08001c6e    f070            strb        param_1,[r6,#0x3]=>DAT_200000fb         
ram:08001c70    0122            movs        r2,#0x1                                 
ram:08001c72    8349            ldr         param_2=>DAT_200000fb,[DAT_08001e80]    ;= 200000FBh
ram:08001c74    8348            ldr         param_1,[DAT_08001e84]                  ;= 00000001h
ram:08001c76    01f0a6fa        bl          FUN_080031c6                            ;undefined FUN_080031c6(uint param_1,...
ram:08001c7a    0120            movs        param_1,#0x1                            
ram:08001c7c    03f07af9        bl          FUN_08004f74                            ;undefined FUN_08004f74(undefined4 pa...
ram:08001c80    0820            movs        param_1,#0x8                            
ram:08001c82    3070            strb        param_1,[r6,#0x0]=>DAT_200000f8         
ram:08001c84    7a49            ldr         param_2,[DAT_08001e70]                  ;= 20000218h
ram:08001c86    0220            movs        param_1,#0x2                            
ram:08001c88    0860            str         param_1,[param_2,#0x0]=>DAT_20000218    
ram:08001c8a    01e0            b           LAB_08001c90                            
                            LAB_08001c8c:                 ;XREF[1,0]:   08001c5a
ram:08001c8c    3220            movs        param_1,#0x32                           
ram:08001c8e    b064            str         param_1,[r6,#0x48]=>DAT_20000140        
                            LAB_08001c90:                 ;XREF[2,0]:   08001c60,08001c8a
ram:08001c90    f078            ldrb        param_1,[r6,#0x3]=>DAT_200000fb         
ram:08001c92    0028            cmp         param_1,#0x0                            
ram:08001c94    01d0            beq         LAB_08001c9a                            
ram:08001c96    0121            movs        param_2,#0x1                            
ram:08001c98    00e0            b           LAB_08001c9c                            
                            LAB_08001c9a:                 ;XREF[1,0]:   08001c94
ram:08001c9a    0021            movs        param_2,#0x0                            
                            LAB_08001c9c:                 ;XREF[1,0]:   08001c98
ram:08001c9c    0120            movs        param_1,#0x1                            
ram:08001c9e    8006            lsls        param_1,param_1,#0x1a                   
ram:08001ca0    02f08afe        bl          FUN_080049b8                            ;undefined FUN_080049b8(uint param_1,...
ram:08001ca4    f06a            ldr         param_1,[r6,#0x2c]=>DAT_20000124        
ram:08001ca6    0028            cmp         param_1,#0x0                            
ram:08001ca8    06d1            bne         LAB_08001cb8                            
ram:08001caa    3079            ldrb        param_1,[r6,#0x4]=>DAT_200000fc         
ram:08001cac    0428            cmp         param_1,#0x4                            
ram:08001cae    01d1            bne         LAB_08001cb4                            
ram:08001cb0    0020            movs        param_1,#0x0                            
ram:08001cb2    3860            str         param_1,[r7,#0x0]=>DAT_200001fc         
                            LAB_08001cb4:                 ;XREF[1,0]:   08001cae
ram:08001cb4    0020            movs        param_1,#0x0                            
ram:08001cb6    3071            strb        param_1,[r6,#0x4]=>DAT_200000fc         
                            LAB_08001cb8:                 ;XREF[1,0]:   08001ca8
ram:08001cb8    f078            ldrb        param_1,[r6,#0x3]=>DAT_200000fb         
ram:08001cba    0028            cmp         param_1,#0x0                            
ram:08001cbc    23d0            beq         LAB_08001d06                            
ram:08001cbe    0023            movs        r3,#0x0                                 
ram:08001cc0    7362            str         r3,[r6,#0x24]=>DAT_2000011c             
ram:08001cc2    6848            ldr         param_1,[DAT_08001e64]                  ;= 20000142h
ram:08001cc4    6449            ldr         param_2,[DAT_08001e58]                  ;= FFFF8000h
ram:08001cc6    0222            movs        r2,#0x2                                 
                            LAB_08001cc8:                 ;XREF[1,0]:   08001cd0
                                                          ; FWD[2,0]:   20000144,20000148
ram:08001cc8    4180            strh        param_2,[param_1,#0x2]=>DAT_20000144    
                                                          ; FWD[2,0]:   20000146,2000014a
ram:08001cca    8180            strh        param_2,[param_1,#0x4]=>DAT_20000146    
ram:08001ccc    001d            adds        param_1,param_1,#0x4                    
ram:08001cce    521e            subs        r2,r2,#0x1                              
ram:08001cd0    fad1            bne         LAB_08001cc8                            
ram:08001cd2    1846            mov         param_1,r3                              
ram:08001cd4    3362            str         r3,[r6,#0x20]=>DAT_20000118             
ram:08001cd6    6249            ldr         param_2,[DAT_08001e60]                  ;= 200000F8h
ram:08001cd8    4b64            str         r3,[param_2,#0x44]=>DAT_2000013c        
ram:08001cda    002d            cmp         r5,#0x0                                 
ram:08001cdc    0cd1            bne         LAB_08001cf8                            
ram:08001cde    2104            lsls        param_2,r4,#0x10                        
ram:08001ce0    090e            lsrs        param_2,param_2,#0x18                   
ram:08001ce2    ca06            lsls        r2,param_2,#0x1b                        
ram:08001ce4    08d4            bmi         LAB_08001cf8                            
ram:08001ce6    8a06            lsls        r2,param_2,#0x1a                        
ram:08001ce8    06d4            bmi         LAB_08001cf8                            
ram:08001cea    4a06            lsls        r2,param_2,#0x19                        
ram:08001cec    04d4            bmi         LAB_08001cf8                            
ram:08001cee    c909            lsrs        param_2,param_2,#0x7                    
ram:08001cf0    02d1            bne         LAB_08001cf8                            
ram:08001cf2    0199            ldr         param_2,[sp,#local_24+0x28]             
ram:08001cf4    c906            lsls        param_2,param_2,#0x1b                   
ram:08001cf6    05d5            bpl         LAB_08001d04                            
                            LAB_08001cf8:                 ;XREF[5,0]:   08001cdc,08001ce4,08001ce8,08001cec
                                                          ;             08001cf0
ram:08001cf8    6349            ldr         param_2,[DAT_08001e88]                  ;= 2000012Ch
ram:08001cfa    0968            ldr         param_2,[param_2,#0x0]=>DAT_2000012c    
ram:08001cfc    0029            cmp         param_2,#0x0                            
ram:08001cfe    01d1            bne         LAB_08001d04                            
ram:08001d00    0421            movs        param_2,#0x4                            
ram:08001d02    3170            strb        param_2,[r6,#0x0]=>DAT_200000f8         
                            LAB_08001d04:                 ;XREF[2,0]:   08001cf6,08001cfe
ram:08001d04    0546            mov         r5,param_1                              
                            LAB_08001d06:                 ;XREF[1,0]:   08001cbc
ram:08001d06    6148            ldr         param_1,[DAT_08001e8c]                  ;= 2000016Ch
ram:08001d08    0068            ldr         param_1,[param_1,#0x0]=>DAT_2000016c    
ram:08001d0a    0028            cmp         param_1,#0x0                            
ram:08001d0c    02d0            beq         LAB_08001d14                            
ram:08001d0e    316a            ldr         param_2,[r6,#0x20]=>DAT_20000118        
ram:08001d10    0029            cmp         param_2,#0x0                            
ram:08001d12    0ad0            beq         LAB_08001d2a                            
                            LAB_08001d14:                 ;XREF[1,0]:   08001d0c
ram:08001d14    f16b            ldr         param_2,[r6,#0x3c]=>DAT_20000134        
ram:08001d16    0029            cmp         param_2,#0x0                            
ram:08001d18    01d1            bne         LAB_08001d1e                            
ram:08001d1a    0028            cmp         param_1,#0x0                            
ram:08001d1c    02d1            bne         LAB_08001d24                            
                            LAB_08001d1e:                 ;XREF[1,0]:   08001d18
ram:08001d1e    0120            movs        param_1,#0x1                            
ram:08001d20    4002            lsls        param_1,param_1,#0x9                    
ram:08001d22    0543            orrs        r5,param_1                              
                            LAB_08001d24:                 ;XREF[1,0]:   08001d1c
ram:08001d24    1520            movs        param_1,#0x15                           
ram:08001d26    c002            lsls        param_1,param_1,#0xb                    
ram:08001d28    0543            orrs        r5,param_1                              
                            LAB_08001d2a:                 ;XREF[1,0]:   08001d12
ram:08001d2a    0924            movs        r4,#0x9                                 
ram:08001d2c    0121            movs        param_2,#0x1                            
ram:08001d2e    e406            lsls        r4,r4,#0x1b                             
ram:08001d30    8902            lsls        param_2,param_2,#0xa                    
ram:08001d32    2046            mov         param_1=>DAT_48000000,r4                
ram:08001d34    02f0cdf9        bl          FUN_080040d2                            ;bool FUN_080040d2(int param_1, ushor...
ram:08001d38    0028            cmp         param_1,#0x0                            
ram:08001d3a    04d0            beq         LAB_08001d46                            
ram:08001d3c    e805            lsls        param_1,r5,#0x17                        
ram:08001d3e    02d4            bmi         LAB_08001d46                            
ram:08001d40    5349            ldr         param_2,[DAT_08001e90]                  ;= 20000288h
ram:08001d42    6420            movs        param_1,#0x64                           
ram:08001d44    0860            str         param_1,[param_2,#0x0]=>DAT_20000288    
                            LAB_08001d46:                 ;XREF[2,0]:   08001d3a,08001d3e
ram:08001d46    0121            movs        param_2,#0x1                            
ram:08001d48    c902            lsls        param_2,param_2,#0xb                    
ram:08001d4a    2046            mov         param_1=>DAT_48000000,r4                
ram:08001d4c    02f0c1f9        bl          FUN_080040d2                            ;bool FUN_080040d2(int param_1, ushor...
ram:08001d50    0028            cmp         param_1,#0x0                            
ram:08001d52    04d0            beq         LAB_08001d5e                            
ram:08001d54    a805            lsls        param_1,r5,#0x16                        
ram:08001d56    02d4            bmi         LAB_08001d5e                            
ram:08001d58    4d49            ldr         param_2,[DAT_08001e90]                  ;= 20000288h
ram:08001d5a    6420            movs        param_1,#0x64                           
ram:08001d5c    0860            str         param_1,[param_2,#0x0]=>DAT_20000288    
                            LAB_08001d5e:                 ;XREF[2,0]:   08001d52,08001d56
ram:08001d5e    0121            movs        param_2,#0x1                            
ram:08001d60    0903            lsls        param_2,param_2,#0xc                    
ram:08001d62    2046            mov         param_1=>DAT_48000000,r4                
ram:08001d64    02f0b5f9        bl          FUN_080040d2                            ;bool FUN_080040d2(int param_1, ushor...
ram:08001d68    0028            cmp         param_1,#0x0                            
ram:08001d6a    04d0            beq         LAB_08001d76                            
ram:08001d6c    6805            lsls        param_1,r5,#0x15                        
ram:08001d6e    02d4            bmi         LAB_08001d76                            
ram:08001d70    4749            ldr         param_2,[DAT_08001e90]                  ;= 20000288h
ram:08001d72    6420            movs        param_1,#0x64                           
ram:08001d74    4860            str         param_1,[param_2,#0x4]=>DAT_2000028c    
                            LAB_08001d76:                 ;XREF[2,0]:   08001d6a,08001d6e
ram:08001d76    0121            movs        param_2,#0x1                            
ram:08001d78    c903            lsls        param_2,param_2,#0xf                    
ram:08001d7a    2046            mov         param_1=>DAT_48000000,r4                
ram:08001d7c    02f0a9f9        bl          FUN_080040d2                            ;bool FUN_080040d2(int param_1, ushor...
ram:08001d80    0028            cmp         param_1,#0x0                            
ram:08001d82    04d0            beq         LAB_08001d8e                            
ram:08001d84    2805            lsls        param_1,r5,#0x14                        
ram:08001d86    02d4            bmi         LAB_08001d8e                            
ram:08001d88    4149            ldr         param_2,[DAT_08001e90]                  ;= 20000288h
ram:08001d8a    6420            movs        param_1,#0x64                           
ram:08001d8c    4860            str         param_1,[param_2,#0x4]=>DAT_2000028c    
                            LAB_08001d8e:                 ;XREF[2,0]:   08001d82,08001d86
ram:08001d8e    414c            ldr         r4,[DAT_08001e94]                       ;= 48000400h
ram:08001d90    1021            movs        param_2,#0x10                           
ram:08001d92    2046            mov         param_1=>DAT_48000400,r4                
ram:08001d94    02f09df9        bl          FUN_080040d2                            ;bool FUN_080040d2(int param_1, ushor...
ram:08001d98    0028            cmp         param_1,#0x0                            
ram:08001d9a    04d0            beq         LAB_08001da6                            
ram:08001d9c    e804            lsls        param_1,r5,#0x13                        
ram:08001d9e    02d4            bmi         LAB_08001da6                            
ram:08001da0    3b49            ldr         param_2,[DAT_08001e90]                  ;= 20000288h
ram:08001da2    6420            movs        param_1,#0x64                           
ram:08001da4    8860            str         param_1,[param_2,#0x8]=>DAT_20000290    
                            LAB_08001da6:                 ;XREF[2,0]:   08001d9a,08001d9e
ram:08001da6    2021            movs        param_2,#0x20                           
ram:08001da8    2046            mov         param_1=>DAT_48000400,r4                
ram:08001daa    02f092f9        bl          FUN_080040d2                            ;bool FUN_080040d2(int param_1, ushor...
ram:08001dae    0028            cmp         param_1,#0x0                            
ram:08001db0    04d0            beq         LAB_08001dbc                            
ram:08001db2    a804            lsls        param_1,r5,#0x12                        
ram:08001db4    02d4            bmi         LAB_08001dbc                            
ram:08001db6    3649            ldr         param_2,[DAT_08001e90]                  ;= 20000288h
ram:08001db8    6420            movs        param_1,#0x64                           
ram:08001dba    8860            str         param_1,[param_2,#0x8]=>DAT_20000290    
                            LAB_08001dbc:                 ;XREF[2,0]:   08001db0,08001db4
ram:08001dbc    0121            movs        param_2,#0x1                            
ram:08001dbe    8902            lsls        param_2,param_2,#0xa                    
ram:08001dc0    2046            mov         param_1=>DAT_48000400,r4                
ram:08001dc2    02f086f9        bl          FUN_080040d2                            ;bool FUN_080040d2(int param_1, ushor...
ram:08001dc6    0028            cmp         param_1,#0x0                            
ram:08001dc8    04d0            beq         LAB_08001dd4                            
ram:08001dca    6804            lsls        param_1,r5,#0x11                        
ram:08001dcc    02d4            bmi         LAB_08001dd4                            
ram:08001dce    3049            ldr         param_2,[DAT_08001e90]                  ;= 20000288h
ram:08001dd0    6420            movs        param_1,#0x64                           
ram:08001dd2    c860            str         param_1,[param_2,#0xc]=>DAT_20000294    
                            LAB_08001dd4:                 ;XREF[2,0]:   08001dc8,08001dcc
ram:08001dd4    0121            movs        param_2,#0x1                            
ram:08001dd6    c902            lsls        param_2,param_2,#0xb                    
ram:08001dd8    2046            mov         param_1=>DAT_48000400,r4                
ram:08001dda    02f07af9        bl          FUN_080040d2                            ;bool FUN_080040d2(int param_1, ushor...
ram:08001dde    0028            cmp         param_1,#0x0                            
ram:08001de0    04d0            beq         LAB_08001dec                            
ram:08001de2    e80b            lsrs        param_1,r5,#0xf                         
ram:08001de4    02d1            bne         LAB_08001dec                            
ram:08001de6    2a49            ldr         param_2,[DAT_08001e90]                  ;= 20000288h
ram:08001de8    6420            movs        param_1,#0x64                           
ram:08001dea    c860            str         param_1,[param_2,#0xc]=>DAT_20000294    
                            LAB_08001dec:                 ;XREF[2,0]:   08001de0,08001de4
ram:08001dec    2848            ldr         param_1,[DAT_08001e90]                  ;= 20000288h
ram:08001dee    0168            ldr         param_2,[param_1,#0x0]=>DAT_20000288    
ram:08001df0    0029            cmp         param_2,#0x0                            
ram:08001df2    02d0            beq         LAB_08001dfa                            
ram:08001df4    0321            movs        param_2,#0x3                            
ram:08001df6    0902            lsls        param_2,param_2,#0x8                    
ram:08001df8    8d43            bics        r5,param_2                              
                            LAB_08001dfa:                 ;XREF[1,0]:   08001df2
ram:08001dfa    4168            ldr         param_2,[param_1,#0x4]=>DAT_2000028c    
ram:08001dfc    0029            cmp         param_2,#0x0                            
ram:08001dfe    02d0            beq         LAB_08001e06                            
ram:08001e00    0321            movs        param_2,#0x3                            
ram:08001e02    8902            lsls        param_2,param_2,#0xa                    
ram:08001e04    8d43            bics        r5,param_2                              
                            LAB_08001e06:                 ;XREF[1,0]:   08001dfe
ram:08001e06    8168            ldr         param_2,[param_1,#0x8]=>DAT_20000290    
ram:08001e08    0029            cmp         param_2,#0x0                            
ram:08001e0a    02d0            beq         LAB_08001e12                            
ram:08001e0c    0321            movs        param_2,#0x3                            
ram:08001e0e    0903            lsls        param_2,param_2,#0xc                    
ram:08001e10    8d43            bics        r5,param_2                              
                            LAB_08001e12:                 ;XREF[1,0]:   08001e0a
ram:08001e12    c068            ldr         param_1,[param_1,#0xc]=>DAT_20000294    
ram:08001e14    0028            cmp         param_1,#0x0                            
ram:08001e16    01d0            beq         LAB_08001e1c                            
ram:08001e18    ad04            lsls        r5,r5,#0x12                             
ram:08001e1a    ad0c            lsrs        r5,r5,#0x12                             
                            LAB_08001e1c:                 ;XREF[1,0]:   08001e16
ram:08001e1c    1649            ldr         param_2,[DAT_08001e78]                  ;= 20000128h
ram:08001e1e    0498            ldr         param_1,[sp,#local_18+0x28]             
ram:08001e20    0860            str         param_1,[param_2,#0x0]=>DAT_20000128    
ram:08001e22    091d            adds        param_2,param_2,#0x4                    
ram:08001e24    0098            ldr         param_1,[sp,#0x0]=>local_28             
ram:08001e26    0860            str         param_1,[param_2,#0x0]=>DAT_2000012c    
ram:08001e28    3078            ldrb        param_1,[r6,#0x0]=>DAT_200000f8         
ram:08001e2a    0028            cmp         param_1,#0x0                            
ram:08001e2c    b079            ldrb        param_1,[r6,#0x6]=>DAT_200000fe         
ram:08001e2e    36d0            beq         LAB_08001e9e                            
ram:08001e30    0228            cmp         param_1,#0x2                            
ram:08001e32    04d1            bne         LAB_08001e3e                            
ram:08001e34    3868            ldr         param_1,[r7,#0x0]=>DAT_200001fc         
ram:08001e36    0028            cmp         param_1,#0x0                            
ram:08001e38    00d0            beq         LAB_08001e3c                            
ram:08001e3a    0120            movs        param_1,#0x1                            
                            LAB_08001e3c:                 ;XREF[1,0]:   08001e38
ram:08001e3c    b071            strb        param_1,[r6,#0x6]=>DAT_200000fe         
                            LAB_08001e3e:                 ;XREF[1,0]:   08001e32
ram:08001e3e    3078            ldrb        param_1,[r6,#0x0]=>DAT_200000f8         
ram:08001e40    0021            movs        param_2,#0x0                            
ram:08001e42    c943            mvns        param_2,param_2                         
ram:08001e44    8007            lsls        param_1,param_1,#0x1e                   
ram:08001e46    8a07            lsls        r2,param_2,#0x1e                        
ram:08001e48    d042            cmn         param_1,r2                              
ram:08001e4a    25d5            bpl         LAB_08001e98                            
ram:08001e4c    3960            str         param_2,[r7,#0x0]=>DAT_200001fc         
ram:08001e4e    2fe0            b           LAB_08001eb0                            
                            DAT_08001e50:                 ;XREF[3,0]:   08001a54,08001a88,08001a9c
ram:08001e50    02010020        undefined4  20000102h                               
                            DAT_08001e54:                 ;XREF[2,0]:   08001a6a,08001a78
ram:08001e54    98020020        undefined4  20000298h                               
                            DAT_08001e58:                 ;XREF[4,0]:   08001a74,08001a84,08001ab4,08001cc4
ram:08001e58    0080ffff        undefined4  FFFF8000h                               
                            DAT_08001e5c:                 ;XREF[2,0]:   08001a72,08001a82
ram:08001e5c    44010020        undefined4  20000144h                               
                            DAT_08001e60:                 ;XREF[8,0]:   08001aa6,08001ac2,08001b5e,08001b72
                                                          ;             08001b96,08001bbe,08001bc8,08001cd6
ram:08001e60    f8000020        undefined4  200000F8h                               
                            DAT_08001e64:                 ;XREF[2,0]:   08001ab2,08001cc2
ram:08001e64    42010020        undefined4  20000142h                               
                            DAT_08001e68:                 ;XREF[6,0]:   08001af8,08001b04,08001b0c,08001b24
                                                          ;             08001b30,08001b40
ram:08001e68    a8020020        undefined4  200002A8h                               
                            DAT_08001e6c:                 ;XREF[1,0]:   08001b4e
ram:08001e6c    d4000020        undefined4  200000D4h                               
                            DAT_08001e70:                 ;XREF[2,0]:   08001b90,08001c84
ram:08001e70    18020020        undefined4  20000218h                               
                            DAT_08001e74:                 ;XREF[1,0]:   08001c0c
ram:08001e74    fc010020        undefined4  200001FCh                               
                            DAT_08001e78:                 ;XREF[2,0]:   08001c10,08001e1c
ram:08001e78    28010020        undefined4  20000128h                               
                            DAT_08001e7c:                 ;XREF[1,0]:   08001c2a
ram:08001e7c    b80b0000        undefined4  00000BB8h                               
                            DAT_08001e80:                 ;XREF[1,0]:   08001c72
ram:08001e80    fb000020        undefined4  200000FBh                               
                            DAT_08001e84:                 ;XREF[1,0]:   08001c74
ram:08001e84    01000000        undefined4  00000001h                               
                            DAT_08001e88:                 ;XREF[1,0]:   08001cf8
ram:08001e88    2c010020        undefined4  2000012Ch                               
                            DAT_08001e8c:                 ;XREF[1,0]:   08001d06
ram:08001e8c    6c010020        undefined4  2000016Ch                               
                            DAT_08001e90:                 ;XREF[9,0]:   08001d40,08001d58,08001d70,08001d88
                                                          ;             08001da0,08001db6,08001dce,08001de6
                                                          ;             08001dec
ram:08001e90    88020020        undefined4  20000288h                               
                            DAT_08001e94:                 ;XREF[1,0]:   08001d8e
ram:08001e94    00040048        undefined4  48000400h                               
                            LAB_08001e98:                 ;XREF[1,0]:   08001e4a
ram:08001e98    0020            movs        param_1,#0x0                            
ram:08001e9a    3860            str         param_1,[r7,#0x0]=>DAT_200001fc         
ram:08001e9c    08e0            b           LAB_08001eb0                            
                            LAB_08001e9e:                 ;XREF[1,0]:   08001e2e
ram:08001e9e    0228            cmp         param_1,#0x2                            
ram:08001ea0    06d0            beq         LAB_08001eb0                            
ram:08001ea2    0028            cmp         param_1,#0x0                            
ram:08001ea4    01d0            beq         LAB_08001eaa                            
ram:08001ea6    0020            movs        param_1,#0x0                            
ram:08001ea8    c043            mvns        param_1,param_1                         
                            LAB_08001eaa:                 ;XREF[1,0]:   08001ea4
ram:08001eaa    3860            str         param_1,[r7,#0x0]=>DAT_200001fc         
ram:08001eac    0220            movs        param_1,#0x2                            
ram:08001eae    b071            strb        param_1,[r6,#0x6]=>DAT_200000fe         
                            LAB_08001eb0:                 ;XREF[3,0]:   08001e4e,08001e9c,08001ea0
ram:08001eb0    306c            ldr         param_1,[r6,#0x40]=>DAT_20000138        
ram:08001eb2    0028            cmp         param_1,#0x0                            
ram:08001eb4    00d0            beq         LAB_08001eb8                            
ram:08001eb6    0025            movs        r5,#0x0                                 
                            LAB_08001eb8:                 ;XREF[1,0]:   08001eb4
ram:08001eb8    794f            ldr         r7,[DAT_080020a0]                       ;= 200000D4h
ram:08001eba    7a4e            ldr         r6,[DAT_080020a4]                       ;= 2000013Ch
ram:08001ebc    0024            movs        r4,#0x0                                 
                            LAB_08001ebe:                 ;XREF[1,0]:   08001f50
ram:08001ebe    e805            lsls        param_1,r5,#0x17                        
ram:08001ec0    08d5            bpl         LAB_08001ed4                            
ram:08001ec2    a805            lsls        param_1,r5,#0x16                        
ram:08001ec4    0fd4            bmi         LAB_08001ee6                            
ram:08001ec6    ff21            movs        param_2,#0xff                           
ram:08001ec8    2046            mov         param_1,r4                              
ram:08001eca    01f0c0f8        bl          FUN_0800304e                            ;undefined FUN_0800304e(int param_1, ...
ram:08001ece    9620            movs        param_1,#0x96                           
ram:08001ed0    3055            strb        param_1,[r6,r4]=>DAT_2000013c           
ram:08001ed2    39e0            b           LAB_08001f48                            
                            LAB_08001ed4:                 ;XREF[1,0]:   08001ec0
ram:08001ed4    a805            lsls        param_1,r5,#0x16                        
ram:08001ed6    06d5            bpl         LAB_08001ee6                            
ram:08001ed8    ff21            movs        param_2,#0xff                           
ram:08001eda    2046            mov         param_1,r4                              
ram:08001edc    01f0d2f8        bl          FUN_08003084                            ;undefined FUN_08003084(int param_1, ...
ram:08001ee0    9620            movs        param_1,#0x96                           
ram:08001ee2    3055            strb        param_1,[r6,r4]=>DAT_2000013c           
ram:08001ee4    30e0            b           LAB_08001f48                            
                            LAB_08001ee6:                 ;XREF[2,0]:   08001ec4,08001ed6
ram:08001ee6    3868            ldr         param_1,[r7,#0x0]=>DAT_200000d4         
ram:08001ee8    0028            cmp         param_1,#0x0                            
ram:08001eea    29d0            beq         LAB_08001f40                            
ram:08001eec    002c            cmp         r4,#0x0                                 
ram:08001eee    27d0            beq         LAB_08001f40                            
ram:08001ef0    6d48            ldr         param_1,[DAT_080020a8]                  ;= 200000F8h
ram:08001ef2    c068            ldr         param_1,[param_1,#0xc]=>DAT_20000104    
ram:08001ef4    0028            cmp         param_1,#0x0                            
ram:08001ef6    23d0            beq         LAB_08001f40                            
ram:08001ef8    305d            ldrb        param_1,[r6,r4]=>DAT_2000013c           
ram:08001efa    0028            cmp         param_1,#0x0                            
ram:08001efc    20d0            beq         LAB_08001f40                            
ram:08001efe    6000            lsls        param_1,r4,#0x1                         
ram:08001f00    6a49            ldr         param_2,[DAT_080020ac]                  ;= 20000196h
ram:08001f02    0090            str         param_1,[sp,#0x0]=>local_28             
ram:08001f04    095a            ldrh        param_2,[param_2,param_1]=>DAT_20000196 
ram:08001f06    6a48            ldr         param_1,[DAT_080020b0]                  ;= 00007FFFh
ram:08001f08    8142            cmp         param_2,param_1                         
ram:08001f0a    19d2            bcs         LAB_08001f40                            
ram:08001f0c    6948            ldr         param_1,[DAT_080020b4]                  ;= 200001A2h
ram:08001f0e    005d            ldrb        param_1,[param_1,r4]=>DAT_200001a2      
ram:08001f10    0128            cmp         param_1,#0x1                            
ram:08001f12    08d1            bne         LAB_08001f26                            
ram:08001f14    2046            mov         param_1,r4                              
ram:08001f16    01f00ff8        bl          FUN_08002f38                            ;int FUN_08002f38(int param_1)
ram:08001f1a    674a            ldr         r2=>DAT_200000f0,[DAT_080020b8]         ;= 200000F0h
ram:08001f1c    0099            ldr         param_2,[sp,#0x0]=>local_28             
ram:08001f1e    1438            subs        param_1,#0x14                           
ram:08001f20    515e            ldrsh       param_2,[r2,param_2]=>DAT_200000f0      
ram:08001f22    8842            cmp         param_1,param_2                         
ram:08001f24    10dc            bgt         LAB_08001f48                            
                            LAB_08001f26:                 ;XREF[1,0]:   08001f12
ram:08001f26    6348            ldr         param_1,[DAT_080020b4]                  ;= 200001A2h
ram:08001f28    005d            ldrb        param_1,[param_1,r4]=>DAT_200001a2      
ram:08001f2a    0228            cmp         param_1,#0x2                            
ram:08001f2c    08d1            bne         LAB_08001f40                            
ram:08001f2e    2046            mov         param_1,r4                              
ram:08001f30    01f002f8        bl          FUN_08002f38                            ;int FUN_08002f38(int param_1)
ram:08001f34    604a            ldr         r2=>DAT_200000f0,[DAT_080020b8]         ;= 200000F0h
ram:08001f36    0099            ldr         param_2,[sp,#0x0]=>local_28             
ram:08001f38    1430            adds        param_1,#0x14                           
ram:08001f3a    515e            ldrsh       param_2,[r2,param_2]=>DAT_200000f0      
ram:08001f3c    8842            cmp         param_1,param_2                         
ram:08001f3e    03db            blt         LAB_08001f48                            
                            LAB_08001f40:                 ;XREF[6,0]:   08001eea,08001eee,08001ef6,08001efc
                                                          ;             08001f0a,08001f2c
ram:08001f40    0021            movs        param_2,#0x0                            
ram:08001f42    2046            mov         param_1,r4                              
ram:08001f44    01f09ef8        bl          FUN_08003084                            ;undefined FUN_08003084(int param_1, ...
                            LAB_08001f48:                 ;XREF[4,0]:   08001ed2,08001ee4,08001f24,08001f3e
ram:08001f48    641c            adds        r4,r4,#0x1                              
ram:08001f4a    ad08            lsrs        r5,r5,#0x2                              
ram:08001f4c    e4b2            uxtb        r4,r4                                   
ram:08001f4e    042c            cmp         r4,#0x4                                 
ram:08001f50    b5d3            bcc         LAB_08001ebe                            
ram:08001f52    05b0            add         sp,#0x14                                
ram:08001f54    f0bd            pop         {r4,r5,r6,r7,pc}                        
                            ;************************************************************************************************
                            ;*                                           FUNCTION                                           *
                            ;************************************************************************************************
                            ;undefined FUN_08001f56(void)
                                                          ;XREF[1,0]:   08004ee4
ram:08001f56    10b5            push        {r4,lr}                                 
ram:08001f58    5849            ldr         r1,[DAT_080020bc]                       ;= 20000288h
ram:08001f5a    0868            ldr         r0,[r1,#0x0]=>DAT_20000288              
ram:08001f5c    0028            cmp         r0,#0x0                                 
ram:08001f5e    02d0            beq         LAB_08001f66                            
ram:08001f60    0868            ldr         r0,[r1,#0x0]=>DAT_20000288              
ram:08001f62    401e            subs        r0,r0,#0x1                              
ram:08001f64    0860            str         r0,[r1,#0x0]=>DAT_20000288              
                            LAB_08001f66:                 ;XREF[1,0]:   08001f5e
ram:08001f66    4f48            ldr         r0,[DAT_080020a4]                       ;= 2000013Ch
ram:08001f68    0278            ldrb        r2,[r0,#0x0]=>DAT_2000013c              
ram:08001f6a    002a            cmp         r2,#0x0                                 
ram:08001f6c    02d0            beq         LAB_08001f74                            
ram:08001f6e    0278            ldrb        r2,[r0,#0x0]=>DAT_2000013c              
ram:08001f70    521e            subs        r2,r2,#0x1                              
ram:08001f72    0270            strb        r2,[r0,#0x0]=>DAT_2000013c              
                            LAB_08001f74:                 ;XREF[1,0]:   08001f6c
ram:08001f74    4a68            ldr         r2,[r1,#0x4]=>DAT_2000028c              
ram:08001f76    002a            cmp         r2,#0x0                                 
ram:08001f78    02d0            beq         LAB_08001f80                            
ram:08001f7a    4a68            ldr         r2,[r1,#0x4]=>DAT_2000028c              
ram:08001f7c    521e            subs        r2,r2,#0x1                              
ram:08001f7e    4a60            str         r2,[r1,#0x4]=>DAT_2000028c              
                            LAB_08001f80:                 ;XREF[1,0]:   08001f78
ram:08001f80    4278            ldrb        r2,[r0,#0x1]=>DAT_2000013d              
ram:08001f82    002a            cmp         r2,#0x0                                 
ram:08001f84    02d0            beq         LAB_08001f8c                            
ram:08001f86    4278            ldrb        r2,[r0,#0x1]=>DAT_2000013d              
ram:08001f88    521e            subs        r2,r2,#0x1                              
ram:08001f8a    4270            strb        r2,[r0,#0x1]=>DAT_2000013d              
                            LAB_08001f8c:                 ;XREF[1,0]:   08001f84
ram:08001f8c    8a68            ldr         r2,[r1,#0x8]=>DAT_20000290              
ram:08001f8e    002a            cmp         r2,#0x0                                 
ram:08001f90    02d0            beq         LAB_08001f98                            
ram:08001f92    8a68            ldr         r2,[r1,#0x8]=>DAT_20000290              
ram:08001f94    521e            subs        r2,r2,#0x1                              
ram:08001f96    8a60            str         r2,[r1,#0x8]=>DAT_20000290              
                            LAB_08001f98:                 ;XREF[1,0]:   08001f90
ram:08001f98    8278            ldrb        r2,[r0,#0x2]=>DAT_2000013e              
ram:08001f9a    002a            cmp         r2,#0x0                                 
ram:08001f9c    02d0            beq         LAB_08001fa4                            
ram:08001f9e    8278            ldrb        r2,[r0,#0x2]=>DAT_2000013e              
ram:08001fa0    521e            subs        r2,r2,#0x1                              
ram:08001fa2    8270            strb        r2,[r0,#0x2]=>DAT_2000013e              
                            LAB_08001fa4:                 ;XREF[1,0]:   08001f9c
ram:08001fa4    ca68            ldr         r2,[r1,#0xc]=>DAT_20000294              
ram:08001fa6    002a            cmp         r2,#0x0                                 
ram:08001fa8    02d0            beq         LAB_08001fb0                            
ram:08001faa    ca68            ldr         r2,[r1,#0xc]=>DAT_20000294              
ram:08001fac    521e            subs        r2,r2,#0x1                              
ram:08001fae    ca60            str         r2,[r1,#0xc]=>DAT_20000294              
                            LAB_08001fb0:                 ;XREF[1,0]:   08001fa8
ram:08001fb0    c178            ldrb        r1,[r0,#0x3]=>DAT_2000013f              
ram:08001fb2    0029            cmp         r1,#0x0                                 
ram:08001fb4    02d0            beq         LAB_08001fbc                            
ram:08001fb6    c178            ldrb        r1,[r0,#0x3]=>DAT_2000013f              
ram:08001fb8    491e            subs        r1,r1,#0x1                              
ram:08001fba    c170            strb        r1,[r0,#0x3]=>DAT_2000013f              
                            LAB_08001fbc:                 ;XREF[1,0]:   08001fb4
ram:08001fbc    3a48            ldr         r0,[DAT_080020a8]                       ;= 200000F8h
ram:08001fbe    c16a            ldr         r1,[r0,#0x2c]=>DAT_20000124             
ram:08001fc0    0029            cmp         r1,#0x0                                 
ram:08001fc2    02d0            beq         LAB_08001fca                            
ram:08001fc4    c16a            ldr         r1,[r0,#0x2c]=>DAT_20000124             
ram:08001fc6    491e            subs        r1,r1,#0x1                              
ram:08001fc8    c162            str         r1,[r0,#0x2c]=>DAT_20000124             
                            LAB_08001fca:                 ;XREF[1,0]:   08001fc2
ram:08001fca    016a            ldr         r1,[r0,#0x20]=>DAT_20000118             
ram:08001fcc    0029            cmp         r1,#0x0                                 
ram:08001fce    02d0            beq         LAB_08001fd6                            
ram:08001fd0    016a            ldr         r1,[r0,#0x20]=>DAT_20000118             
ram:08001fd2    491e            subs        r1,r1,#0x1                              
ram:08001fd4    0162            str         r1,[r0,#0x20]=>DAT_20000118             
                            LAB_08001fd6:                 ;XREF[1,0]:   08001fce
ram:08001fd6    416a            ldr         r1,[r0,#0x24]=>DAT_2000011c             
ram:08001fd8    0029            cmp         r1,#0x0                                 
ram:08001fda    02d0            beq         LAB_08001fe2                            
ram:08001fdc    416a            ldr         r1,[r0,#0x24]=>DAT_2000011c             
ram:08001fde    491e            subs        r1,r1,#0x1                              
ram:08001fe0    4162            str         r1,[r0,#0x24]=>DAT_2000011c             
                            LAB_08001fe2:                 ;XREF[1,0]:   08001fda
ram:08001fe2    016c            ldr         r1,[r0,#0x40]=>DAT_20000138             
ram:08001fe4    0029            cmp         r1,#0x0                                 
ram:08001fe6    01d0            beq         LAB_08001fec                            
ram:08001fe8    491e            subs        r1,r1,#0x1                              
ram:08001fea    0164            str         r1,[r0,#0x40]=>DAT_20000138             
                            LAB_08001fec:                 ;XREF[1,0]:   08001fe6
ram:08001fec    0169            ldr         r1,[r0,#0x10]=>DAT_20000108             
ram:08001fee    0129            cmp         r1,#0x1                                 
ram:08001ff0    02d9            bls         LAB_08001ff8                            
ram:08001ff2    0169            ldr         r1,[r0,#0x10]=>DAT_20000108             
ram:08001ff4    491e            subs        r1,r1,#0x1                              
ram:08001ff6    0161            str         r1,[r0,#0x10]=>DAT_20000108             
                            LAB_08001ff8:                 ;XREF[1,0]:   08001ff0
ram:08001ff8    3149            ldr         r1,[DAT_080020c0]                       ;= 20000298h
ram:08001ffa    0a68            ldr         r2,[r1,#0x0]=>DAT_20000298              
ram:08001ffc    002a            cmp         r2,#0x0                                 
ram:08001ffe    02d0            beq         LAB_08002006                            
ram:08002000    0a68            ldr         r2,[r1,#0x0]=>DAT_20000298              
ram:08002002    521e            subs        r2,r2,#0x1                              
ram:08002004    0a60            str         r2,[r1,#0x0]=>DAT_20000298              
                            LAB_08002006:                 ;XREF[1,0]:   08001ffe
ram:08002006    4a68            ldr         r2,[r1,#0x4]=>DAT_2000029c              
ram:08002008    002a            cmp         r2,#0x0                                 
ram:0800200a    02d0            beq         LAB_08002012                            
ram:0800200c    4a68            ldr         r2,[r1,#0x4]=>DAT_2000029c              
ram:0800200e    521e            subs        r2,r2,#0x1                              
ram:08002010    4a60            str         r2,[r1,#0x4]=>DAT_2000029c              
                            LAB_08002012:                 ;XREF[1,0]:   0800200a
ram:08002012    8a68            ldr         r2,[r1,#0x8]=>DAT_200002a0              
ram:08002014    002a            cmp         r2,#0x0                                 
ram:08002016    02d0            beq         LAB_0800201e                            
ram:08002018    8a68            ldr         r2,[r1,#0x8]=>DAT_200002a0              
ram:0800201a    521e            subs        r2,r2,#0x1                              
ram:0800201c    8a60            str         r2,[r1,#0x8]=>DAT_200002a0              
                            LAB_0800201e:                 ;XREF[1,0]:   08002016
ram:0800201e    ca68            ldr         r2,[r1,#0xc]=>DAT_200002a4              
ram:08002020    002a            cmp         r2,#0x0                                 
ram:08002022    02d0            beq         LAB_0800202a                            
ram:08002024    ca68            ldr         r2,[r1,#0xc]=>DAT_200002a4              
ram:08002026    521e            subs        r2,r2,#0x1                              
ram:08002028    ca60            str         r2,[r1,#0xc]=>DAT_200002a4              
                            LAB_0800202a:                 ;XREF[1,0]:   08002022
ram:0800202a    017a            ldrb        r1,[r0,#0x8]=>DAT_20000100              
ram:0800202c    0029            cmp         r1,#0x0                                 
ram:0800202e    21d1            bne         LAB_08002074                            
ram:08002030    0a21            movs        r1,#0xa                                 
ram:08002032    0172            strb        r1,[r0,#0x8]=>DAT_20000100              
ram:08002034    417a            ldrb        r1,[r0,#0x9]=>DAT_20000101              
ram:08002036    0129            cmp         r1,#0x1                                 
ram:08002038    02d9            bls         LAB_08002040                            
ram:0800203a    417a            ldrb        r1,[r0,#0x9]=>DAT_20000101              
ram:0800203c    491e            subs        r1,r1,#0x1                              
ram:0800203e    4172            strb        r1,[r0,#0x9]=>DAT_20000101              
                            LAB_08002040:                 ;XREF[1,0]:   08002038
ram:08002040    0178            ldrb        r1,[r0,#0x0]=>DAT_200000f8              
ram:08002042    0029            cmp         r1,#0x0                                 
ram:08002044    02d0            beq         LAB_0800204c                            
ram:08002046    0178            ldrb        r1,[r0,#0x0]=>DAT_200000f8              
ram:08002048    491e            subs        r1,r1,#0x1                              
ram:0800204a    0170            strb        r1,[r0,#0x0]=>DAT_200000f8              
                            LAB_0800204c:                 ;XREF[1,0]:   08002044
ram:0800204c    816c            ldr         r1,[r0,#0x48]=>DAT_20000140             
ram:0800204e    0129            cmp         r1,#0x1                                 
ram:08002050    01d9            bls         LAB_08002056                            
ram:08002052    491e            subs        r1,r1,#0x1                              
ram:08002054    8164            str         r1,[r0,#0x48]=>DAT_20000140             
                            LAB_08002056:                 ;XREF[1,0]:   08002050
ram:08002056    c169            ldr         r1,[r0,#0x1c]=>DAT_20000114             
ram:08002058    0129            cmp         r1,#0x1                                 
ram:0800205a    01d9            bls         LAB_08002060                            
ram:0800205c    491e            subs        r1,r1,#0x1                              
ram:0800205e    c161            str         r1,[r0,#0x1c]=>DAT_20000114             
                            LAB_08002060:                 ;XREF[1,0]:   0800205a
ram:08002060    4169            ldr         r1,[r0,#0x14]=>DAT_2000010c             
ram:08002062    0029            cmp         r1,#0x0                                 
ram:08002064    01d0            beq         LAB_0800206a                            
ram:08002066    491e            subs        r1,r1,#0x1                              
ram:08002068    4161            str         r1,[r0,#0x14]=>DAT_2000010c             
                            LAB_0800206a:                 ;XREF[1,0]:   08002064
ram:0800206a    8169            ldr         r1,[r0,#0x18]=>DAT_20000110             
ram:0800206c    0029            cmp         r1,#0x0                                 
ram:0800206e    01d0            beq         LAB_08002074                            
ram:08002070    491e            subs        r1,r1,#0x1                              
ram:08002072    8161            str         r1,[r0,#0x18]=>DAT_20000110             
                            LAB_08002074:                 ;XREF[2,0]:   0800202e,0800206e
ram:08002074    017a            ldrb        r1,[r0,#0x8]=>DAT_20000100              
ram:08002076    491e            subs        r1,r1,#0x1                              
ram:08002078    0172            strb        r1,[r0,#0x8]=>DAT_20000100              
ram:0800207a    1248            ldr         r0=>DAT_200002a8,[DAT_080020c4]         ;= 200002A8h
ram:0800207c    0168            ldr         r1,[r0,#0x0]=>DAT_200002a8              
ram:0800207e    0029            cmp         r1,#0x0                                 
ram:08002080    01dd            ble         LAB_08002086                            
ram:08002082    491e            subs        r1,r1,#0x1                              
ram:08002084    0160            str         r1,[r0,#0x0]=>DAT_200002a8              
                            LAB_08002086:                 ;XREF[1,0]:   08002080
ram:08002086    4168            ldr         r1,[r0,#0x4]=>DAT_200002ac              
ram:08002088    0029            cmp         r1,#0x0                                 
ram:0800208a    01dd            ble         LAB_08002090                            
ram:0800208c    491e            subs        r1,r1,#0x1                              
ram:0800208e    4160            str         r1,[r0,#0x4]=>DAT_200002ac              
                            LAB_08002090:                 ;XREF[1,0]:   0800208a
ram:08002090    8168            ldr         r1,[r0,#0x8]=>DAT_200002b0              
ram:08002092    0029            cmp         r1,#0x0                                 
ram:08002094    01dd            ble         LAB_0800209a                            
ram:08002096    491e            subs        r1,r1,#0x1                              
ram:08002098    8160            str         r1,[r0,#0x8]=>DAT_200002b0              
                            LAB_0800209a:                 ;XREF[1,0]:   08002094
ram:0800209a    00f07cfa        bl          FUN_08002596                            ;undefined FUN_08002596(void)
ram:0800209e    10bd            pop         {r4,pc}                                 
                            DAT_080020a0:                 ;XREF[1,0]:   08001eb8
ram:080020a0    d4000020        undefined4  200000D4h                               
                            DAT_080020a4:                 ;XREF[2,0]:   08001eba,08001f66
ram:080020a4    3c010020        undefined4  2000013Ch                               
                            DAT_080020a8:                 ;XREF[2,0]:   08001ef0,08001fbc
ram:080020a8    f8000020        undefined4  200000F8h                               
                            DAT_080020ac:                 ;XREF[1,0]:   08001f00
ram:080020ac    96010020        undefined4  20000196h                               
                            DAT_080020b0:                 ;XREF[1,0]:   08001f06
ram:080020b0    ff7f0000        undefined4  00007FFFh                               
                            DAT_080020b4:                 ;XREF[2,0]:   08001f0c,08001f26
ram:080020b4    a2010020        undefined4  200001A2h                               
                            DAT_080020b8:                 ;XREF[2,0]:   08001f1a,08001f34
ram:080020b8    f0000020        undefined4  200000F0h                               
                            DAT_080020bc:                 ;XREF[1,0]:   08001f58
ram:080020bc    88020020        undefined4  20000288h                               
                            DAT_080020c0:                 ;XREF[1,0]:   08001ff8
ram:080020c0    98020020        undefined4  20000298h                               
                            DAT_080020c4:                 ;XREF[1,0]:   0800207a
ram:080020c4    a8020020        undefined4  200002A8h                               
                            ;************************************************************************************************
                            ;*                                           FUNCTION                                           *
                            ;************************************************************************************************
                            ;undefined FUN_0800212e(uint param_1)
          ;param_1       uint                r0                      
                                                          ;XREF[3,0]:   08002340,08002352,08002364
ram:0800212e    30b4            push        {r4,r5}                                 
ram:08002130    e449            ldr         r1,[DAT_080024c4]                       ;= 2000014Ch
ram:08002132    4a68            ldr         r2,[r1,#0x4]=>DAT_20000150              
ram:08002134    002a            cmp         r2,#0x0                                 
ram:08002136    01d1            bne         LAB_0800213c                            
ram:08002138    e54a            ldr         r2,[DAT_080024d0]                       ;= 0000EA60h
ram:0800213a    4a60            str         r2,[r1,#0x4]=>DAT_20000150              
                            LAB_0800213c:                 ;XREF[1,0]:   08002136
ram:0800213c    8a68            ldr         r2,[r1,#0x8]=>DAT_20000154              
ram:0800213e    0023            movs        r3,#0x0                                 
ram:08002140    8242            cmp         r2,param_1                              
ram:08002142    03d0            beq         LAB_0800214c                            
ram:08002144    0428            cmp         param_1,#0x4                            
ram:08002146    00d2            bcs         LAB_0800214a                            
ram:08002148    8b61            str         r3,[r1,#0x18]=>DAT_20000164             
                            LAB_0800214a:                 ;XREF[1,0]:   08002146
ram:0800214a    8860            str         param_1,[r1,#0x8]=>DAT_20000154         
                            LAB_0800214c:                 ;XREF[1,0]:   08002142
ram:0800214c    8869            ldr         param_1,[r1,#0x18]=>DAT_20000164        
ram:0800214e    401c            adds        param_1,param_1,#0x1                    
ram:08002150    8861            str         param_1,[r1,#0x18]=>DAT_20000164        
ram:08002152    0628            cmp         param_1,#0x6                            
ram:08002154    01d3            bcc         LAB_0800215a                            
ram:08002156    8b61            str         r3,[r1,#0x18]=>DAT_20000164             
ram:08002158    05e0            b           LAB_08002166                            
                            LAB_0800215a:                 ;XREF[1,0]:   08002154
ram:0800215a    0028            cmp         param_1,#0x0                            
ram:0800215c    03d0            beq         LAB_08002166                            
ram:0800215e    0328            cmp         param_1,#0x3                            
ram:08002160    01d2            bcs         LAB_08002166                            
ram:08002162    0320            movs        param_1,#0x3                            
ram:08002164    8861            str         param_1,[r1,#0x18]=>DAT_20000164        
                            LAB_08002166:                 ;XREF[3,0]:   08002158,0800215c,08002160
ram:08002166    8869            ldr         param_1,[r1,#0x18]=>DAT_20000164        
ram:08002168    0428            cmp         param_1,#0x4                            
ram:0800216a    01d3            bcc         LAB_08002170                            
ram:0800216c    0622            movs        r2,#0x6                                 
ram:0800216e    101a            subs        param_1,r2,param_1                      
                            LAB_08002170:                 ;XREF[1,0]:   0800216a
ram:08002170    8c68            ldr         r4,[r1,#0x8]=>DAT_20000154              
ram:08002172    d44a            ldr         r2,[DAT_080024c4]                       ;= 2000014Ch
ram:08002174    062c            cmp         r4,#0x6                                 
ram:08002176    07d2            bcs         switchD_08002180::caseD_0               
ram:08002178    2500            movs        r5,r4                                   
ram:0800217a    7d44            add         r5,pc                                   
ram:0800217c    2d79            ldrb        r5,[r5,#0x4]=>switchD_08002180::switc...;= 2h
ram:0800217e    6d19            adds        r5,r5,r5                                
                            switchD:                      ; FWD[5,0]:   08002188,08002190,08002196,0800219e
                                                          ;             080021a4
ram:08002180    af44            add         pc,r5                                   
                            switchdataD_08002182:         ;XREF[1,0]:   0800217c
ram:08002182    02              db          2h                                      
ram:08002183    06              db          6h                                      
ram:08002184    09              db          9h                                      
ram:08002185    09              db          9h                                      
ram:08002186    0d              db          Dh                                      
ram:08002187    10              db          10h                                     
                            caseD_0:                      ;XREF[2,0]:   08002176,08002180
ram:08002188    cb60            str         r3,[r1,#0xc]=>DAT_20000158              
ram:0800218a    1370            strb        r3,[r2,#0x0]=>DAT_2000014c              
ram:0800218c    5370            strb        r3,[r2,#0x1]=>DAT_2000014d              
ram:0800218e    11e0            b           LAB_080021b4                            
                            caseD_1:                      ;XREF[1,0]:   08002180
ram:08002190    cb60            str         r3,[r1,#0xc]=>DAT_20000158              
ram:08002192    1070            strb        param_1,[r2,#0x0]=>DAT_2000014c         
ram:08002194    07e0            b           LAB_080021a6                            
                            caseD_3:                      ;XREF[1,0]:   08002180
                            caseD_2:                      
ram:08002196    c860            str         param_1,[r1,#0xc]=>DAT_20000158         
ram:08002198    1070            strb        param_1,[r2,#0x0]=>DAT_2000014c         
ram:0800219a    5070            strb        param_1,[r2,#0x1]=>DAT_2000014d         
ram:0800219c    04e0            b           LAB_080021a8                            
                            caseD_4:                      ;XREF[1,0]:   08002180
ram:0800219e    cb60            str         r3,[r1,#0xc]=>DAT_20000158              
ram:080021a0    1070            strb        param_1,[r2,#0x0]=>DAT_2000014c         
ram:080021a2    01e0            b           LAB_080021a8                            
                            caseD_5:                      ;XREF[1,0]:   08002180
ram:080021a4    cb60            str         r3,[r1,#0xc]=>DAT_20000158              
                            LAB_080021a6:                 ;XREF[1,0]:   08002194
ram:080021a6    5070            strb        param_1,[r2,#0x1]=>DAT_2000014d         
                            LAB_080021a8:                 ;XREF[2,0]:   0800219c,080021a2
ram:080021a8    1078            ldrb        param_1,[r2,#0x0]=>DAT_2000014c         
ram:080021aa    0028            cmp         param_1,#0x0                            
ram:080021ac    03d1            bne         LAB_080021b6                            
ram:080021ae    5078            ldrb        param_1,[r2,#0x1]=>DAT_2000014d         
ram:080021b0    0028            cmp         param_1,#0x0                            
ram:080021b2    00d1            bne         LAB_080021b6                            
                            LAB_080021b4:                 ;XREF[1,0]:   0800218e
ram:080021b4    4b60            str         r3,[r1,#0x4]=>DAT_20000150              
                            LAB_080021b6:                 ;XREF[2,0]:   080021ac,080021b2
ram:080021b6    30bc            pop         {r4,r5}                                 
ram:080021b8    7047            bx          lr                                      
                            ;************************************************************************************************
                            ;*                                           FUNCTION                                           *
                            ;************************************************************************************************
                            ;undefined FUN_080021ba(void)
                                                          ;XREF[2,0]:   0800149a,080018ea
ram:080021ba    c248            ldr         r0=>DAT_2000014c,[DAT_080024c4]         ;= 2000014Ch
ram:080021bc    0021            movs        r1,#0x0                                 
ram:080021be    4160            str         r1,[r0,#0x4]=>DAT_20000150              
ram:080021c0    8160            str         r1,[r0,#0x8]=>DAT_20000154              
ram:080021c2    0180            strh        r1,[r0,#0x0]=>DAT_2000014c              
ram:080021c4    7047            bx          lr                                      
                            ;************************************************************************************************
                            ;*                                           FUNCTION                                           *
                            ;************************************************************************************************
                            ;undefined FUN_080021c6(uint param_1)
          ;param_1       uint                r0                      
          ;local_1c      undefined4         -1c                      ;XREF[2,0]:   080021e0,080024ac
          ;local_20      undefined4         -20                      ;XREF[2,0]:   08002292,08002368
                                                          ;XREF[1,0]:   08001b4a
ram:080021c6    f0b5            push        {r4,r5,r6,r7,lr}                        
ram:080021c8    be49            ldr         r1,[DAT_080024c4]                       ;= 2000014Ch
ram:080021ca    0025            movs        r5,#0x0                                 
ram:080021cc    0b78            ldrb        r3,[r1,#0x0]=>DAT_2000014c              
ram:080021ce    4978            ldrb        r1,[r1,#0x1]=>DAT_2000014d              
ram:080021d0    bc4c            ldr         r4,[DAT_080024c4]                       ;= 2000014Ch
ram:080021d2    83b0            sub         sp,#0xc                                 
ram:080021d4    002b            cmp         r3,#0x0                                 
ram:080021d6    02d1            bne         LAB_080021de                            
ram:080021d8    0029            cmp         r1,#0x0                                 
ram:080021da    00d1            bne         LAB_080021de                            
ram:080021dc    e560            str         r5,[r4,#0xc]=>DAT_20000158              
                            LAB_080021de:                 ;XREF[2,0]:   080021d6,080021da
ram:080021de    bd4a            ldr         r2,[DAT_080024d4]                       ;= 1807F3FFh
ram:080021e0    0190            str         param_1,[sp,#local_1c+0x20]             
ram:080021e2    1042            tst         param_1,r2                              
ram:080021e4    04d0            beq         LAB_080021f0                            
ram:080021e6    002b            cmp         r3,#0x0                                 
ram:080021e8    02d1            bne         LAB_080021f0                            
ram:080021ea    0029            cmp         r1,#0x0                                 
ram:080021ec    00d1            bne         LAB_080021f0                            
ram:080021ee    6560            str         r5,[r4,#0x4]=>DAT_20000150              
                            LAB_080021f0:                 ;XREF[3,0]:   080021e4,080021e8,080021ec
ram:080021f0    b94f            ldr         r7,[DAT_080024d8]                       ;= 20000160h
ram:080021f2    060e            lsrs        r6,param_1,#0x18                        
ram:080021f4    ff78            ldrb        r7,[r7,#0x3]=>DAT_20000163              
ram:080021f6    7207            lsls        r2,r6,#0x1d                             
ram:080021f8    bc46            mov         r12,r7                                  
ram:080021fa    13d5            bpl         LAB_08002224                            
ram:080021fc    7a07            lsls        r2,r7,#0x1d                             
ram:080021fe    11d4            bmi         LAB_08002224                            
ram:08002200    a560            str         r5,[r4,#0x8]=>DAT_20000154              
ram:08002202    e268            ldr         r2,[r4,#0xc]=>DAT_20000158              
ram:08002204    521c            adds        r2,r2,#0x1                              
ram:08002206    e260            str         r2,[r4,#0xc]=>DAT_20000158              
ram:08002208    042a            cmp         r2,#0x4                                 
ram:0800220a    01d3            bcc         LAB_08002210                            
ram:0800220c    e560            str         r5,[r4,#0xc]=>DAT_20000158              
ram:0800220e    09e0            b           LAB_08002224                            
                            LAB_08002210:                 ;XREF[1,0]:   0800220a
ram:08002210    ac4a            ldr         r2,[DAT_080024c4]                       ;= 2000014Ch
ram:08002212    002b            cmp         r3,#0x0                                 
ram:08002214    06d1            bne         LAB_08002224                            
ram:08002216    0029            cmp         r1,#0x0                                 
ram:08002218    04d1            bne         LAB_08002224                            
ram:0800221a    0221            movs        r1,#0x2                                 
ram:0800221c    1170            strb        r1,[r2,#0x0]=>DAT_2000014c              
ram:0800221e    5170            strb        r1,[r2,#0x1]=>DAT_2000014d              
ram:08002220    ab49            ldr         r1,[DAT_080024d0]                       ;= 0000EA60h
ram:08002222    6160            str         r1,[r4,#0x4]=>DAT_20000150              
                            LAB_08002224:                 ;XREF[5,0]:   080021fa,080021fe,0800220e,08002214
                                                          ;             08002218
ram:08002224    ac4a            ldr         r2,[DAT_080024d8]                       ;= 20000160h
ram:08002226    0102            lsls        r1,param_1,#0x8                         
ram:08002228    0f0e            lsrs        r7,r1,#0x18                             
ram:0800222a    9278            ldrb        r2,[r2,#0x2]=>DAT_20000162              
ram:0800222c    b906            lsls        r1,r7,#0x1a                             
ram:0800222e    15d5            bpl         LAB_0800225c                            
ram:08002230    9106            lsls        r1,r2,#0x1a                             
ram:08002232    13d4            bmi         LAB_0800225c                            
ram:08002234    a560            str         r5,[r4,#0x8]=>DAT_20000154              
ram:08002236    6168            ldr         r1,[r4,#0x4]=>DAT_20000150              
ram:08002238    0029            cmp         r1,#0x0                                 
ram:0800223a    01d1            bne         LAB_08002240                            
ram:0800223c    a449            ldr         r1,[DAT_080024d0]                       ;= 0000EA60h
ram:0800223e    6160            str         r1,[r4,#0x4]=>DAT_20000150              
                            LAB_08002240:                 ;XREF[1,0]:   0800223a
ram:08002240    a049            ldr         r1,[DAT_080024c4]                       ;= 2000014Ch
ram:08002242    0b78            ldrb        r3,[r1,#0x0]=>DAT_2000014c              
ram:08002244    002b            cmp         r3,#0x0                                 
ram:08002246    02d1            bne         LAB_0800224e                            
ram:08002248    4b78            ldrb        r3,[r1,#0x1]=>DAT_2000014d              
ram:0800224a    002b            cmp         r3,#0x0                                 
ram:0800224c    02d0            beq         LAB_08002254                            
                            LAB_0800224e:                 ;XREF[1,0]:   08002246
ram:0800224e    0d70            strb        r5,[r1,#0x0]=>DAT_2000014c              
ram:08002250    6560            str         r5,[r4,#0x4]=>DAT_20000150              
ram:08002252    01e0            b           LAB_08002258                            
                            LAB_08002254:                 ;XREF[1,0]:   0800224c
ram:08002254    0323            movs        r3,#0x3                                 
ram:08002256    0b70            strb        r3,[r1,#0x0]=>DAT_2000014c              
                            LAB_08002258:                 ;XREF[1,0]:   08002252
ram:08002258    0b78            ldrb        r3,[r1,#0x0]=>DAT_2000014c              
ram:0800225a    4b70            strb        r3,[r1,#0x1]=>DAT_2000014d              
                            LAB_0800225c:                 ;XREF[2,0]:   0800222e,08002232
ram:0800225c    7906            lsls        r1,r7,#0x19                             
ram:0800225e    16d5            bpl         LAB_0800228e                            
ram:08002260    5106            lsls        r1,r2,#0x19                             
ram:08002262    14d4            bmi         LAB_0800228e                            
ram:08002264    a560            str         r5,[r4,#0x8]=>DAT_20000154              
ram:08002266    6168            ldr         r1,[r4,#0x4]=>DAT_20000150              
ram:08002268    0029            cmp         r1,#0x0                                 
ram:0800226a    01d1            bne         LAB_08002270                            
ram:0800226c    9849            ldr         r1,[DAT_080024d0]                       ;= 0000EA60h
ram:0800226e    6160            str         r1,[r4,#0x4]=>DAT_20000150              
                            LAB_08002270:                 ;XREF[1,0]:   0800226a
ram:08002270    9449            ldr         r1,[DAT_080024c4]                       ;= 2000014Ch
ram:08002272    4b78            ldrb        r3,[r1,#0x1]=>DAT_2000014d              
ram:08002274    5b1c            adds        r3,r3,#0x1                              
ram:08002276    dbb2            uxtb        r3,r3                                   
ram:08002278    4b70            strb        r3,[r1,#0x1]=>DAT_2000014d              
ram:0800227a    042b            cmp         r3,#0x4                                 
ram:0800227c    00d3            bcc         LAB_08002280                            
ram:0800227e    4d70            strb        r5,[r1,#0x1]=>DAT_2000014d              
                            LAB_08002280:                 ;XREF[1,0]:   0800227c
ram:08002280    0b78            ldrb        r3,[r1,#0x0]=>DAT_2000014c              
ram:08002282    002b            cmp         r3,#0x0                                 
ram:08002284    03d1            bne         LAB_0800228e                            
ram:08002286    4978            ldrb        r1,[r1,#0x1]=>DAT_2000014d              
ram:08002288    0029            cmp         r1,#0x0                                 
ram:0800228a    00d1            bne         LAB_0800228e                            
ram:0800228c    6560            str         r5,[r4,#0x4]=>DAT_20000150              
                            LAB_0800228e:                 ;XREF[4,0]:   0800225e,08002262,08002284,0800228a
ram:0800228e    0004            lsls        param_1,param_1,#0x10                   
ram:08002290    000e            lsrs        param_1,param_1,#0x18                   
ram:08002292    0090            str         param_1,[sp,#0x0]=>local_20             
ram:08002294    0007            lsls        param_1,param_1,#0x1c                   
ram:08002296    18d5            bpl         LAB_080022ca                            
ram:08002298    8f48            ldr         param_1,[DAT_080024d8]                  ;= 20000160h
ram:0800229a    4078            ldrb        param_1,[param_1,#0x1]=>DAT_20000161    
ram:0800229c    0007            lsls        param_1,param_1,#0x1c                   
ram:0800229e    14d4            bmi         LAB_080022ca                            
ram:080022a0    a560            str         r5,[r4,#0x8]=>DAT_20000154              
ram:080022a2    6068            ldr         param_1,[r4,#0x4]=>DAT_20000150         
ram:080022a4    0028            cmp         param_1,#0x0                            
ram:080022a6    01d1            bne         LAB_080022ac                            
ram:080022a8    8948            ldr         param_1,[DAT_080024d0]                  ;= 0000EA60h
ram:080022aa    6060            str         param_1,[r4,#0x4]=>DAT_20000150         
                            LAB_080022ac:                 ;XREF[1,0]:   080022a6
ram:080022ac    8548            ldr         param_1,[DAT_080024c4]                  ;= 2000014Ch
ram:080022ae    0178            ldrb        r1,[param_1,#0x0]=>DAT_2000014c         
ram:080022b0    491c            adds        r1,r1,#0x1                              
ram:080022b2    c9b2            uxtb        r1,r1                                   
ram:080022b4    0170            strb        r1,[param_1,#0x0]=>DAT_2000014c         
ram:080022b6    0429            cmp         r1,#0x4                                 
ram:080022b8    01d3            bcc         LAB_080022be                            
ram:080022ba    0570            strb        r5,[param_1,#0x0]=>DAT_2000014c         
ram:080022bc    01e0            b           LAB_080022c2                            
                            LAB_080022be:                 ;XREF[1,0]:   080022b8
ram:080022be    0029            cmp         r1,#0x0                                 
ram:080022c0    03d1            bne         LAB_080022ca                            
                            LAB_080022c2:                 ;XREF[1,0]:   080022bc
ram:080022c2    4078            ldrb        param_1,[param_1,#0x1]=>DAT_2000014d    
ram:080022c4    0028            cmp         param_1,#0x0                            
ram:080022c6    00d1            bne         LAB_080022ca                            
ram:080022c8    6560            str         r5,[r4,#0x4]=>DAT_20000150              
                            LAB_080022ca:                 ;XREF[4,0]:   08002296,0800229e,080022c0,080022c6
ram:080022ca    f809            lsrs        param_1,r7,#0x7                         
ram:080022cc    0423            movs        r3,#0x4                                 
ram:080022ce    0028            cmp         param_1,#0x0                            
ram:080022d0    16d0            beq         LAB_08002300                            
ram:080022d2    d009            lsrs        param_1,r2,#0x7                         
ram:080022d4    14d1            bne         LAB_08002300                            
ram:080022d6    a560            str         r5,[r4,#0x8]=>DAT_20000154              
ram:080022d8    6068            ldr         param_1,[r4,#0x4]=>DAT_20000150         
ram:080022da    0028            cmp         param_1,#0x0                            
ram:080022dc    01d1            bne         LAB_080022e2                            
ram:080022de    7c48            ldr         param_1,[DAT_080024d0]                  ;= 0000EA60h
ram:080022e0    6060            str         param_1,[r4,#0x4]=>DAT_20000150         
                            LAB_080022e2:                 ;XREF[1,0]:   080022dc
ram:080022e2    7848            ldr         param_1,[DAT_080024c4]                  ;= 2000014Ch
ram:080022e4    0178            ldrb        r1,[param_1,#0x0]=>DAT_2000014c         
ram:080022e6    0029            cmp         r1,#0x0                                 
ram:080022e8    00d1            bne         LAB_080022ec                            
ram:080022ea    0370            strb        r3,[param_1,#0x0]=>DAT_2000014c         
                            LAB_080022ec:                 ;XREF[1,0]:   080022e8
ram:080022ec    0178            ldrb        r1,[param_1,#0x0]=>DAT_2000014c         
ram:080022ee    491e            subs        r1,r1,#0x1                              
ram:080022f0    0906            lsls        r1,r1,#0x18                             
ram:080022f2    090e            lsrs        r1,r1,#0x18                             
ram:080022f4    0170            strb        r1,[param_1,#0x0]=>DAT_2000014c         
ram:080022f6    03d1            bne         LAB_08002300                            
ram:080022f8    4078            ldrb        param_1,[param_1,#0x1]=>DAT_2000014d    
ram:080022fa    0028            cmp         param_1,#0x0                            
ram:080022fc    00d1            bne         LAB_08002300                            
ram:080022fe    6560            str         r5,[r4,#0x4]=>DAT_20000150              
                            LAB_08002300:                 ;XREF[4,0]:   080022d0,080022d4,080022f6,080022fc
ram:08002300    f007            lsls        param_1,r6,#0x1f                        
ram:08002302    17d0            beq         LAB_08002334                            
ram:08002304    6046            mov         param_1,r12                             
ram:08002306    c007            lsls        param_1,param_1,#0x1f                   
ram:08002308    14d1            bne         LAB_08002334                            
ram:0800230a    a560            str         r5,[r4,#0x8]=>DAT_20000154              
ram:0800230c    6068            ldr         param_1,[r4,#0x4]=>DAT_20000150         
ram:0800230e    0028            cmp         param_1,#0x0                            
ram:08002310    01d1            bne         LAB_08002316                            
ram:08002312    6f48            ldr         param_1,[DAT_080024d0]                  ;= 0000EA60h
ram:08002314    6060            str         param_1,[r4,#0x4]=>DAT_20000150         
                            LAB_08002316:                 ;XREF[1,0]:   08002310
ram:08002316    6b48            ldr         param_1,[DAT_080024c4]                  ;= 2000014Ch
ram:08002318    4178            ldrb        r1,[param_1,#0x1]=>DAT_2000014d         
ram:0800231a    0029            cmp         r1,#0x0                                 
ram:0800231c    00d1            bne         LAB_08002320                            
ram:0800231e    4370            strb        r3,[param_1,#0x1]=>DAT_2000014d         
                            LAB_08002320:                 ;XREF[1,0]:   0800231c
ram:08002320    4178            ldrb        r1,[param_1,#0x1]=>DAT_2000014d         
ram:08002322    491e            subs        r1,r1,#0x1                              
ram:08002324    c9b2            uxtb        r1,r1                                   
ram:08002326    4170            strb        r1,[param_1,#0x1]=>DAT_2000014d         
ram:08002328    0078            ldrb        param_1,[param_1,#0x0]=>DAT_2000014c    
ram:0800232a    0028            cmp         param_1,#0x0                            
ram:0800232c    02d1            bne         LAB_08002334                            
ram:0800232e    0029            cmp         r1,#0x0                                 
ram:08002330    00d1            bne         LAB_08002334                            
ram:08002332    6560            str         r5,[r4,#0x4]=>DAT_20000150              
                            LAB_08002334:                 ;XREF[4,0]:   08002302,08002308,0800232c,08002330
ram:08002334    b006            lsls        param_1,r6,#0x1a                        
ram:08002336    05d5            bpl         LAB_08002344                            
ram:08002338    6046            mov         param_1,r12                             
ram:0800233a    8006            lsls        param_1,param_1,#0x1a                   
ram:0800233c    02d4            bmi         LAB_08002344                            
ram:0800233e    0120            movs        param_1,#0x1                            
ram:08002340    fff7f5fe        bl          FUN_0800212e                            ;undefined FUN_0800212e(uint param_1)
                            LAB_08002344:                 ;XREF[2,0]:   08002336,0800233c
ram:08002344    7006            lsls        param_1,r6,#0x19                        
ram:08002346    06d5            bpl         LAB_08002356                            
ram:08002348    6348            ldr         param_1,[DAT_080024d8]                  ;= 20000160h
ram:0800234a    c078            ldrb        param_1,[param_1,#0x3]=>DAT_20000163    
ram:0800234c    4006            lsls        param_1,param_1,#0x19                   
ram:0800234e    02d4            bmi         LAB_08002356                            
ram:08002350    0220            movs        param_1,#0x2                            
ram:08002352    fff7ecfe        bl          FUN_0800212e                            ;undefined FUN_0800212e(uint param_1)
                            LAB_08002356:                 ;XREF[2,0]:   08002346,0800234e
ram:08002356    f009            lsrs        param_1,r6,#0x7                         
ram:08002358    06d0            beq         LAB_08002368                            
ram:0800235a    5f48            ldr         param_1,[DAT_080024d8]                  ;= 20000160h
ram:0800235c    c078            ldrb        param_1,[param_1,#0x3]=>DAT_20000163    
ram:0800235e    c009            lsrs        param_1,param_1,#0x7                    
ram:08002360    02d1            bne         LAB_08002368                            
ram:08002362    0320            movs        param_1,#0x3                            
ram:08002364    fff7e3fe        bl          FUN_0800212e                            ;undefined FUN_0800212e(uint param_1)
                            LAB_08002368:                 ;XREF[2,0]:   08002358,08002360
ram:08002368    0098            ldr         param_1,[sp,#0x0]=>local_20             
ram:0800236a    4007            lsls        param_1,param_1,#0x1d                   
ram:0800236c    06d5            bpl         LAB_0800237c                            
ram:0800236e    5a48            ldr         param_1,[DAT_080024d8]                  ;= 20000160h
ram:08002370    4078            ldrb        param_1,[param_1,#0x1]=>DAT_20000161    
ram:08002372    4007            lsls        param_1,param_1,#0x1d                   
ram:08002374    02d4            bmi         LAB_0800237c                            
ram:08002376    6560            str         r5,[r4,#0x4]=>DAT_20000150              
ram:08002378    a560            str         r5,[r4,#0x8]=>DAT_20000154              
ram:0800237a    2580            strh        r5,[r4,#0x0]=>DAT_2000014c              
                            LAB_0800237c:                 ;XREF[2,0]:   0800236c,08002374
ram:0800237c    3807            lsls        param_1,r7,#0x1c                        
ram:0800237e    16d5            bpl         LAB_080023ae                            
ram:08002380    5548            ldr         param_1,[DAT_080024d8]                  ;= 20000160h
ram:08002382    8078            ldrb        param_1,[param_1,#0x2]=>DAT_20000162    
ram:08002384    0007            lsls        param_1,param_1,#0x1c                   
ram:08002386    12d4            bmi         LAB_080023ae                            
ram:08002388    4e48            ldr         param_1,[DAT_080024c4]                  ;= 2000014Ch
ram:0800238a    0178            ldrb        r1,[param_1,#0x0]=>DAT_2000014c         
ram:0800238c    0029            cmp         r1,#0x0                                 
ram:0800238e    05d0            beq         LAB_0800239c                            
ram:08002390    0570            strb        r5,[param_1,#0x0]=>DAT_2000014c         
ram:08002392    4078            ldrb        param_1,[param_1,#0x1]=>DAT_2000014d    
ram:08002394    0028            cmp         param_1,#0x0                            
ram:08002396    08d1            bne         LAB_080023aa                            
ram:08002398    6560            str         r5,[r4,#0x4]=>DAT_20000150              
ram:0800239a    06e0            b           LAB_080023aa                            
                            LAB_0800239c:                 ;XREF[1,0]:   0800238e
ram:0800239c    0321            movs        r1,#0x3                                 
ram:0800239e    0170            strb        r1,[param_1,#0x0]=>DAT_2000014c         
ram:080023a0    6068            ldr         param_1,[r4,#0x4]=>DAT_20000150         
ram:080023a2    0028            cmp         param_1,#0x0                            
ram:080023a4    01d1            bne         LAB_080023aa                            
ram:080023a6    4a48            ldr         param_1,[DAT_080024d0]                  ;= 0000EA60h
ram:080023a8    6060            str         param_1,[r4,#0x4]=>DAT_20000150         
                            LAB_080023aa:                 ;XREF[3,0]:   08002396,0800239a,080023a4
ram:080023aa    a560            str         r5,[r4,#0x8]=>DAT_20000154              
ram:080023ac    e560            str         r5,[r4,#0xc]=>DAT_20000158              
                            LAB_080023ae:                 ;XREF[2,0]:   0800237e,08002386
ram:080023ae    f806            lsls        param_1,r7,#0x1b                        
ram:080023b0    16d5            bpl         LAB_080023e0                            
ram:080023b2    4948            ldr         param_1,[DAT_080024d8]                  ;= 20000160h
ram:080023b4    8078            ldrb        param_1,[param_1,#0x2]=>DAT_20000162    
ram:080023b6    c006            lsls        param_1,param_1,#0x1b                   
ram:080023b8    12d4            bmi         LAB_080023e0                            
ram:080023ba    4248            ldr         param_1,[DAT_080024c4]                  ;= 2000014Ch
ram:080023bc    4178            ldrb        r1,[param_1,#0x1]=>DAT_2000014d         
ram:080023be    0029            cmp         r1,#0x0                                 
ram:080023c0    05d0            beq         LAB_080023ce                            
ram:080023c2    4570            strb        r5,[param_1,#0x1]=>DAT_2000014d         
ram:080023c4    0078            ldrb        param_1,[param_1,#0x0]=>DAT_2000014c    
ram:080023c6    0028            cmp         param_1,#0x0                            
ram:080023c8    08d1            bne         LAB_080023dc                            
ram:080023ca    6560            str         r5,[r4,#0x4]=>DAT_20000150              
ram:080023cc    06e0            b           LAB_080023dc                            
                            LAB_080023ce:                 ;XREF[1,0]:   080023c0
ram:080023ce    0321            movs        r1,#0x3                                 
ram:080023d0    4170            strb        r1,[param_1,#0x1]=>DAT_2000014d         
ram:080023d2    6068            ldr         param_1,[r4,#0x4]=>DAT_20000150         
ram:080023d4    0028            cmp         param_1,#0x0                            
ram:080023d6    01d1            bne         LAB_080023dc                            
ram:080023d8    3d48            ldr         param_1,[DAT_080024d0]                  ;= 0000EA60h
ram:080023da    6060            str         param_1,[r4,#0x4]=>DAT_20000150         
                            LAB_080023dc:                 ;XREF[3,0]:   080023c8,080023cc,080023d6
ram:080023dc    a560            str         r5,[r4,#0x8]=>DAT_20000154              
ram:080023de    e560            str         r5,[r4,#0xc]=>DAT_20000158              
                            LAB_080023e0:                 ;XREF[2,0]:   080023b0,080023b8
ram:080023e0    3e49            ldr         r1,[DAT_080024dc]                       ;= 0001D4C0h
ram:080023e2    b007            lsls        param_1,r6,#0x1e                        
ram:080023e4    21d5            bpl         LAB_0800242a                            
ram:080023e6    3c48            ldr         param_1,[DAT_080024d8]                  ;= 20000160h
ram:080023e8    c078            ldrb        param_1,[param_1,#0x3]=>DAT_20000163    
ram:080023ea    8007            lsls        param_1,param_1,#0x1e                   
ram:080023ec    1dd4            bmi         LAB_0800242a                            
ram:080023ee    3548            ldr         param_1,[DAT_080024c4]                  ;= 2000014Ch
ram:080023f0    0278            ldrb        r2,[param_1,#0x0]=>DAT_2000014c         
ram:080023f2    002a            cmp         r2,#0x0                                 
ram:080023f4    02d1            bne         LAB_080023fc                            
ram:080023f6    4278            ldrb        r2,[param_1,#0x1]=>DAT_2000014d         
ram:080023f8    002a            cmp         r2,#0x0                                 
ram:080023fa    04d0            beq         LAB_08002406                            
                            LAB_080023fc:                 ;XREF[1,0]:   080023f4
ram:080023fc    a560            str         r5,[r4,#0x8]=>DAT_20000154              
ram:080023fe    0570            strb        r5,[param_1,#0x0]=>DAT_2000014c         
ram:08002400    4570            strb        r5,[param_1,#0x1]=>DAT_2000014d         
ram:08002402    6560            str         r5,[r4,#0x4]=>DAT_20000150              
ram:08002404    11e0            b           LAB_0800242a                            
                            LAB_08002406:                 ;XREF[1,0]:   080023fa
ram:08002406    6068            ldr         param_1,[r4,#0x4]=>DAT_20000150         
ram:08002408    0028            cmp         param_1,#0x0                            
ram:0800240a    05d0            beq         LAB_08002418                            
ram:0800240c    6268            ldr         r2,[r4,#0x4]=>DAT_20000150              
ram:0800240e    3048            ldr         param_1,[DAT_080024d0]                  ;= 0000EA60h
ram:08002410    8242            cmp         r2,param_1                              
ram:08002412    03d8            bhi         LAB_0800241c                            
ram:08002414    6160            str         r1,[r4,#0x4]=>DAT_20000150              
ram:08002416    08e0            b           LAB_0800242a                            
                            LAB_08002418:                 ;XREF[1,0]:   0800240a
ram:08002418    2d48            ldr         param_1,[DAT_080024d0]                  ;= 0000EA60h
ram:0800241a    03e0            b           LAB_08002424                            
                            LAB_0800241c:                 ;XREF[1,0]:   08002412
ram:0800241c    6068            ldr         param_1,[r4,#0x4]=>DAT_20000150         
ram:0800241e    8842            cmp         param_1,r1                              
ram:08002420    02d8            bhi         LAB_08002428                            
ram:08002422    2f48            ldr         param_1,[DAT_080024e0]                  ;= 0002BF20h
                            LAB_08002424:                 ;XREF[1,0]:   0800241a
ram:08002424    6060            str         param_1,[r4,#0x4]=>DAT_20000150         
ram:08002426    00e0            b           LAB_0800242a                            
                            LAB_08002428:                 ;XREF[1,0]:   08002420
ram:08002428    6560            str         r5,[r4,#0x4]=>DAT_20000150              
                            LAB_0800242a:                 ;XREF[5,0]:   080023e4,080023ec,08002404,08002416
                                                          ;             08002426
ram:0800242a    6068            ldr         param_1,[r4,#0x4]=>DAT_20000150         
ram:0800242c    0028            cmp         param_1,#0x0                            
ram:0800242e    01d1            bne         LAB_08002434                            
ram:08002430    a560            str         r5,[r4,#0x8]=>DAT_20000154              
ram:08002432    2580            strh        r5,[r4,#0x0]=>DAT_2000014c              
                            LAB_08002434:                 ;XREF[1,0]:   0800242e
ram:08002434    6368            ldr         r3,[r4,#0x4]=>DAT_20000150              
ram:08002436    2b48            ldr         param_1,[DAT_080024e4]                  ;= 20000210h
ram:08002438    2b4a            ldr         r2=>DAT_200000ec,[DAT_080024e8]         ;= 200000ECh
ram:0800243a    002b            cmp         r3,#0x0                                 
ram:0800243c    07d0            beq         LAB_0800244e                            
ram:0800243e    6568            ldr         r5,[r4,#0x4]=>DAT_20000150              
ram:08002440    234b            ldr         r3,[DAT_080024d0]                       ;= 0000EA60h
ram:08002442    9d42            cmp         r5,r3                                   
ram:08002444    07d8            bhi         LAB_08002456                            
ram:08002446    0121            movs        r1,#0x1                                 
ram:08002448    0160            str         r1,[param_1,#0x0]=>DAT_20000210         
ram:0800244a    1160            str         r1,[r2,#0x0]=>DAT_200000ec              
ram:0800244c    0de0            b           LAB_0800246a                            
                            LAB_0800244e:                 ;XREF[1,0]:   0800243c
ram:0800244e    ff21            movs        r1,#0xff                                
ram:08002450    0160            str         r1,[param_1,#0x0]=>DAT_20000210         
ram:08002452    1160            str         r1,[r2,#0x0]=>DAT_200000ec              
ram:08002454    09e0            b           LAB_0800246a                            
                            LAB_08002456:                 ;XREF[1,0]:   08002444
ram:08002456    6368            ldr         r3,[r4,#0x4]=>DAT_20000150              
ram:08002458    8b42            cmp         r3,r1                                   
ram:0800245a    03d8            bhi         LAB_08002464                            
ram:0800245c    0221            movs        r1,#0x2                                 
ram:0800245e    0160            str         r1,[param_1,#0x0]=>DAT_20000210         
ram:08002460    1160            str         r1,[r2,#0x0]=>DAT_200000ec              
ram:08002462    02e0            b           LAB_0800246a                            
                            LAB_08002464:                 ;XREF[1,0]:   0800245a
ram:08002464    0321            movs        r1,#0x3                                 
ram:08002466    0160            str         r1,[param_1,#0x0]=>DAT_20000210         
ram:08002468    1160            str         r1,[r2,#0x0]=>DAT_200000ec              
                            LAB_0800246a:                 ;XREF[3,0]:   0800244c,08002454,08002462
ram:0800246a    a068            ldr         param_1,[r4,#0x8]=>DAT_20000154         
ram:0800246c    0428            cmp         param_1,#0x4                            
ram:0800246e    0bd2            bcs         LAB_08002488                            
ram:08002470    1e49            ldr         r1,[PTR_DAT_080024ec]                   ;= 08005410
ram:08002472    8000            lsls        param_1,param_1,#0x2                    
ram:08002474    0858            ldr         param_1,[r1,param_1]=>DAT_08005410      
ram:08002476    0121            movs        r1,#0x1                                 
ram:08002478    02f09efa        bl          FUN_080049b8                            ;undefined FUN_080049b8(uint param_1,...
ram:0800247c    a068            ldr         param_1,[r4,#0x8]=>DAT_20000154         
ram:0800247e    8100            lsls        r1,param_1,#0x2                         
ram:08002480    1b48            ldr         param_1,[PTR_DAT_080024f0]              ;= 08005428
ram:08002482    4058            ldr         param_1,[param_1,r1]=>DAT_08005428      ;= 68180000h
ram:08002484    0321            movs        r1,#0x3                                 
ram:08002486    0ee0            b           LAB_080024a6                            
                            LAB_08002488:                 ;XREF[1,0]:   0800246e
ram:08002488    0e48            ldr         param_1,[DAT_080024c4]                  ;= 2000014Ch
ram:0800248a    0178            ldrb        r1,[param_1,#0x0]=>DAT_2000014c         
ram:0800248c    0029            cmp         r1,#0x0                                 
ram:0800248e    77d0            beq         LAB_08002580                            
ram:08002490    4078            ldrb        param_1,[param_1,#0x1]=>DAT_2000014d    
ram:08002492    0028            cmp         param_1,#0x0                            
ram:08002494    6dd0            beq         LAB_08002572                            
ram:08002496    0320            movs        param_1,#0x3                            
ram:08002498    0121            movs        r1,#0x1                                 
ram:0800249a    c004            lsls        param_1,param_1,#0x13                   
ram:0800249c    02f08cfa        bl          FUN_080049b8                            ;undefined FUN_080049b8(uint param_1,...
ram:080024a0    0d20            movs        param_1,#0xd                            
ram:080024a2    0321            movs        r1,#0x3                                 
ram:080024a4    c006            lsls        param_1,param_1,#0x1b                   
                            LAB_080024a6:                 ;XREF[3,0]:   08002486,0800257e,0800258c
ram:080024a6    02f087fa        bl          FUN_080049b8                            ;undefined FUN_080049b8(uint param_1,...
ram:080024aa    0b49            ldr         r1,[DAT_080024d8]                       ;= 20000160h
ram:080024ac    0198            ldr         param_1,[sp,#local_1c+0x20]             
ram:080024ae    0860            str         param_1,[r1,#0x0]=>DAT_20000160         
ram:080024b0    1439            subs        r1,#0x14                                
ram:080024b2    0878            ldrb        param_1,[r1,#0x0]=>DAT_2000014c         
ram:080024b4    044e            ldr         r6,[PTR_DAT_080024c8]                   ;= 080053fc
ram:080024b6    305c            ldrb        param_1,[r6,param_1]=>DAT_080053fc      
ram:080024b8    0028            cmp         param_1,#0x0                            
ram:080024ba    24d0            beq         LAB_08002506                            
ram:080024bc    2269            ldr         r2,[r4,#0x10]=>DAT_2000015c             
ram:080024be    401e            subs        param_1,param_1,#0x1                    
ram:080024c0    1212            asrs        r2,r2,#0x8                              
ram:080024c2    17e0            b           LAB_080024f4                            
                            DAT_080024c4:                 ;XREF[15,0]:  08002130,08002172,080021ba,080021c8
                                                          ;             080021d0,08002210,08002240,08002270
                                                          ;             080022ac,080022e2,08002316,08002388
                                                          ;             080023ba,080023ee,08002488
ram:080024c4    4c010020        undefined4  2000014Ch                               
                            PTR_DAT_080024c8:             ;XREF[1,0]:   080024b4
ram:080024c8    fc530008        addr        DAT_080053fc                            
                            DAT_080024d0:                 ;XREF[12,0]:  08002138,08002220,0800223c,0800226c
                                                          ;             080022a8,080022de,08002312,080023a6
                                                          ;             080023d8,0800240e,08002418,08002440
ram:080024d0    60ea0000        undefined4  0000EA60h                               
                            DAT_080024d4:                 ;XREF[1,0]:   080021de
ram:080024d4    fff30718        undefined4  1807F3FFh                               
                            DAT_080024d8:                 ;XREF[10,0]:  080021f0,08002224,08002298,08002348
                                                          ;             0800235a,0800236e,08002380,080023b2
                                                          ;             080023e6,080024aa
ram:080024d8    60010020        undefined4  20000160h                               
                            DAT_080024dc:                 ;XREF[1,0]:   080023e0
ram:080024dc    c0d40100        undefined4  0001D4C0h                               
                            DAT_080024e0:                 ;XREF[1,0]:   08002422
ram:080024e0    20bf0200        undefined4  0002BF20h                               
                            DAT_080024e4:                 ;XREF[1,0]:   08002436
ram:080024e4    10020020        undefined4  20000210h                               
                            DAT_080024e8:                 ;XREF[1,0]:   08002438
ram:080024e8    ec000020        undefined4  200000ECh                               
                            PTR_DAT_080024ec:             ;XREF[1,0]:   08002470
ram:080024ec    10540008        addr        DAT_08005410                            
                            PTR_DAT_080024f0:             ;XREF[1,0]:   08002480
ram:080024f0    28540008        addr        DAT_08005428                            ;= 68180000h
                            LAB_080024f4:                 ;XREF[1,0]:   080024c2
ram:080024f4    00d5            bpl         LAB_080024f8                            
ram:080024f6    5242            rsbs        r2,r2                                   
                            LAB_080024f8:                 ;XREF[1,0]:   080024f4
ram:080024f8    521c            adds        r2,r2,#0x1                              
ram:080024fa    5043            muls        param_1,r2                              
ram:080024fc    ff22            movs        r2,#0xff                                
ram:080024fe    6c32            adds        r2,#0x6c                                
ram:08002500    ff30            adds        param_1,#0xff                           
ram:08002502    0130            adds        param_1,#0x1                            
ram:08002504    5043            muls        param_1,r2                              
                            LAB_08002506:                 ;XREF[1,0]:   080024ba
ram:08002506    000c            lsrs        param_1,param_1,#0x10                   
ram:08002508    1423            movs        r3,#0x14                                
ram:0800250a    334a            ldr         r2,[DAT_080025d8]                       ;= 2000014Eh
ram:0800250c    0028            cmp         param_1,#0x0                            
ram:0800250e    3ed0            beq         LAB_0800258e                            
ram:08002510    1578            ldrb        r5,[r2,#0x0]=>DAT_2000014e              
ram:08002512    002d            cmp         r5,#0x0                                 
ram:08002514    02d0            beq         LAB_0800251c                            
ram:08002516    2328            cmp         param_1,#0x23                           
ram:08002518    00d2            bcs         LAB_0800251c                            
ram:0800251a    2320            movs        param_1,#0x23                           
                            LAB_0800251c:                 ;XREF[3,0]:   08002514,08002518,08002590
ram:0800251c    2f4d            ldr         r5,[DAT_080025dc]                       ;= 40012C00h
ram:0800251e    6863            str         param_1,[r5,#offset DAT_40012c34 &0xff] 
ram:08002520    4878            ldrb        param_1,[r1,#0x1]=>DAT_2000014d         
ram:08002522    305c            ldrb        param_1,[r6,param_1]=>DAT_080053fc      
ram:08002524    0028            cmp         param_1,#0x0                            
ram:08002526    14d0            beq         LAB_08002552                            
ram:08002528    2169            ldr         r1,[r4,#0x10]=>DAT_2000015c             
ram:0800252a    401e            subs        param_1,param_1,#0x1                    
ram:0800252c    0912            asrs        r1,r1,#0x8                              
ram:0800252e    00d5            bpl         LAB_08002532                            
ram:08002530    4942            rsbs        r1,r1                                   
                            LAB_08002532:                 ;XREF[1,0]:   0800252e
ram:08002532    e668            ldr         r6,[r4,#0xc]=>DAT_20000158              
ram:08002534    491c            adds        r1,r1,#0x1                              
ram:08002536    002e            cmp         r6,#0x0                                 
ram:08002538    05d0            beq         LAB_08002546                            
ram:0800253a    a468            ldr         r4,[r4,#0x8]=>DAT_20000154              
ram:0800253c    022c            cmp         r4,#0x2                                 
ram:0800253e    02d0            beq         LAB_08002546                            
ram:08002540    ff24            movs        r4,#0xff                                
ram:08002542    0234            adds        r4,#0x2                                 
ram:08002544    611a            subs        r1,r4,r1                                
                            LAB_08002546:                 ;XREF[2,0]:   08002538,0800253e
ram:08002546    4843            muls        param_1,r1                              
ram:08002548    ff21            movs        r1,#0xff                                
ram:0800254a    6c31            adds        r1,#0x6c                                
ram:0800254c    ff30            adds        param_1,#0xff                           
ram:0800254e    0130            adds        param_1,#0x1                            
ram:08002550    4843            muls        param_1,r1                              
                            LAB_08002552:                 ;XREF[1,0]:   08002526
ram:08002552    000c            lsrs        param_1,param_1,#0x10                   
ram:08002554    1dd0            beq         LAB_08002592                            
ram:08002556    5178            ldrb        r1,[r2,#0x1]=>DAT_2000014f              
ram:08002558    0029            cmp         r1,#0x0                                 
ram:0800255a    02d0            beq         LAB_08002562                            
ram:0800255c    2328            cmp         param_1,#0x23                           
ram:0800255e    00d2            bcs         LAB_08002562                            
ram:08002560    2320            movs        param_1,#0x23                           
                            LAB_08002562:                 ;XREF[3,0]:   0800255a,0800255e,08002594
ram:08002562    ff21            movs        r1,#0xff                                
ram:08002564    6b31            adds        r1,#0x6b                                
ram:08002566    081a            subs        param_1,r1,param_1                      
ram:08002568    a863            str         param_1,[r5,#offset DAT_40012c38 &0xff] 
ram:0800256a    03b0            add         sp,#0xc                                 
ram:0800256c    f0bd            pop         {r4,r5,r6,r7,pc}                        
ram:0800256e    07e0            b           LAB_08002580                            
ram:08002570    ffe7            b           LAB_08002572                            
                            LAB_08002572:                 ;XREF[2,0]:   08002494,08002570
ram:08002572    0121            movs        r1,#0x1                                 
ram:08002574    c804            lsls        param_1,r1,#0x13                        
ram:08002576    02f01ffa        bl          FUN_080049b8                            ;undefined FUN_080049b8(uint param_1,...
ram:0800257a    0321            movs        r1,#0x3                                 
ram:0800257c    1848            ldr         param_1,[DAT_080025e0]                  ;= 68100000h
ram:0800257e    92e7            b           LAB_080024a6                            
                            LAB_08002580:                 ;XREF[2,0]:   0800248e,0800256e
ram:08002580    0121            movs        r1,#0x1                                 
ram:08002582    0805            lsls        param_1,r1,#0x14                        
ram:08002584    02f018fa        bl          FUN_080049b8                            ;undefined FUN_080049b8(uint param_1,...
ram:08002588    0321            movs        r1,#0x3                                 
ram:0800258a    1648            ldr         param_1,[DAT_080025e4]                  ;= 68080000h
ram:0800258c    8be7            b           LAB_080024a6                            
                            LAB_0800258e:                 ;XREF[1,0]:   0800250e
ram:0800258e    1370            strb        r3,[r2,#0x0]=>DAT_2000014e              
ram:08002590    c4e7            b           LAB_0800251c                            
                            LAB_08002592:                 ;XREF[1,0]:   08002554
ram:08002592    5370            strb        r3,[r2,#0x1]=>DAT_2000014f              
ram:08002594    e5e7            b           LAB_08002562                            
                            ;************************************************************************************************
                            ;*                                           FUNCTION                                           *
                            ;************************************************************************************************
                            ;undefined FUN_08002596(void)
                                                          ;XREF[1,0]:   0800209a
ram:08002596    1448            ldr         r0,[DAT_080025e8]                       ;= 2000014Ch
ram:08002598    144a            ldr         r2,[PTR_DAT_080025ec]                   ;= 08005400
ram:0800259a    c168            ldr         r1,[r0,#0xc]=>DAT_20000158              
ram:0800259c    8900            lsls        r1,r1,#0x2                              
ram:0800259e    5158            ldr         r1,[r2,r1]=>DAT_08005400                
ram:080025a0    134a            ldr         r2,[DAT_080025f0]                       ;= FFFF0001h
ram:080025a2    0029            cmp         r1,#0x0                                 
ram:080025a4    05d0            beq         LAB_080025b2                            
ram:080025a6    0369            ldr         r3,[r0,#0x10]=>DAT_2000015c             
ram:080025a8    5918            adds        r1,r3,r1                                
ram:080025aa    130c            lsrs        r3,r2,#0x10                             
ram:080025ac    0161            str         r1,[r0,#0x10]=>DAT_2000015c             
ram:080025ae    9942            cmp         r1,r3                                   
ram:080025b0    00dd            ble         LAB_080025b4                            
                            LAB_080025b2:                 ;XREF[1,0]:   080025a4
ram:080025b2    0261            str         r2,[r0,#0x10]=>DAT_2000015c             
                            LAB_080025b4:                 ;XREF[1,0]:   080025b0
ram:080025b4    084a            ldr         r2,[DAT_080025d8]                       ;= 2000014Eh
ram:080025b6    1178            ldrb        r1,[r2,#0x0]=>DAT_2000014e              
ram:080025b8    0029            cmp         r1,#0x0                                 
ram:080025ba    01d0            beq         LAB_080025c0                            
ram:080025bc    491e            subs        r1,r1,#0x1                              
ram:080025be    1170            strb        r1,[r2,#0x0]=>DAT_2000014e              
                            LAB_080025c0:                 ;XREF[1,0]:   080025ba
ram:080025c0    5178            ldrb        r1,[r2,#0x1]=>DAT_2000014f              
ram:080025c2    0029            cmp         r1,#0x0                                 
ram:080025c4    01d0            beq         LAB_080025ca                            
ram:080025c6    491e            subs        r1,r1,#0x1                              
ram:080025c8    5170            strb        r1,[r2,#0x1]=>DAT_2000014f              
                            LAB_080025ca:                 ;XREF[1,0]:   080025c4
ram:080025ca    4168            ldr         r1,[r0,#0x4]=>DAT_20000150              
ram:080025cc    0029            cmp         r1,#0x0                                 
ram:080025ce    02d0            beq         LAB_080025d6                            
ram:080025d0    4168            ldr         r1,[r0,#0x4]=>DAT_20000150              
ram:080025d2    491e            subs        r1,r1,#0x1                              
ram:080025d4    4160            str         r1,[r0,#0x4]=>DAT_20000150              
                            LAB_080025d6:                 ;XREF[1,0]:   080025ce
ram:080025d6    7047            bx          lr                                      
                            DAT_080025d8:                 ;XREF[2,0]:   0800250a,080025b4
ram:080025d8    4e010020        undefined4  2000014Eh                               
                            DAT_080025dc:                 ;XREF[1,0]:   0800251c
ram:080025dc    002c0140        undefined4  40012C00h                               
                            DAT_080025e0:                 ;XREF[1,0]:   0800257c
ram:080025e0    00001068        undefined4  68100000h                               
                            DAT_080025e4:                 ;XREF[1,0]:   0800258a
ram:080025e4    00000868        undefined4  68080000h                               
                            DAT_080025e8:                 ;XREF[1,0]:   08002596
ram:080025e8    4c010020        undefined4  2000014Ch                               
                            PTR_DAT_080025ec:             ;XREF[1,0]:   08002598
ram:080025ec    00540008        addr        DAT_08005400                            
                            DAT_080025f0:                 ;XREF[1,0]:   080025a0
ram:080025f0    0100ffff        undefined4  FFFF0001h                               
                            ;************************************************************************************************
                            ;*                                           FUNCTION                                           *
                            ;************************************************************************************************
                            ;undefined FUN_080025f4(void)
                                                          ;XREF[3,0]:   080033da,08003412,08004c04
ram:080025f4    2521            movs        r1,#0x25                                
ram:080025f6    3648            ldr         r0,[DAT_080026d0]                       ;= 40020040h
ram:080025f8    c901            lsls        r1,r1,#0x7                              
ram:080025fa    8161            str         r1,[r0,#0x18]=>DAT_40020058             
ram:080025fc    354a            ldr         r2,[DAT_080026d4]                       ;= 40013800h
ram:080025fe    0821            movs        r1,#0x8                                 
ram:08002600    1183            strh        r1,[r2,#offset DAT_40013818 &0xff]      
ram:08002602    ff21            movs        r1,#0xff                                
ram:08002604    0631            adds        r1,#0x6                                 
ram:08002606    c161            str         r1,[r0,#0x1c]=>DAT_4002005c             
ram:08002608    3349            ldr         r1,[DAT_080026d8]                       ;= 40013824h
ram:0800260a    0162            str         r1,[r0,#0x20]=>DAT_40020060             
ram:0800260c    3349            ldr         r1,[DAT_080026dc]                       ;= 20000388h
ram:0800260e    4162            str         r1=>DAT_20000388,[r0,#0x24]=>DAT_4002...
ram:08002610    3349            ldr         r1,[DAT_080026e0]                       ;= 00002281h
ram:08002612    8161            str         r1,[r0,#0x18]=>DAT_40020058             
ram:08002614    7047            bx          lr                                      
                            ;************************************************************************************************
                            ;*                                           FUNCTION                                           *
                            ;************************************************************************************************
                            ;undefined FUN_08002616(void)
                                                          ;XREF[3,0]:   08000e72,08001070,080010a6
ram:08002616    10b5            push        {r4,lr}                                 
ram:08002618    00f046ff        bl          FUN_080034a8                            ;undefined4 FUN_080034a8(void)
ram:0800261c    2f49            ldr         r1,[DAT_080026dc]                       ;= 20000388h
ram:0800261e    314a            ldr         r2,[DAT_080026e4]                       ;= 2000038Ah
ram:08002620    0b78            ldrb        r3,[r1,#0x0]=>DAT_20000388              
ram:08002622    9a18            adds        r2,r3,r2                                
ram:08002624    1070            strb        r0,[r2,#0x0]=>DAT_2000038a              
ram:08002626    030a            lsrs        r3,r0,#0x8                              
ram:08002628    5370            strb        r3,[r2,#0x1]=>DAT_2000038b              
ram:0800262a    030c            lsrs        r3,r0,#0x10                             
ram:0800262c    9370            strb        r3,[r2,#0x2]=>DAT_2000038c              
ram:0800262e    000e            lsrs        r0,r0,#0x18                             
ram:08002630    d070            strb        r0,[r2,#0x3]=>DAT_2000038d              
ram:08002632    284a            ldr         r2,[DAT_080026d4]                       ;= 40013800h
ram:08002634    2c48            ldr         r0,[DAT_080026e8]                       ;= 00001449h
ram:08002636    1060            str         r0,[r2,#0x0]=>DAT_40013800              
ram:08002638    c006            lsls        r0,r0,#0x1b                             
ram:0800263a    8388            ldrh        r3,[r0,#offset DAT_48000004 &0xff]      
ram:0800263c    0424            movs        r4,#0x4                                 
ram:0800263e    a343            bics        r3,r4                                   
ram:08002640    8380            strh        r3,[r0,#offset DAT_48000004 &0xff]      
ram:08002642    2348            ldr         r0,[DAT_080026d0]                       ;= 40020040h
ram:08002644    294b            ldr         r3,[DAT_080026ec]                       ;= 00001290h
ram:08002646    4360            str         r3,[r0,#0x4]=>DAT_40020044              
ram:08002648    0b78            ldrb        r3,[r1,#0x0]=>DAT_20000388              
ram:0800264a    9b1d            adds        r3,r3,#0x6                              
ram:0800264c    8360            str         r3,[r0,#0x8]=>DAT_40020048              
ram:0800264e    284b            ldr         r3,[DAT_080026f0]                       ;= 40013828h
ram:08002650    c360            str         r3,[r0,#0xc]=>DAT_4002004c              
ram:08002652    0161            str         r1=>DAT_20000388,[r0,#0x10]=>DAT_4002...
ram:08002654    274b            ldr         r3,[DAT_080026f4]                       ;= 00001291h
ram:08002656    4360            str         r3,[r0,#0x4]=>DAT_40020044              
ram:08002658    2523            movs        r3,#0x25                                
ram:0800265a    db01            lsls        r3,r3,#0x7                              
ram:0800265c    8361            str         r3,[r0,#0x18]=>DAT_40020058             
ram:0800265e    0823            movs        r3,#0x8                                 
ram:08002660    1383            strh        r3,[r2,#offset DAT_40013818 &0xff]      
ram:08002662    ff22            movs        r2,#0xff                                
ram:08002664    0632            adds        r2,#0x6                                 
ram:08002666    c261            str         r2,[r0,#0x1c]=>DAT_4002005c             
ram:08002668    1b4a            ldr         r2,[DAT_080026d8]                       ;= 40013824h
ram:0800266a    0262            str         r2,[r0,#0x20]=>DAT_40020060             
ram:0800266c    4162            str         r1=>DAT_20000388,[r0,#0x24]=>DAT_4002...
ram:0800266e    1c49            ldr         r1,[DAT_080026e0]                       ;= 00002281h
ram:08002670    8161            str         r1,[r0,#0x18]=>DAT_40020058             
ram:08002672    10bd            pop         {r4,pc}                                 
                            ;************************************************************************************************
                            ;*                                           FUNCTION                                           *
                            ;************************************************************************************************
                            ;undefined FUNC_VT_08002674(void)
                                                          ;XREF[0,1]:   08000cbc
ram:08002674    0920            movs        r0,#0x9                                 
ram:08002676    c006            lsls        r0,r0,#0x1b                             
ram:08002678    8188            ldrh        r1,[r0,#offset DAT_48000004 &0xff]      
ram:0800267a    0422            movs        r2,#0x4                                 
ram:0800267c    1143            orrs        r1,r2                                   
ram:0800267e    8180            strh        r1,[r0,#offset DAT_48000004 &0xff]      
ram:08002680    1449            ldr         r1,[DAT_080026d4]                       ;= 40013800h
ram:08002682    4020            movs        r0,#0x40                                
ram:08002684    0862            str         r0,[r1,#offset DAT_40013820 &0xff]      
ram:08002686    154a            ldr         r2,[DAT_080026dc]                       ;= 20000388h
ram:08002688    0020            movs        r0,#0x0                                 
ram:0800268a    1070            strb        r0,[r2,#0x0]=>DAT_20000388              
ram:0800268c    2523            movs        r3,#0x25                                
ram:0800268e    1048            ldr         r0,[DAT_080026d0]                       ;= 40020040h
ram:08002690    db01            lsls        r3,r3,#0x7                              
ram:08002692    8361            str         r3,[r0,#0x18]=>DAT_40020058             
ram:08002694    0823            movs        r3,#0x8                                 
ram:08002696    0b83            strh        r3,[r1,#offset DAT_40013818 &0xff]      
ram:08002698    ff23            movs        r3,#0xff                                
ram:0800269a    0633            adds        r3,#0x6                                 
ram:0800269c    c361            str         r3,[r0,#0x1c]=>DAT_4002005c             
ram:0800269e    0e4b            ldr         r3,[DAT_080026d8]                       ;= 40013824h
ram:080026a0    0362            str         r3,[r0,#0x20]=>DAT_40020060             
ram:080026a2    4262            str         r2=>DAT_20000388,[r0,#0x24]=>DAT_4002...
ram:080026a4    0e4a            ldr         r2,[DAT_080026e0]                       ;= 00002281h
ram:080026a6    8261            str         r2,[r0,#0x18]=>DAT_40020058             
ram:080026a8    1348            ldr         r0,[DAT_080026f8]                       ;= 0000144Dh
ram:080026aa    0860            str         r0,[r1,#0x0]=>DAT_40013800              
ram:080026ac    1349            ldr         r1,[DAT_080026fc]                       ;= 48000800h
ram:080026ae    5007            lsls        r0,r2,#0x1d                             
ram:080026b0    8861            str         r0,[r1,#offset DAT_48000818 &0xff]      
ram:080026b2    7047            bx          lr                                      
                            ;************************************************************************************************
                            ;*                                           FUNCTION                                           *
                            ;************************************************************************************************
                            ;undefined4 FUN_080026b4(void)
                                                          ;XREF[2,0]:   080033c4,08004cfa
ram:080026b4    0748            ldr         r0,[DAT_080026d4]                       ;= 40013800h
ram:080026b6    c169            ldr         r1,[r0,#offset DAT_4001381c &0xff]      
ram:080026b8    8907            lsls        r1,r1,#0x1e                             
ram:080026ba    03d5            bpl         LAB_080026c4                            
ram:080026bc    0221            movs        r1,#0x2                                 
ram:080026be    0162            str         r1,[r0,#offset DAT_40013820 &0xff]      
ram:080026c0    c81e            subs        r0,r1,#0x3                              
ram:080026c2    7047            bx          lr                                      
                            LAB_080026c4:                 ;XREF[1,0]:   080026ba
ram:080026c4    0020            movs        r0,#0x0                                 
ram:080026c6    7047            bx          lr                                      
                            ;************************************************************************************************
                            ;*                                           FUNCTION                                           *
                            ;************************************************************************************************
                            ;undefined FUN_080026c8(void)
                                                          ;XREF[1,0]:   08003320
ram:080026c8    0249            ldr         r1,[DAT_080026d4]                       ;= 40013800h
ram:080026ca    0220            movs        r0,#0x2                                 
ram:080026cc    0883            strh        r0,[r1,#offset DAT_40013818 &0xff]      
ram:080026ce    7047            bx          lr                                      
                            DAT_080026d0:                 ;XREF[3,0]:   080025f6,08002642,0800268e
ram:080026d0    40000240        undefined4  40020040h                               
                            DAT_080026d4:                 ;XREF[5,0]:   080025fc,08002632,08002680,080026b4
                                                          ;             080026c8
ram:080026d4    00380140        undefined4  40013800h                               
                            DAT_080026d8:                 ;XREF[3,0]:   08002608,08002668,0800269e
ram:080026d8    24380140        undefined4  40013824h                               
                            DAT_080026dc:                 ;XREF[3,0]:   0800260c,0800261c,08002686
ram:080026dc    88030020        undefined4  20000388h                               
                            DAT_080026e0:                 ;XREF[3,0]:   08002610,0800266e,080026a4
ram:080026e0    81220000        undefined4  00002281h                               
                            DAT_080026e4:                 ;XREF[1,0]:   0800261e
ram:080026e4    8a030020        undefined4  2000038Ah                               
                            DAT_080026e8:                 ;XREF[1,0]:   08002634
ram:080026e8    49140000        undefined4  00001449h                               
                            DAT_080026ec:                 ;XREF[1,0]:   08002644
ram:080026ec    90120000        undefined4  00001290h                               
                            DAT_080026f0:                 ;XREF[1,0]:   0800264e
ram:080026f0    28380140        undefined4  40013828h                               
                            DAT_080026f4:                 ;XREF[1,0]:   08002654
ram:080026f4    91120000        undefined4  00001291h                               
                            DAT_080026f8:                 ;XREF[1,0]:   080026a8
ram:080026f8    4d140000        undefined4  0000144Dh                               
                            DAT_080026fc:                 ;XREF[1,0]:   080026ac
ram:080026fc    00080048        undefined4  48000800h                               
                            ;************************************************************************************************
                            ;*                                           FUNCTION                                           *
                            ;************************************************************************************************
                            ;undefined FUN_08002700(uint param_1, int param_2)
          ;param_1       uint                r0                      
          ;param_2       int                 r1                      
                                                          ;XREF[3,0]:   08002f86,08002f9a,08002fc0
ram:08002700    0428            cmp         param_1,#0x4                            
ram:08002702    0bd2            bcs         LAB_0800271c                            
ram:08002704    314a            ldr         r2,[PTR_DAT_080027cc]                   ;= 08005440
ram:08002706    324b            ldr         r3,[PTR_DAT_080027d0]                   ;= 08005450
ram:08002708    8000            lsls        param_1,param_1,#0x2                    
ram:0800270a    0029            cmp         param_2,#0x0                            
ram:0800270c    07d0            beq         LAB_0800271e                            
ram:0800270e    1158            ldr         param_2,[r2,param_1]=>DAT_08005440      
ram:08002710    0922            movs        r2,#0x9                                 
ram:08002712    d206            lsls        r2,r2,#0x1b                             
ram:08002714    9161            str         param_2,[r2,#offset DAT_48000018 &0xff] 
ram:08002716    2f49            ldr         param_2,[DAT_080027d4]                  ;= 48000400h
ram:08002718    1858            ldr         param_1,[r3,param_1]=>DAT_08005450      
ram:0800271a    8861            str         param_1,[param_2,#offset DAT_48000418...
                            LAB_0800271c:                 ;XREF[1,0]:   08002702
ram:0800271c    7047            bx          lr                                      
                            LAB_0800271e:                 ;XREF[1,0]:   0800270c
ram:0800271e    115a            ldrh        param_2,[r2,param_1]=>DAT_08005440      
ram:08002720    2d4a            ldr         r2,[DAT_080027d8]                       ;= 48000020h
ram:08002722    1181            strh        param_2,[r2,#0x8]=>DAT_48000028         
ram:08002724    2d49            ldr         param_2,[DAT_080027dc]                  ;= 48000420h
ram:08002726    185a            ldrh        param_1,[r3,param_1]=>DAT_08005450      
ram:08002728    0881            strh        param_1,[param_2,#0x8]=>DAT_48000428    
ram:0800272a    7047            bx          lr                                      
                            ;************************************************************************************************
                            ;*                                           FUNCTION                                           *
                            ;************************************************************************************************
                            ;undefined FUN_0800272c(uint param_1, int param_2)
          ;param_1       uint                r0                      
          ;param_2       int                 r1                      
                                                          ;XREF[4,0]:   08002f7c,08002f92,08002fa6,08002fb8
ram:0800272c    0428            cmp         param_1,#0x4                            
ram:0800272e    0bd2            bcs         LAB_08002748                            
ram:08002730    2b4a            ldr         r2,[PTR_DAT_080027e0]                   ;= 08005460
ram:08002732    2c4b            ldr         r3,[PTR_DAT_080027e4]                   ;= 08005470
ram:08002734    8000            lsls        param_1,param_1,#0x2                    
ram:08002736    0029            cmp         param_2,#0x0                            
ram:08002738    07d0            beq         LAB_0800274a                            
ram:0800273a    1158            ldr         param_2,[r2,param_1]=>DAT_08005460      
ram:0800273c    0922            movs        r2,#0x9                                 
ram:0800273e    d206            lsls        r2,r2,#0x1b                             
ram:08002740    9161            str         param_2,[r2,#offset DAT_48000018 &0xff] 
ram:08002742    2449            ldr         param_2,[DAT_080027d4]                  ;= 48000400h
ram:08002744    1858            ldr         param_1,[r3,param_1]=>DAT_08005470      
ram:08002746    8861            str         param_1,[param_2,#offset DAT_48000418...
                            LAB_08002748:                 ;XREF[1,0]:   0800272e
ram:08002748    7047            bx          lr                                      
                            LAB_0800274a:                 ;XREF[1,0]:   08002738
ram:0800274a    115a            ldrh        param_2,[r2,param_1]=>DAT_08005460      
ram:0800274c    224a            ldr         r2,[DAT_080027d8]                       ;= 48000020h
ram:0800274e    1181            strh        param_2,[r2,#0x8]=>DAT_48000028         
ram:08002750    2249            ldr         param_2,[DAT_080027dc]                  ;= 48000420h
ram:08002752    185a            ldrh        param_1,[r3,param_1]=>DAT_08005470      
ram:08002754    0881            strh        param_1,[param_2,#0x8]=>DAT_48000428    
ram:08002756    7047            bx          lr                                      
ram:08002758    0200            movs        r2,r0                                   
ram:0800275a    10b5            push        {r4,lr}                                 
ram:0800275c    2249            ldr         r1,[DAT_080027e8]                       ;= 00000400h
ram:0800275e    2348            ldr         r0=>DAT_48000000,[DAT_080027ec]         ;= 48000000h
ram:08002760    13d0            beq         FUN_0800278a                            
ram:08002762    012a            cmp         r2,#0x1                                 
ram:08002764    06d0            beq         FUN_08002774                            
ram:08002766    1b48            ldr         r0=>DAT_48000400,[DAT_080027d4]         ;= 48000400h
ram:08002768    032a            cmp         r2,#0x3                                 
ram:0800276a    09d0            beq         FUN_08002780                            
ram:0800276c    042a            cmp         r2,#0x4                                 
ram:0800276e    0cd0            beq         FUN_0800278a                            
ram:08002770    0020            movs        r0,#0x0                                 
ram:08002772    10bd            pop         {r4,pc}                                 
                            ;************************************************************************************************
                            ;*                                           FUNCTION                                           *
                            ;************************************************************************************************
                            ;bool FUN_08002774(int param_1)
          ;param_1       int                 r0                      
                                                          ;XREF[1,0]:   08002764
ram:08002774    0121            movs        r1,#0x1                                 
ram:08002776    0903            lsls        r1,r1,#0xc                              
ram:08002778    01f0abfc        bl          FUN_080040d2                            ;bool FUN_080040d2(int param_1, ushor...
ram:0800277c    40b2            sxtb        param_1,param_1                         
ram:0800277e    10bd            pop         {r4,pc}                                 
                            ;************************************************************************************************
                            ;*                                           FUNCTION                                           *
                            ;************************************************************************************************
                            ;bool FUN_08002780(int param_1)
          ;param_1       int                 r0                      
                                                          ;XREF[1,0]:   0800276a
ram:08002780    1021            movs        r1,#0x10                                
ram:08002782    01f0a6fc        bl          FUN_080040d2                            ;bool FUN_080040d2(int param_1, ushor...
ram:08002786    40b2            sxtb        param_1,param_1                         
ram:08002788    10bd            pop         {r4,pc}                                 
                            ;************************************************************************************************
                            ;*                                           FUNCTION                                           *
                            ;************************************************************************************************
                            ;bool FUN_0800278a(int param_1, ushort param_2)
          ;param_1       int                 r0                      
          ;param_2       ushort              r1                      
                                                          ;XREF[2,0]:   08002760,0800276e
ram:0800278a    01f0a2fc        bl          FUN_080040d2                            ;bool FUN_080040d2(int param_1, ushor...
ram:0800278e    40b2            sxtb        param_1,param_1                         
ram:08002790    10bd            pop         {r4,pc}                                 
ram:08002792    0200            movs        r2,r0                                   
ram:08002794    10b5            push        {r4,lr}                                 
ram:08002796    1649            ldr         r1,[DAT_080027f0]                       ;= 00000800h
ram:08002798    1448            ldr         r0=>DAT_48000000,[DAT_080027ec]         ;= 48000000h
ram:0800279a    13d0            beq         FUN_080027c4                            
ram:0800279c    012a            cmp         r2,#0x1                                 
ram:0800279e    06d0            beq         FUN_080027ae                            
ram:080027a0    0c48            ldr         r0=>DAT_48000400,[DAT_080027d4]         ;= 48000400h
ram:080027a2    032a            cmp         r2,#0x3                                 
ram:080027a4    09d0            beq         FUN_080027ba                            
ram:080027a6    042a            cmp         r2,#0x4                                 
ram:080027a8    0cd0            beq         FUN_080027c4                            
ram:080027aa    0020            movs        r0,#0x0                                 
ram:080027ac    10bd            pop         {r4,pc}                                 
                            ;************************************************************************************************
                            ;*                                           FUNCTION                                           *
                            ;************************************************************************************************
                            ;bool FUN_080027ae(int param_1)
          ;param_1       int                 r0                      
                                                          ;XREF[1,0]:   0800279e
ram:080027ae    0121            movs        r1,#0x1                                 
ram:080027b0    c903            lsls        r1,r1,#0xf                              
ram:080027b2    01f08efc        bl          FUN_080040d2                            ;bool FUN_080040d2(int param_1, ushor...
ram:080027b6    40b2            sxtb        param_1,param_1                         
ram:080027b8    10bd            pop         {r4,pc}                                 
                            ;************************************************************************************************
                            ;*                                           FUNCTION                                           *
                            ;************************************************************************************************
                            ;bool FUN_080027ba(int param_1)
          ;param_1       int                 r0                      
                                                          ;XREF[1,0]:   080027a4
ram:080027ba    2021            movs        r1,#0x20                                
ram:080027bc    01f089fc        bl          FUN_080040d2                            ;bool FUN_080040d2(int param_1, ushor...
ram:080027c0    40b2            sxtb        param_1,param_1                         
ram:080027c2    10bd            pop         {r4,pc}                                 
                            ;************************************************************************************************
                            ;*                                           FUNCTION                                           *
                            ;************************************************************************************************
                            ;bool FUN_080027c4(int param_1, ushort param_2)
          ;param_1       int                 r0                      
          ;param_2       ushort              r1                      
                                                          ;XREF[2,0]:   0800279a,080027a8
ram:080027c4    01f085fc        bl          FUN_080040d2                            ;bool FUN_080040d2(int param_1, ushor...
ram:080027c8    40b2            sxtb        param_1,param_1                         
ram:080027ca    10bd            pop         {r4,pc}                                 
                            PTR_DAT_080027cc:             ;XREF[1,0]:   08002704
ram:080027cc    40540008        addr        DAT_08005440                            
                            PTR_DAT_080027d0:             ;XREF[1,0]:   08002706
ram:080027d0    50540008        addr        DAT_08005450                            
                            DAT_080027d4:                 ;XREF[4,0]:   08002716,08002742,08002766,080027a0
ram:080027d4    00040048        undefined4  48000400h                               
                            DAT_080027d8:                 ;XREF[2,0]:   08002720,0800274c
ram:080027d8    20000048        undefined4  48000020h                               
                            DAT_080027dc:                 ;XREF[2,0]:   08002724,08002750
ram:080027dc    20040048        undefined4  48000420h                               
                            PTR_DAT_080027e0:             ;XREF[1,0]:   08002730
ram:080027e0    60540008        addr        DAT_08005460                            
                            PTR_DAT_080027e4:             ;XREF[1,0]:   08002732
ram:080027e4    70540008        addr        DAT_08005470                            
                            DAT_080027e8:                 ;XREF[1,0]:   0800275c
ram:080027e8    00040000        undefined4  00000400h                               
                            DAT_080027ec:                 ;XREF[2,0]:   0800275e,08002798
ram:080027ec    00000048        undefined4  48000000h                               
                            DAT_080027f0:                 ;XREF[1,0]:   08002796
ram:080027f0    00080000        undefined4  00000800h                               
                            ;************************************************************************************************
                            ;*                                           FUNCTION                                           *
                            ;************************************************************************************************
                            ;undefined FUN_080027f4(void)
                                                          ;XREF[2,0]:   08004c98,08004ee8
ram:080027f4    10b4            push        {r4}                                    
ram:080027f6    0c48            ldr         r0=>DAT_20000168,[DAT_08002828]         ;= 20000168h
ram:080027f8    0168            ldr         r1,[r0,#0x0]=>DAT_20000168              
ram:080027fa    0029            cmp         r1,#0x0                                 
ram:080027fc    01d0            beq         LAB_08002802                            
ram:080027fe    491e            subs        r1,r1,#0x1                              
ram:08002800    0160            str         r1,[r0,#0x0]=>DAT_20000168              
                            LAB_08002802:                 ;XREF[1,0]:   080027fc
ram:08002802    0a49            ldr         r1,[DAT_0800282c]                       ;= 48001400h
ram:08002804    0b8a            ldrh        r3,[r1,#offset DAT_48001410 &0xff]      
ram:08002806    0222            movs        r2,#0x2                                 
ram:08002808    8468            ldr         r4,[r0,#0x8]=>DAT_20000170              
ram:0800280a    1340            ands        r3,r2                                   
ram:0800280c    a342            cmp         r3,r4                                   
ram:0800280e    01d0            beq         LAB_08002814                            
ram:08002810    0523            movs        r3,#0x5                                 
ram:08002812    0360            str         r3,[r0,#0x0]=>DAT_20000168              
                            LAB_08002814:                 ;XREF[1,0]:   0800280e
ram:08002814    098a            ldrh        r1,[r1,#offset DAT_48001410 &0xff]      
ram:08002816    1140            ands        r1,r2                                   
ram:08002818    8160            str         r1,[r0,#0x8]=>DAT_20000170              
ram:0800281a    0268            ldr         r2,[r0,#0x0]=>DAT_20000168              
ram:0800281c    002a            cmp         r2,#0x0                                 
ram:0800281e    00d1            bne         LAB_08002822                            
ram:08002820    4160            str         r1,[r0,#0x4]=>DAT_2000016c              
                            LAB_08002822:                 ;XREF[1,0]:   0800281e
ram:08002822    10bc            pop         {r4}                                    
ram:08002824    7047            bx          lr                                      
ram:08002826    0000            movs        r0,r0                                   
                            DAT_08002828:                 ;XREF[1,0]:   080027f6
ram:08002828    68010020        undefined4  20000168h                               
                            DAT_0800282c:                 ;XREF[1,0]:   08002802
ram:0800282c    00140048        undefined4  48001400h                               
                            ;************************************************************************************************
                            ;*                                           FUNCTION                                           *
                            ;************************************************************************************************
                            ;undefined FUN_08002830(void)
                                                          ;XREF[1,0]:   08004b20
ram:08002830    10b4            push        {r4}                                    
ram:08002832    b520            movs        r0,#0xb5                                
ram:08002834    6b4a            ldr         r2,[DAT_080029e4]                       ;= 40020000h
ram:08002836    4001            lsls        r0,r0,#0x5                              
ram:08002838    9060            str         r0,[r2,#offset DAT_40020008 &0xff]      
ram:0800283a    0524            movs        r4,#0x5                                 
ram:0800283c    d460            str         r4,[r2,#offset DAT_4002000c &0xff]      
ram:0800283e    6a48            ldr         r0,[DAT_080029e8]                       ;= 40012440h
ram:08002840    1061            str         r0,[r2,#offset DAT_40020010 &0xff]      
ram:08002842    6a48            ldr         r0,[DAT_080029ec]                       ;= 2000048Eh
ram:08002844    5061            str         r0,[r2,#offset DAT_40020014 &0xff]      
ram:08002846    6a48            ldr         r0=>DAT_40012400,[DAT_080029f0]         ;= 40012400h
ram:08002848    8168            ldr         r1,[r0,#offset DAT_40012408 &0xff]      
ram:0800284a    c907            lsls        r1,r1,#0x1f                             
ram:0800284c    0cd0            beq         LAB_08002868                            
ram:0800284e    8168            ldr         r1,[r0,#offset DAT_40012408 &0xff]      
ram:08002850    4907            lsls        r1,r1,#0x1d                             
ram:08002852    04d5            bpl         LAB_0800285e                            
ram:08002854    1021            movs        r1,#0x10                                
ram:08002856    8160            str         r1,[r0,#offset DAT_40012408 &0xff]      
                            LAB_08002858:                 ;XREF[1,0]:   0800285c
ram:08002858    8168            ldr         r1,[r0,#offset DAT_40012408 &0xff]      
ram:0800285a    c906            lsls        r1,r1,#0x1b                             
ram:0800285c    fcd4            bmi         LAB_08002858                            
                            LAB_0800285e:                 ;XREF[1,0]:   08002852
ram:0800285e    0221            movs        r1,#0x2                                 
ram:08002860    8160            str         r1,[r0,#offset DAT_40012408 &0xff]      
                            LAB_08002862:                 ;XREF[1,0]:   08002866
ram:08002862    8168            ldr         r1,[r0,#offset DAT_40012408 &0xff]      
ram:08002864    8907            lsls        r1,r1,#0x1e                             
ram:08002866    fcd4            bmi         LAB_08002862                            
                            LAB_08002868:                 ;XREF[1,0]:   0800284c
ram:08002868    c168            ldr         r1,[r0,#offset DAT_4001240c &0xff]      
ram:0800286a    1823            movs        r3,#0x18                                
ram:0800286c    9943            bics        r1,r3                                   
ram:0800286e    c160            str         r1,[r0,#offset DAT_4001240c &0xff]      
ram:08002870    0023            movs        r3,#0x0                                 
ram:08002872    0361            str         r3,[r0,#offset DAT_40012410 &0xff]      
ram:08002874    0121            movs        r1,#0x1                                 
ram:08002876    c907            lsls        r1,r1,#0x1f                             
ram:08002878    8160            str         r1,[r0,#offset DAT_40012408 &0xff]      
                            LAB_0800287a:                 ;XREF[1,0]:   0800287e
ram:0800287a    8168            ldr         r1,[r0,#offset DAT_40012408 &0xff]      
ram:0800287c    0029            cmp         r1,#0x0                                 
ram:0800287e    fcdb            blt         LAB_0800287a                            
ram:08002880    0121            movs        r1,#0x1                                 
ram:08002882    8160            str         r1,[r0,#offset DAT_40012408 &0xff]      
                            LAB_08002884:                 ;XREF[1,0]:   08002888
ram:08002884    0168            ldr         r1,[r0,#0x0]=>DAT_40012400              
ram:08002886    c907            lsls        r1,r1,#0x1f                             
ram:08002888    fcd0            beq         LAB_08002884                            
ram:0800288a    0021            movs        r1,#0x0                                 
ram:0800288c    c943            mvns        r1,r1                                   
ram:0800288e    0160            str         r1,[r0,#0x0]=>DAT_40012400              
ram:08002890    4360            str         r3,[r0,#offset DAT_40012404 &0xff]      
ram:08002892    5849            ldr         r1,[DAT_080029f4]                       ;= 00008003h
ram:08002894    c160            str         r1,[r0,#offset DAT_4001240c &0xff]      
ram:08002896    4461            str         r4,[r0,#offset DAT_40012414 &0xff]      
ram:08002898    3b21            movs        r1,#0x3b                                
ram:0800289a    8162            str         r1,[r0,#offset DAT_40012428 &0xff]      
ram:0800289c    5649            ldr         r1,[DAT_080029f8]                       ;= 40012700h
ram:0800289e    8b60            str         r3,[r1,#offset DAT_40012708 &0xff]      
ram:080028a0    5649            ldr         r1,[DAT_080029fc]                       ;= 000016A1h
ram:080028a2    9160            str         r1,[r2,#offset DAT_40020008 &0xff]      
ram:080028a4    0421            movs        r1,#0x4                                 
ram:080028a6    8160            str         r1,[r0,#offset DAT_40012408 &0xff]      
ram:080028a8    10bc            pop         {r4}                                    
ram:080028aa    7047            bx          lr                                      
                            ;************************************************************************************************
                            ;*                                           FUNCTION                                           *
                            ;************************************************************************************************
                            ;undefined FUN_080028ac(void)
                                                          ;XREF[1,0]:   08004d52
ram:080028ac    f0b4            push        {r4,r5,r6,r7}                           
ram:080028ae    5048            ldr         r0,[DAT_080029f0]                       ;= 40012400h
ram:080028b0    0068            ldr         r0,[r0,#0x0]=>DAT_40012400              
ram:080028b2    0007            lsls        r0,r0,#0x1c                             
ram:080028b4    7ed5            bpl         LAB_080029b4                            
ram:080028b6    5249            ldr         r1,[DAT_08002a00]                       ;= 200002D4h
ram:080028b8    4c48            ldr         r0,[DAT_080029ec]                       ;= 2000048Eh
ram:080028ba    0a68            ldr         r2,[r1,#0x0]=>DAT_200002d4              
ram:080028bc    0388            ldrh        r3,[r0,#0x0]=>DAT_2000048e              
ram:080028be    d218            adds        r2,r2,r3                                
ram:080028c0    0a60            str         r2,[r1,#0x0]=>DAT_200002d4              
ram:080028c2    4388            ldrh        r3,[r0,#0x2]=>DAT_20000490              
ram:080028c4    4a68            ldr         r2,[r1,#0x4]=>DAT_200002d8              
ram:080028c6    d218            adds        r2,r2,r3                                
ram:080028c8    4a60            str         r2,[r1,#0x4]=>DAT_200002d8              
ram:080028ca    8388            ldrh        r3,[r0,#0x4]=>DAT_20000492              
ram:080028cc    8a68            ldr         r2,[r1,#0x8]=>DAT_200002dc              
ram:080028ce    d218            adds        r2,r2,r3                                
ram:080028d0    8a60            str         r2,[r1,#0x8]=>DAT_200002dc              
ram:080028d2    c388            ldrh        r3,[r0,#0x6]=>DAT_20000494              
ram:080028d4    ca68            ldr         r2,[r1,#0xc]=>DAT_200002e0              
ram:080028d6    d218            adds        r2,r2,r3                                
ram:080028d8    ca60            str         r2,[r1,#0xc]=>DAT_200002e0              
ram:080028da    0089            ldrh        r0,[r0,#0x8]=>DAT_20000496              
ram:080028dc    0a69            ldr         r2,[r1,#0x10]=>DAT_200002e4             
ram:080028de    1018            adds        r0,r2,r0                                
ram:080028e0    0861            str         r0,[r1,#0x10]=>DAT_200002e4             
ram:080028e2    4848            ldr         r0,[DAT_08002a04]                       ;= 20000174h
ram:080028e4    0268            ldr         r2,[r0,#0x0]=>DAT_20000174              
ram:080028e6    521e            subs        r2,r2,#0x1                              
ram:080028e8    0260            str         r2,[r0,#0x0]=>DAT_20000174              
ram:080028ea    69d1            bne         LAB_080029c0                            
ram:080028ec    0122            movs        r2,#0x1                                 
ram:080028ee    9202            lsls        r2,r2,#0xa                              
ram:080028f0    0260            str         r2,[r0,#0x0]=>DAT_20000174              
ram:080028f2    4548            ldr         r0,[DAT_08002a08]                       ;= 200001A2h
ram:080028f4    0a24            movs        r4,#0xa                                 
ram:080028f6    0278            ldrb        r2,[r0,#0x0]=>DAT_200001a2              
ram:080028f8    4448            ldr         r0,[DAT_08002a0c]                       ;= 200002C4h
ram:080028fa    002a            cmp         r2,#0x0                                 
ram:080028fc    00d0            beq         LAB_08002900                            
ram:080028fe    0460            str         r4,[r0,#0x0]=>DAT_200002c4              
                            LAB_08002900:                 ;XREF[1,0]:   080028fc
ram:08002900    434a            ldr         r2,[PTR_DAT_08002a10]                   ;= 08005490
ram:08002902    3f49            ldr         r1,[DAT_08002a00]                       ;= 200002D4h
ram:08002904    1268            ldr         r2,[r2,#0x0]=>DAT_08005490              ;= 00000002h
ram:08002906    0768            ldr         r7,[r0,#0x0]=>DAT_200002c4              
ram:08002908    9200            lsls        r2,r2,#0x2                              
ram:0800290a    8d58            ldr         r5,[r1,r2]=>DAT_200002dc                
ram:0800290c    414a            ldr         r2,[PTR_DAT_08002a14]                   ;= 08005480
ram:0800290e    0023            movs        r3,#0x0                                 
ram:08002910    1268            ldr         r2,[r2,#0x0]=>DAT_08005480              
ram:08002912    bc46            mov         r12,r7                                  
ram:08002914    9200            lsls        r2,r2,#0x2                              
ram:08002916    8958            ldr         r1=>DAT_200002d4,[r1,r2]                
ram:08002918    404a            ldr         r2,[DAT_08002a1c]                       ;= 20000178h
ram:0800291a    6e1a            subs        r6,r5,r1                                
ram:0800291c    3e49            ldr         r1,[DAT_08002a18]                       ;= 200002B4h
ram:0800291e    002f            cmp         r7,#0x0                                 
ram:08002920    53d0            beq         LAB_080029ca                            
ram:08002922    0f68            ldr         r7,[r1,#0x0]=>DAT_200002b4              
ram:08002924    f61b            subs        r6,r6,r7                                
ram:08002926    b611            asrs        r6,r6,#0x6                              
ram:08002928    1680            strh        r6,[r2,#0x0]=>DAT_20000178              
ram:0800292a    6646            mov         r6,r12                                  
ram:0800292c    761e            subs        r6,r6,#0x1                              
ram:0800292e    0660            str         r6,[r0,#0x0]=>DAT_200002c4              
                            LAB_08002930:                 ;XREF[1,0]:   080029ce
ram:08002930    354e            ldr         r6,[DAT_08002a08]                       ;= 200001A2h
ram:08002932    7678            ldrb        r6,[r6,#0x1]=>DAT_200001a3              
ram:08002934    002e            cmp         r6,#0x0                                 
ram:08002936    00d0            beq         LAB_0800293a                            
ram:08002938    4460            str         r4,[r0,#0x4]=>DAT_200002c8              
                            LAB_0800293a:                 ;XREF[1,0]:   08002936
ram:0800293a    364e            ldr         r6,[PTR_DAT_08002a14]                   ;= 08005480
ram:0800293c    7668            ldr         r6,[r6,#0x4]=>DAT_08005484              ;= 00000001h
ram:0800293e    b700            lsls        r7,r6,#0x2                              
ram:08002940    2f4e            ldr         r6,[DAT_08002a00]                       ;= 200002D4h
ram:08002942    f659            ldr         r6,[r6,r7]=>DAT_200002d8                
ram:08002944    4768            ldr         r7,[r0,#0x4]=>DAT_200002c8              
ram:08002946    ae1b            subs        r6,r5,r6                                
ram:08002948    bc46            mov         r12,r7                                  
ram:0800294a    002f            cmp         r7,#0x0                                 
ram:0800294c    40d0            beq         LAB_080029d0                            
ram:0800294e    4f68            ldr         r7,[r1,#0x4]=>DAT_200002b8              
ram:08002950    f61b            subs        r6,r6,r7                                
ram:08002952    b611            asrs        r6,r6,#0x6                              
ram:08002954    5680            strh        r6,[r2,#0x2]=>DAT_2000017a              
ram:08002956    6646            mov         r6,r12                                  
ram:08002958    761e            subs        r6,r6,#0x1                              
ram:0800295a    4660            str         r6,[r0,#0x4]=>DAT_200002c8              
                            LAB_0800295c:                 ;XREF[1,0]:   080029d4
ram:0800295c    2a4e            ldr         r6,[DAT_08002a08]                       ;= 200001A2h
ram:0800295e    b678            ldrb        r6,[r6,#0x2]=>DAT_200001a4              
ram:08002960    002e            cmp         r6,#0x0                                 
ram:08002962    00d0            beq         LAB_08002966                            
ram:08002964    8460            str         r4,[r0,#0x8]=>DAT_200002cc              
                            LAB_08002966:                 ;XREF[1,0]:   08002962
ram:08002966    2b4e            ldr         r6,[PTR_DAT_08002a14]                   ;= 08005480
ram:08002968    b668            ldr         r6,[r6,#0x8]=>DAT_08005488              ;= 00000003h
ram:0800296a    b700            lsls        r7,r6,#0x2                              
ram:0800296c    244e            ldr         r6,[DAT_08002a00]                       ;= 200002D4h
ram:0800296e    f659            ldr         r6,[r6,r7]=>DAT_200002e0                
ram:08002970    8768            ldr         r7,[r0,#0x8]=>DAT_200002cc              
ram:08002972    ae1b            subs        r6,r5,r6                                
ram:08002974    bc46            mov         r12,r7                                  
ram:08002976    002f            cmp         r7,#0x0                                 
ram:08002978    2dd0            beq         LAB_080029d6                            
ram:0800297a    8f68            ldr         r7,[r1,#0x8]=>DAT_200002bc              
ram:0800297c    f61b            subs        r6,r6,r7                                
ram:0800297e    b611            asrs        r6,r6,#0x6                              
ram:08002980    9680            strh        r6,[r2,#0x4]=>DAT_2000017c              
ram:08002982    6646            mov         r6,r12                                  
ram:08002984    761e            subs        r6,r6,#0x1                              
ram:08002986    8660            str         r6,[r0,#0x8]=>DAT_200002cc              
                            LAB_08002988:                 ;XREF[1,0]:   080029da
ram:08002988    1f4e            ldr         r6,[DAT_08002a08]                       ;= 200001A2h
ram:0800298a    f678            ldrb        r6,[r6,#0x3]=>DAT_200001a5              
ram:0800298c    002e            cmp         r6,#0x0                                 
ram:0800298e    00d0            beq         LAB_08002992                            
ram:08002990    c460            str         r4,[r0,#0xc]=>DAT_200002d0              
                            LAB_08002992:                 ;XREF[1,0]:   0800298e
ram:08002992    204e            ldr         r6,[PTR_DAT_08002a14]                   ;= 08005480
ram:08002994    1a4c            ldr         r4,[DAT_08002a00]                       ;= 200002D4h
ram:08002996    f668            ldr         r6,[r6,#0xc]=>DAT_0800548c              ;= 00000004h
ram:08002998    b600            lsls        r6,r6,#0x2                              
ram:0800299a    a459            ldr         r4,[r4,r6]=>DAT_200002e4                
ram:0800299c    2c1b            subs        r4,r5,r4                                
ram:0800299e    c568            ldr         r5,[r0,#0xc]=>DAT_200002d0              
ram:080029a0    002d            cmp         r5,#0x0                                 
ram:080029a2    1bd0            beq         LAB_080029dc                            
ram:080029a4    c968            ldr         r1,[r1,#0xc]=>DAT_200002c0              
ram:080029a6    611a            subs        r1,r4,r1                                
ram:080029a8    8911            asrs        r1,r1,#0x6                              
ram:080029aa    d180            strh        r1,[r2,#0x6]=>DAT_2000017e              
ram:080029ac    6d1e            subs        r5,r5,#0x1                              
ram:080029ae    c560            str         r5,[r0,#0xc]=>DAT_200002d0              
                            LAB_080029b0:                 ;XREF[1,0]:   080029e0
ram:080029b0    1948            ldr         r0,[DAT_08002a18]                       ;= 200002B4h
ram:080029b2    00e0            b           LAB_080029b6                            
                            LAB_080029b4:                 ;XREF[1,0]:   080028b4
ram:080029b4    07e0            b           LAB_080029c6                            
                            LAB_080029b6:                 ;XREF[1,0]:   080029b2
ram:080029b6    0362            str         r3,[r0,#0x20]=>DAT_200002d4             
ram:080029b8    4362            str         r3,[r0,#0x24]=>DAT_200002d8             
ram:080029ba    8362            str         r3,[r0,#0x28]=>DAT_200002dc             
ram:080029bc    c362            str         r3,[r0,#0x2c]=>DAT_200002e0             
ram:080029be    0363            str         r3,[r0,#0x30]=>DAT_200002e4             
                            LAB_080029c0:                 ;XREF[1,0]:   080028ea
ram:080029c0    0b48            ldr         r0=>DAT_40012400,[DAT_080029f0]         ;= 40012400h
ram:080029c2    0421            movs        r1,#0x4                                 
ram:080029c4    8160            str         r1,[r0,#offset DAT_40012408 &0xff]      
                            LAB_080029c6:                 ;XREF[1,0]:   080029b4
ram:080029c6    f0bc            pop         {r4,r5,r6,r7}                           
ram:080029c8    7047            bx          lr                                      
                            LAB_080029ca:                 ;XREF[1,0]:   08002920
ram:080029ca    0e60            str         r6,[r1,#0x0]=>DAT_200002b4              
ram:080029cc    1380            strh        r3,[r2,#0x0]=>DAT_20000178              
ram:080029ce    afe7            b           LAB_08002930                            
                            LAB_080029d0:                 ;XREF[1,0]:   0800294c
ram:080029d0    4e60            str         r6,[r1,#0x4]=>DAT_200002b8              
ram:080029d2    5380            strh        r3,[r2,#0x2]=>DAT_2000017a              
ram:080029d4    c2e7            b           LAB_0800295c                            
                            LAB_080029d6:                 ;XREF[1,0]:   08002978
ram:080029d6    8e60            str         r6,[r1,#0x8]=>DAT_200002bc              
ram:080029d8    9380            strh        r3,[r2,#0x4]=>DAT_2000017c              
ram:080029da    d5e7            b           LAB_08002988                            
                            LAB_080029dc:                 ;XREF[1,0]:   080029a2
ram:080029dc    cc60            str         r4,[r1,#0xc]=>DAT_200002c0              
ram:080029de    d380            strh        r3,[r2,#0x6]=>DAT_2000017e              
ram:080029e0    e6e7            b           LAB_080029b0                            
ram:080029e2    0000            movs        r0,r0                                   
                            DAT_080029e4:                 ;XREF[1,0]:   08002834
ram:080029e4    00000240        undefined4  40020000h                               
                            DAT_080029e8:                 ;XREF[1,0]:   0800283e
ram:080029e8    40240140        undefined4  40012440h                               
                            DAT_080029ec:                 ;XREF[2,0]:   08002842,080028b8
ram:080029ec    8e040020        undefined4  2000048Eh                               
                            DAT_080029f0:                 ;XREF[3,0]:   08002846,080028ae,080029c0
ram:080029f0    00240140        undefined4  40012400h                               
                            DAT_080029f4:                 ;XREF[1,0]:   08002892
ram:080029f4    03800000        undefined4  00008003h                               
                            DAT_080029f8:                 ;XREF[1,0]:   0800289c
ram:080029f8    00270140        undefined4  40012700h                               
                            DAT_080029fc:                 ;XREF[1,0]:   080028a0
ram:080029fc    a1160000        undefined4  000016A1h                               
                            DAT_08002a00:                 ;XREF[5,0]:   080028b6,08002902,08002940,0800296c
                                                          ;             08002994
ram:08002a00    d4020020        undefined4  200002D4h                               
                            DAT_08002a04:                 ;XREF[1,0]:   080028e2
ram:08002a04    74010020        undefined4  20000174h                               
                            DAT_08002a08:                 ;XREF[4,0]:   080028f2,08002930,0800295c,08002988
ram:08002a08    a2010020        undefined4  200001A2h                               
                            DAT_08002a0c:                 ;XREF[1,0]:   080028f8
ram:08002a0c    c4020020        undefined4  200002C4h                               
                            PTR_DAT_08002a10:             ;XREF[1,0]:   08002900
ram:08002a10    90540008        addr        DAT_08005490                            ;= 00000002h
                            PTR_DAT_08002a14:             ;XREF[4,0]:   0800290c,0800293a,08002966,08002992
ram:08002a14    80540008        addr        DAT_08005480                            
                            DAT_08002a18:                 ;XREF[2,0]:   0800291c,080029b0
ram:08002a18    b4020020        undefined4  200002B4h                               
                            DAT_08002a1c:                 ;XREF[1,0]:   08002918
ram:08002a1c    78010020        undefined4  20000178h                               
                            ;************************************************************************************************
                            ;*                                           FUNCTION                                           *
                            ;************************************************************************************************
                            ;undefined FUNC_VT_08002a20(void)
          ;local_1c      undefined4         -1c                      ;XREF[1,0]:   08002a34
          ;local_20      undefined4         -20                      ;XREF[2,0]:   08002a36,08002b1a
          ;local_24      undefined4         -24                      ;XREF[1,0]:   08002a2a
          ;local_28      undefined4         -28                      ;XREF[3,0]:   08002a2c,08002aa8,08002ab4
          ;local_38      undefined4         -38                      ;XREF[1,0]:   08002a3c
          ;local_40      undefined4         -40                      ;XREF[6,0]:   08002ad6,08002ae2,08002aee,08002afa,08002b02
                                                                     ;             08002c10
                                                          ;XREF[0,1]:   08000c90
ram:08002a20    f0b5            push        {r4,r5,r6,r7,lr}                        
ram:08002a22    fc48            ldr         r0,[PTR_DAT_08002e14]                   ;= 08005494
ram:08002a24    8bb0            sub         sp,#0x2c                                
ram:08002a26    4268            ldr         r2,[r0,#0x4]=>DAT_08005498              ;= 00100008h
ram:08002a28    0168            ldr         r1,[r0,#0x0]=>DAT_08005494              ;= 00040002h
ram:08002a2a    0792            str         r2,[sp,#local_24+0x40]                  
ram:08002a2c    0691            str         r1,[sp,#local_28+0x40]                  
ram:08002a2e    c268            ldr         r2,[r0,#0xc]=>DAT_080054a0              ;= 00020001h
ram:08002a30    8168            ldr         r1,[r0,#0x8]=>DAT_0800549c              ;= 00800040h
ram:08002a32    1030            adds        r0,#0x10                                
ram:08002a34    0992            str         r2,[sp,#local_1c+0x40]                  
ram:08002a36    0891            str         r1,[sp,#local_20+0x40]                  
                                                          ; FWD[5,0]:   080054a4,080054a8,080054ac,080054b0
                                                          ;             48000400
ram:08002a38    0fc8            ldmia       r0,{r0,r1,r2,r3}=>DAT_080054a4          ;= 48000000h
                                                                                    ;= 48000400h
ram:08002a3a    02ac            add         r4,sp,#0x8                              
                                                          ; FWD[3,0]:   Stack[-0x38],48000000,48000400
ram:08002a3c    0fc4            stmia       r4!=>local_38,{r0,r1,r2,r3}=>DAT_4800...
ram:08002a3e    f64f            ldr         r7,[DAT_08002e18]                       ;= 40000400h
ram:08002a40    0121            movs        r1,#0x1                                 
ram:08002a42    3846            mov         r0,r7                                   
ram:08002a44    01f0bcf9        bl          FUN_08003dc0                            ;bool FUN_08003dc0(int param_1, ushor...
ram:08002a48    f44e            ldr         r6,[DAT_08002e1c]                       ;= 0000FFFFh
ram:08002a4a    f54c            ldr         r4,[DAT_08002e20]                       ;= 20000328h
ram:08002a4c    0028            cmp         r0,#0x0                                 
ram:08002a4e    27d0            beq         LAB_08002aa0                            
ram:08002a50    0121            movs        r1,#0x1                                 
ram:08002a52    3846            mov         r0,r7                                   
ram:08002a54    01f0bbf9        bl          FUN_08003dce                            ;undefined FUN_08003dce(int param_1, ...
ram:08002a58    2168            ldr         r1,[r4,#0x0]=>DAT_20000328              
ram:08002a5a    0029            cmp         r1,#0x0                                 
ram:08002a5c    01d0            beq         LAB_08002a62                            
ram:08002a5e    f148            ldr         r0,[DAT_08002e24]                       ;= 20000196h
ram:08002a60    0680            strh        r6,[r0,#0x0]=>DAT_20000196              
                            LAB_08002a62:                 ;XREF[1,0]:   08002a5c
ram:08002a62    481c            adds        r0,r1,#0x1                              
ram:08002a64    01d0            beq         LAB_08002a6a                            
ram:08002a66    491c            adds        r1,r1,#0x1                              
ram:08002a68    2160            str         r1,[r4,#0x0]=>DAT_20000328              
                            LAB_08002a6a:                 ;XREF[1,0]:   08002a64
ram:08002a6a    6068            ldr         r0,[r4,#0x4]=>DAT_2000032c              
ram:08002a6c    0028            cmp         r0,#0x0                                 
ram:08002a6e    01d0            beq         LAB_08002a74                            
ram:08002a70    ec49            ldr         r1,[DAT_08002e24]                       ;= 20000196h
ram:08002a72    4e80            strh        r6,[r1,#0x2]=>DAT_20000198              
                            LAB_08002a74:                 ;XREF[1,0]:   08002a6e
ram:08002a74    411c            adds        r1,r0,#0x1                              
ram:08002a76    01d0            beq         LAB_08002a7c                            
ram:08002a78    401c            adds        r0,r0,#0x1                              
ram:08002a7a    6060            str         r0,[r4,#0x4]=>DAT_2000032c              
                            LAB_08002a7c:                 ;XREF[1,0]:   08002a76
ram:08002a7c    a068            ldr         r0,[r4,#0x8]=>DAT_20000330              
ram:08002a7e    0028            cmp         r0,#0x0                                 
ram:08002a80    01d0            beq         LAB_08002a86                            
ram:08002a82    e849            ldr         r1,[DAT_08002e24]                       ;= 20000196h
ram:08002a84    8e80            strh        r6,[r1,#0x4]=>DAT_2000019a              
                            LAB_08002a86:                 ;XREF[1,0]:   08002a80
ram:08002a86    411c            adds        r1,r0,#0x1                              
ram:08002a88    01d0            beq         LAB_08002a8e                            
ram:08002a8a    401c            adds        r0,r0,#0x1                              
ram:08002a8c    a060            str         r0,[r4,#0x8]=>DAT_20000330              
                            LAB_08002a8e:                 ;XREF[1,0]:   08002a88
ram:08002a8e    e068            ldr         r0,[r4,#0xc]=>DAT_20000334              
ram:08002a90    0028            cmp         r0,#0x0                                 
ram:08002a92    01d0            beq         LAB_08002a98                            
ram:08002a94    e349            ldr         r1,[DAT_08002e24]                       ;= 20000196h
ram:08002a96    ce80            strh        r6,[r1,#0x6]=>DAT_2000019c              
                            LAB_08002a98:                 ;XREF[1,0]:   08002a92
ram:08002a98    411c            adds        r1,r0,#0x1                              
ram:08002a9a    01d0            beq         LAB_08002aa0                            
ram:08002a9c    401c            adds        r0,r0,#0x1                              
ram:08002a9e    e060            str         r0,[r4,#0xc]=>DAT_20000334              
                            LAB_08002aa0:                 ;XREF[2,0]:   08002a4e,08002a9a
ram:08002aa0    0025            movs        r5,#0x0                                 
                            LAB_08002aa2:                 ;XREF[1,0]:   08002c1c
ram:08002aa2    dd4c            ldr         r4,[DAT_08002e18]                       ;= 40000400h
ram:08002aa4    6e00            lsls        r6,r5,#0x1                              
ram:08002aa6    06af            add         r7,sp,#0x18                             
ram:08002aa8    b95b            ldrh        r1,[r7,r6]=>local_28                    
ram:08002aaa    2046            mov         r0,r4                                   
ram:08002aac    01f088f9        bl          FUN_08003dc0                            ;bool FUN_08003dc0(int param_1, ushor...
ram:08002ab0    0028            cmp         r0,#0x0                                 
ram:08002ab2    7dd0            beq         LAB_08002bb0                            
ram:08002ab4    b95b            ldrh        r1,[r7,r6]=>local_28                    
ram:08002ab6    2046            mov         r0,r4                                   
ram:08002ab8    01f089f9        bl          FUN_08003dce                            ;undefined FUN_08003dce(int param_1, ...
ram:08002abc    002d            cmp         r5,#0x0                                 
ram:08002abe    06d0            beq         LAB_08002ace                            
ram:08002ac0    012d            cmp         r5,#0x1                                 
ram:08002ac2    0ad0            beq         LAB_08002ada                            
ram:08002ac4    022d            cmp         r5,#0x2                                 
ram:08002ac6    0ed0            beq         LAB_08002ae6                            
ram:08002ac8    032d            cmp         r5,#0x3                                 
ram:08002aca    17d1            bne         LAB_08002afc                            
ram:08002acc    11e0            b           LAB_08002af2                            
                            LAB_08002ace:                 ;XREF[1,0]:   08002abe
ram:08002ace    2046            mov         r0,r4                                   
ram:08002ad0    01f064f9        bl          FUN_08003d9c                            ;undefined4 FUN_08003d9c(int param_1)
ram:08002ad4    80b2            uxth        r0,r0                                   
ram:08002ad6    0090            str         r0,[sp,#0x0]=>local_40                  
ram:08002ad8    10e0            b           LAB_08002afc                            
                            LAB_08002ada:                 ;XREF[1,0]:   08002ac2
ram:08002ada    2046            mov         r0,r4                                   
ram:08002adc    01f060f9        bl          FUN_08003da0                            ;undefined4 FUN_08003da0(int param_1)
ram:08002ae0    80b2            uxth        r0,r0                                   
ram:08002ae2    0090            str         r0,[sp,#0x0]=>local_40                  
ram:08002ae4    0ae0            b           LAB_08002afc                            
                            LAB_08002ae6:                 ;XREF[1,0]:   08002ac6
ram:08002ae6    2046            mov         r0,r4                                   
ram:08002ae8    01f05cf9        bl          FUN_08003da4                            ;undefined4 FUN_08003da4(int param_1)
ram:08002aec    80b2            uxth        r0,r0                                   
ram:08002aee    0090            str         r0,[sp,#0x0]=>local_40                  
ram:08002af0    04e0            b           LAB_08002afc                            
                            LAB_08002af2:                 ;XREF[1,0]:   08002acc
ram:08002af2    2046            mov         r0,r4                                   
ram:08002af4    01f058f9        bl          FUN_08003da8                            ;undefined4 FUN_08003da8(int param_1)
ram:08002af8    80b2            uxth        r0,r0                                   
ram:08002afa    0090            str         r0,[sp,#0x0]=>local_40                  
                            LAB_08002afc:                 ;XREF[4,0]:   08002aca,08002ad8,08002ae4,08002af0
ram:08002afc    ca48            ldr         r0,[DAT_08002e28]                       ;= 20000186h
ram:08002afe    ac00            lsls        r4,r5,#0x2                              
ram:08002b00    815b            ldrh        r1,[r0,r6]=>DAT_20000186                
ram:08002b02    0098            ldr         r0,[sp,#0x0]=>local_40                  
ram:08002b04    401a            subs        r0,r0,r1                                
ram:08002b06    87b2            uxth        r7,r0                                   
ram:08002b08    c548            ldr         r0,[DAT_08002e20]                       ;= 20000328h
ram:08002b0a    0159            ldr         r1,[r0,r4]=>DAT_20000328                
ram:08002b0c    0129            cmp         r1,#0x1                                 
ram:08002b0e    00d9            bls         LAB_08002b12                            
ram:08002b10    c64f            ldr         r7,[DAT_08002e2c]                       ;= 00007FFFh
                            LAB_08002b12:                 ;XREF[1,0]:   08002b0e
ram:08002b12    c348            ldr         r0,[DAT_08002e20]                       ;= 20000328h
ram:08002b14    0021            movs        r1,#0x0                                 
ram:08002b16    0151            str         r1,[r0,r4]=>DAT_20000328                
ram:08002b18    08a8            add         r0,sp,#0x20                             
ram:08002b1a    815b            ldrh        r1,[r0,r6]=>local_20                    
ram:08002b1c    02a8            add         r0,sp,#0x8                              
ram:08002b1e    0059            ldr         r0=>DAT_48000000,[r0,r4]                
ram:08002b20    01f0cefa        bl          FUN_080040c0                            ;bool FUN_080040c0(int param_1, ushor...
ram:08002b24    0028            cmp         r0,#0x0                                 
ram:08002b26    04d0            beq         LAB_08002b32                            
ram:08002b28    c148            ldr         r0,[DAT_08002e30]                       ;= 20000318h
ram:08002b2a    c249            ldr         r1,[DAT_08002e34]                       ;= 20000308h
ram:08002b2c    0259            ldr         r2,[r0,r4]=>DAT_20000318                
ram:08002b2e    0a51            str         r2,[r1,r4]=>DAT_20000308                
ram:08002b30    6ce0            b           LAB_08002c0c                            
                            LAB_08002b32:                 ;XREF[1,0]:   08002b26
ram:08002b32    c14b            ldr         r3,[DAT_08002e38]                       ;= 20000348h
ram:08002b34    1859            ldr         r0,[r3,r4]=>DAT_20000348                
ram:08002b36    0028            cmp         r0,#0x0                                 
ram:08002b38    19d0            beq         LAB_08002b6e                            
ram:08002b3a    c048            ldr         r0,[DAT_08002e3c]                       ;= 20000378h
ram:08002b3c    0159            ldr         r1,[r0,r4]=>DAT_20000378                
ram:08002b3e    491c            adds        r1,r1,#0x1                              
ram:08002b40    0151            str         r1,[r0,r4]=>DAT_20000378                
                            LAB_08002b42:                 ;XREF[2,0]:   08002b78,08002b82
ram:08002b42    bb48            ldr         r0,[DAT_08002e30]                       ;= 20000318h
ram:08002b44    0059            ldr         r0,[r0,r4]=>DAT_20000318                
ram:08002b46    8446            mov         r12,r0                                  
ram:08002b48    c119            adds        r1,r0,r7                                
ram:08002b4a    b548            ldr         r0,[DAT_08002e20]                       ;= 20000328h
ram:08002b4c    0259            ldr         r2,[r0,r4]=>DAT_20000328                
ram:08002b4e    012a            cmp         r2,#0x1                                 
ram:08002b50    00d9            bls         LAB_08002b54                            
ram:08002b52    b249            ldr         r1,[DAT_08002e1c]                       ;= 0000FFFFh
                            LAB_08002b54:                 ;XREF[1,0]:   08002b50
ram:08002b54    0022            movs        r2,#0x0                                 
ram:08002b56    0251            str         r2,[r0,r4]=>DAT_20000328                
ram:08002b58    1a59            ldr         r2,[r3,r4]=>DAT_20000348                
ram:08002b5a    1846            mov         r0,r3                                   
ram:08002b5c    002a            cmp         r2,#0x0                                 
ram:08002b5e    17d0            beq         LAB_08002b90                            
ram:08002b60    0259            ldr         r2,[r0,r4]=>DAT_20000348                
ram:08002b62    cb43            mvns        r3,r1                                   
ram:08002b64    9a42            cmp         r2,r3                                   
ram:08002b66    0259            ldr         r2,[r0,r4]=>DAT_20000348                
ram:08002b68    10d2            bcs         LAB_08002b8c                            
ram:08002b6a    5218            adds        r2,r2,r1                                
ram:08002b6c    0fe0            b           LAB_08002b8e                            
                            LAB_08002b6e:                 ;XREF[1,0]:   08002b38
ram:08002b6e    b448            ldr         r0,[DAT_08002e40]                       ;= 200001A2h
ram:08002b70    405d            ldrb        r0,[r0,r5]=>DAT_200001a2                
ram:08002b72    0128            cmp         r0,#0x1                                 
ram:08002b74    06d0            beq         LAB_08002b84                            
ram:08002b76    0228            cmp         r0,#0x2                                 
ram:08002b78    e3d1            bne         LAB_08002b42                            
ram:08002b7a    b248            ldr         r0,[DAT_08002e44]                       ;= 2000018Eh
ram:08002b7c    815b            ldrh        r1,[r0,r6]=>DAT_2000018e                
ram:08002b7e    491c            adds        r1,r1,#0x1                              
                            LAB_08002b80:                 ;XREF[1,0]:   08002b8a
ram:08002b80    8153            strh        r1,[r0,r6]=>DAT_2000018e                
ram:08002b82    dee7            b           LAB_08002b42                            
                            LAB_08002b84:                 ;XREF[1,0]:   08002b74
ram:08002b84    af48            ldr         r0,[DAT_08002e44]                       ;= 2000018Eh
ram:08002b86    815b            ldrh        r1,[r0,r6]=>DAT_2000018e                
ram:08002b88    491e            subs        r1,r1,#0x1                              
ram:08002b8a    f9e7            b           LAB_08002b80                            
                            LAB_08002b8c:                 ;XREF[1,0]:   08002b68
ram:08002b8c    521e            subs        r2,r2,#0x1                              
                            LAB_08002b8e:                 ;XREF[1,0]:   08002b6c
ram:08002b8e    0251            str         r2,[r0,r4]=>DAT_20000348                
                            LAB_08002b90:                 ;XREF[1,0]:   08002b5e
ram:08002b90    ad4a            ldr         r2,[DAT_08002e48]                       ;= 2000019Eh
ram:08002b92    525d            ldrb        r2,[r2,r5]=>DAT_2000019e                
ram:08002b94    022a            cmp         r2,#0x2                                 
ram:08002b96    32d0            beq         LAB_08002bfe                            
ram:08002b98    052a            cmp         r2,#0x5                                 
ram:08002b9a    30d0            beq         LAB_08002bfe                            
ram:08002b9c    0259            ldr         r2,[r0,r4]=>DAT_20000348                
ram:08002b9e    002a            cmp         r2,#0x0                                 
ram:08002ba0    1dd1            bne         LAB_08002bde                            
ram:08002ba2    aa4a            ldr         r2,[DAT_08002e4c]                       ;= 200002E8h
ram:08002ba4    8b08            lsrs        r3,r1,#0x2                              
ram:08002ba6    1259            ldr         r2,[r2,r4]=>DAT_200002e8                
ram:08002ba8    cb1a            subs        r3,r1,r3                                
ram:08002baa    9646            mov         lr,r2                                   
ram:08002bac    9a42            cmp         r2,r3                                   
ram:08002bae    00e0            b           LAB_08002bb2                            
                            LAB_08002bb0:                 ;XREF[1,0]:   08002ab2
ram:08002bb0    30e0            b           LAB_08002c14                            
                            LAB_08002bb2:                 ;XREF[1,0]:   08002bae
ram:08002bb2    0cd3            bcc         LAB_08002bce                            
ram:08002bb4    6346            mov         r3,r12                                  
ram:08002bb6    9a08            lsrs        r2,r3,#0x2                              
ram:08002bb8    9a1a            subs        r2,r3,r2                                
ram:08002bba    9e4b            ldr         r3,[DAT_08002e34]                       ;= 20000308h
ram:08002bbc    1b59            ldr         r3,[r3,r4]=>DAT_20000308                
ram:08002bbe    9a42            cmp         r2,r3                                   
ram:08002bc0    05d8            bhi         LAB_08002bce                            
ram:08002bc2    a34a            ldr         r2,[DAT_08002e50]                       ;= 200002F8h
ram:08002bc4    1359            ldr         r3,[r2,r4]=>DAT_200002f8                
ram:08002bc6    ba08            lsrs        r2,r7,#0x2                              
ram:08002bc8    ba1a            subs        r2,r7,r2                                
ram:08002bca    9342            cmp         r3,r2                                   
ram:08002bcc    07d2            bcs         LAB_08002bde                            
                            LAB_08002bce:                 ;XREF[2,0]:   08002bb2,08002bc0
ram:08002bce    0123            movs        r3,#0x1                                 
ram:08002bd0    0351            str         r3,[r0,r4]=>DAT_20000348                
ram:08002bd2    a04a            ldr         r2,[DAT_08002e54]                       ;= 20000358h
ram:08002bd4    7346            mov         r3,lr                                   
ram:08002bd6    1351            str         r3,[r2,r4]=>DAT_20000358                
ram:08002bd8    9f4b            ldr         r3,[DAT_08002e58]                       ;= 20000338h
ram:08002bda    0022            movs        r2,#0x0                                 
ram:08002bdc    1a51            str         r2,[r3,r4]=>DAT_20000338                
                            LAB_08002bde:                 ;XREF[2,0]:   08002ba0,08002bcc
ram:08002bde    0259            ldr         r2,[r0,r4]=>DAT_20000348                
ram:08002be0    002a            cmp         r2,#0x0                                 
ram:08002be2    0ed0            beq         LAB_08002c02                            
ram:08002be4    994a            ldr         r2,[DAT_08002e4c]                       ;= 200002E8h
ram:08002be6    1259            ldr         r2,[r2,r4]=>DAT_200002e8                
ram:08002be8    8a42            cmp         r2,r1                                   
ram:08002bea    0ad9            bls         LAB_08002c02                            
ram:08002bec    9b4a            ldr         r2,[DAT_08002e5c]                       ;= 20000368h
ram:08002bee    1151            str         r1,[r2,r4]=>DAT_20000368                
ram:08002bf0    0259            ldr         r2,[r0,r4]=>DAT_20000348                
ram:08002bf2    9948            ldr         r0,[DAT_08002e58]                       ;= 20000338h
ram:08002bf4    0251            str         r2,[r0,r4]=>DAT_20000338                
ram:08002bf6    914a            ldr         r2,[DAT_08002e3c]                       ;= 20000378h
ram:08002bf8    0020            movs        r0,#0x0                                 
ram:08002bfa    1051            str         r0,[r2,r4]=>DAT_20000378                
ram:08002bfc    01e0            b           LAB_08002c02                            
                            LAB_08002bfe:                 ;XREF[2,0]:   08002b96,08002b9a
ram:08002bfe    0022            movs        r2,#0x0                                 
ram:08002c00    0251            str         r2,[r0,r4]=>DAT_20000348                
                            LAB_08002c02:                 ;XREF[3,0]:   08002be2,08002bea,08002bfc
ram:08002c02    9248            ldr         r0,[DAT_08002e4c]                       ;= 200002E8h
ram:08002c04    0151            str         r1,[r0,r4]=>DAT_200002e8                
ram:08002c06    8748            ldr         r0,[DAT_08002e24]                       ;= 20000196h
ram:08002c08    8153            strh        r1,[r0,r6]=>DAT_20000196                
ram:08002c0a    9148            ldr         r0,[DAT_08002e50]                       ;= 200002F8h
                            LAB_08002c0c:                 ;XREF[1,0]:   08002b30
ram:08002c0c    8649            ldr         r1,[DAT_08002e28]                       ;= 20000186h
                                                          ; FWD[2,0]:   200002f8,20000318
ram:08002c0e    0751            str         r7,[r0,r4]=>DAT_20000318                
ram:08002c10    0098            ldr         r0,[sp,#0x0]=>local_40                  
ram:08002c12    8853            strh        r0,[r1,r6]=>DAT_20000186                
                            LAB_08002c14:                 ;XREF[1,0]:   08002bb0
ram:08002c14    6d1c            adds        r5,r5,#0x1                              
ram:08002c16    edb2            uxtb        r5,r5                                   
ram:08002c18    042d            cmp         r5,#0x4                                 
ram:08002c1a    00d2            bcs         LAB_08002c1e                            
ram:08002c1c    41e7            b           LAB_08002aa2                            
                            LAB_08002c1e:                 ;XREF[1,0]:   08002c1a
ram:08002c1e    0bb0            add         sp,#0x2c                                
ram:08002c20    f0bd            pop         {r4,r5,r6,r7,pc}                        
                            ;************************************************************************************************
                            ;*                                           FUNCTION                                           *
                            ;************************************************************************************************
                            ;undefined FUN_08002c22(int param_1)
          ;param_1       int                 r0                      
                                                          ;XREF[1,0]:   08003024
ram:08002c22    70b5            push        {r4,r5,r6,lr}                           
ram:08002c24    0546            mov         r5,param_1                              
ram:08002c26    8400            lsls        r4,param_1,#0x2                         
ram:08002c28    8348            ldr         param_1,[DAT_08002e38]                  ;= 20000348h
ram:08002c2a    0159            ldr         r1,[param_1,r4]                         
ram:08002c2c    0022            movs        r2,#0x0                                 
ram:08002c2e    0251            str         r2,[param_1,r4]                         
ram:08002c30    0129            cmp         r1,#0x1                                 
ram:08002c32    21d9            bls         LAB_08002c78                            
ram:08002c34    1038            subs        param_1,#0x10                           
ram:08002c36    0159            ldr         r1,[param_1,r4]                         
ram:08002c38    0029            cmp         r1,#0x0                                 
ram:08002c3a    1dd0            beq         LAB_08002c78                            
ram:08002c3c    7f4e            ldr         r6,[DAT_08002e3c]                       ;= 20000378h
ram:08002c3e    3259            ldr         r2,[r6,r4]                              
ram:08002c40    8449            ldr         r1,[DAT_08002e54]                       ;= 20000358h
ram:08002c42    012a            cmp         r2,#0x1                                 
ram:08002c44    0959            ldr         r1,[r1,r4]                              
ram:08002c46    02d8            bhi         LAB_08002c4e                            
ram:08002c48    4900            lsls        r1,r1,#0x1                              
ram:08002c4a    0059            ldr         param_1,[param_1,r4]                    
ram:08002c4c    04e0            b           LAB_08002c58                            
                            LAB_08002c4e:                 ;XREF[1,0]:   08002c46
ram:08002c4e    834a            ldr         r2,[DAT_08002e5c]                       ;= 20000368h
ram:08002c50    1259            ldr         r2,[r2,r4]                              
ram:08002c52    0059            ldr         param_1,[param_1,r4]                    
ram:08002c54    8918            adds        r1,r1,r2                                
ram:08002c56    4000            lsls        param_1,param_1,#0x1                    
                            LAB_08002c58:                 ;XREF[1,0]:   08002c4c
ram:08002c58    02f026fb        bl          FUN_080052a8                            ;int FUN_080052a8(uint param_1, uint ...
ram:08002c5c    3159            ldr         r1,[r6,r4]                              
ram:08002c5e    0a18            adds        r2,r1,param_1                           
ram:08002c60    7748            ldr         param_1,[DAT_08002e40]                  ;= 200001A2h
ram:08002c62    7849            ldr         r1,[DAT_08002e44]                       ;= 2000018Eh
ram:08002c64    435d            ldrb        r3,[param_1,r5]                         
ram:08002c66    6800            lsls        param_1,r5,#0x1                         
ram:08002c68    921c            adds        r2,r2,#0x2                              
ram:08002c6a    012b            cmp         r3,#0x1                                 
ram:08002c6c    05d0            beq         LAB_08002c7a                            
ram:08002c6e    022b            cmp         r3,#0x2                                 
ram:08002c70    02d1            bne         LAB_08002c78                            
ram:08002c72    0b5a            ldrh        r3,[r1,param_1]                         
ram:08002c74    9a18            adds        r2,r3,r2                                
                            LAB_08002c76:                 ;XREF[1,0]:   08002c7e
ram:08002c76    0a52            strh        r2,[r1,param_1]                         
                            LAB_08002c78:                 ;XREF[3,0]:   08002c32,08002c3a,08002c70
ram:08002c78    70bd            pop         {r4,r5,r6,pc}                           
                            LAB_08002c7a:                 ;XREF[1,0]:   08002c6c
ram:08002c7a    0b5a            ldrh        r3,[r1,param_1]                         
ram:08002c7c    9a1a            subs        r2,r3,r2                                
ram:08002c7e    fae7            b           LAB_08002c76                            
                            ;************************************************************************************************
                            ;*                                           FUNCTION                                           *
                            ;************************************************************************************************
                            ;undefined FUN_08002c80(void)
                                                          ;XREF[1,0]:   08004f60
ram:08002c80    10b5            push        {r4,lr}                                 
ram:08002c82    72b6            cpsid       i                                       
ram:08002c84    0822            movs        r2,#0x8                                 
ram:08002c86    6f49            ldr         r1,[DAT_08002e44]                       ;= 2000018Eh
ram:08002c88    7548            ldr         r0,[DAT_08002e60]                       ;= 00000036h
ram:08002c8a    00f09cfa        bl          FUN_080031c6                            ;undefined FUN_080031c6(uint param_1,...
ram:08002c8e    0122            movs        r2,#0x1                                 
ram:08002c90    7449            ldr         r1,[DAT_08002e64]                       ;= 20000180h
ram:08002c92    7548            ldr         r0,[DAT_08002e68]                       ;= 00000034h
ram:08002c94    00f097fa        bl          FUN_080031c6                            ;undefined FUN_080031c6(uint param_1,...
ram:08002c98    62b6            cpsie       i                                       
ram:08002c9a    10bd            pop         {r4,pc}                                 
                            ;************************************************************************************************
                            ;*                                           FUNCTION                                           *
                            ;************************************************************************************************
                            ;undefined FUN_08002c9c(void)
                                                          ;XREF[1,0]:   08004c94
ram:08002c9c    10b5            push        {r4,lr}                                 
ram:08002c9e    72b6            cpsid       i                                       
ram:08002ca0    0822            movs        r2,#0x8                                 
ram:08002ca2    6849            ldr         r1,[DAT_08002e44]                       ;= 2000018Eh
ram:08002ca4    6e48            ldr         r0,[DAT_08002e60]                       ;= 00000036h
ram:08002ca6    00f062fa        bl          FUN_0800316e                            ;int FUN_0800316e(uint param_1, int p...
ram:08002caa    0122            movs        r2,#0x1                                 
ram:08002cac    6d49            ldr         r1,[DAT_08002e64]                       ;= 20000180h
ram:08002cae    6e48            ldr         r0,[DAT_08002e68]                       ;= 00000034h
ram:08002cb0    00f05dfa        bl          FUN_0800316e                            ;int FUN_0800316e(uint param_1, int p...
ram:08002cb4    62b6            cpsie       i                                       
ram:08002cb6    10bd            pop         {r4,pc}                                 
                            ;************************************************************************************************
                            ;*                                           FUNCTION                                           *
                            ;************************************************************************************************
                            ;undefined FUN_08002cb8(void)
          ;local_18      undefined4         -18                      ;XREF[2,0]:   08002df4,08002e0c
                                                          ;XREF[1,0]:   08004cda
ram:08002cb8    f8b5            push        {r3,r4,r5,r6,r7,lr}                     
ram:08002cba    6c4d            ldr         r5,[DAT_08002e6c]                       ;= 200001AAh
ram:08002cbc    6c4a            ldr         r2,[DAT_08002e70]                       ;= 20000181h
ram:08002cbe    2b78            ldrb        r3,[r5,#0x0]=>DAT_200001aa              
ram:08002cc0    6149            ldr         r1,[DAT_08002e48]                       ;= 2000019Eh
ram:08002cc2    501e            subs        r0,r2,#0x1                              
ram:08002cc4    002b            cmp         r3,#0x0                                 
ram:08002cc6    5ed1            bne         LAB_08002d86                            
ram:08002cc8    6b78            ldrb        r3,[r5,#0x1]=>DAT_200001ab              
ram:08002cca    002b            cmp         r3,#0x0                                 
ram:08002ccc    5bd1            bne         LAB_08002d86                            
ram:08002cce    ab78            ldrb        r3,[r5,#0x2]=>DAT_200001ac              
ram:08002cd0    002b            cmp         r3,#0x0                                 
ram:08002cd2    58d1            bne         LAB_08002d86                            
ram:08002cd4    eb78            ldrb        r3,[r5,#0x3]=>DAT_200001ad              
ram:08002cd6    002b            cmp         r3,#0x0                                 
ram:08002cd8    55d1            bne         LAB_08002d86                            
ram:08002cda    524b            ldr         r3,[DAT_08002e24]                       ;= 20000196h
ram:08002cdc    1e88            ldrh        r6,[r3,#0x0]=>DAT_20000196              
ram:08002cde    534c            ldr         r4,[DAT_08002e2c]                       ;= 00007FFFh
ram:08002ce0    0023            movs        r3,#0x0                                 
ram:08002ce2    db43            mvns        r3,r3                                   
ram:08002ce4    a642            cmp         r6,r4                                   
ram:08002ce6    0fd2            bcs         LAB_08002d08                            
ram:08002ce8    0e78            ldrb        r6,[r1,#0x0]=>DAT_2000019e              
ram:08002cea    022e            cmp         r6,#0x2                                 
ram:08002cec    01d0            beq         LAB_08002cf2                            
ram:08002cee    052e            cmp         r6,#0x5                                 
ram:08002cf0    0ad1            bne         LAB_08002d08                            
                            LAB_08002cf2:                 ;XREF[1,0]:   08002cec
ram:08002cf2    0478            ldrb        r4,[r0,#0x0]=>DAT_20000180              
ram:08002cf4    e706            lsls        r7,r4,#0x1b                             
ram:08002cf6    04d5            bpl         LAB_08002d02                            
ram:08002cf8    e707            lsls        r7,r4,#0x1f                             
ram:08002cfa    02d1            bne         LAB_08002d02                            
ram:08002cfc    022e            cmp         r6,#0x2                                 
ram:08002cfe    00d1            bne         LAB_08002d02                            
ram:08002d00    1370            strb        r3,[r2,#0x0]=>DAT_20000181              
                            LAB_08002d02:                 ;XREF[3,0]:   08002cf6,08002cfa,08002cfe
ram:08002d02    ef26            movs        r6,#0xef                                
ram:08002d04    3440            ands        r4,r6                                   
ram:08002d06    0470            strb        r4,[r0,#0x0]=>DAT_20000180              
                            LAB_08002d08:                 ;XREF[2,0]:   08002ce6,08002cf0
ram:08002d08    464c            ldr         r4,[DAT_08002e24]                       ;= 20000196h
ram:08002d0a    6688            ldrh        r6,[r4,#0x2]=>DAT_20000198              
ram:08002d0c    474c            ldr         r4,[DAT_08002e2c]                       ;= 00007FFFh
ram:08002d0e    a642            cmp         r6,r4                                   
ram:08002d10    0fd2            bcs         LAB_08002d32                            
ram:08002d12    4e78            ldrb        r6,[r1,#0x1]=>DAT_2000019f              
ram:08002d14    022e            cmp         r6,#0x2                                 
ram:08002d16    01d0            beq         LAB_08002d1c                            
ram:08002d18    052e            cmp         r6,#0x5                                 
ram:08002d1a    0ad1            bne         LAB_08002d32                            
                            LAB_08002d1c:                 ;XREF[1,0]:   08002d16
ram:08002d1c    0478            ldrb        r4,[r0,#0x0]=>DAT_20000180              
ram:08002d1e    a706            lsls        r7,r4,#0x1a                             
ram:08002d20    04d5            bpl         LAB_08002d2c                            
ram:08002d22    a707            lsls        r7,r4,#0x1e                             
ram:08002d24    02d4            bmi         LAB_08002d2c                            
ram:08002d26    022e            cmp         r6,#0x2                                 
ram:08002d28    00d1            bne         LAB_08002d2c                            
ram:08002d2a    5370            strb        r3,[r2,#0x1]=>DAT_20000182              
                            LAB_08002d2c:                 ;XREF[3,0]:   08002d20,08002d24,08002d28
ram:08002d2c    df26            movs        r6,#0xdf                                
ram:08002d2e    3440            ands        r4,r6                                   
ram:08002d30    0470            strb        r4,[r0,#0x0]=>DAT_20000180              
                            LAB_08002d32:                 ;XREF[2,0]:   08002d10,08002d1a
ram:08002d32    3c4c            ldr         r4,[DAT_08002e24]                       ;= 20000196h
ram:08002d34    a688            ldrh        r6,[r4,#0x4]=>DAT_2000019a              
ram:08002d36    3d4c            ldr         r4,[DAT_08002e2c]                       ;= 00007FFFh
ram:08002d38    a642            cmp         r6,r4                                   
ram:08002d3a    0fd2            bcs         LAB_08002d5c                            
ram:08002d3c    8e78            ldrb        r6,[r1,#0x2]=>DAT_200001a0              
ram:08002d3e    022e            cmp         r6,#0x2                                 
ram:08002d40    01d0            beq         LAB_08002d46                            
ram:08002d42    052e            cmp         r6,#0x5                                 
ram:08002d44    0ad1            bne         LAB_08002d5c                            
                            LAB_08002d46:                 ;XREF[1,0]:   08002d40
ram:08002d46    0478            ldrb        r4,[r0,#0x0]=>DAT_20000180              
ram:08002d48    6706            lsls        r7,r4,#0x19                             
ram:08002d4a    04d5            bpl         LAB_08002d56                            
ram:08002d4c    6707            lsls        r7,r4,#0x1d                             
ram:08002d4e    02d4            bmi         LAB_08002d56                            
ram:08002d50    022e            cmp         r6,#0x2                                 
ram:08002d52    00d1            bne         LAB_08002d56                            
ram:08002d54    9370            strb        r3,[r2,#0x2]=>DAT_20000183              
                            LAB_08002d56:                 ;XREF[3,0]:   08002d4a,08002d4e,08002d52
ram:08002d56    bf26            movs        r6,#0xbf                                
ram:08002d58    3440            ands        r4,r6                                   
ram:08002d5a    0470            strb        r4,[r0,#0x0]=>DAT_20000180              
                            LAB_08002d5c:                 ;XREF[2,0]:   08002d3a,08002d44
ram:08002d5c    314c            ldr         r4,[DAT_08002e24]                       ;= 20000196h
ram:08002d5e    e688            ldrh        r6,[r4,#0x6]=>DAT_2000019c              
ram:08002d60    324c            ldr         r4,[DAT_08002e2c]                       ;= 00007FFFh
ram:08002d62    a642            cmp         r6,r4                                   
ram:08002d64    0fd2            bcs         LAB_08002d86                            
ram:08002d66    ce78            ldrb        r6,[r1,#0x3]=>DAT_200001a1              
ram:08002d68    022e            cmp         r6,#0x2                                 
ram:08002d6a    01d0            beq         LAB_08002d70                            
ram:08002d6c    052e            cmp         r6,#0x5                                 
ram:08002d6e    0ad1            bne         LAB_08002d86                            
                            LAB_08002d70:                 ;XREF[1,0]:   08002d6a
ram:08002d70    0478            ldrb        r4,[r0,#0x0]=>DAT_20000180              
ram:08002d72    e709            lsrs        r7,r4,#0x7                              
ram:08002d74    04d0            beq         LAB_08002d80                            
ram:08002d76    2707            lsls        r7,r4,#0x1c                             
ram:08002d78    02d4            bmi         LAB_08002d80                            
ram:08002d7a    022e            cmp         r6,#0x2                                 
ram:08002d7c    00d1            bne         LAB_08002d80                            
ram:08002d7e    d370            strb        r3,[r2,#0x3]=>DAT_20000184              
                            LAB_08002d80:                 ;XREF[3,0]:   08002d74,08002d78,08002d7c
ram:08002d80    6306            lsls        r3,r4,#0x19                             
ram:08002d82    5b0e            lsrs        r3,r3,#0x19                             
ram:08002d84    0370            strb        r3,[r0,#0x0]=>DAT_20000180              
                            LAB_08002d86:                 ;XREF[6,0]:   08002cc6,08002ccc,08002cd2,08002cd8
                                                          ;             08002d64,08002d6e
ram:08002d86    0024            movs        r4,#0x0                                 
ram:08002d88    0127            movs        r7,#0x1                                 
ram:08002d8a    3a4e            ldr         r6,[DAT_08002e74]                       ;= 20000178h
ram:08002d8c    bf02            lsls        r7,r7,#0xa                              
                            LAB_08002d8e:                 ;XREF[1,0]:   08002f34
                                                          ; FWD[2,0]:   200001aa,200001ab
ram:08002d8e    285d            ldrb        r0,[r5,r4]=>DAT_200001aa                
ram:08002d90    0028            cmp         r0,#0x0                                 
ram:08002d92    75d1            bne         LAB_08002e80                            
ram:08002d94    6000            lsls        r0,r4,#0x1                              
ram:08002d96    315e            ldrsh       r1,[r6,r0]=>DAT_20000178                
ram:08002d98    b942            cmp         r1,r7                                   
ram:08002d9a    71da            bge         LAB_08002e80                            
ram:08002d9c    0122            movs        r2,#0x1                                 
ram:08002d9e    9202            lsls        r2,r2,#0xa                              
ram:08002da0    d142            cmn         r1,r2                                   
ram:08002da2    6ddd            ble         LAB_08002e80                            
ram:08002da4    1f49            ldr         r1,[DAT_08002e24]                       ;= 20000196h
ram:08002da6    0a5a            ldrh        r2,[r1,r0]=>DAT_20000196                
ram:08002da8    2049            ldr         r1,[DAT_08002e2c]                       ;= 00007FFFh
ram:08002daa    8a42            cmp         r2,r1                                   
ram:08002dac    68d3            bcc         LAB_08002e80                            
ram:08002dae    3049            ldr         r1,[DAT_08002e70]                       ;= 20000181h
ram:08002db0    095d            ldrb        r1,[r1,r4]=>DAT_20000181                
ram:08002db2    0029            cmp         r1,#0x0                                 
ram:08002db4    2449            ldr         r1,[DAT_08002e48]                       ;= 2000019Eh
ram:08002db6    095d            ldrb        r1,[r1,r4]=>DAT_2000019e                
ram:08002db8    16d0            beq         LAB_08002de8                            
ram:08002dba    0229            cmp         r1,#0x2                                 
ram:08002dbc    02d0            beq         LAB_08002dc4                            
ram:08002dbe    0529            cmp         r1,#0x5                                 
ram:08002dc0    0ed1            bne         LAB_08002de0                            
ram:08002dc2    08e0            b           LAB_08002dd6                            
                            LAB_08002dc4:                 ;XREF[1,0]:   08002dbc
ram:08002dc4    2c4a            ldr         r2,[DAT_08002e78]                       ;= 0000002Ah
ram:08002dc6    72b6            cpsid       i                                       
ram:08002dc8    1e49            ldr         r1,[DAT_08002e44]                       ;= 2000018Eh
ram:08002dca    4118            adds        r1=>DAT_2000018e,r0,r1                  
ram:08002dcc    8018            adds        r0,r0,r2                                
ram:08002dce    0422            movs        r2,#0x4                                 
ram:08002dd0    00f0f9f9        bl          FUN_080031c6                            ;undefined FUN_080031c6(uint param_1,...
ram:08002dd4    03e0            b           LAB_08002dde                            
                            LAB_08002dd6:                 ;XREF[1,0]:   08002dc2
ram:08002dd6    72b6            cpsid       i                                       
ram:08002dd8    0021            movs        r1,#0x0                                 
ram:08002dda    1a4a            ldr         r2,[DAT_08002e44]                       ;= 2000018Eh
ram:08002ddc    1152            strh        r1,[r2,r0]=>DAT_2000018e                
                            LAB_08002dde:                 ;XREF[1,0]:   08002dd4
ram:08002dde    62b6            cpsie       i                                       
                            LAB_08002de0:                 ;XREF[1,0]:   08002dc0
ram:08002de0    0020            movs        r0,#0x0                                 
ram:08002de2    2349            ldr         r1,[DAT_08002e70]                       ;= 20000181h
ram:08002de4    0855            strb        r0,[r1,r4]=>DAT_20000181                
ram:08002de6    51e0            b           LAB_08002e8c                            
                            LAB_08002de8:                 ;XREF[1,0]:   08002db8
ram:08002de8    0229            cmp         r1,#0x2                                 
ram:08002dea    02d0            beq         LAB_08002df2                            
ram:08002dec    0529            cmp         r1,#0x5                                 
ram:08002dee    4dd1            bne         LAB_08002e8c                            
ram:08002df0    47e0            b           LAB_08002e82                            
                            LAB_08002df2:                 ;XREF[1,0]:   08002dea
ram:08002df2    2149            ldr         r1,[DAT_08002e78]                       ;= 0000002Ah
ram:08002df4    0090            str         r0,[sp,#0x0]=>local_18                  
ram:08002df6    4018            adds        r0,r0,r1                                
ram:08002df8    0222            movs        r2,#0x2                                 
ram:08002dfa    2049            ldr         r1,[DAT_08002e7c]                       ;= 200001B0h
ram:08002dfc    00f0b7f9        bl          FUN_0800316e                            ;int FUN_0800316e(uint param_1, int p...
ram:08002e00    0021            movs        r1,#0x0                                 
ram:08002e02    415e            ldrsh       r1,[r0,r1]                              
ram:08002e04    0029            cmp         r1,#0x0                                 
ram:08002e06    41d0            beq         LAB_08002e8c                            
ram:08002e08    72b6            cpsid       i                                       
ram:08002e0a    0e4a            ldr         r2,[DAT_08002e44]                       ;= 2000018Eh
ram:08002e0c    0098            ldr         r0,[sp,#0x0]=>local_18                  
ram:08002e0e    1152            strh        r1,[r2,r0]=>DAT_2000018e                
ram:08002e10    62b6            cpsie       i                                       
ram:08002e12    3be0            b           LAB_08002e8c                            
                            PTR_DAT_08002e14:             ;XREF[1,0]:   08002a22
ram:08002e14    94540008        addr        DAT_08005494                            ;= 00040002h
                            DAT_08002e18:                 ;XREF[2,0]:   08002a3e,08002aa2
ram:08002e18    00040040        undefined4  40000400h                               
                            DAT_08002e1c:                 ;XREF[2,0]:   08002a48,08002b52
ram:08002e1c    ffff0000        undefined4  0000FFFFh                               
                            DAT_08002e20:                 ;XREF[4,0]:   08002a4a,08002b08,08002b12,08002b4a
ram:08002e20    28030020        undefined4  20000328h                               
                            DAT_08002e24:                 ;XREF[10,0]:  08002a5e,08002a70,08002a82,08002a94
                                                          ;             08002c06,08002cda,08002d08,08002d32
                                                          ;             08002d5c,08002da4
ram:08002e24    96010020        undefined4  20000196h                               
                            DAT_08002e28:                 ;XREF[2,0]:   08002afc,08002c0c
ram:08002e28    86010020        undefined4  20000186h                               
                            DAT_08002e2c:                 ;XREF[6,0]:   08002b10,08002cde,08002d0c,08002d36
                                                          ;             08002d60,08002da8
ram:08002e2c    ff7f0000        undefined4  00007FFFh                               
                            DAT_08002e30:                 ;XREF[2,0]:   08002b28,08002b42
ram:08002e30    18030020        undefined4  20000318h                               
                            DAT_08002e34:                 ;XREF[2,0]:   08002b2a,08002bba
ram:08002e34    08030020        undefined4  20000308h                               
                            DAT_08002e38:                 ;XREF[2,0]:   08002b32,08002c28
ram:08002e38    48030020        undefined4  20000348h                               
                            DAT_08002e3c:                 ;XREF[3,0]:   08002b3a,08002bf6,08002c3c
ram:08002e3c    78030020        undefined4  20000378h                               
                            DAT_08002e40:                 ;XREF[2,0]:   08002b6e,08002c60
ram:08002e40    a2010020        undefined4  200001A2h                               
                            DAT_08002e44:                 ;XREF[8,0]:   08002b7a,08002b84,08002c62,08002c86
                                                          ;             08002ca2,08002dc8,08002dda,08002e0a
ram:08002e44    8e010020        undefined4  2000018Eh                               
                            DAT_08002e48:                 ;XREF[3,0]:   08002b90,08002cc0,08002db4
ram:08002e48    9e010020        undefined4  2000019Eh                               
                            DAT_08002e4c:                 ;XREF[3,0]:   08002ba2,08002be4,08002c02
ram:08002e4c    e8020020        undefined4  200002E8h                               
                            DAT_08002e50:                 ;XREF[2,0]:   08002bc2,08002c0a
ram:08002e50    f8020020        undefined4  200002F8h                               
                            DAT_08002e54:                 ;XREF[2,0]:   08002bd2,08002c40
ram:08002e54    58030020        undefined4  20000358h                               
                            DAT_08002e58:                 ;XREF[2,0]:   08002bd8,08002bf2
ram:08002e58    38030020        undefined4  20000338h                               
                            DAT_08002e5c:                 ;XREF[2,0]:   08002bec,08002c4e
ram:08002e5c    68030020        undefined4  20000368h                               
                            DAT_08002e60:                 ;XREF[2,0]:   08002c88,08002ca4
ram:08002e60    36000000        undefined4  00000036h                               
                            DAT_08002e64:                 ;XREF[2,0]:   08002c90,08002cac
ram:08002e64    80010020        undefined4  20000180h                               
                            DAT_08002e68:                 ;XREF[2,0]:   08002c92,08002cae
ram:08002e68    34000000        undefined4  00000034h                               
                            DAT_08002e6c:                 ;XREF[1,0]:   08002cba
ram:08002e6c    aa010020        undefined4  200001AAh                               
                            DAT_08002e70:                 ;XREF[3,0]:   08002cbc,08002dae,08002de2
ram:08002e70    81010020        undefined4  20000181h                               
                            DAT_08002e74:                 ;XREF[1,0]:   08002d8a
ram:08002e74    78010020        undefined4  20000178h                               
                            DAT_08002e78:                 ;XREF[2,0]:   08002dc4,08002df2
ram:08002e78    2a000000        undefined4  0000002Ah                               
                            DAT_08002e7c:                 ;XREF[1,0]:   08002dfa
ram:08002e7c    b0010020        undefined4  200001B0h                               
                            LAB_08002e80:                 ;XREF[4,0]:   08002d92,08002d9a,08002da2,08002dac
ram:08002e80    4ce0            b           LAB_08002f1c                            
                            LAB_08002e82:                 ;XREF[1,0]:   08002df0
ram:08002e82    72b6            cpsid       i                                       
ram:08002e84    0021            movs        r1,#0x0                                 
ram:08002e86    2f4a            ldr         r2,[DAT_08002f44]                       ;= 2000018Eh
ram:08002e88    1152            strh        r1,[r2,r0]=>DAT_2000018e                
ram:08002e8a    62b6            cpsie       i                                       
                            LAB_08002e8c:                 ;XREF[4,0]:   08002de6,08002dee,08002e06,08002e12
ram:08002e8c    2e48            ldr         r0,[DAT_08002f48]                       ;= 2000019Eh
ram:08002e8e    005d            ldrb        r0,[r0,r4]=>DAT_2000019e                
ram:08002e90    0228            cmp         r0,#0x2                                 
ram:08002e92    02d0            beq         LAB_08002e9a                            
ram:08002e94    0528            cmp         r0,#0x5                                 
ram:08002e96    49d1            bne         LAB_08002f2c                            
ram:08002e98    20e0            b           LAB_08002edc                            
                            LAB_08002e9a:                 ;XREF[1,0]:   08002e92
ram:08002e9a    002c            cmp         r4,#0x0                                 
ram:08002e9c    06d0            beq         LAB_08002eac                            
ram:08002e9e    012c            cmp         r4,#0x1                                 
ram:08002ea0    0ad0            beq         LAB_08002eb8                            
ram:08002ea2    022c            cmp         r4,#0x2                                 
ram:08002ea4    0ed0            beq         LAB_08002ec4                            
ram:08002ea6    032c            cmp         r4,#0x3                                 
ram:08002ea8    12d0            beq         LAB_08002ed0                            
ram:08002eaa    3fe0            b           LAB_08002f2c                            
                            LAB_08002eac:                 ;XREF[1,0]:   08002e9c
ram:08002eac    2749            ldr         r1,[DAT_08002f4c]                       ;= 20000180h
ram:08002eae    1122            movs        r2,#0x11                                
ram:08002eb0    0878            ldrb        r0,[r1,#0x0]=>DAT_20000180              
ram:08002eb2    1043            orrs        r0,r2                                   
ram:08002eb4    0870            strb        r0,[r1,#0x0]=>DAT_20000180              
ram:08002eb6    39e0            b           LAB_08002f2c                            
                            LAB_08002eb8:                 ;XREF[1,0]:   08002ea0
ram:08002eb8    2449            ldr         r1,[DAT_08002f4c]                       ;= 20000180h
ram:08002eba    2222            movs        r2,#0x22                                
ram:08002ebc    0878            ldrb        r0,[r1,#0x0]=>DAT_20000180              
ram:08002ebe    1043            orrs        r0,r2                                   
ram:08002ec0    0870            strb        r0,[r1,#0x0]=>DAT_20000180              
ram:08002ec2    33e0            b           LAB_08002f2c                            
                            LAB_08002ec4:                 ;XREF[1,0]:   08002ea4
ram:08002ec4    2149            ldr         r1,[DAT_08002f4c]                       ;= 20000180h
ram:08002ec6    4422            movs        r2,#0x44                                
ram:08002ec8    0878            ldrb        r0,[r1,#0x0]=>DAT_20000180              
ram:08002eca    1043            orrs        r0,r2                                   
ram:08002ecc    0870            strb        r0,[r1,#0x0]=>DAT_20000180              
ram:08002ece    2de0            b           LAB_08002f2c                            
                            LAB_08002ed0:                 ;XREF[1,0]:   08002ea8
ram:08002ed0    1e49            ldr         r1,[DAT_08002f4c]                       ;= 20000180h
ram:08002ed2    8822            movs        r2,#0x88                                
ram:08002ed4    0878            ldrb        r0,[r1,#0x0]=>DAT_20000180              
ram:08002ed6    1043            orrs        r0,r2                                   
ram:08002ed8    0870            strb        r0,[r1,#0x0]=>DAT_20000180              
ram:08002eda    27e0            b           LAB_08002f2c                            
                            LAB_08002edc:                 ;XREF[1,0]:   08002e98
ram:08002edc    002c            cmp         r4,#0x0                                 
ram:08002ede    06d0            beq         LAB_08002eee                            
ram:08002ee0    012c            cmp         r4,#0x1                                 
ram:08002ee2    0cd0            beq         LAB_08002efe                            
ram:08002ee4    022c            cmp         r4,#0x2                                 
ram:08002ee6    12d0            beq         LAB_08002f0e                            
ram:08002ee8    032c            cmp         r4,#0x3                                 
ram:08002eea    18d0            beq         LAB_08002f1e                            
ram:08002eec    1ee0            b           LAB_08002f2c                            
                            LAB_08002eee:                 ;XREF[1,0]:   08002ede
ram:08002eee    1749            ldr         r1,[DAT_08002f4c]                       ;= 20000180h
ram:08002ef0    1022            movs        r2,#0x10                                
ram:08002ef2    0878            ldrb        r0,[r1,#0x0]=>DAT_20000180              
ram:08002ef4    4008            lsrs        r0,r0,#0x1                              
ram:08002ef6    4000            lsls        r0,r0,#0x1                              
ram:08002ef8    1043            orrs        r0,r2                                   
ram:08002efa    0870            strb        r0,[r1,#0x0]=>DAT_20000180              
ram:08002efc    16e0            b           LAB_08002f2c                            
                            LAB_08002efe:                 ;XREF[1,0]:   08002ee2
ram:08002efe    1349            ldr         r1,[DAT_08002f4c]                       ;= 20000180h
ram:08002f00    fd22            movs        r2,#0xfd                                
ram:08002f02    0878            ldrb        r0,[r1,#0x0]=>DAT_20000180              
ram:08002f04    1040            ands        r0,r2                                   
ram:08002f06    2022            movs        r2,#0x20                                
ram:08002f08    1043            orrs        r0,r2                                   
ram:08002f0a    0870            strb        r0,[r1,#0x0]=>DAT_20000180              
ram:08002f0c    0ee0            b           LAB_08002f2c                            
                            LAB_08002f0e:                 ;XREF[1,0]:   08002ee6
ram:08002f0e    0f49            ldr         r1,[DAT_08002f4c]                       ;= 20000180h
ram:08002f10    fb22            movs        r2,#0xfb                                
ram:08002f12    0878            ldrb        r0,[r1,#0x0]=>DAT_20000180              
ram:08002f14    1040            ands        r0,r2                                   
ram:08002f16    4022            movs        r2,#0x40                                
ram:08002f18    1043            orrs        r0,r2                                   
ram:08002f1a    0870            strb        r0,[r1,#0x0]=>DAT_20000180              
                            LAB_08002f1c:                 ;XREF[1,0]:   08002e80
ram:08002f1c    06e0            b           LAB_08002f2c                            
                            LAB_08002f1e:                 ;XREF[1,0]:   08002eea
ram:08002f1e    0b49            ldr         r1,[DAT_08002f4c]                       ;= 20000180h
ram:08002f20    f722            movs        r2,#0xf7                                
ram:08002f22    0878            ldrb        r0,[r1,#0x0]=>DAT_20000180              
ram:08002f24    1040            ands        r0,r2                                   
ram:08002f26    8022            movs        r2,#0x80                                
ram:08002f28    1043            orrs        r0,r2                                   
ram:08002f2a    0870            strb        r0,[r1,#0x0]=>DAT_20000180              
                            LAB_08002f2c:                 ;XREF[10,0]:  08002e96,08002eaa,08002eb6,08002ec2
                                                          ;             08002ece,08002eda,08002eec,08002efc
                                                          ;             08002f0c,08002f1c
ram:08002f2c    641c            adds        r4,r4,#0x1                              
ram:08002f2e    e4b2            uxtb        r4,r4                                   
ram:08002f30    042c            cmp         r4,#0x4                                 
ram:08002f32    00d2            bcs         LAB_08002f36                            
ram:08002f34    2be7            b           LAB_08002d8e                            
                            LAB_08002f36:                 ;XREF[1,0]:   08002f32
ram:08002f36    f8bd            pop         {r3,r4,r5,r6,r7,pc}                     
                            ;************************************************************************************************
                            ;*                                           FUNCTION                                           *
                            ;************************************************************************************************
                            ;int FUN_08002f38(int param_1)
          ;param_1       int                 r0                      
                                                          ;XREF[20,0]:  08000da2,08000db0,08000dbe,08000dca
                                                          ;             0800123c,08001244,08001414,0800142e
                                                          ;             08001448,08001462,0800196e,08001982
                                                          ;             080019c6,080019de,08001bda,08001bea
                                                          ;             08001bf4,08001bfe,08001f16,08001f30
ram:08002f38    72b6            cpsid       i                                       
ram:08002f3a    4000            lsls        param_1,param_1,#0x1                    
ram:08002f3c    0149            ldr         r1,[DAT_08002f44]                       ;= 2000018Eh
ram:08002f3e    085e            ldrsh       param_1,[r1,param_1]                    
ram:08002f40    62b6            cpsie       i                                       
ram:08002f42    7047            bx          lr                                      
                            DAT_08002f44:                 ;XREF[2,0]:   08002e86,08002f3c
ram:08002f44    8e010020        undefined4  2000018Eh                               
                            DAT_08002f48:                 ;XREF[1,0]:   08002e8c
ram:08002f48    9e010020        undefined4  2000019Eh                               
                            DAT_08002f4c:                 ;XREF[8,0]:   08002eac,08002eb8,08002ec4,08002ed0
                                                          ;             08002eee,08002efe,08002f0e,08002f1e
ram:08002f4c    80010020        undefined4  20000180h                               
                            ;************************************************************************************************
                            ;*                                           FUNCTION                                           *
                            ;************************************************************************************************
                            ;undefined FUN_08002f52(void)
                                                          ;XREF[3,0]:   08003048,08003082,080030b8
ram:08002f52    f8b5            push        {r3,r4,r5,r6,r7,lr}                     
ram:08002f54    0024            movs        r4,#0x0                                 
ram:08002f56    594f            ldr         r7,[DAT_080030bc]                       ;= 20000181h
ram:08002f58    594d            ldr         r5,[DAT_080030c0]                       ;= 2000019Eh
ram:08002f5a    2646            mov         r6,r4                                   
                            LAB_08002f5c:                 ;XREF[1,0]:   08002fc8
                                                          ; FWD[2,0]:   2000019e,2000019f
ram:08002f5c    285d            ldrb        r0,[r5,r4]=>DAT_2000019e                
ram:08002f5e    0928            cmp         r0,#0x9                                 
ram:08002f60    15d2            bcs         switchD_08002f6a::caseD_0               
ram:08002f62    0100            movs        r1,r0                                   
ram:08002f64    7944            add         r1,pc                                   
ram:08002f66    0979            ldrb        r1,[r1,#0x4]=>switchD_08002f6a::switc...;= 10h
ram:08002f68    4918            adds        r1,r1,r1                                
                            switchD:                      ; FWD[4,0]:   08002f76,08002f8e,08002fa2,08002fb2
ram:08002f6a    8f44            add         pc,r1                                   
                            switchdataD_08002f6c:         ;XREF[1,0]:   08002f66
ram:08002f6c    10              db          10h                                     
ram:08002f6d    04              db          4h                                      
ram:08002f6e    1a              db          1Ah                                     
ram:08002f6f    10              db          10h                                     
ram:08002f70    10              db          10h                                     
ram:08002f71    22              db          22h                                     
ram:08002f72    04              db          4h                                      
ram:08002f73    10              db          10h                                     
ram:08002f74    04              db          4h                                      
                            caseD_6:                      ;XREF[1,0]:   08002f6a
                            caseD_8:                      
                            caseD_1:                      
ram:08002f76    0021            movs        r1,#0x0                                 
ram:08002f78    e0b2            uxtb        r0,r4                                   
ram:08002f7a    c943            mvns        r1,r1                                   
ram:08002f7c    fff7d6fb        bl          FUN_0800272c                            ;undefined FUN_0800272c(uint param_1,...
ram:08002f80    0021            movs        r1,#0x0                                 
ram:08002f82    e0b2            uxtb        r0,r4                                   
ram:08002f84    c943            mvns        r1,r1                                   
ram:08002f86    fff7bbfb        bl          FUN_08002700                            ;undefined FUN_08002700(uint param_1,...
ram:08002f8a    3e55            strb        r6,[r7,r4]=>DAT_20000181                
ram:08002f8c    1ae0            b           LAB_08002fc4                            
                            caseD_3:                      ;XREF[2,0]:   08002f60,08002f6a
                            caseD_4:                      
                            caseD_7:                      
                            caseD_0:                      
ram:08002f8e    e0b2            uxtb        r0,r4                                   
ram:08002f90    0021            movs        r1,#0x0                                 
ram:08002f92    fff7cbfb        bl          FUN_0800272c                            ;undefined FUN_0800272c(uint param_1,...
ram:08002f96    e0b2            uxtb        r0,r4                                   
ram:08002f98    0021            movs        r1,#0x0                                 
ram:08002f9a    fff7b1fb        bl          FUN_08002700                            ;undefined FUN_08002700(uint param_1,...
ram:08002f9e    3e55            strb        r6,[r7,r4]=>DAT_20000181                
ram:08002fa0    10e0            b           LAB_08002fc4                            
                            caseD_2:                      ;XREF[1,0]:   08002f6a
ram:08002fa2    e0b2            uxtb        r0,r4                                   
ram:08002fa4    0021            movs        r1,#0x0                                 
ram:08002fa6    fff7c1fb        bl          FUN_0800272c                            ;undefined FUN_0800272c(uint param_1,...
ram:08002faa    0021            movs        r1,#0x0                                 
ram:08002fac    e0b2            uxtb        r0,r4                                   
ram:08002fae    c943            mvns        r1,r1                                   
ram:08002fb0    06e0            b           LAB_08002fc0                            
                            caseD_5:                      ;XREF[1,0]:   08002f6a
ram:08002fb2    0021            movs        r1,#0x0                                 
ram:08002fb4    e0b2            uxtb        r0,r4                                   
ram:08002fb6    c943            mvns        r1,r1                                   
ram:08002fb8    fff7b8fb        bl          FUN_0800272c                            ;undefined FUN_0800272c(uint param_1,...
ram:08002fbc    e0b2            uxtb        r0,r4                                   
ram:08002fbe    0021            movs        r1,#0x0                                 
                            LAB_08002fc0:                 ;XREF[1,0]:   08002fb0
ram:08002fc0    fff79efb        bl          FUN_08002700                            ;undefined FUN_08002700(uint param_1,...
                            LAB_08002fc4:                 ;XREF[2,0]:   08002f8c,08002fa0
ram:08002fc4    641c            adds        r4,r4,#0x1                              
ram:08002fc6    042c            cmp         r4,#0x4                                 
ram:08002fc8    c8d3            bcc         LAB_08002f5c                            
ram:08002fca    0320            movs        r0,#0x3                                 
                            LAB_08002fcc:                 ;XREF[1,0]:   08002fdc
                                                          ; FWD[2,0]:   200001a0,200001a1
ram:08002fcc    295c            ldrb        r1,[r5,r0]=>DAT_200001a1                
ram:08002fce    0029            cmp         r1,#0x0                                 
ram:08002fd0    03d0            beq         LAB_08002fda                            
ram:08002fd2    401c            adds        r0,r0,#0x1                              
ram:08002fd4    03d0            beq         LAB_08002fde                            
ram:08002fd6    8020            movs        r0,#0x80                                
ram:08002fd8    03e0            b           LAB_08002fe2                            
                            LAB_08002fda:                 ;XREF[1,0]:   08002fd0
ram:08002fda    401e            subs        r0,r0,#0x1                              
ram:08002fdc    f6d2            bcs         LAB_08002fcc                            
                            LAB_08002fde:                 ;XREF[1,0]:   08002fd4
ram:08002fde    0120            movs        r0,#0x1                                 
ram:08002fe0    c005            lsls        r0,r0,#0x17                             
                            LAB_08002fe2:                 ;XREF[1,0]:   08002fd8
ram:08002fe2    3849            ldr         r1,[DAT_080030c4]                       ;= 48001400h
ram:08002fe4    8861            str         r0,[r1,#offset DAT_48001418 &0xff]      
ram:08002fe6    f8bd            pop         {r3,r4,r5,r6,r7,pc}                     
                            ;************************************************************************************************
                            ;*                                           FUNCTION                                           *
                            ;************************************************************************************************
                            ;undefined FUN_08002fe8(void)
                                                          ;XREF[1,0]:   08004ee0
ram:08002fe8    f8b5            push        {r3,r4,r5,r6,r7,lr}                     
ram:08002fea    374f            ldr         r7,[DAT_080030c8]                       ;= 200001AAh
ram:08002fec    344e            ldr         r6,[DAT_080030c0]                       ;= 2000019Eh
ram:08002fee    0024            movs        r4,#0x0                                 
                            LAB_08002ff0:                 ;XREF[1,0]:   08003046
                                                          ; FWD[2,0]:   200001aa,200001ab
ram:08002ff0    385d            ldrb        r0,[r7,r4]=>DAT_200001aa                
ram:08002ff2    0028            cmp         r0,#0x0                                 
ram:08002ff4    01d0            beq         LAB_08002ffa                            
ram:08002ff6    401e            subs        r0,r0,#0x1                              
ram:08002ff8    3855            strb        r0,[r7,r4]=>DAT_200001aa                
                            LAB_08002ffa:                 ;XREF[1,0]:   08002ff4
ram:08002ffa    3448            ldr         r0,[DAT_080030cc]                       ;= 200001A6h
ram:08002ffc    355d            ldrb        r5,[r6,r4]=>DAT_2000019e                
ram:08002ffe    015d            ldrb        r1,[r0,r4]=>DAT_200001a6                
ram:08003000    0029            cmp         r1,#0x0                                 
ram:08003002    02d0            beq         LAB_0800300a                            
ram:08003004    491e            subs        r1,r1,#0x1                              
ram:08003006    0155            strb        r1,[r0,r4]=>DAT_200001a6                
ram:08003008    15e0            b           LAB_08003036                            
                            LAB_0800300a:                 ;XREF[1,0]:   08003002
ram:0800300a    082d            cmp         r5,#0x8                                 
ram:0800300c    01d9            bls         LAB_08003012                            
ram:0800300e    0025            movs        r5,#0x0                                 
ram:08003010    0ae0            b           LAB_08003028                            
                            LAB_08003012:                 ;XREF[1,0]:   0800300c
ram:08003012    012d            cmp         r5,#0x1                                 
ram:08003014    05d0            beq         LAB_08003022                            
ram:08003016    032d            cmp         r5,#0x3                                 
ram:08003018    03d0            beq         LAB_08003022                            
ram:0800301a    042d            cmp         r5,#0x4                                 
ram:0800301c    01d0            beq         LAB_08003022                            
ram:0800301e    062d            cmp         r5,#0x6                                 
ram:08003020    02d1            bne         LAB_08003028                            
                            LAB_08003022:                 ;XREF[3,0]:   08003014,08003018,0800301c
ram:08003022    2046            mov         r0,r4                                   
ram:08003024    fff7fdfd        bl          FUN_08002c22                            ;undefined FUN_08002c22(int param_1)
                            LAB_08003028:                 ;XREF[2,0]:   08003010,08003020
ram:08003028    2948            ldr         r0,[PTR_DAT_080030d0]                   ;= 080054cf
ram:0800302a    405d            ldrb        r0=>DAT_080054cf,[r0,r5]=>DAT_080054cf  
ram:0800302c    3055            strb        r0,[r6,r4]=>DAT_2000019e                
ram:0800302e    a842            cmp         r0,r5                                   
ram:08003030    01d0            beq         LAB_08003036                            
ram:08003032    5020            movs        r0,#0x50                                
ram:08003034    3855            strb        r0,[r7,r4]=>DAT_200001aa                
                            LAB_08003036:                 ;XREF[2,0]:   08003008,08003030
ram:08003036    305d            ldrb        r0,[r6,r4]=>DAT_2000019e                
ram:08003038    2649            ldr         r1,[PTR_DAT_080030d4]                   ;= 080054d8
ram:0800303a    095c            ldrb        r1=>DAT_080054d8,[r1,r0]                
ram:0800303c    2648            ldr         r0=>DAT_200001a2,[DAT_080030d8]         ;= 200001A2h
ram:0800303e    0155            strb        r1,[r0,r4]=>DAT_200001a2                
ram:08003040    641c            adds        r4,r4,#0x1                              
ram:08003042    e4b2            uxtb        r4,r4                                   
ram:08003044    042c            cmp         r4,#0x4                                 
ram:08003046    d3d3            bcc         LAB_08002ff0                            
ram:08003048    fff783ff        bl          FUN_08002f52                            ;undefined FUN_08002f52(void)
ram:0800304c    f8bd            pop         {r3,r4,r5,r6,r7,pc}                     
                            ;************************************************************************************************
                            ;*                                           FUNCTION                                           *
                            ;************************************************************************************************
                            ;undefined FUN_0800304e(int param_1, int param_2)
          ;param_1       int                 r0                      
          ;param_2       int                 r1                      
                                                          ;XREF[1,0]:   08001eca
ram:0800304e    30b4            push        {r4,r5}                                 
ram:08003050    1b4c            ldr         r4,[DAT_080030c0]                       ;= 2000019Eh
ram:08003052    225c            ldrb        r2,[r4,param_1]=>DAT_2000019e           
ram:08003054    1346            mov         r3,r2                                   
ram:08003056    082a            cmp         r2,#0x8                                 
ram:08003058    00d9            bls         LAB_0800305c                            
ram:0800305a    0022            movs        r2,#0x0                                 
                            LAB_0800305c:                 ;XREF[1,0]:   08003058
ram:0800305c    0029            cmp         param_2,#0x0                            
ram:0800305e    07d0            beq         LAB_08003070                            
ram:08003060    1e49            ldr         param_2,[PTR_DAT_080030dc]              ;= 080054b4
ram:08003062    895c            ldrb        param_2,[param_2,r2]=>DAT_080054b4      ;= 02h
ram:08003064    8a42            cmp         r2,param_2                              
ram:08003066    05d0            beq         LAB_08003074                            
ram:08003068    174d            ldr         r5,[DAT_080030c8]                       ;= 200001AAh
ram:0800306a    5022            movs        r2,#0x50                                
ram:0800306c    2a54            strb        r2,[r5,param_1]=>DAT_200001aa           
ram:0800306e    01e0            b           LAB_08003074                            
                            LAB_08003070:                 ;XREF[1,0]:   0800305e
ram:08003070    1b49            ldr         param_2,[PTR_DAT_080030e0]              ;= 080054bd
ram:08003072    895c            ldrb        param_2,[param_2,r2]=>DAT_080054bd      
                            LAB_08003074:                 ;XREF[2,0]:   08003066,0800306e
ram:08003074    8b42            cmp         r3,param_2                              
ram:08003076    02d0            beq         LAB_0800307e                            
ram:08003078    144b            ldr         r3,[DAT_080030cc]                       ;= 200001A6h
ram:0800307a    1922            movs        r2,#0x19                                
ram:0800307c    1a54            strb        r2,[r3,param_1]                         
                            LAB_0800307e:                 ;XREF[1,0]:   08003076
ram:0800307e    2154            strb        param_2,[r4,param_1]=>DAT_2000019e      
ram:08003080    30bc            pop         {r4,r5}                                 
ram:08003082    66e7            b           FUN_08002f52                            ;undefined FUN_08002f52(void)
                            ;************************************************************************************************
                            ;*                                           FUNCTION                                           *
                            ;************************************************************************************************
                            ;undefined FUN_08003084(int param_1, int param_2)
          ;param_1       int                 r0                      
          ;param_2       int                 r1                      
                                                          ;XREF[2,0]:   08001edc,08001f44
ram:08003084    30b4            push        {r4,r5}                                 
ram:08003086    0e4c            ldr         r4,[DAT_080030c0]                       ;= 2000019Eh
ram:08003088    225c            ldrb        r2,[r4,param_1]                         
ram:0800308a    1346            mov         r3,r2                                   
ram:0800308c    082a            cmp         r2,#0x8                                 
ram:0800308e    00d9            bls         LAB_08003092                            
ram:08003090    0022            movs        r2,#0x0                                 
                            LAB_08003092:                 ;XREF[1,0]:   0800308e
ram:08003092    0029            cmp         param_2,#0x0                            
ram:08003094    07d0            beq         LAB_080030a6                            
ram:08003096    1349            ldr         param_2,[PTR_DAT_080030e4]              ;= 080054c6
ram:08003098    895c            ldrb        param_2,[param_2,r2]=>DAT_080054c6      ;= 05h
ram:0800309a    8a42            cmp         r2,param_2                              
ram:0800309c    05d0            beq         LAB_080030aa                            
ram:0800309e    0a4d            ldr         r5,[DAT_080030c8]                       ;= 200001AAh
ram:080030a0    5022            movs        r2,#0x50                                
ram:080030a2    2a54            strb        r2,[r5,param_1]                         
ram:080030a4    01e0            b           LAB_080030aa                            
                            LAB_080030a6:                 ;XREF[1,0]:   08003094
ram:080030a6    0e49            ldr         param_2,[PTR_DAT_080030e0]              ;= 080054bd
ram:080030a8    895c            ldrb        param_2,[param_2,r2]=>DAT_080054bd      
                            LAB_080030aa:                 ;XREF[2,0]:   0800309c,080030a4
ram:080030aa    8b42            cmp         r3,param_2                              
ram:080030ac    02d0            beq         LAB_080030b4                            
ram:080030ae    074b            ldr         r3,[DAT_080030cc]                       ;= 200001A6h
ram:080030b0    1922            movs        r2,#0x19                                
ram:080030b2    1a54            strb        r2,[r3,param_1]                         
                            LAB_080030b4:                 ;XREF[1,0]:   080030ac
ram:080030b4    2154            strb        param_2,[r4,param_1]                    
ram:080030b6    30bc            pop         {r4,r5}                                 
ram:080030b8    4be7            b           FUN_08002f52                            ;undefined FUN_08002f52(void)
ram:080030ba    0000            movs        r0,r0                                   
                            DAT_080030bc:                 ;XREF[1,0]:   08002f56
ram:080030bc    81010020        undefined4  20000181h                               
                            DAT_080030c0:                 ;XREF[4,0]:   08002f58,08002fec,08003050,08003086
ram:080030c0    9e010020        undefined4  2000019Eh                               
                            DAT_080030c4:                 ;XREF[1,0]:   08002fe2
ram:080030c4    00140048        undefined4  48001400h                               
                            DAT_080030c8:                 ;XREF[3,0]:   08002fea,08003068,0800309e
ram:080030c8    aa010020        undefined4  200001AAh                               
                            DAT_080030cc:                 ;XREF[3,0]:   08002ffa,08003078,080030ae
ram:080030cc    a6010020        undefined4  200001A6h                               
                            PTR_DAT_080030d0:             ;XREF[1,0]:   08003028
ram:080030d0    cf540008        addr        DAT_080054cf                            
                            PTR_DAT_080030d4:             ;XREF[1,0]:   08003038
ram:080030d4    d8540008        addr        DAT_080054d8                            
                            DAT_080030d8:                 ;XREF[1,0]:   0800303c
ram:080030d8    a2010020        undefined4  200001A2h                               
                            PTR_DAT_080030dc:             ;XREF[1,0]:   08003060
ram:080030dc    b4540008        addr        DAT_080054b4                            ;= 02h
                            PTR_DAT_080030e0:             ;XREF[2,0]:   08003070,080030a6
ram:080030e0    bd540008        addr        DAT_080054bd                            
                            PTR_DAT_080030e4:             ;XREF[1,0]:   08003096
ram:080030e4    c6540008        addr        DAT_080054c6                            ;= 05h
                            ;************************************************************************************************
                            ;*                                           FUNCTION                                           *
                            ;************************************************************************************************
                            ;undefined FUN_080030e8(undefined4 param_1)
          ;param_1       undefined4          r0                      
ram:080030e8    70b5            push        {r4,r5,r6,lr}                           
ram:080030ea    7c4c            ldr         r4,[DAT_080032dc]                       ;= 40005400h
ram:080030ec    0546            mov         r5,param_1                              
                            LAB_080030ee:                 ;XREF[1,0]:   080030f8
ram:080030ee    0121            movs        r1,#0x1                                 
ram:080030f0    2046            mov         param_1,r4                              
ram:080030f2    01f0aef9        bl          FUN_08004452                            ;bool FUN_08004452(int param_1, uint ...
ram:080030f6    0028            cmp         param_1,#0x0                            
ram:080030f8    f9d0            beq         LAB_080030ee                            
ram:080030fa    2946            mov         r1,r5                                   
ram:080030fc    2046            mov         param_1,r4                              
ram:080030fe    01f09bf9        bl          FUN_08004438                            ;undefined FUN_08004438(int param_1, ...
ram:08003102    70bd            pop         {r4,r5,r6,pc}                           
                            ;************************************************************************************************
                            ;*                                           FUNCTION                                           *
                            ;************************************************************************************************
                            ;undefined FUN_08003104(uint param_1, uint param_2)
          ;param_1       uint                r0                      
          ;param_2       uint                r1                      
          ;local_18      undefined4         -18                      ;XREF[1,0]:   08003142
          ;local_20      undefined4         -20                      ;XREF[1,0]:   0800313a
                                                          ;XREF[2,0]:   08003178,080031d0
ram:08003104    f3b5            push        {param_1,param_2,r4,r5,r6,r7,lr}        
ram:08003106    0546            mov         r5,param_1                              
ram:08003108    0127            movs        r7,#0x1                                 
ram:0800310a    4005            lsls        param_1,param_1,#0x15                   
ram:0800310c    7f03            lsls        r7,r7,#0xd                              
ram:0800310e    460f            lsrs        r6,param_1,#0x1d                        
ram:08003110    724c            ldr         r4,[DAT_080032dc]                       ;= 40005400h
ram:08003112    81b0            sub         sp,#0x4                                 
ram:08003114    a036            adds        r6,#0xa0                                
                            LAB_08003116:                 ;XREF[2,0]:   08003122,08003168
ram:08003116    0121            movs        param_2,#0x1                            
ram:08003118    c903            lsls        param_2,param_2,#0xf                    
ram:0800311a    2046            mov         param_1,r4                              
ram:0800311c    01f099f9        bl          FUN_08004452                            ;bool FUN_08004452(int param_1, uint ...
ram:08003120    0028            cmp         param_1,#0x0                            
ram:08003122    f8d1            bne         LAB_08003116                            
                            LAB_08003124:                 ;XREF[1,0]:   08003130
ram:08003124    0421            movs        param_2,#0x4                            
ram:08003126    2046            mov         param_1,r4                              
ram:08003128    01f080f9        bl          FUN_0800442c                            ;undefined4 FUN_0800442c(int param_1,...
ram:0800312c    4004            lsls        param_1,param_1,#0x11                   
ram:0800312e    800f            lsrs        param_1,param_1,#0x1e                   
ram:08003130    f8d1            bne         LAB_08003124                            
ram:08003132    3021            movs        param_2,#0x30                           
ram:08003134    2046            mov         param_1,r4                              
ram:08003136    01f093f9        bl          FUN_08004460                            ;undefined FUN_08004460(int param_1, ...
ram:0800313a    0097            str         r7,[sp,#0x0]=>local_20                  
ram:0800313c    0122            movs        r2,#0x1                                 
ram:0800313e    3146            mov         param_2,r6                              
ram:08003140    2046            mov         param_1,r4                              
ram:08003142    029b            ldr         r3,[sp,#local_18+0x20]                  
ram:08003144    01f013f9        bl          FUN_0800436e                            ;undefined FUN_0800436e(int param_1, ...
ram:08003148    e9b2            uxtb        param_2,r5                              
ram:0800314a    2046            mov         param_1,r4                              
ram:0800314c    01f074f9        bl          FUN_08004438                            ;undefined FUN_08004438(int param_1, ...
                            LAB_08003150:                 ;XREF[1,0]:   0800315c
ram:08003150    0421            movs        param_2,#0x4                            
ram:08003152    2046            mov         param_1,r4                              
ram:08003154    01f06af9        bl          FUN_0800442c                            ;undefined4 FUN_0800442c(int param_1,...
ram:08003158    4004            lsls        param_1,param_1,#0x11                   
ram:0800315a    800f            lsrs        param_1,param_1,#0x1e                   
ram:0800315c    f8d1            bne         LAB_08003150                            
ram:0800315e    1021            movs        param_2,#0x10                           
ram:08003160    2046            mov         param_1,r4                              
ram:08003162    01f076f9        bl          FUN_08004452                            ;bool FUN_08004452(int param_1, uint ...
ram:08003166    0028            cmp         param_1,#0x0                            
ram:08003168    d5d1            bne         LAB_08003116                            
ram:0800316a    03b0            add         sp,#0xc                                 
ram:0800316c    f0bd            pop         {r4,r5,r6,r7,pc}                        
                            ;************************************************************************************************
                            ;*                                           FUNCTION                                           *
                            ;************************************************************************************************
                            ;int FUN_0800316e(uint param_1, int param_2, uint param_3)
          ;param_1       uint                r0                      
          ;param_2       int                 r1                      
          ;param_3       uint                r2                      
          ;local_18      undefined4         -18                      ;XREF[1,0]:   0800318e
                                                          ;XREF[13,0]:  080010a2,080011e4,080012c0,080012ce
                                                          ;             080017c0,080017e0,08001808,0800182c
                                                          ;             08001856,08002ca6,08002cb0,08002dfc
                                                          ;             08004cb0
ram:0800316e    f8b5            push        {r3,r4,r5,r6,r7,lr}                     
ram:08003170    0f46            mov         r7,param_2                              
ram:08003172    1546            mov         r5,param_3                              
ram:08003174    0446            mov         r4,param_1                              
ram:08003176    0021            movs        param_2,#0x0                            
ram:08003178    fff7c4ff        bl          FUN_08003104                            ;undefined FUN_08003104(uint param_1,...
ram:0800317c    574e            ldr         r6,[DAT_080032dc]                       ;= 40005400h
                            LAB_0800317e:                 ;XREF[1,0]:   08003188
ram:0800317e    4021            movs        param_2,#0x40                           
ram:08003180    3046            mov         param_1,r6                              
ram:08003182    01f066f9        bl          FUN_08004452                            ;bool FUN_08004452(int param_1, uint ...
ram:08003186    0028            cmp         param_1,#0x0                            
ram:08003188    f9d0            beq         LAB_0800317e                            
ram:0800318a    0920            movs        param_1,#0x9                            
ram:0800318c    8002            lsls        param_1,param_1,#0xa                    
ram:0800318e    0090            str         param_1,[sp,#0x0]=>local_18             
ram:08003190    6005            lsls        param_1,r4,#0x15                        
ram:08003192    410f            lsrs        param_2,param_1,#0x1d                   
ram:08003194    0123            movs        r3,#0x1                                 
ram:08003196    eab2            uxtb        param_3,r5                              
ram:08003198    5b06            lsls        r3,r3,#0x19                             
ram:0800319a    3046            mov         param_1,r6                              
ram:0800319c    a031            adds        param_2,#0xa0                           
ram:0800319e    01f0e6f8        bl          FUN_0800436e                            ;undefined FUN_0800436e(int param_1, ...
ram:080031a2    0024            movs        r4,#0x0                                 
ram:080031a4    002d            cmp         r5,#0x0                                 
ram:080031a6    0cd9            bls         LAB_080031c2                            
                            LAB_080031a8:                 ;XREF[2,0]:   080031b2,080031c0
ram:080031a8    0421            movs        param_2,#0x4                            
ram:080031aa    3046            mov         param_1,r6                              
ram:080031ac    01f051f9        bl          FUN_08004452                            ;bool FUN_08004452(int param_1, uint ...
ram:080031b0    0028            cmp         param_1,#0x0                            
ram:080031b2    f9d0            beq         LAB_080031a8                            
ram:080031b4    3046            mov         param_1,r6                              
ram:080031b6    01f041f9        bl          FUN_0800443c                            ;uint FUN_0800443c(int param_1)
ram:080031ba    3855            strb        param_1,[r7,r4]                         
ram:080031bc    641c            adds        r4,r4,#0x1                              
ram:080031be    ac42            cmp         r4,r5                                   
ram:080031c0    f2d3            bcc         LAB_080031a8                            
                            LAB_080031c2:                 ;XREF[1,0]:   080031a6
ram:080031c2    3846            mov         param_1,r7                              
ram:080031c4    f8bd            pop         {r3,r4,r5,r6,r7,pc}                     
                            ;************************************************************************************************
                            ;*                                           FUNCTION                                           *
                            ;************************************************************************************************
                            ;undefined FUN_080031c6(uint param_1, int param_2, uint param_3)
          ;param_1       uint                r0                      
          ;param_2       int                 r1                      
          ;param_3       uint                r2                      
          ;local_18      undefined4         -18                      ;XREF[4,0]:   080031d6,08003208,0800327e,080032c2
          ;local_1c      undefined4         -1c                      ;XREF[1,0]:   080032a8
          ;local_28      undefined4         -28                      ;XREF[2,0]:   0800321e,08003254
          ;local_2c      undefined4         -2c                      ;XREF[2,0]:   08003228,08003256
          ;local_30      undefined4         -30                      ;XREF[3,0]:   08003202,0800324e,08003294
                                                          ;XREF[16,0]:  0800107e,0800127c,0800128e,080012a0
                                                          ;             080012b2,080013dc,080014aa,080014be
                                                          ;             0800152e,08001632,08001642,08001c76
                                                          ;             08002c8a,08002c94,08002dd0,08004cc8
ram:080031c6    f7b5            push        {param_1,param_2,param_3,r4,r5,r6,r7,lr}
ram:080031c8    0121            movs        param_2,#0x1                            
ram:080031ca    84b0            sub         sp,#0x10                                
ram:080031cc    0446            mov         r4,param_1                              
ram:080031ce    0906            lsls        param_2,param_2,#0x18                   
ram:080031d0    fff798ff        bl          FUN_08003104                            ;undefined FUN_08003104(uint param_1,...
ram:080031d4    6042            rsbs        param_1,r4                              
ram:080031d6    069d            ldr         r5,[sp,#local_18+0x30]                  
ram:080031d8    0007            lsls        param_1,param_1,#0x1c                   
ram:080031da    000f            lsrs        param_1,param_1,#0x1c                   
ram:080031dc    00d1            bne         LAB_080031e0                            
ram:080031de    1020            movs        param_1,#0x10                           
                            LAB_080031e0:                 ;XREF[1,0]:   080031dc
ram:080031e0    8542            cmp         r5,param_1                              
ram:080031e2    76d8            bhi         LAB_080032d2                            
                            LAB_080031e4:                 ;XREF[1,0]:   080032d4
ram:080031e4    3d4f            ldr         r7,[DAT_080032dc]                       ;= 40005400h
                            LAB_080031e6:                 ;XREF[1,0]:   080031f0
ram:080031e6    8021            movs        param_2,#0x80                           
ram:080031e8    3846            mov         param_1,r7                              
ram:080031ea    01f032f9        bl          FUN_08004452                            ;bool FUN_08004452(int param_1, uint ...
ram:080031ee    0028            cmp         param_1,#0x0                            
ram:080031f0    f9d0            beq         LAB_080031e6                            
ram:080031f2    6005            lsls        param_1,r4,#0x15                        
ram:080031f4    410f            lsrs        param_2,param_1,#0x1d                   
ram:080031f6    0026            movs        r6,#0x0                                 
ram:080031f8    0123            movs        r3,#0x1                                 
ram:080031fa    eab2            uxtb        param_3,r5                              
ram:080031fc    5b06            lsls        r3,r3,#0x19                             
ram:080031fe    3846            mov         param_1,r7                              
ram:08003200    a031            adds        param_2,#0xa0                           
ram:08003202    0096            str         r6,[sp,#0x0]=>local_30                  
ram:08003204    01f0b3f8        bl          FUN_0800436e                            ;undefined FUN_0800436e(int param_1, ...
ram:08003208    0698            ldr         param_1,[sp,#local_18+0x30]             
ram:0800320a    0025            movs        r5,#0x0                                 
ram:0800320c    0028            cmp         param_1,#0x0                            
ram:0800320e    5dd9            bls         LAB_080032cc                            
                            LAB_08003210:                 ;XREF[1,0]:   080032ca
ram:08003210    2007            lsls        param_1,r4,#0x1c                        
ram:08003212    49d1            bne         LAB_080032a8                            
ram:08003214    002d            cmp         r5,#0x0                                 
ram:08003216    47d0            beq         LAB_080032a8                            
ram:08003218    0120            movs        param_1,#0x1                            
ram:0800321a    0006            lsls        param_1,param_1,#0x18                   
ram:0800321c    c712            asrs        r7,param_1,#0xb                         
ram:0800321e    0290            str         param_1,[sp,#local_28+0x30]             
ram:08003220    6005            lsls        param_1,r4,#0x15                        
ram:08003222    400f            lsrs        param_1,param_1,#0x1d                   
ram:08003224    2d4e            ldr         r6,[DAT_080032dc]                       ;= 40005400h
ram:08003226    a030            adds        param_1,#0xa0                           
ram:08003228    0190            str         param_1,[sp,#local_2c+0x30]             
                            LAB_0800322a:                 ;XREF[2,0]:   08003236,0800327c
ram:0800322a    0121            movs        param_2,#0x1                            
ram:0800322c    c903            lsls        param_2,param_2,#0xf                    
ram:0800322e    3046            mov         param_1,r6                              
ram:08003230    01f00ff9        bl          FUN_08004452                            ;bool FUN_08004452(int param_1, uint ...
ram:08003234    0028            cmp         param_1,#0x0                            
ram:08003236    f8d1            bne         LAB_0800322a                            
                            LAB_08003238:                 ;XREF[1,0]:   08003244
ram:08003238    0421            movs        param_2,#0x4                            
ram:0800323a    3046            mov         param_1,r6                              
ram:0800323c    01f0f6f8        bl          FUN_0800442c                            ;undefined4 FUN_0800442c(int param_1,...
ram:08003240    4004            lsls        param_1,param_1,#0x11                   
ram:08003242    800f            lsrs        param_1,param_1,#0x1e                   
ram:08003244    f8d1            bne         LAB_08003238                            
ram:08003246    3021            movs        param_2,#0x30                           
ram:08003248    3046            mov         param_1,r6                              
ram:0800324a    01f009f9        bl          FUN_08004460                            ;undefined FUN_08004460(int param_1, ...
ram:0800324e    0097            str         r7,[sp,#0x0]=>local_30                  
ram:08003250    0122            movs        param_3,#0x1                            
ram:08003252    3046            mov         param_1,r6                              
ram:08003254    029b            ldr         r3,[sp,#local_28+0x30]                  
ram:08003256    0199            ldr         param_2,[sp,#local_2c+0x30]             
ram:08003258    01f089f8        bl          FUN_0800436e                            ;undefined FUN_0800436e(int param_1, ...
ram:0800325c    e1b2            uxtb        param_2,r4                              
ram:0800325e    3046            mov         param_1,r6                              
ram:08003260    01f0eaf8        bl          FUN_08004438                            ;undefined FUN_08004438(int param_1, ...
                            LAB_08003264:                 ;XREF[1,0]:   08003270
ram:08003264    0421            movs        param_2,#0x4                            
ram:08003266    3046            mov         param_1,r6                              
ram:08003268    01f0e0f8        bl          FUN_0800442c                            ;undefined4 FUN_0800442c(int param_1,...
ram:0800326c    4004            lsls        param_1,param_1,#0x11                   
ram:0800326e    800f            lsrs        param_1,param_1,#0x1e                   
ram:08003270    f8d1            bne         LAB_08003264                            
ram:08003272    1021            movs        param_2,#0x10                           
ram:08003274    3046            mov         param_1,r6                              
ram:08003276    01f0ecf8        bl          FUN_08004452                            ;bool FUN_08004452(int param_1, uint ...
ram:0800327a    0028            cmp         param_1,#0x0                            
ram:0800327c    d5d1            bne         LAB_0800322a                            
ram:0800327e    0698            ldr         param_1,[sp,#local_18+0x30]             
ram:08003280    471b            subs        r7,param_1,r5                           
ram:08003282    102f            cmp         r7,#0x10                                
ram:08003284    27d8            bhi         LAB_080032d6                            
                            LAB_08003286:                 ;XREF[2,0]:   08003290,080032d8
ram:08003286    8021            movs        param_2,#0x80                           
ram:08003288    3046            mov         param_1,r6                              
ram:0800328a    01f0e2f8        bl          FUN_08004452                            ;bool FUN_08004452(int param_1, uint ...
ram:0800328e    0028            cmp         param_1,#0x0                            
ram:08003290    f9d0            beq         LAB_08003286                            
ram:08003292    0020            movs        param_1,#0x0                            
ram:08003294    0090            str         param_1,[sp,#0x0]=>local_30             
ram:08003296    6005            lsls        param_1,r4,#0x15                        
ram:08003298    410f            lsrs        param_2,param_1,#0x1d                   
ram:0800329a    0123            movs        r3,#0x1                                 
ram:0800329c    fab2            uxtb        param_3,r7                              
ram:0800329e    5b06            lsls        r3,r3,#0x19                             
ram:080032a0    3046            mov         param_1,r6                              
ram:080032a2    a031            adds        param_2,#0xa0                           
ram:080032a4    01f063f8        bl          FUN_0800436e                            ;undefined FUN_0800436e(int param_1, ...
                            LAB_080032a8:                 ;XREF[2,0]:   08003212,08003216
ram:080032a8    0598            ldr         param_1,[sp,#local_1c+0x30]             
ram:080032aa    0c4f            ldr         r7,[DAT_080032dc]                       ;= 40005400h
ram:080032ac    465d            ldrb        r6,[param_1,r5]                         
                            LAB_080032ae:                 ;XREF[1,0]:   080032b8
ram:080032ae    0121            movs        param_2,#0x1                            
ram:080032b0    3846            mov         param_1,r7                              
ram:080032b2    01f0cef8        bl          FUN_08004452                            ;bool FUN_08004452(int param_1, uint ...
ram:080032b6    0028            cmp         param_1,#0x0                            
ram:080032b8    f9d0            beq         LAB_080032ae                            
ram:080032ba    3146            mov         param_2,r6                              
ram:080032bc    3846            mov         param_1,r7                              
ram:080032be    01f0bbf8        bl          FUN_08004438                            ;undefined FUN_08004438(int param_1, ...
ram:080032c2    0698            ldr         param_1,[sp,#local_18+0x30]             
ram:080032c4    641c            adds        r4,r4,#0x1                              
ram:080032c6    6d1c            adds        r5,r5,#0x1                              
ram:080032c8    8542            cmp         r5,param_1                              
ram:080032ca    a1d3            bcc         LAB_08003210                            
                            LAB_080032cc:                 ;XREF[1,0]:   0800320e
ram:080032cc    07b0            add         sp,#0x1c                                
ram:080032ce    f0bd            pop         {r4,r5,r6,r7,pc}                        
ram:080032d0    ffe7            b           LAB_080032d2                            
                            LAB_080032d2:                 ;XREF[2,0]:   080031e2,080032d0
ram:080032d2    0546            mov         r5,param_1                              
ram:080032d4    86e7            b           LAB_080031e4                            
                            LAB_080032d6:                 ;XREF[1,0]:   08003284
ram:080032d6    1027            movs        r7,#0x10                                
ram:080032d8    d5e7            b           LAB_08003286                            
ram:080032da    0000            movs        r0,r0                                   
                            DAT_080032dc:                 ;XREF[6,0]:   080030ea,08003110,0800317c,080031e4
                                                          ;             08003224,080032aa
ram:080032dc    00540040        undefined4  40005400h                               
                            ;************************************************************************************************
                            ;*                                           FUNCTION                                           *
                            ;************************************************************************************************
                            ;undefined FUN_080032e0(void)
                                                          ;XREF[1,0]:   08004d7e
ram:080032e0    6b48            ldr         r0=>DAT_200001b8,[DAT_08003490]         ;= 200001B8h
ram:080032e2    0168            ldr         r1,[r0,#0x0]=>DAT_200001b8              
ram:080032e4    0129            cmp         r1,#0x1                                 
ram:080032e6    01d9            bls         LAB_080032ec                            
ram:080032e8    491e            subs        r1,r1,#0x1                              
ram:080032ea    0160            str         r1,[r0,#0x0]=>DAT_200001b8              
                            LAB_080032ec:                 ;XREF[1,0]:   080032e6
ram:080032ec    4168            ldr         r1,[r0,#0x4]=>DAT_200001bc              
ram:080032ee    0029            cmp         r1,#0x0                                 
ram:080032f0    01d0            beq         LAB_080032f6                            
ram:080032f2    491e            subs        r1,r1,#0x1                              
ram:080032f4    4160            str         r1,[r0,#0x4]=>DAT_200001bc              
                            LAB_080032f6:                 ;XREF[1,0]:   080032f0
ram:080032f6    8168            ldr         r1,[r0,#0x8]=>DAT_200001c0              
ram:080032f8    0029            cmp         r1,#0x0                                 
ram:080032fa    01d0            beq         LAB_08003300                            
ram:080032fc    491e            subs        r1,r1,#0x1                              
ram:080032fe    8160            str         r1,[r0,#0x8]=>DAT_200001c0              
                            LAB_08003300:                 ;XREF[1,0]:   080032fa
ram:08003300    c168            ldr         r1,[r0,#0xc]=>DAT_200001c4              
ram:08003302    0029            cmp         r1,#0x0                                 
ram:08003304    01d0            beq         LAB_0800330a                            
ram:08003306    491e            subs        r1,r1,#0x1                              
ram:08003308    c160            str         r1,[r0,#0xc]=>DAT_200001c4              
                            LAB_0800330a:                 ;XREF[1,0]:   08003304
ram:0800330a    0169            ldr         r1,[r0,#0x10]=>DAT_200001c8             
ram:0800330c    0029            cmp         r1,#0x0                                 
ram:0800330e    01d0            beq         LAB_08003314                            
ram:08003310    491e            subs        r1,r1,#0x1                              
ram:08003312    0161            str         r1,[r0,#0x10]=>DAT_200001c8             
                            LAB_08003314:                 ;XREF[1,0]:   0800330e
ram:08003314    7047            bx          lr                                      
                            ;************************************************************************************************
                            ;*                                           FUNCTION                                           *
                            ;************************************************************************************************
                            ;undefined FUN_08003316(void)
ram:08003316    10b5            push        {r4,lr}                                 
ram:08003318    5d4c            ldr         r4,[DAT_08003490]                       ;= 200001B8h
ram:0800331a    a068            ldr         r0,[r4,#0x8]=>DAT_200001c0              
ram:0800331c    0028            cmp         r0,#0x0                                 
ram:0800331e    03d1            bne         LAB_08003328                            
ram:08003320    fff7d2f9        bl          FUN_080026c8                            ;undefined FUN_080026c8(void)
ram:08003324    c820            movs        r0,#0xc8                                
ram:08003326    a060            str         r0,[r4,#0x8]=>DAT_200001c0              
                            LAB_08003328:                 ;XREF[1,0]:   0800331e
ram:08003328    10bd            pop         {r4,pc}                                 
ram:0800332a    5a48            ldr         r0=>DAT_48000800,[DAT_08003494]         ;= 48000800h
ram:0800332c    818a            ldrh        r1,[r0,#offset DAT_48000814 &0xff]      
ram:0800332e    4904            lsls        r1,r1,#0x11                             
ram:08003330    04d4            bmi         FUN_0800333c                            
ram:08003332    574a            ldr         r2,[DAT_08003490]                       ;= 200001B8h
ram:08003334    0221            movs        r1,#0x2                                 
ram:08003336    1161            str         r1,[r2,#0x10]=>DAT_200001c8             
ram:08003338    4903            lsls        r1,r1,#0xd                              
ram:0800333a    8161            str         r1,[r0,#offset DAT_48000818 &0xff]      
                            ;************************************************************************************************
                            ;*                                           FUNCTION                                           *
                            ;************************************************************************************************
                            ;undefined FUN_0800333c(void)
                                                          ;XREF[1,0]:   08003330
ram:0800333c    7047            bx          lr                                      
                            ;************************************************************************************************
                            ;*                                           FUNCTION                                           *
                            ;************************************************************************************************
                            ;undefined FUN_0800333e(void)
                                                          ;XREF[1,0]:   08000f0e
ram:0800333e    5548            ldr         r0,[DAT_08003494]                       ;= 48000800h
ram:08003340    818a            ldrh        r1,[r0,#offset DAT_48000814 &0xff]      
ram:08003342    8904            lsls        r1,r1,#0x12                             
ram:08003344    04d4            bmi         LAB_08003350                            
ram:08003346    524a            ldr         r2,[DAT_08003490]                       ;= 200001B8h
ram:08003348    0221            movs        r1,#0x2                                 
ram:0800334a    d160            str         r1,[r2,#0xc]=>DAT_200001c4              
ram:0800334c    0903            lsls        r1,r1,#0xc                              
ram:0800334e    8161            str         r1,[r0,#offset DAT_48000818 &0xff]      
                            LAB_08003350:                 ;XREF[1,0]:   08003344
ram:08003350    7047            bx          lr                                      
ram:08003352    4f48            ldr         r0,[DAT_08003490]                       ;= 200001B8h
ram:08003354    c068            ldr         r0,[r0,#0xc]=>DAT_200001c4              
ram:08003356    0028            cmp         r0,#0x0                                 
ram:08003358    09d1            bne         FUN_0800336e                            
ram:0800335a    4e48            ldr         r0,[DAT_08003494]                       ;= 48000800h
ram:0800335c    018a            ldrh        r1,[r0,#offset DAT_48000810 &0xff]      
ram:0800335e    8904            lsls        r1,r1,#0x12                             
ram:08003360    05d4            bmi         FUN_0800336e                            
ram:08003362    808a            ldrh        r0,[r0,#offset DAT_48000814 &0xff]      
ram:08003364    8004            lsls        r0,r0,#0x12                             
ram:08003366    02d5            bpl         FUN_0800336e                            
ram:08003368    0020            movs        r0,#0x0                                 
ram:0800336a    c043            mvns        r0,r0                                   
ram:0800336c    7047            bx          lr                                      
                            ;************************************************************************************************
                            ;*                                           FUNCTION                                           *
                            ;************************************************************************************************
                            ;undefined4 FUN_0800336e(void)
                                                          ;XREF[3,0]:   08003358,08003360,08003366
ram:0800336e    0020            movs        r0,#0x0                                 
ram:08003370    7047            bx          lr                                      
ram:08003372    4748            ldr         r0,[DAT_08003490]                       ;= 200001B8h
ram:08003374    0069            ldr         r0,[r0,#0x10]=>DAT_200001c8             
ram:08003376    0028            cmp         r0,#0x0                                 
ram:08003378    09d1            bne         FUN_0800338e                            
ram:0800337a    4648            ldr         r0,[DAT_08003494]                       ;= 48000800h
ram:0800337c    018a            ldrh        r1,[r0,#offset DAT_48000810 &0xff]      
ram:0800337e    4904            lsls        r1,r1,#0x11                             
ram:08003380    05d4            bmi         FUN_0800338e                            
ram:08003382    808a            ldrh        r0,[r0,#offset DAT_48000814 &0xff]      
ram:08003384    4004            lsls        r0,r0,#0x11                             
ram:08003386    02d5            bpl         FUN_0800338e                            
ram:08003388    0020            movs        r0,#0x0                                 
ram:0800338a    c043            mvns        r0,r0                                   
ram:0800338c    7047            bx          lr                                      
                            ;************************************************************************************************
                            ;*                                           FUNCTION                                           *
                            ;************************************************************************************************
                            ;undefined4 FUN_0800338e(void)
                                                          ;XREF[3,0]:   08003378,08003380,08003386
ram:0800338e    0020            movs        r0,#0x0                                 
ram:08003390    7047            bx          lr                                      
                            ;************************************************************************************************
                            ;*                                           FUNCTION                                           *
                            ;************************************************************************************************
                            ;undefined FUN_08003392(undefined4 param_1)
          ;param_1       undefined4          r0                      
                                                          ;XREF[5,0]:   08000e84,08000f14,08001022,08004c90
                                                          ;             08004dac
ram:08003392    3f49            ldr         r1,[DAT_08003490]                       ;= 200001B8h
ram:08003394    0860            str         param_1,[r1,#0x0]=>DAT_200001b8         
ram:08003396    7047            bx          lr                                      
ram:08003398    3f48            ldr         r0,[DAT_08003498]                       ;= 20000388h
ram:0800339a    4078            ldrb        r0,[r0,#0x1]=>DAT_20000389              
ram:0800339c    0728            cmp         r0,#0x7                                 
ram:0800339e    02d1            bne         LAB_080033a6                            
ram:080033a0    3b49            ldr         r1,[DAT_08003490]                       ;= 200001B8h
ram:080033a2    6620            movs        r0,#0x66                                
ram:080033a4    0860            str         r0,[r1,#0x0]=>DAT_200001b8              
                            LAB_080033a6:                 ;XREF[1,0]:   0800339e
ram:080033a6    7047            bx          lr                                      
                            ;************************************************************************************************
                            ;*                                           FUNCTION                                           *
                            ;************************************************************************************************
                            ;undefined FUN_080033a8(void)
                                                          ;XREF[1,0]:   08004cd2
ram:080033a8    70b5            push        {r4,r5,r6,lr}                           
ram:080033aa    3c48            ldr         r0,[DAT_0800349c]                       ;= 40020040h
ram:080033ac    c069            ldr         r0,[r0,#0x1c]=>DAT_4002005c             
ram:080033ae    ff21            movs        r1,#0xff                                
ram:080033b0    0631            adds        r1,#0x6                                 
ram:080033b2    374c            ldr         r4,[DAT_08003490]                       ;= 200001B8h
ram:080033b4    0d1a            subs        r5,r1,r0                                
ram:080033b6    6069            ldr         r0,[r4,#0x14]=>DAT_200001cc             
ram:080033b8    c826            movs        r6,#0xc8                                
ram:080033ba    8542            cmp         r5,r0                                   
ram:080033bc    02d0            beq         LAB_080033c4                            
ram:080033be    0320            movs        r0,#0x3                                 
ram:080033c0    a660            str         r6,[r4,#0x8]=>DAT_200001c0              
ram:080033c2    6060            str         r0,[r4,#0x4]=>DAT_200001bc              
                            LAB_080033c4:                 ;XREF[1,0]:   080033bc
ram:080033c4    fff776f9        bl          FUN_080026b4                            ;undefined4 FUN_080026b4(void)
ram:080033c8    0028            cmp         r0,#0x0                                 
ram:080033ca    00d0            beq         LAB_080033ce                            
ram:080033cc    a660            str         r6,[r4,#0x8]=>DAT_200001c0              
                            LAB_080033ce:                 ;XREF[1,0]:   080033ca
ram:080033ce    6561            str         r5,[r4,#0x14]=>DAT_200001cc             
ram:080033d0    002d            cmp         r5,#0x0                                 
ram:080033d2    20d0            beq         LAB_08003416                            
ram:080033d4    6068            ldr         r0,[r4,#0x4]=>DAT_200001bc              
ram:080033d6    0028            cmp         r0,#0x0                                 
ram:080033d8    01d1            bne         LAB_080033de                            
ram:080033da    fff70bf9        bl          FUN_080025f4                            ;undefined FUN_080025f4(void)
                            LAB_080033de:                 ;XREF[1,0]:   080033d8
ram:080033de    2e4e            ldr         r6,[DAT_08003498]                       ;= 20000388h
ram:080033e0    3078            ldrb        r0,[r6,#0x0]=>DAT_20000388              
ram:080033e2    801d            adds        r0,r0,#0x6                              
ram:080033e4    a842            cmp         r0,r5                                   
ram:080033e6    16d8            bhi         LAB_08003416                            
ram:080033e8    00f05ef8        bl          FUN_080034a8                            ;undefined4 FUN_080034a8(void)
ram:080033ec    3278            ldrb        r2,[r6,#0x0]=>DAT_20000388              
ram:080033ee    2c49            ldr         r1,[DAT_080034a0]                       ;= 2000038Ah
ram:080033f0    5118            adds        r1,r2,r1                                
ram:080033f2    0a46            mov         r2,r1                                   
ram:080033f4    1378            ldrb        r3,[r2,#0x0]=>DAT_2000038a              
ram:080033f6    1946            mov         r1,r3                                   
ram:080033f8    5378            ldrb        r3,[r2,#0x1]=>DAT_2000038b              
ram:080033fa    1b02            lsls        r3,r3,#0x8                              
ram:080033fc    1943            orrs        r1,r3                                   
ram:080033fe    9378            ldrb        r3,[r2,#0x2]=>DAT_2000038c              
ram:08003400    d278            ldrb        r2,[r2,#0x3]=>DAT_2000038d              
ram:08003402    1b04            lsls        r3,r3,#0x10                             
ram:08003404    1943            orrs        r1,r3                                   
ram:08003406    1206            lsls        r2,r2,#0x18                             
ram:08003408    1143            orrs        r1,r2                                   
ram:0800340a    8842            cmp         r0,r1                                   
ram:0800340c    01d1            bne         LAB_08003412                            
ram:0800340e    fdf745fd        bl          FUN_08000e9c                            ;undefined FUN_08000e9c(void)
                            LAB_08003412:                 ;XREF[1,0]:   0800340c
ram:08003412    fff7eff8        bl          FUN_080025f4                            ;undefined FUN_080025f4(void)
                            LAB_08003416:                 ;XREF[2,0]:   080033d2,080033e6
ram:08003416    0122            movs        r2,#0x1                                 
ram:08003418    2369            ldr         r3,[r4,#0x10]=>DAT_200001c8             
ram:0800341a    5203            lsls        r2,r2,#0xd                              
ram:0800341c    0221            movs        r1,#0x2                                 
ram:0800341e    1d48            ldr         r0,[DAT_08003494]                       ;= 48000800h
ram:08003420    002b            cmp         r3,#0x0                                 
ram:08003422    0bd1            bne         LAB_0800343c                            
ram:08003424    038a            ldrh        r3,[r0,#offset DAT_48000810 &0xff]      
ram:08003426    5b04            lsls        r3,r3,#0x11                             
ram:08003428    08d4            bmi         LAB_0800343c                            
ram:0800342a    838a            ldrh        r3,[r0,#offset DAT_48000814 &0xff]      
ram:0800342c    5b04            lsls        r3,r3,#0x11                             
ram:0800342e    05d5            bpl         LAB_0800343c                            
ram:08003430    838a            ldrh        r3,[r0,#offset DAT_48000814 &0xff]      
ram:08003432    9b04            lsls        r3,r3,#0x12                             
ram:08003434    02d4            bmi         LAB_0800343c                            
ram:08003436    e160            str         r1,[r4,#0xc]=>DAT_200001c4              
ram:08003438    8261            str         r2,[r0,#offset DAT_48000818 &0xff]      
ram:0800343a    0ee0            b           LAB_0800345a                            
                            LAB_0800343c:                 ;XREF[4,0]:   08003422,08003428,0800342e,08003434
ram:0800343c    e368            ldr         r3,[r4,#0xc]=>DAT_200001c4              
ram:0800343e    002b            cmp         r3,#0x0                                 
ram:08003440    0bd1            bne         LAB_0800345a                            
ram:08003442    038a            ldrh        r3,[r0,#offset DAT_48000810 &0xff]      
ram:08003444    9b04            lsls        r3,r3,#0x12                             
ram:08003446    08d4            bmi         LAB_0800345a                            
ram:08003448    838a            ldrh        r3,[r0,#offset DAT_48000814 &0xff]      
ram:0800344a    9b04            lsls        r3,r3,#0x12                             
ram:0800344c    05d5            bpl         LAB_0800345a                            
ram:0800344e    0121            movs        r1,#0x1                                 
ram:08003450    8907            lsls        r1,r1,#0x1e                             
ram:08003452    8161            str         r1,[r0,#offset DAT_48000818 &0xff]      
ram:08003454    0520            movs        r0,#0x5                                 
ram:08003456    2060            str         r0,[r4,#0x0]=>DAT_200001b8              
                            LAB_08003458:                 ;XREF[2,0]:   0800346a,0800346e
ram:08003458    70bd            pop         {r4,r5,r6,pc}                           
                            LAB_0800345a:                 ;XREF[4,0]:   0800343a,08003440,08003446,0800344c
ram:0800345a    838a            ldrh        r3,[r0,#offset DAT_48000814 &0xff]      
ram:0800345c    5e04            lsls        r6,r3,#0x11                             
ram:0800345e    114b            ldr         r3,[DAT_080034a4]                       ;= 00004000h
ram:08003460    01d4            bmi         LAB_08003466                            
ram:08003462    2161            str         r1,[r4,#0x10]=>DAT_200001c8             
ram:08003464    8361            str         r3,[r0,#offset DAT_48000818 &0xff]      
                            LAB_08003466:                 ;XREF[1,0]:   08003460
ram:08003466    2668            ldr         r6,[r4,#0x0]=>DAT_200001b8              
ram:08003468    012e            cmp         r6,#0x1                                 
ram:0800346a    f5d1            bne         LAB_08003458                            
ram:0800346c    002d            cmp         r5,#0x0                                 
ram:0800346e    f3d1            bne         LAB_08003458                            
ram:08003470    858a            ldrh        r5,[r0,#offset DAT_48000814 &0xff]      
ram:08003472    ad04            lsls        r5,r5,#0x12                             
ram:08003474    01d4            bmi         LAB_0800347a                            
ram:08003476    e160            str         r1,[r4,#0xc]=>DAT_200001c4              
ram:08003478    8261            str         r2,[r0,#offset DAT_48000818 &0xff]      
                            LAB_0800347a:                 ;XREF[1,0]:   08003474
ram:0800347a    828a            ldrh        r2,[r0,#offset DAT_48000814 &0xff]      
ram:0800347c    5204            lsls        r2,r2,#0x11                             
ram:0800347e    01d4            bmi         LAB_08003484                            
ram:08003480    2161            str         r1,[r4,#0x10]=>DAT_200001c8             
ram:08003482    8361            str         r3,[r0,#offset DAT_48000818 &0xff]      
                            LAB_08003484:                 ;XREF[1,0]:   0800347e
ram:08003484    0020            movs        r0,#0x0                                 
ram:08003486    2060            str         r0,[r4,#0x0]=>DAT_200001b8              
ram:08003488    fdf726fc        bl          FUN_08000cd8                            ;undefined FUN_08000cd8(void)
ram:0800348c    70bd            pop         {r4,r5,r6,pc}                           
ram:0800348e    0000            movs        r0,r0                                   
                            DAT_08003490:                 ;XREF[9,0]:   080032e0,08003318,08003332,08003346
                                                          ;             08003352,08003372,08003392,080033a0
                                                          ;             080033b2
ram:08003490    b8010020        undefined4  200001B8h                               
                            DAT_08003494:                 ;XREF[5,0]:   0800332a,0800333e,0800335a,0800337a
                                                          ;             0800341e
ram:08003494    00080048        undefined4  48000800h                               
                            DAT_08003498:                 ;XREF[2,0]:   08003398,080033de
ram:08003498    88030020        undefined4  20000388h                               
                            DAT_0800349c:                 ;XREF[1,0]:   080033aa
ram:0800349c    40000240        undefined4  40020040h                               
                            DAT_080034a0:                 ;XREF[1,0]:   080033ee
ram:080034a0    8a030020        undefined4  2000038Ah                               
                            DAT_080034a4:                 ;XREF[1,0]:   0800345e
ram:080034a4    00400000        undefined4  00004000h                               
                            ;************************************************************************************************
                            ;*                                           FUNCTION                                           *
                            ;************************************************************************************************
                            ;undefined4 FUN_080034a8(void)
                                                          ;XREF[2,0]:   08002618,080033e8
ram:080034a8    10b4            push        {r4}                                    
ram:080034aa    0021            movs        r1,#0x0                                 
ram:080034ac    0c48            ldr         r0,[DAT_080034e0]                       ;= 40023000h
ram:080034ae    c943            mvns        r1,r1                                   
ram:080034b0    0160            str         r1,[r0,#0x0]=>DAT_40023000              
ram:080034b2    0161            str         r1,[r0,#offset DAT_40023010 &0xff]      
ram:080034b4    0121            movs        r1,#0x1                                 
ram:080034b6    8160            str         r1,[r0,#offset DAT_40023008 &0xff]      
ram:080034b8    0a4a            ldr         r2,[DAT_080034e4]                       ;= 20000388h
ram:080034ba    1378            ldrb        r3,[r2,#0x0]=>DAT_20000388              
ram:080034bc    1940            ands        r1,r3                                   
ram:080034be    00d0            beq         LAB_080034c2                            
ram:080034c0    0370            strb        r3,[r0,#0x0]=>DAT_40023000              
                            LAB_080034c2:                 ;XREF[1,0]:   080034be
ram:080034c2    9b1c            adds        r3,r3,#0x2                              
ram:080034c4    8b42            cmp         r3,r1                                   
ram:080034c6    07d9            bls         LAB_080034d8                            
                            LAB_080034c8:                 ;XREF[1,0]:   080034d6
                                                          ; FWD[2,0]:   20000388,2000038a
ram:080034c8    545c            ldrb        r4,[r2,r1]=>DAT_20000388                
ram:080034ca    0470            strb        r4,[r0,#0x0]=>DAT_40023000              
ram:080034cc    5418            adds        r4,r2,r1                                
                                                          ; FWD[2,0]:   20000389,2000038b
ram:080034ce    6478            ldrb        r4,[r4,#0x1]=>DAT_20000389              
ram:080034d0    0470            strb        r4,[r0,#0x0]=>DAT_40023000              
ram:080034d2    891c            adds        r1,r1,#0x2                              
ram:080034d4    8b42            cmp         r3,r1                                   
ram:080034d6    f7d8            bhi         LAB_080034c8                            
                            LAB_080034d8:                 ;XREF[1,0]:   080034c6
ram:080034d8    0068            ldr         r0,[r0,#0x0]=>DAT_40023000              
ram:080034da    10bc            pop         {r4}                                    
ram:080034dc    7047            bx          lr                                      
ram:080034de    0000            movs        r0,r0                                   
                            DAT_080034e0:                 ;XREF[1,0]:   080034ac
ram:080034e0    00300240        undefined4  40023000h                               
                            DAT_080034e4:                 ;XREF[1,0]:   080034b8
ram:080034e4    88030020        undefined4  20000388h                               
                            ;************************************************************************************************
                            ;*                                           FUNCTION                                           *
                            ;************************************************************************************************
                            ;undefined FUN_080035c2(ushort * param_1, ushort * param_2)
          ;param_1       ushort *            r0                      
          ;param_2       ushort *            r1                      
                                                          ;XREF[1,0]:   08004bda
ram:080035c2    10b4            push        {r4}                                    
ram:080035c4    0288            ldrh        r2,[param_1,#0x0]                       
ram:080035c6    bf4b            ldr         r3,[DAT_080038c4]                       ;= 40012C00h
ram:080035c8    9842            cmp         param_1,r3                              
ram:080035ca    06d0            beq         LAB_080035da                            
ram:080035cc    0124            movs        r4,#0x1                                 
ram:080035ce    a407            lsls        r4,r4,#0x1e                             
ram:080035d0    a042            cmp         param_1,r4                              
ram:080035d2    02d0            beq         LAB_080035da                            
ram:080035d4    bc4c            ldr         r4,[DAT_080038c8]                       ;= 40000400h
ram:080035d6    a042            cmp         param_1,r4                              
ram:080035d8    03d1            bne         LAB_080035e2                            
                            LAB_080035da:                 ;XREF[2,0]:   080035ca,080035d2
ram:080035da    7024            movs        r4,#0x70                                
ram:080035dc    a243            bics        r2,r4                                   
ram:080035de    4c88            ldrh        r4,[param_2,#0x2]                       
ram:080035e0    2243            orrs        r2,r4                                   
                            LAB_080035e2:                 ;XREF[1,0]:   080035d8
ram:080035e2    ba4c            ldr         r4,[DAT_080038cc]                       ;= 40001000h
ram:080035e4    a042            cmp         param_1,r4                              
ram:080035e6    03d0            beq         LAB_080035f0                            
ram:080035e8    be4c            ldr         r4,[DAT_080038e4]                       ;= 0000FCFFh
ram:080035ea    2240            ands        r2,r4                                   
ram:080035ec    0c89            ldrh        r4,[param_2,#0x8]                       
ram:080035ee    2243            orrs        r2,r4                                   
                            LAB_080035f0:                 ;XREF[1,0]:   080035e6
ram:080035f0    0280            strh        r2,[param_1,#0x0]                       
ram:080035f2    4a68            ldr         r2,[param_2,#0x4]                       
ram:080035f4    c262            str         r2,[param_1,#0x2c]                      
ram:080035f6    0a88            ldrh        r2,[param_2,#0x0]                       
ram:080035f8    0285            strh        r2,[param_1,#0x28]                      
ram:080035fa    9842            cmp         param_1,r3                              
ram:080035fc    08d0            beq         LAB_08003610                            
ram:080035fe    b64a            ldr         r2,[DAT_080038d8]                       ;= 40014000h
ram:08003600    9042            cmp         param_1,r2                              
ram:08003602    05d0            beq         LAB_08003610                            
ram:08003604    b54a            ldr         r2,[DAT_080038dc]                       ;= 40014400h
ram:08003606    9042            cmp         param_1,r2                              
ram:08003608    02d0            beq         LAB_08003610                            
ram:0800360a    b54a            ldr         r2,[DAT_080038e0]                       ;= 40014800h
ram:0800360c    9042            cmp         param_1,r2                              
ram:0800360e    01d1            bne         LAB_08003614                            
                            LAB_08003610:                 ;XREF[3,0]:   080035fc,08003602,08003608
ram:08003610    897a            ldrb        param_2,[param_2,#0xa]                  
ram:08003612    0186            strh        param_2,[param_1,#0x30]                 
                            LAB_08003614:                 ;XREF[1,0]:   0800360e
ram:08003614    0121            movs        param_2,#0x1                            
ram:08003616    8182            strh        param_2,[param_1,#0x14]                 
ram:08003618    10bc            pop         {r4}                                    
ram:0800361a    7047            bx          lr                                      
ram:0800361c    0021            movs        r1,#0x0                                 
ram:0800361e    c943            mvns        r1,r1                                   
ram:08003620    4160            str         r1,[r0,#0x4]                            
ram:08003622    0021            movs        r1,#0x0                                 
ram:08003624    0180            strh        r1,[r0,#0x0]                            
ram:08003626    0181            strh        r1,[r0,#0x8]                            
ram:08003628    4180            strh        r1,[r0,#0x2]                            
ram:0800362a    8172            strb        r1,[r0,#0xa]                            
ram:0800362c    7047            bx          lr                                      
ram:0800362e    0185            strh        r1,[r0,#0x28]                           
ram:08003630    8282            strh        r2,[r0,#0x14]                           
ram:08003632    7047            bx          lr                                      
ram:08003634    0288            ldrh        r2,[r0,#0x0]                            
ram:08003636    7023            movs        r3,#0x70                                
ram:08003638    9a43            bics        r2,r3                                   
ram:0800363a    0a43            orrs        r2,r1                                   
ram:0800363c    0280            strh        r2,[r0,#0x0]                            
ram:0800363e    7047            bx          lr                                      
ram:08003640    4162            str         r1,[r0,#0x24]                           
ram:08003642    7047            bx          lr                                      
ram:08003644    c162            str         r1,[r0,#0x2c]                           
ram:08003646    7047            bx          lr                                      
ram:08003648    406a            ldr         r0,[r0,#0x24]                           
ram:0800364a    7047            bx          lr                                      
ram:0800364c    008d            ldrh        r0,[r0,#0x28]                           
ram:0800364e    7047            bx          lr                                      
ram:08003650    0222            movs        r2,#0x2                                 
ram:08003652    0029            cmp         r1,#0x0                                 
ram:08003654    0188            ldrh        r1,[r0,#0x0]                            
ram:08003656    01d0            beq         LAB_0800365c                            
ram:08003658    1143            orrs        r1,r2                                   
ram:0800365a    00e0            b           LAB_0800365e                            
                            LAB_0800365c:                 ;XREF[1,0]:   08003656
ram:0800365c    9143            bics        r1,r2                                   
                            LAB_0800365e:                 ;XREF[1,0]:   0800365a
ram:0800365e    0180            strh        r1,[r0,#0x0]                            
ram:08003660    7047            bx          lr                                      
                            ;************************************************************************************************
                            ;*                                           FUNCTION                                           *
                            ;************************************************************************************************
                            ;undefined FUN_08003662(ushort * param_1, int param_2)
          ;param_1       ushort *            r0                      
          ;param_2       int                 r1                      
                                                          ;XREF[1,0]:   08004be2
ram:08003662    0422            movs        r2,#0x4                                 
ram:08003664    0029            cmp         param_2,#0x0                            
ram:08003666    0188            ldrh        param_2,[param_1,#0x0]                  
ram:08003668    01d0            beq         LAB_0800366e                            
ram:0800366a    1143            orrs        param_2,r2                              
ram:0800366c    00e0            b           LAB_08003670                            
                            LAB_0800366e:                 ;XREF[1,0]:   08003668
ram:0800366e    9143            bics        param_2,r2                              
                            LAB_08003670:                 ;XREF[1,0]:   0800366c
ram:08003670    0180            strh        param_2,[param_1,#0x0]                  
ram:08003672    7047            bx          lr                                      
ram:08003674    8022            movs        r2,#0x80                                
ram:08003676    0029            cmp         r1,#0x0                                 
ram:08003678    0188            ldrh        r1,[r0,#0x0]                            
ram:0800367a    01d0            beq         FUN_08003680                            
ram:0800367c    1143            orrs        r1,r2                                   
ram:0800367e    00e0            b           LAB_08003682                            
                            ;************************************************************************************************
                            ;*                                           FUNCTION                                           *
                            ;************************************************************************************************
                            ;undefined FUN_08003680(ushort * param_1, ushort param_2, ushort param_3)
          ;param_1       ushort *            r0                      
          ;param_2       ushort              r1                      
          ;param_3       ushort              r2                      
                                                          ;XREF[1,0]:   0800367a
ram:08003680    9143            bics        param_2,param_3                         
                            LAB_08003682:                 ;XREF[1,0]:   0800367e
ram:08003682    0180            strh        param_2,[param_1,#0x0]                  
ram:08003684    7047            bx          lr                                      
ram:08003686    0288            ldrh        r2,[r0,#0x0]                            
ram:08003688    0823            movs        r3,#0x8                                 
ram:0800368a    9a43            bics        r2,r3                                   
ram:0800368c    0280            strh        r2,[r0,#0x0]                            
ram:0800368e    0288            ldrh        r2,[r0,#0x0]                            
ram:08003690    0a43            orrs        r2,r1                                   
ram:08003692    0280            strh        r2,[r0,#0x0]                            
ram:08003694    7047            bx          lr                                      
ram:08003696    0288            ldrh        r2,[r0,#0x0]                            
ram:08003698    924b            ldr         r3,[DAT_080038e4]                       ;= 0000FCFFh
ram:0800369a    1a40            ands        r2,r3                                   
ram:0800369c    0280            strh        r2,[r0,#0x0]                            
ram:0800369e    0288            ldrh        r2,[r0,#0x0]                            
ram:080036a0    0a43            orrs        r2,r1                                   
ram:080036a2    0280            strh        r2,[r0,#0x0]                            
ram:080036a4    7047            bx          lr                                      
                            ;************************************************************************************************
                            ;*                                           FUNCTION                                           *
                            ;************************************************************************************************
                            ;undefined FUN_080036a6(ushort * param_1, int param_2)
          ;param_1       ushort *            r0                      
          ;param_2       int                 r1                      
                                                          ;XREF[3,0]:   08004bfa,08004dca,08004dea
ram:080036a6    0029            cmp         param_2,#0x0                            
ram:080036a8    0188            ldrh        param_2,[param_1,#0x0]                  
ram:080036aa    02d0            beq         LAB_080036b2                            
ram:080036ac    0122            movs        r2,#0x1                                 
ram:080036ae    1143            orrs        param_2,r2                              
ram:080036b0    01e0            b           LAB_080036b6                            
                            LAB_080036b2:                 ;XREF[1,0]:   080036aa
ram:080036b2    4908            lsrs        param_2,param_2,#0x1                    
ram:080036b4    4900            lsls        param_2,param_2,#0x1                    
                            LAB_080036b6:                 ;XREF[1,0]:   080036b0
ram:080036b6    0180            strh        param_2,[param_1,#0x0]                  
ram:080036b8    7047            bx          lr                                      
ram:080036ba    10b4            push        {r4}                                    
ram:080036bc    0a88            ldrh        r2,[r1,#0x0]                            
ram:080036be    4b88            ldrh        r3,[r1,#0x2]                            
ram:080036c0    cc88            ldrh        r4,[r1,#0x6]                            
ram:080036c2    1a43            orrs        r2,r3                                   
ram:080036c4    8b88            ldrh        r3,[r1,#0x4]                            
ram:080036c6    2343            orrs        r3,r4                                   
ram:080036c8    1a43            orrs        r2,r3                                   
ram:080036ca    0b89            ldrh        r3,[r1,#0x8]                            
ram:080036cc    1a43            orrs        r2,r3                                   
ram:080036ce    4b89            ldrh        r3,[r1,#0xa]                            
ram:080036d0    8989            ldrh        r1,[r1,#0xc]                            
ram:080036d2    1a43            orrs        r2,r3                                   
ram:080036d4    0a43            orrs        r2,r1                                   
ram:080036d6    4030            adds        r0,#0x40                                
ram:080036d8    8280            strh        r2,[r0,#0x4]                            
ram:080036da    10bc            pop         {r4}                                    
ram:080036dc    7047            bx          lr                                      
ram:080036de    0021            movs        r1,#0x0                                 
ram:080036e0    0180            strh        r1,[r0,#0x0]                            
ram:080036e2    4180            strh        r1,[r0,#0x2]                            
ram:080036e4    8180            strh        r1,[r0,#0x4]                            
ram:080036e6    c180            strh        r1,[r0,#0x6]                            
ram:080036e8    0181            strh        r1,[r0,#0x8]                            
ram:080036ea    4181            strh        r1,[r0,#0xa]                            
ram:080036ec    8181            strh        r1,[r0,#0xc]                            
ram:080036ee    7047            bx          lr                                      
ram:080036f0    4030            adds        r0,#0x40                                
ram:080036f2    0029            cmp         r1,#0x0                                 
ram:080036f4    8188            ldrh        r1,[r0,#0x4]                            
ram:080036f6    03d0            beq         LAB_08003700                            
ram:080036f8    0122            movs        r2,#0x1                                 
ram:080036fa    d203            lsls        r2,r2,#0xf                              
ram:080036fc    1143            orrs        r1,r2                                   
ram:080036fe    01e0            b           LAB_08003704                            
                            LAB_08003700:                 ;XREF[1,0]:   080036f6
ram:08003700    4904            lsls        r1,r1,#0x11                             
ram:08003702    490c            lsrs        r1,r1,#0x11                             
                            LAB_08003704:                 ;XREF[1,0]:   080036fe
ram:08003704    8180            strh        r1,[r0,#0x4]                            
ram:08003706    7047            bx          lr                                      
ram:08003708    30b4            push        {r4,r5}                                 
ram:0800370a    028c            ldrh        r2,[r0,#0x20]                           
ram:0800370c    5208            lsrs        r2,r2,#0x1                              
ram:0800370e    5200            lsls        r2,r2,#0x1                              
ram:08003710    0284            strh        r2,[r0,#0x20]                           
ram:08003712    038c            ldrh        r3,[r0,#0x20]                           
ram:08003714    8288            ldrh        r2,[r0,#0x4]                            
ram:08003716    048b            ldrh        r4,[r0,#0x18]                           
ram:08003718    7025            movs        r5,#0x70                                
ram:0800371a    ac43            bics        r4,r5                                   
ram:0800371c    a408            lsrs        r4,r4,#0x2                              
ram:0800371e    0d88            ldrh        r5,[r1,#0x0]                            
ram:08003720    a400            lsls        r4,r4,#0x2                              
ram:08003722    2543            orrs        r5,r4                                   
ram:08003724    0224            movs        r4,#0x2                                 
ram:08003726    a343            bics        r3,r4                                   
ram:08003728    8c89            ldrh        r4,[r1,#0xc]                            
ram:0800372a    1c43            orrs        r4,r3                                   
ram:0800372c    4b88            ldrh        r3,[r1,#0x2]                            
ram:0800372e    2343            orrs        r3,r4                                   
ram:08003730    644c            ldr         r4,[DAT_080038c4]                       ;= 40012C00h
ram:08003732    a042            cmp         r0,r4                                   
ram:08003734    08d0            beq         LAB_08003748                            
ram:08003736    684c            ldr         r4,[DAT_080038d8]                       ;= 40014000h
ram:08003738    a042            cmp         r0,r4                                   
ram:0800373a    05d0            beq         LAB_08003748                            
ram:0800373c    674c            ldr         r4,[DAT_080038dc]                       ;= 40014400h
ram:0800373e    a042            cmp         r0,r4                                   
ram:08003740    02d0            beq         LAB_08003748                            
ram:08003742    674c            ldr         r4,[DAT_080038e0]                       ;= 40014800h
ram:08003744    a042            cmp         r0,r4                                   
ram:08003746    0dd1            bne         LAB_08003764                            
                            LAB_08003748:                 ;XREF[3,0]:   08003734,0800373a,08003740
ram:08003748    0824            movs        r4,#0x8                                 
ram:0800374a    a343            bics        r3,r4                                   
ram:0800374c    cc89            ldrh        r4,[r1,#0xe]                            
ram:0800374e    1c43            orrs        r4,r3                                   
ram:08003750    0423            movs        r3,#0x4                                 
ram:08003752    9c43            bics        r4,r3                                   
ram:08003754    8b88            ldrh        r3,[r1,#0x4]                            
ram:08003756    2343            orrs        r3,r4                                   
ram:08003758    624c            ldr         r4,[DAT_080038e4]                       ;= 0000FCFFh
ram:0800375a    2240            ands        r2,r4                                   
ram:0800375c    0c8a            ldrh        r4,[r1,#0x10]                           
ram:0800375e    1443            orrs        r4,r2                                   
ram:08003760    4a8a            ldrh        r2,[r1,#0x12]                           
ram:08003762    2243            orrs        r2,r4                                   
                            LAB_08003764:                 ;XREF[1,0]:   08003746
ram:08003764    8280            strh        r2,[r0,#0x4]                            
ram:08003766    0583            strh        r5,[r0,#0x18]                           
ram:08003768    8968            ldr         r1,[r1,#0x8]                            
ram:0800376a    4163            str         r1,[r0,#0x34]                           
ram:0800376c    0384            strh        r3,[r0,#0x20]                           
ram:0800376e    30bc            pop         {r4,r5}                                 
ram:08003770    7047            bx          lr                                      
ram:08003772    70b4            push        {r4,r5,r6}                              
ram:08003774    028c            ldrh        r2,[r0,#0x20]                           
ram:08003776    1023            movs        r3,#0x10                                
ram:08003778    9a43            bics        r2,r3                                   
ram:0800377a    0284            strh        r2,[r0,#0x20]                           
ram:0800377c    048c            ldrh        r4,[r0,#0x20]                           
ram:0800377e    8288            ldrh        r2,[r0,#0x4]                            
ram:08003780    038b            ldrh        r3,[r0,#0x18]                           
ram:08003782    594d            ldr         r5,[DAT_080038e8]                       ;= 00008CFFh
ram:08003784    2b40            ands        r3,r5                                   
ram:08003786    0d78            ldrb        r5,[r1,#0x0]                            
ram:08003788    2d06            lsls        r5,r5,#0x18                             
ram:0800378a    2d0c            lsrs        r5,r5,#0x10                             
ram:0800378c    1d43            orrs        r5,r3                                   
ram:0800378e    2023            movs        r3,#0x20                                
ram:08003790    9c43            bics        r4,r3                                   
ram:08003792    8b89            ldrh        r3,[r1,#0xc]                            
ram:08003794    1b05            lsls        r3,r3,#0x14                             
ram:08003796    1e0c            lsrs        r6,r3,#0x10                             
ram:08003798    4b88            ldrh        r3,[r1,#0x2]                            
ram:0800379a    2643            orrs        r6,r4                                   
ram:0800379c    1b05            lsls        r3,r3,#0x14                             
ram:0800379e    1b0c            lsrs        r3,r3,#0x10                             
ram:080037a0    484c            ldr         r4,[DAT_080038c4]                       ;= 40012C00h
ram:080037a2    3343            orrs        r3,r6                                   
ram:080037a4    a042            cmp         r0,r4                                   
ram:080037a6    02d0            beq         LAB_080037ae                            
ram:080037a8    4b4e            ldr         r6,[DAT_080038d8]                       ;= 40014000h
ram:080037aa    b042            cmp         r0,r6                                   
ram:080037ac    19d1            bne         LAB_080037e2                            
                            LAB_080037ae:                 ;XREF[1,0]:   080037a6
ram:080037ae    4f4e            ldr         r6,[DAT_080038ec]                       ;= 0000FBFFh
ram:080037b0    3240            ands        r2,r6                                   
ram:080037b2    0e8a            ldrh        r6,[r1,#0x10]                           
ram:080037b4    b604            lsls        r6,r6,#0x12                             
ram:080037b6    360c            lsrs        r6,r6,#0x10                             
ram:080037b8    3243            orrs        r2,r6                                   
ram:080037ba    a042            cmp         r0,r4                                   
ram:080037bc    11d1            bne         LAB_080037e2                            
ram:080037be    8024            movs        r4,#0x80                                
ram:080037c0    a343            bics        r3,r4                                   
ram:080037c2    cc89            ldrh        r4,[r1,#0xe]                            
ram:080037c4    2405            lsls        r4,r4,#0x14                             
ram:080037c6    240c            lsrs        r4,r4,#0x10                             
ram:080037c8    1c43            orrs        r4,r3                                   
ram:080037ca    4023            movs        r3,#0x40                                
ram:080037cc    9c43            bics        r4,r3                                   
ram:080037ce    8b88            ldrh        r3,[r1,#0x4]                            
ram:080037d0    1b05            lsls        r3,r3,#0x14                             
ram:080037d2    1b0c            lsrs        r3,r3,#0x10                             
ram:080037d4    2343            orrs        r3,r4                                   
ram:080037d6    464c            ldr         r4,[DAT_080038f0]                       ;= 0000F7FFh
ram:080037d8    2240            ands        r2,r4                                   
ram:080037da    4c8a            ldrh        r4,[r1,#0x12]                           
ram:080037dc    a404            lsls        r4,r4,#0x12                             
ram:080037de    240c            lsrs        r4,r4,#0x10                             
ram:080037e0    2243            orrs        r2,r4                                   
                            LAB_080037e2:                 ;XREF[2,0]:   080037ac,080037bc
ram:080037e2    8280            strh        r2,[r0,#0x4]                            
ram:080037e4    0583            strh        r5,[r0,#0x18]                           
ram:080037e6    8968            ldr         r1,[r1,#0x8]                            
ram:080037e8    8163            str         r1,[r0,#0x38]                           
ram:080037ea    0384            strh        r3,[r0,#0x20]                           
ram:080037ec    70bc            pop         {r4,r5,r6}                              
ram:080037ee    7047            bx          lr                                      
ram:080037f0    30b4            push        {r4,r5}                                 
ram:080037f2    028c            ldrh        r2,[r0,#0x20]                           
ram:080037f4    3f4b            ldr         r3,[DAT_080038f4]                       ;= 0000FEFFh
ram:080037f6    1a40            ands        r2,r3                                   
ram:080037f8    0284            strh        r2,[r0,#0x20]                           
ram:080037fa    038c            ldrh        r3,[r0,#0x20]                           
ram:080037fc    8288            ldrh        r2,[r0,#0x4]                            
ram:080037fe    848b            ldrh        r4,[r0,#0x1c]                           
ram:08003800    7025            movs        r5,#0x70                                
ram:08003802    ac43            bics        r4,r5                                   
ram:08003804    a408            lsrs        r4,r4,#0x2                              
ram:08003806    0d88            ldrh        r5,[r1,#0x0]                            
ram:08003808    a400            lsls        r4,r4,#0x2                              
ram:0800380a    2543            orrs        r5,r4                                   
ram:0800380c    3a4c            ldr         r4,[DAT_080038f8]                       ;= 0000FDFFh
ram:0800380e    2340            ands        r3,r4                                   
ram:08003810    0c7b            ldrb        r4,[r1,#0xc]                            
ram:08003812    2406            lsls        r4,r4,#0x18                             
ram:08003814    240c            lsrs        r4,r4,#0x10                             
ram:08003816    1c43            orrs        r4,r3                                   
ram:08003818    8b78            ldrb        r3,[r1,#0x2]                            
ram:0800381a    1b06            lsls        r3,r3,#0x18                             
ram:0800381c    1b0c            lsrs        r3,r3,#0x10                             
ram:0800381e    2343            orrs        r3,r4                                   
ram:08003820    284c            ldr         r4,[DAT_080038c4]                       ;= 40012C00h
ram:08003822    a042            cmp         r0,r4                                   
ram:08003824    15d1            bne         LAB_08003852                            
ram:08003826    324c            ldr         r4,[DAT_080038f0]                       ;= 0000F7FFh
ram:08003828    2340            ands        r3,r4                                   
ram:0800382a    8c7b            ldrb        r4,[r1,#0xe]                            
ram:0800382c    2406            lsls        r4,r4,#0x18                             
ram:0800382e    240c            lsrs        r4,r4,#0x10                             
ram:08003830    1c43            orrs        r4,r3                                   
ram:08003832    2e4b            ldr         r3,[DAT_080038ec]                       ;= 0000FBFFh
ram:08003834    1c40            ands        r4,r3                                   
ram:08003836    0b79            ldrb        r3,[r1,#0x4]                            
ram:08003838    1b06            lsls        r3,r3,#0x18                             
ram:0800383a    1b0c            lsrs        r3,r3,#0x10                             
ram:0800383c    2343            orrs        r3,r4                                   
ram:0800383e    2f4c            ldr         r4,[DAT_080038fc]                       ;= 0000CFFFh
ram:08003840    2240            ands        r2,r4                                   
ram:08003842    0c8a            ldrh        r4,[r1,#0x10]                           
ram:08003844    2405            lsls        r4,r4,#0x14                             
ram:08003846    240c            lsrs        r4,r4,#0x10                             
ram:08003848    1443            orrs        r4,r2                                   
ram:0800384a    4a8a            ldrh        r2,[r1,#0x12]                           
ram:0800384c    1205            lsls        r2,r2,#0x14                             
ram:0800384e    120c            lsrs        r2,r2,#0x10                             
ram:08003850    2243            orrs        r2,r4                                   
                            LAB_08003852:                 ;XREF[1,0]:   08003824
ram:08003852    8280            strh        r2,[r0,#0x4]                            
ram:08003854    8583            strh        r5,[r0,#0x1c]                           
ram:08003856    8968            ldr         r1,[r1,#0x8]                            
ram:08003858    c163            str         r1,[r0,#0x3c]                           
ram:0800385a    0384            strh        r3,[r0,#0x20]                           
ram:0800385c    30bc            pop         {r4,r5}                                 
ram:0800385e    7047            bx          lr                                      
ram:08003860    30b4            push        {r4,r5}                                 
ram:08003862    028c            ldrh        r2,[r0,#0x20]                           
ram:08003864    264b            ldr         r3,[DAT_08003900]                       ;= 0000EFFFh
ram:08003866    1a40            ands        r2,r3                                   
ram:08003868    0284            strh        r2,[r0,#0x20]                           
ram:0800386a    048c            ldrh        r4,[r0,#0x20]                           
ram:0800386c    8388            ldrh        r3,[r0,#0x4]                            
ram:0800386e    828b            ldrh        r2,[r0,#0x1c]                           
ram:08003870    1d4d            ldr         r5,[DAT_080038e8]                       ;= 00008CFFh
ram:08003872    2a40            ands        r2,r5                                   
ram:08003874    0d78            ldrb        r5,[r1,#0x0]                            
ram:08003876    2d06            lsls        r5,r5,#0x18                             
ram:08003878    2d0c            lsrs        r5,r5,#0x10                             
ram:0800387a    1543            orrs        r5,r2                                   
ram:0800387c    214a            ldr         r2,[DAT_08003904]                       ;= 0000DFFFh
ram:0800387e    1440            ands        r4,r2                                   
ram:08003880    0a7b            ldrb        r2,[r1,#0xc]                            
ram:08003882    1207            lsls        r2,r2,#0x1c                             
ram:08003884    120c            lsrs        r2,r2,#0x10                             
ram:08003886    2243            orrs        r2,r4                                   
ram:08003888    8c78            ldrb        r4,[r1,#0x2]                            
ram:0800388a    2407            lsls        r4,r4,#0x1c                             
ram:0800388c    240c            lsrs        r4,r4,#0x10                             
ram:0800388e    1443            orrs        r4,r2                                   
ram:08003890    0c4a            ldr         r2,[DAT_080038c4]                       ;= 40012C00h
ram:08003892    9042            cmp         r0,r2                                   
ram:08003894    05d1            bne         LAB_080038a2                            
ram:08003896    1c4a            ldr         r2,[DAT_08003908]                       ;= 0000BFFFh
ram:08003898    1340            ands        r3,r2                                   
ram:0800389a    0a8a            ldrh        r2,[r1,#0x10]                           
ram:0800389c    9205            lsls        r2,r2,#0x16                             
ram:0800389e    120c            lsrs        r2,r2,#0x10                             
ram:080038a0    1343            orrs        r3,r2                                   
                            LAB_080038a2:                 ;XREF[1,0]:   08003894
ram:080038a2    8380            strh        r3,[r0,#0x4]                            
ram:080038a4    8583            strh        r5,[r0,#0x1c]                           
ram:080038a6    8968            ldr         r1,[r1,#0x8]                            
ram:080038a8    0164            str         r1,[r0,#0x40]                           
ram:080038aa    0484            strh        r4,[r0,#0x20]                           
ram:080038ac    30bc            pop         {r4,r5}                                 
ram:080038ae    7047            bx          lr                                      
ram:080038b0    0021            movs        r1,#0x0                                 
ram:080038b2    0180            strh        r1,[r0,#0x0]                            
ram:080038b4    4180            strh        r1,[r0,#0x2]                            
ram:080038b6    8180            strh        r1,[r0,#0x4]                            
ram:080038b8    8160            str         r1,[r0,#0x8]                            
ram:080038ba    8181            strh        r1,[r0,#0xc]                            
ram:080038bc    c181            strh        r1,[r0,#0xe]                            
ram:080038be    0182            strh        r1,[r0,#0x10]                           
ram:080038c0    4182            strh        r1,[r0,#0x12]                           
ram:080038c2    7047            bx          lr                                      
                            DAT_080038c4:                 ;XREF[5,0]:   080035c6,08003730,080037a0,08003820
                                                          ;             08003890
ram:080038c4    002c0140        undefined4  40012C00h                               
                            DAT_080038c8:                 ;XREF[1,0]:   080035d4
ram:080038c8    00040040        undefined4  40000400h                               
                            DAT_080038cc:                 ;XREF[1,0]:   080035e2
ram:080038cc    00100040        undefined4  40001000h                               
                            DAT_080038d8:                 ;XREF[3,0]:   080035fe,08003736,080037a8
ram:080038d8    00400140        undefined4  40014000h                               
                            DAT_080038dc:                 ;XREF[2,0]:   08003604,0800373c
ram:080038dc    00440140        undefined4  40014400h                               
                            DAT_080038e0:                 ;XREF[2,0]:   0800360a,08003742
ram:080038e0    00480140        undefined4  40014800h                               
                            DAT_080038e4:                 ;XREF[3,0]:   080035e8,08003698,08003758
ram:080038e4    fffc0000        undefined4  0000FCFFh                               
                            DAT_080038e8:                 ;XREF[2,0]:   08003782,08003870
ram:080038e8    ff8c0000        undefined4  00008CFFh                               
                            DAT_080038ec:                 ;XREF[2,0]:   080037ae,08003832
ram:080038ec    fffb0000        undefined4  0000FBFFh                               
                            DAT_080038f0:                 ;XREF[2,0]:   080037d6,08003826
ram:080038f0    fff70000        undefined4  0000F7FFh                               
                            DAT_080038f4:                 ;XREF[1,0]:   080037f4
ram:080038f4    fffe0000        undefined4  0000FEFFh                               
                            DAT_080038f8:                 ;XREF[1,0]:   0800380c
ram:080038f8    fffd0000        undefined4  0000FDFFh                               
                            DAT_080038fc:                 ;XREF[1,0]:   0800383e
ram:080038fc    ffcf0000        undefined4  0000CFFFh                               
                            DAT_08003900:                 ;XREF[1,0]:   08003864
ram:08003900    ffef0000        undefined4  0000EFFFh                               
                            DAT_08003904:                 ;XREF[1,0]:   0800387c
ram:08003904    ffdf0000        undefined4  0000DFFFh                               
                            DAT_08003908:                 ;XREF[1,0]:   08003896
ram:08003908    ffbf0000        undefined4  0000BFFFh                               
                            ;************************************************************************************************
                            ;*                                           FUNCTION                                           *
                            ;************************************************************************************************
                            ;undefined FUN_08003b42(int param_1, short * param_2)
          ;param_1       int                 r0                      
          ;param_2       short *             r1                      
                                                          ;XREF[4,0]:   08004b96,08004ba4,08004bb2,08004bc0
ram:08003b42    f0b4            push        {r4,r5,r6,r7}                           
ram:08003b44    0c88            ldrh        r4,[param_2,#0x0]                       
ram:08003b46    f327            movs        r7,#0xf3                                
ram:08003b48    4e88            ldrh        r6,[param_2,#0x2]                       
ram:08003b4a    8b88            ldrh        r3,[param_2,#0x4]                       
ram:08003b4c    0a89            ldrh        r2,[param_2,#0x8]                       
ram:08003b4e    002c            cmp         r4,#0x0                                 
ram:08003b50    23d0            beq         LAB_08003b9a                            
ram:08003b52    042c            cmp         r4,#0x4                                 
ram:08003b54    3cd0            beq         LAB_08003bd0                            
ram:08003b56    082c            cmp         r4,#0x8                                 
ram:08003b58    048c            ldrh        r4,[param_1,#0x20]                      
ram:08003b5a    58d0            beq         LAB_08003c0e                            
ram:08003b5c    8a4d            ldr         r5,[DAT_08003d88]                       ;= 0000EFFFh
ram:08003b5e    2c40            ands        r4,r5                                   
ram:08003b60    0484            strh        r4,[param_1,#0x20]                      
ram:08003b62    848b            ldrh        r4,[param_1,#0x1c]                      
ram:08003b64    078c            ldrh        r7,[param_1,#0x20]                      
ram:08003b66    3503            lsls        r5,r6,#0xc                              
ram:08003b68    884e            ldr         r6,[DAT_08003d8c]                       ;= 00000CFFh
ram:08003b6a    1b02            lsls        r3,r3,#0x8                              
ram:08003b6c    3440            ands        r4,r6                                   
ram:08003b6e    2343            orrs        r3,r4                                   
ram:08003b70    1203            lsls        r2,r2,#0xc                              
ram:08003b72    1a43            orrs        r2,r3                                   
ram:08003b74    864b            ldr         r3,[DAT_08003d90]                       ;= 00005FFFh
ram:08003b76    8283            strh        r2,[param_1,#0x1c]                      
ram:08003b78    1f40            ands        r7,r3                                   
ram:08003b7a    0123            movs        r3,#0x1                                 
ram:08003b7c    2f43            orrs        r7,r5                                   
ram:08003b7e    1b03            lsls        r3,r3,#0xc                              
ram:08003b80    1f43            orrs        r7,r3                                   
ram:08003b82    0784            strh        r7,[param_1,#0x20]                      
ram:08003b84    8979            ldrb        param_2,[param_2,#0x6]                  
ram:08003b86    828b            ldrh        r2,[param_1,#0x1c]                      
ram:08003b88    7e4b            ldr         r3,[DAT_08003d84]                       ;= 0000F3FFh
ram:08003b8a    1a40            ands        r2,r3                                   
ram:08003b8c    8283            strh        r2,[param_1,#0x1c]                      
ram:08003b8e    828b            ldrh        r2,[param_1,#0x1c]                      
ram:08003b90    0902            lsls        param_2,param_2,#0x8                    
ram:08003b92    0a43            orrs        r2,param_2                              
ram:08003b94    8283            strh        r2,[param_1,#0x1c]                      
ram:08003b96    f0bc            pop         {r4,r5,r6,r7}                           
ram:08003b98    7047            bx          lr                                      
                            LAB_08003b9a:                 ;XREF[1,0]:   08003b50
ram:08003b9a    048c            ldrh        r4,[param_1,#0x20]                      
ram:08003b9c    6408            lsrs        r4,r4,#0x1                              
ram:08003b9e    6400            lsls        r4,r4,#0x1                              
ram:08003ba0    0484            strh        r4,[param_1,#0x20]                      
ram:08003ba2    058b            ldrh        r5,[param_1,#0x18]                      
ram:08003ba4    048c            ldrh        r4,[param_1,#0x20]                      
ram:08003ba6    1201            lsls        r2,r2,#0x4                              
ram:08003ba8    1a43            orrs        r2,r3                                   
ram:08003baa    0a23            movs        r3,#0xa                                 
ram:08003bac    bd43            bics        r5,r7                                   
ram:08003bae    9c43            bics        r4,r3                                   
ram:08003bb0    2a43            orrs        r2,r5                                   
ram:08003bb2    3443            orrs        r4,r6                                   
ram:08003bb4    0123            movs        r3,#0x1                                 
ram:08003bb6    1c43            orrs        r4,r3                                   
ram:08003bb8    0283            strh        r2,[param_1,#0x18]                      
ram:08003bba    0484            strh        r4,[param_1,#0x20]                      
ram:08003bbc    c988            ldrh        param_2,[param_2,#0x6]                  
ram:08003bbe    038b            ldrh        r3,[param_1,#0x18]                      
ram:08003bc0    0c22            movs        r2,#0xc                                 
ram:08003bc2    9343            bics        r3,r2                                   
ram:08003bc4    0383            strh        r3,[param_1,#0x18]                      
ram:08003bc6    028b            ldrh        r2,[param_1,#0x18]                      
ram:08003bc8    0a43            orrs        r2,param_2                              
ram:08003bca    0283            strh        r2,[param_1,#0x18]                      
ram:08003bcc    f0bc            pop         {r4,r5,r6,r7}                           
ram:08003bce    7047            bx          lr                                      
                            LAB_08003bd0:                 ;XREF[1,0]:   08003b54
ram:08003bd0    048c            ldrh        r4,[param_1,#0x20]                      
ram:08003bd2    1025            movs        r5,#0x10                                
ram:08003bd4    ac43            bics        r4,r5                                   
ram:08003bd6    0484            strh        r4,[param_1,#0x20]                      
ram:08003bd8    058b            ldrh        r5,[param_1,#0x18]                      
ram:08003bda    048c            ldrh        r4,[param_1,#0x20]                      
ram:08003bdc    6b4f            ldr         r7,[DAT_08003d8c]                       ;= 00000CFFh
ram:08003bde    1203            lsls        r2,r2,#0xc                              
ram:08003be0    3601            lsls        r6,r6,#0x4                              
ram:08003be2    3d40            ands        r5,r7                                   
ram:08003be4    2a43            orrs        r2,r5                                   
ram:08003be6    1b02            lsls        r3,r3,#0x8                              
ram:08003be8    1343            orrs        r3,r2                                   
ram:08003bea    a022            movs        r2,#0xa0                                
ram:08003bec    9443            bics        r4,r2                                   
ram:08003bee    3443            orrs        r4,r6                                   
ram:08003bf0    1022            movs        r2,#0x10                                
ram:08003bf2    1443            orrs        r4,r2                                   
ram:08003bf4    0383            strh        r3,[param_1,#0x18]                      
ram:08003bf6    0484            strh        r4,[param_1,#0x20]                      
ram:08003bf8    8979            ldrb        param_2,[param_2,#0x6]                  
ram:08003bfa    028b            ldrh        r2,[param_1,#0x18]                      
ram:08003bfc    614b            ldr         r3,[DAT_08003d84]                       ;= 0000F3FFh
ram:08003bfe    1a40            ands        r2,r3                                   
ram:08003c00    0283            strh        r2,[param_1,#0x18]                      
ram:08003c02    028b            ldrh        r2,[param_1,#0x18]                      
ram:08003c04    0902            lsls        param_2,param_2,#0x8                    
ram:08003c06    0a43            orrs        r2,param_2                              
ram:08003c08    0283            strh        r2,[param_1,#0x18]                      
ram:08003c0a    f0bc            pop         {r4,r5,r6,r7}                           
ram:08003c0c    7047            bx          lr                                      
                            LAB_08003c0e:                 ;XREF[1,0]:   08003b5a
ram:08003c0e    614d            ldr         r5,[DAT_08003d94]                       ;= 0000FEFFh
ram:08003c10    2c40            ands        r4,r5                                   
ram:08003c12    0484            strh        r4,[param_1,#0x20]                      
ram:08003c14    858b            ldrh        r5,[param_1,#0x1c]                      
ram:08003c16    048c            ldrh        r4,[param_1,#0x20]                      
ram:08003c18    1201            lsls        r2,r2,#0x4                              
ram:08003c1a    1a43            orrs        r2,r3                                   
ram:08003c1c    5e4b            ldr         r3,[DAT_08003d98]                       ;= 0000F5FFh
ram:08003c1e    3602            lsls        r6,r6,#0x8                              
ram:08003c20    1c40            ands        r4,r3                                   
ram:08003c22    bd43            bics        r5,r7                                   
ram:08003c24    2a43            orrs        r2,r5                                   
ram:08003c26    ff23            movs        r3,#0xff                                
ram:08003c28    3443            orrs        r4,r6                                   
ram:08003c2a    0133            adds        r3,#0x1                                 
ram:08003c2c    1c43            orrs        r4,r3                                   
ram:08003c2e    8283            strh        r2,[param_1,#0x1c]                      
ram:08003c30    0484            strh        r4,[param_1,#0x20]                      
ram:08003c32    c988            ldrh        param_2,[param_2,#0x6]                  
ram:08003c34    838b            ldrh        r3,[param_1,#0x1c]                      
ram:08003c36    0c22            movs        r2,#0xc                                 
ram:08003c38    9343            bics        r3,r2                                   
ram:08003c3a    8383            strh        r3,[param_1,#0x1c]                      
ram:08003c3c    828b            ldrh        r2,[param_1,#0x1c]                      
ram:08003c3e    0a43            orrs        r2,param_2                              
ram:08003c40    8283            strh        r2,[param_1,#0x1c]                      
ram:08003c42    f0bc            pop         {r4,r5,r6,r7}                           
ram:08003c44    7047            bx          lr                                      
ram:08003c46    0021            movs        r1,#0x0                                 
ram:08003c48    0180            strh        r1,[r0,#0x0]                            
ram:08003c4a    4180            strh        r1,[r0,#0x2]                            
ram:08003c4c    0122            movs        r2,#0x1                                 
ram:08003c4e    8280            strh        r2,[r0,#0x4]                            
ram:08003c50    c180            strh        r1,[r0,#0x6]                            
ram:08003c52    0181            strh        r1,[r0,#0x8]                            
ram:08003c54    7047            bx          lr                                      
ram:08003c56    f0b5            push        {r4,r5,r6,r7,lr}                        
ram:08003c58    4c88            ldrh        r4,[r1,#0x2]                            
ram:08003c5a    0023            movs        r3,#0x0                                 
ram:08003c5c    0122            movs        r2,#0x1                                 
ram:08003c5e    002c            cmp         r4,#0x0                                 
ram:08003c60    00d1            bne         LAB_08003c64                            
ram:08003c62    0223            movs        r3,#0x2                                 
                            LAB_08003c64:                 ;XREF[1,0]:   08003c60
ram:08003c64    8f88            ldrh        r7,[r1,#0x4]                            
ram:08003c66    012f            cmp         r7,#0x1                                 
ram:08003c68    00d1            bne         LAB_08003c6c                            
ram:08003c6a    0222            movs        r2,#0x2                                 
                            LAB_08003c6c:                 ;XREF[1,0]:   08003c68
ram:08003c6c    0d88            ldrh        r5,[r1,#0x0]                            
ram:08003c6e    0e89            ldrh        r6,[r1,#0x8]                            
ram:08003c70    002d            cmp         r5,#0x0                                 
ram:08003c72    a446            mov         r12,r4                                  
ram:08003c74    3ed0            beq         LAB_08003cf4                            
ram:08003c76    058c            ldrh        r5,[r0,#0x20]                           
ram:08003c78    1024            movs        r4,#0x10                                
ram:08003c7a    a543            bics        r5,r4                                   
ram:08003c7c    0584            strh        r5,[r0,#0x20]                           
ram:08003c7e    058b            ldrh        r5,[r0,#0x18]                           
ram:08003c80    048c            ldrh        r4,[r0,#0x20]                           
ram:08003c82    a646            mov         lr,r4                                   
ram:08003c84    6446            mov         r4,r12                                  
ram:08003c86    2401            lsls        r4,r4,#0x4                              
ram:08003c88    a446            mov         r12,r4                                  
ram:08003c8a    404c            ldr         r4,[DAT_08003d8c]                       ;= 00000CFFh
ram:08003c8c    2540            ands        r5,r4                                   
ram:08003c8e    3403            lsls        r4,r6,#0xc                              
ram:08003c90    2c43            orrs        r4,r5                                   
ram:08003c92    3d02            lsls        r5,r7,#0x8                              
ram:08003c94    2543            orrs        r5,r4                                   
ram:08003c96    7446            mov         r4,lr                                   
ram:08003c98    a026            movs        r6,#0xa0                                
ram:08003c9a    b443            bics        r4,r6                                   
ram:08003c9c    2646            mov         r6,r4                                   
ram:08003c9e    6446            mov         r4,r12                                  
ram:08003ca0    2643            orrs        r6,r4                                   
ram:08003ca2    1024            movs        r4,#0x10                                
ram:08003ca4    2643            orrs        r6,r4                                   
ram:08003ca6    0583            strh        r5,[r0,#0x18]                           
ram:08003ca8    0684            strh        r6,[r0,#0x20]                           
ram:08003caa    8c79            ldrb        r4,[r1,#0x6]                            
ram:08003cac    058b            ldrh        r5,[r0,#0x18]                           
ram:08003cae    354e            ldr         r6,[DAT_08003d84]                       ;= 0000F3FFh
ram:08003cb0    3540            ands        r5,r6                                   
ram:08003cb2    0583            strh        r5,[r0,#0x18]                           
ram:08003cb4    058b            ldrh        r5,[r0,#0x18]                           
ram:08003cb6    2402            lsls        r4,r4,#0x8                              
ram:08003cb8    2543            orrs        r5,r4                                   
ram:08003cba    0583            strh        r5,[r0,#0x18]                           
ram:08003cbc    0f89            ldrh        r7,[r1,#0x8]                            
ram:08003cbe    048c            ldrh        r4,[r0,#0x20]                           
ram:08003cc0    6408            lsrs        r4,r4,#0x1                              
ram:08003cc2    6400            lsls        r4,r4,#0x1                              
ram:08003cc4    0484            strh        r4,[r0,#0x20]                           
ram:08003cc6    058b            ldrh        r5,[r0,#0x18]                           
ram:08003cc8    048c            ldrh        r4,[r0,#0x20]                           
ram:08003cca    f326            movs        r6,#0xf3                                
ram:08003ccc    b543            bics        r5,r6                                   
ram:08003cce    3e01            lsls        r6,r7,#0x4                              
ram:08003cd0    1643            orrs        r6,r2                                   
ram:08003cd2    0a22            movs        r2,#0xa                                 
ram:08003cd4    9443            bics        r4,r2                                   
ram:08003cd6    2e43            orrs        r6,r5                                   
ram:08003cd8    1c43            orrs        r4,r3                                   
ram:08003cda    0122            movs        r2,#0x1                                 
ram:08003cdc    1443            orrs        r4,r2                                   
ram:08003cde    0683            strh        r6,[r0,#0x18]                           
ram:08003ce0    0484            strh        r4,[r0,#0x20]                           
ram:08003ce2    c988            ldrh        r1,[r1,#0x6]                            
ram:08003ce4    028b            ldrh        r2,[r0,#0x18]                           
ram:08003ce6    0c23            movs        r3,#0xc                                 
ram:08003ce8    9a43            bics        r2,r3                                   
ram:08003cea    0283            strh        r2,[r0,#0x18]                           
ram:08003cec    028b            ldrh        r2,[r0,#0x18]                           
ram:08003cee    0a43            orrs        r2,r1                                   
ram:08003cf0    0283            strh        r2,[r0,#0x18]                           
ram:08003cf2    f0bd            pop         {r4,r5,r6,r7,pc}                        
                            LAB_08003cf4:                 ;XREF[1,0]:   08003c74
ram:08003cf4    058c            ldrh        r5,[r0,#0x20]                           
ram:08003cf6    3446            mov         r4,r6                                   
ram:08003cf8    6d08            lsrs        r5,r5,#0x1                              
ram:08003cfa    6d00            lsls        r5,r5,#0x1                              
ram:08003cfc    0584            strh        r5,[r0,#0x20]                           
ram:08003cfe    058b            ldrh        r5,[r0,#0x18]                           
ram:08003d00    068c            ldrh        r6,[r0,#0x20]                           
ram:08003d02    2401            lsls        r4,r4,#0x4                              
ram:08003d04    b646            mov         lr,r6                                   
ram:08003d06    f326            movs        r6,#0xf3                                
ram:08003d08    b543            bics        r5,r6                                   
ram:08003d0a    3c43            orrs        r4,r7                                   
ram:08003d0c    2c43            orrs        r4,r5                                   
ram:08003d0e    7646            mov         r6,lr                                   
ram:08003d10    0a25            movs        r5,#0xa                                 
ram:08003d12    ae43            bics        r6,r5                                   
ram:08003d14    6546            mov         r5,r12                                  
ram:08003d16    2e43            orrs        r6,r5                                   
ram:08003d18    0125            movs        r5,#0x1                                 
ram:08003d1a    2e43            orrs        r6,r5                                   
ram:08003d1c    0483            strh        r4,[r0,#0x18]                           
ram:08003d1e    0684            strh        r6,[r0,#0x20]                           
ram:08003d20    cc88            ldrh        r4,[r1,#0x6]                            
ram:08003d22    058b            ldrh        r5,[r0,#0x18]                           
ram:08003d24    0c26            movs        r6,#0xc                                 
ram:08003d26    b543            bics        r5,r6                                   
ram:08003d28    0583            strh        r5,[r0,#0x18]                           
ram:08003d2a    058b            ldrh        r5,[r0,#0x18]                           
ram:08003d2c    2543            orrs        r5,r4                                   
ram:08003d2e    0583            strh        r5,[r0,#0x18]                           
ram:08003d30    0d7a            ldrb        r5,[r1,#0x8]                            
ram:08003d32    048c            ldrh        r4,[r0,#0x20]                           
ram:08003d34    1026            movs        r6,#0x10                                
ram:08003d36    b443            bics        r4,r6                                   
ram:08003d38    0484            strh        r4,[r0,#0x20]                           
ram:08003d3a    048b            ldrh        r4,[r0,#0x18]                           
ram:08003d3c    078c            ldrh        r7,[r0,#0x20]                           
ram:08003d3e    134e            ldr         r6,[DAT_08003d8c]                       ;= 00000CFFh
ram:08003d40    2d03            lsls        r5,r5,#0xc                              
ram:08003d42    3440            ands        r4,r6                                   
ram:08003d44    2543            orrs        r5,r4                                   
ram:08003d46    1b01            lsls        r3,r3,#0x4                              
ram:08003d48    a024            movs        r4,#0xa0                                
ram:08003d4a    1202            lsls        r2,r2,#0x8                              
ram:08003d4c    a743            bics        r7,r4                                   
ram:08003d4e    2a43            orrs        r2,r5                                   
ram:08003d50    1f43            orrs        r7,r3                                   
ram:08003d52    1023            movs        r3,#0x10                                
ram:08003d54    1f43            orrs        r7,r3                                   
ram:08003d56    0283            strh        r2,[r0,#0x18]                           
ram:08003d58    0784            strh        r7,[r0,#0x20]                           
ram:08003d5a    8979            ldrb        r1,[r1,#0x6]                            
ram:08003d5c    028b            ldrh        r2,[r0,#0x18]                           
ram:08003d5e    094b            ldr         r3,[DAT_08003d84]                       ;= 0000F3FFh
ram:08003d60    1a40            ands        r2,r3                                   
ram:08003d62    0283            strh        r2,[r0,#0x18]                           
ram:08003d64    028b            ldrh        r2,[r0,#0x18]                           
ram:08003d66    0902            lsls        r1,r1,#0x8                              
ram:08003d68    0a43            orrs        r2,r1                                   
ram:08003d6a    0283            strh        r2,[r0,#0x18]                           
ram:08003d6c    f0bd            pop         {r4,r5,r6,r7,pc}                        
ram:08003d6e    0000            movs        r0,r0                                   
ram:08003d70    ff8f            ldrh        r7,[r7,#0x3e]                           
ram:08003d72    0000            movs        r0,r0                                   
                            DAT_08003d84:                 ;XREF[4,0]:   08003b88,08003bfc,08003cae,08003d5e
ram:08003d84    fff30000        undefined4  0000F3FFh                               
                            DAT_08003d88:                 ;XREF[1,0]:   08003b5c
ram:08003d88    ffef0000        undefined4  0000EFFFh                               
                            DAT_08003d8c:                 ;XREF[4,0]:   08003b68,08003bdc,08003c8a,08003d3e
ram:08003d8c    ff0c0000        undefined4  00000CFFh                               
                            DAT_08003d90:                 ;XREF[1,0]:   08003b74
ram:08003d90    ff5f0000        undefined4  00005FFFh                               
                            DAT_08003d94:                 ;XREF[1,0]:   08003c0e
ram:08003d94    fffe0000        undefined4  0000FEFFh                               
                            DAT_08003d98:                 ;XREF[1,0]:   08003c1c
ram:08003d98    fff50000        undefined4  0000F5FFh                               
                            ;************************************************************************************************
                            ;*                                           FUNCTION                                           *
                            ;************************************************************************************************
                            ;undefined4 FUN_08003d9c(int param_1)
          ;param_1       int                 r0                      
                                                          ;XREF[1,0]:   08002ad0
ram:08003d9c    406b            ldr         param_1,[param_1,#0x34]                 
ram:08003d9e    7047            bx          lr                                      
                            ;************************************************************************************************
                            ;*                                           FUNCTION                                           *
                            ;************************************************************************************************
                            ;undefined4 FUN_08003da0(int param_1)
          ;param_1       int                 r0                      
                                                          ;XREF[1,0]:   08002adc
ram:08003da0    806b            ldr         param_1,[param_1,#0x38]                 
ram:08003da2    7047            bx          lr                                      
                            ;************************************************************************************************
                            ;*                                           FUNCTION                                           *
                            ;************************************************************************************************
                            ;undefined4 FUN_08003da4(int param_1)
          ;param_1       int                 r0                      
                                                          ;XREF[1,0]:   08002ae8
ram:08003da4    c06b            ldr         param_1,[param_1,#0x3c]                 
ram:08003da6    7047            bx          lr                                      
                            ;************************************************************************************************
                            ;*                                           FUNCTION                                           *
                            ;************************************************************************************************
                            ;undefined4 FUN_08003da8(int param_1)
          ;param_1       int                 r0                      
                                                          ;XREF[1,0]:   08002af4
ram:08003da8    006c            ldr         param_1,[param_1,#0x40]                 
ram:08003daa    7047            bx          lr                                      
                            ;************************************************************************************************
                            ;*                                           FUNCTION                                           *
                            ;************************************************************************************************
                            ;undefined FUN_08003dac(int param_1, ushort param_2, int param_3)
          ;param_1       int                 r0                      
          ;param_2       ushort              r1                      
          ;param_3       int                 r2                      
                                                          ;XREF[1,0]:   08004bec
ram:08003dac    002a            cmp         param_3,#0x0                            
ram:08003dae    8289            ldrh        param_3,[param_1,#0xc]                  
ram:08003db0    01d0            beq         LAB_08003db6                            
ram:08003db2    0a43            orrs        param_3,param_2                         
ram:08003db4    00e0            b           LAB_08003db8                            
                            LAB_08003db6:                 ;XREF[1,0]:   08003db0
ram:08003db6    8a43            bics        param_3,param_2                         
                            LAB_08003db8:                 ;XREF[1,0]:   08003db4
ram:08003db8    8281            strh        param_3,[param_1,#0xc]                  
ram:08003dba    7047            bx          lr                                      
ram:08003dbc    8182            strh        r1,[r0,#0x14]                           
ram:08003dbe    7047            bx          lr                                      
                            ;************************************************************************************************
                            ;*                                           FUNCTION                                           *
                            ;************************************************************************************************
                            ;bool FUN_08003dc0(int param_1, ushort param_2)
          ;param_1       int                 r0                      
          ;param_2       ushort              r1                      
                                                          ;XREF[2,0]:   08002a44,08002aac
ram:08003dc0    0246            mov         r2,param_1                              
ram:08003dc2    128a            ldrh        r2,[r2,#0x10]                           
ram:08003dc4    0020            movs        param_1,#0x0                            
ram:08003dc6    0a42            tst         r2,param_2                              
ram:08003dc8    00d0            beq         LAB_08003dcc                            
ram:08003dca    0120            movs        param_1,#0x1                            
                            LAB_08003dcc:                 ;XREF[1,0]:   08003dc8
ram:08003dcc    7047            bx          lr                                      
                            ;************************************************************************************************
                            ;*                                           FUNCTION                                           *
                            ;************************************************************************************************
                            ;undefined FUN_08003dce(int param_1, ushort param_2)
          ;param_1       int                 r0                      
          ;param_2       ushort              r1                      
                                                          ;XREF[2,0]:   08002a54,08002ab8
ram:08003dce    c943            mvns        param_2,param_2                         
ram:08003dd0    0182            strh        param_2,[param_1,#0x10]                 
ram:08003dd2    7047            bx          lr                                      
ram:08003dd4    038a            ldrh        r3,[r0,#0x10]                           
ram:08003dd6    0022            movs        r2,#0x0                                 
ram:08003dd8    8089            ldrh        r0,[r0,#0xc]                            
ram:08003dda    0b40            ands        r3,r1                                   
ram:08003ddc    0840            ands        r0,r1                                   
ram:08003dde    002b            cmp         r3,#0x0                                 
ram:08003de0    02d0            beq         LAB_08003de8                            
ram:08003de2    0028            cmp         r0,#0x0                                 
ram:08003de4    00d0            beq         LAB_08003de8                            
ram:08003de6    0122            movs        r2,#0x1                                 
                            LAB_08003de8:                 ;XREF[2,0]:   08003de0,08003de4
ram:08003de8    1046            mov         r0,r2                                   
ram:08003dea    7047            bx          lr                                      
ram:08003dec    c943            mvns        r1,r1                                   
ram:08003dee    0182            strh        r1,[r0,#0x10]                           
ram:08003df0    7047            bx          lr                                      
ram:08003df2    1143            orrs        r1,r2                                   
ram:08003df4    4030            adds        r0,#0x40                                
ram:08003df6    0181            strh        r1,[r0,#0x8]                            
ram:08003df8    7047            bx          lr                                      
ram:08003dfa    002a            cmp         r2,#0x0                                 
ram:08003dfc    8289            ldrh        r2,[r0,#0xc]                            
ram:08003dfe    01d0            beq         LAB_08003e04                            
ram:08003e00    0a43            orrs        r2,r1                                   
ram:08003e02    00e0            b           LAB_08003e06                            
                            LAB_08003e04:                 ;XREF[1,0]:   08003dfe
ram:08003e04    8a43            bics        r2,r1                                   
                            LAB_08003e06:                 ;XREF[1,0]:   08003e02
ram:08003e06    8281            strh        r2,[r0,#0xc]                            
ram:08003e08    7047            bx          lr                                      
ram:08003e0a    0822            movs        r2,#0x8                                 
ram:08003e0c    0029            cmp         r1,#0x0                                 
ram:08003e0e    8188            ldrh        r1,[r0,#0x4]                            
ram:08003e10    01d0            beq         LAB_08003e16                            
ram:08003e12    1143            orrs        r1,r2                                   
ram:08003e14    00e0            b           LAB_08003e18                            
                            LAB_08003e16:                 ;XREF[1,0]:   08003e10
ram:08003e16    9143            bics        r1,r2                                   
                            LAB_08003e18:                 ;XREF[1,0]:   08003e14
ram:08003e18    8180            strh        r1,[r0,#0x4]                            
ram:08003e1a    7047            bx          lr                                      
ram:08003e1c    0189            ldrh        r1,[r0,#0x8]                            
ram:08003e1e    c908            lsrs        r1,r1,#0x3                              
ram:08003e20    c900            lsls        r1,r1,#0x3                              
ram:08003e22    0181            strh        r1,[r0,#0x8]                            
ram:08003e24    7047            bx          lr                                      
ram:08003e26    0289            ldrh        r2,[r0,#0x8]                            
ram:08003e28    7023            movs        r3,#0x70                                
ram:08003e2a    9a43            bics        r2,r3                                   
ram:08003e2c    0a43            orrs        r2,r1                                   
ram:08003e2e    0281            strh        r2,[r0,#0x8]                            
ram:08003e30    7047            bx          lr                                      
ram:08003e32    0289            ldrh        r2,[r0,#0x8]                            
ram:08003e34    7023            movs        r3,#0x70                                
ram:08003e36    9a43            bics        r2,r3                                   
ram:08003e38    0a43            orrs        r2,r1                                   
ram:08003e3a    0281            strh        r2,[r0,#0x8]                            
ram:08003e3c    0189            ldrh        r1,[r0,#0x8]                            
ram:08003e3e    0722            movs        r2,#0x7                                 
ram:08003e40    1143            orrs        r1,r2                                   
ram:08003e42    0181            strh        r1,[r0,#0x8]                            
ram:08003e44    7047            bx          lr                                      
ram:08003e46    f0b4            push        {r4,r5,r6,r7}                           
ram:08003e48    6029            cmp         r1,#0x60                                
ram:08003e4a    1bd0            beq         LAB_08003e84                            
ram:08003e4c    048c            ldrh        r4,[r0,#0x20]                           
ram:08003e4e    0127            movs        r7,#0x1                                 
ram:08003e50    bc43            bics        r4,r7                                   
ram:08003e52    0484            strh        r4,[r0,#0x20]                           
ram:08003e54    058b            ldrh        r5,[r0,#0x18]                           
ram:08003e56    048c            ldrh        r4,[r0,#0x20]                           
ram:08003e58    f326            movs        r6,#0xf3                                
ram:08003e5a    1b01            lsls        r3,r3,#0x4                              
ram:08003e5c    b543            bics        r5,r6                                   
ram:08003e5e    3b43            orrs        r3,r7                                   
ram:08003e60    2b43            orrs        r3,r5                                   
ram:08003e62    0a25            movs        r5,#0xa                                 
ram:08003e64    ac43            bics        r4,r5                                   
ram:08003e66    1443            orrs        r4,r2                                   
ram:08003e68    3c43            orrs        r4,r7                                   
ram:08003e6a    0383            strh        r3,[r0,#0x18]                           
                            LAB_08003e6c:                 ;XREF[1,0]:   08003ea8
ram:08003e6c    0484            strh        r4,[r0,#0x20]                           
ram:08003e6e    0289            ldrh        r2,[r0,#0x8]                            
ram:08003e70    7023            movs        r3,#0x70                                
ram:08003e72    9a43            bics        r2,r3                                   
ram:08003e74    0a43            orrs        r2,r1                                   
ram:08003e76    0281            strh        r2,[r0,#0x8]                            
ram:08003e78    0189            ldrh        r1,[r0,#0x8]                            
ram:08003e7a    0722            movs        r2,#0x7                                 
ram:08003e7c    1143            orrs        r1,r2                                   
ram:08003e7e    0181            strh        r1,[r0,#0x8]                            
ram:08003e80    f0bc            pop         {r4,r5,r6,r7}                           
ram:08003e82    7047            bx          lr                                      
                            LAB_08003e84:                 ;XREF[1,0]:   08003e4a
ram:08003e84    048c            ldrh        r4,[r0,#0x20]                           
ram:08003e86    1027            movs        r7,#0x10                                
ram:08003e88    bc43            bics        r4,r7                                   
ram:08003e8a    0484            strh        r4,[r0,#0x20]                           
ram:08003e8c    058b            ldrh        r5,[r0,#0x18]                           
ram:08003e8e    048c            ldrh        r4,[r0,#0x20]                           
ram:08003e90    394e            ldr         r6,[DAT_08003f78]                       ;= 00000CFFh
ram:08003e92    1b03            lsls        r3,r3,#0xc                              
ram:08003e94    3540            ands        r5,r6                                   
ram:08003e96    1201            lsls        r2,r2,#0x4                              
ram:08003e98    2b43            orrs        r3,r5                                   
ram:08003e9a    3d01            lsls        r5,r7,#0x4                              
ram:08003e9c    1d43            orrs        r5,r3                                   
ram:08003e9e    a023            movs        r3,#0xa0                                
ram:08003ea0    9c43            bics        r4,r3                                   
ram:08003ea2    1443            orrs        r4,r2                                   
ram:08003ea4    3c43            orrs        r4,r7                                   
ram:08003ea6    0583            strh        r5,[r0,#0x18]                           
ram:08003ea8    e0e7            b           LAB_08003e6c                            
ram:08003eaa    10b4            push        {r4}                                    
ram:08003eac    0489            ldrh        r4,[r0,#0x8]                            
ram:08003eae    1b02            lsls        r3,r3,#0x8                              
ram:08003eb0    1343            orrs        r3,r2                                   
ram:08003eb2    e4b2            uxtb        r4,r4                                   
ram:08003eb4    0b43            orrs        r3,r1                                   
ram:08003eb6    2343            orrs        r3,r4                                   
ram:08003eb8    0381            strh        r3,[r0,#0x8]                            
ram:08003eba    10bc            pop         {r4}                                    
ram:08003ebc    7047            bx          lr                                      
ram:08003ebe    10b4            push        {r4}                                    
ram:08003ec0    0489            ldrh        r4,[r0,#0x8]                            
ram:08003ec2    1b02            lsls        r3,r3,#0x8                              
ram:08003ec4    1343            orrs        r3,r2                                   
ram:08003ec6    e4b2            uxtb        r4,r4                                   
ram:08003ec8    0b43            orrs        r3,r1                                   
ram:08003eca    2343            orrs        r3,r4                                   
ram:08003ecc    0381            strh        r3,[r0,#0x8]                            
ram:08003ece    0189            ldrh        r1,[r0,#0x8]                            
ram:08003ed0    0722            movs        r2,#0x7                                 
ram:08003ed2    c908            lsrs        r1,r1,#0x3                              
ram:08003ed4    c900            lsls        r1,r1,#0x3                              
ram:08003ed6    1143            orrs        r1,r2                                   
ram:08003ed8    7022            movs        r2,#0x70                                
ram:08003eda    9143            bics        r1,r2                                   
ram:08003edc    1143            orrs        r1,r2                                   
ram:08003ede    0181            strh        r1,[r0,#0x8]                            
ram:08003ee0    10bc            pop         {r4}                                    
ram:08003ee2    7047            bx          lr                                      
ram:08003ee4    10b4            push        {r4}                                    
ram:08003ee6    0489            ldrh        r4,[r0,#0x8]                            
ram:08003ee8    1b02            lsls        r3,r3,#0x8                              
ram:08003eea    1343            orrs        r3,r2                                   
ram:08003eec    e4b2            uxtb        r4,r4                                   
ram:08003eee    0b43            orrs        r3,r1                                   
ram:08003ef0    2343            orrs        r3,r4                                   
ram:08003ef2    0381            strh        r3,[r0,#0x8]                            
ram:08003ef4    0189            ldrh        r1,[r0,#0x8]                            
ram:08003ef6    0122            movs        r2,#0x1                                 
ram:08003ef8    9203            lsls        r2,r2,#0xe                              
ram:08003efa    1143            orrs        r1,r2                                   
ram:08003efc    0181            strh        r1,[r0,#0x8]                            
ram:08003efe    10bc            pop         {r4}                                    
ram:08003f00    7047            bx          lr                                      
ram:08003f02    8288            ldrh        r2,[r0,#0x4]                            
ram:08003f04    7023            movs        r3,#0x70                                
ram:08003f06    9a43            bics        r2,r3                                   
ram:08003f08    8280            strh        r2,[r0,#0x4]                            
ram:08003f0a    8288            ldrh        r2,[r0,#0x4]                            
ram:08003f0c    0a43            orrs        r2,r1                                   
ram:08003f0e    8280            strh        r2,[r0,#0x4]                            
ram:08003f10    7047            bx          lr                                      
ram:08003f12    0289            ldrh        r2,[r0,#0x8]                            
ram:08003f14    d208            lsrs        r2,r2,#0x3                              
ram:08003f16    d200            lsls        r2,r2,#0x3                              
ram:08003f18    0281            strh        r2,[r0,#0x8]                            
ram:08003f1a    0289            ldrh        r2,[r0,#0x8]                            
ram:08003f1c    0a43            orrs        r2,r1                                   
ram:08003f1e    0281            strh        r2,[r0,#0x8]                            
ram:08003f20    7047            bx          lr                                      
ram:08003f22    0289            ldrh        r2,[r0,#0x8]                            
ram:08003f24    8023            movs        r3,#0x80                                
ram:08003f26    9a43            bics        r2,r3                                   
ram:08003f28    0281            strh        r2,[r0,#0x8]                            
ram:08003f2a    0289            ldrh        r2,[r0,#0x8]                            
ram:08003f2c    0a43            orrs        r2,r1                                   
ram:08003f2e    0281            strh        r2,[r0,#0x8]                            
ram:08003f30    7047            bx          lr                                      
ram:08003f32    70b4            push        {r4,r5,r6}                              
ram:08003f34    0689            ldrh        r6,[r0,#0x8]                            
ram:08003f36    048b            ldrh        r4,[r0,#0x18]                           
ram:08003f38    058c            ldrh        r5,[r0,#0x20]                           
ram:08003f3a    f608            lsrs        r6,r6,#0x3                              
ram:08003f3c    f600            lsls        r6,r6,#0x3                              
ram:08003f3e    0e43            orrs        r6,r1                                   
ram:08003f40    0e49            ldr         r1,[DAT_08003f7c]                       ;= 0000FCFCh
ram:08003f42    0681            strh        r6,[r0,#0x8]                            
ram:08003f44    0c40            ands        r4,r1                                   
ram:08003f46    ff21            movs        r1,#0xff                                
ram:08003f48    0231            adds        r1,#0x2                                 
ram:08003f4a    0c43            orrs        r4,r1                                   
ram:08003f4c    aa21            movs        r1,#0xaa                                
ram:08003f4e    8d43            bics        r5,r1                                   
ram:08003f50    1901            lsls        r1,r3,#0x4                              
ram:08003f52    1143            orrs        r1,r2                                   
ram:08003f54    2943            orrs        r1,r5                                   
ram:08003f56    0483            strh        r4,[r0,#0x18]                           
ram:08003f58    0184            strh        r1,[r0,#0x20]                           
ram:08003f5a    70bc            pop         {r4,r5,r6}                              
ram:08003f5c    7047            bx          lr                                      
ram:08003f5e    8022            movs        r2,#0x80                                
ram:08003f60    0029            cmp         r1,#0x0                                 
ram:08003f62    8188            ldrh        r1,[r0,#0x4]                            
ram:08003f64    01d0            beq         LAB_08003f6a                            
ram:08003f66    1143            orrs        r1,r2                                   
ram:08003f68    00e0            b           LAB_08003f6c                            
                            LAB_08003f6a:                 ;XREF[1,0]:   08003f64
ram:08003f6a    9143            bics        r1,r2                                   
                            LAB_08003f6c:                 ;XREF[1,0]:   08003f68
ram:08003f6c    8180            strh        r1,[r0,#0x4]                            
ram:08003f6e    7047            bx          lr                                      
ram:08003f70    4030            adds        r0,#0x40                                
ram:08003f72    0182            strh        r1,[r0,#0x10]                           
ram:08003f74    7047            bx          lr                                      
ram:08003f76    0000            movs        r0,r0                                   
                            DAT_08003f78:                 ;XREF[1,0]:   08003e90
ram:08003f78    ff0c0000        undefined4  00000CFFh                               
                            DAT_08003f7c:                 ;XREF[1,0]:   08003f40
ram:08003f7c    fcfc0000        undefined4  0000FCFCh                               
                            ;************************************************************************************************
                            ;*                                           FUNCTION                                           *
                            ;************************************************************************************************
                            ;bool FUN_080040c0(int param_1, ushort param_2)
          ;param_1       int                 r0                      
          ;param_2       ushort              r1                      
                                                          ;XREF[1,0]:   08002b20
ram:080040c0    0246            mov         r2,param_1                              
ram:080040c2    128a            ldrh        r2,[r2,#0x10]                           
ram:080040c4    0020            movs        param_1,#0x0                            
ram:080040c6    0a42            tst         r2,param_2                              
ram:080040c8    00d0            beq         LAB_080040cc                            
ram:080040ca    0120            movs        param_1,#0x1                            
                            LAB_080040cc:                 ;XREF[1,0]:   080040c8
ram:080040cc    7047            bx          lr                                      
ram:080040ce    008a            ldrh        r0,[r0,#0x10]                           
ram:080040d0    7047            bx          lr                                      
                            ;************************************************************************************************
                            ;*                                           FUNCTION                                           *
                            ;************************************************************************************************
                            ;bool FUN_080040d2(int param_1, ushort param_2)
          ;param_1       int                 r0                      
          ;param_2       ushort              r1                      
                                                          ;XREF[14,0]:  08001d34,08001d4c,08001d64,08001d7c
                                                          ;             08001d94,08001daa,08001dc2,08001dda
                                                          ;             08002778,08002782,0800278a,080027b2
                                                          ;             080027bc,080027c4
ram:080040d2    0246            mov         r2,param_1                              
ram:080040d4    928a            ldrh        r2,[r2,#0x14]                           
ram:080040d6    0020            movs        param_1,#0x0                            
ram:080040d8    0a42            tst         r2,param_2                              
ram:080040da    00d0            beq         LAB_080040de                            
ram:080040dc    0120            movs        param_1,#0x1                            
                            LAB_080040de:                 ;XREF[1,0]:   080040da
ram:080040de    7047            bx          lr                                      
ram:080040e0    808a            ldrh        r0,[r0,#0x14]                           
ram:080040e2    7047            bx          lr                                      
ram:080040e4    8161            str         r1,[r0,#0x18]                           
ram:080040e6    7047            bx          lr                                      
ram:080040e8    0185            strh        r1,[r0,#0x28]                           
ram:080040ea    7047            bx          lr                                      
ram:080040ec    002a            cmp         r2,#0x0                                 
ram:080040ee    01d0            beq         LAB_080040f4                            
ram:080040f0    8161            str         r1,[r0,#0x18]                           
ram:080040f2    7047            bx          lr                                      
                            LAB_080040f4:                 ;XREF[1,0]:   080040ee
ram:080040f4    0185            strh        r1,[r0,#0x28]                           
ram:080040f6    7047            bx          lr                                      
ram:080040f8    8182            strh        r1,[r0,#0x14]                           
ram:080040fa    7047            bx          lr                                      
ram:080040fc    4b07            lsls        r3,r1,#0x1d                             
ram:080040fe    db0e            lsrs        r3,r3,#0x1b                             
ram:08004100    9a40            lsls        r2,r3                                   
ram:08004102    c908            lsrs        r1,r1,#0x3                              
ram:08004104    10b4            push        {r4}                                    
ram:08004106    8900            lsls        r1,r1,#0x2                              
ram:08004108    0818            adds        r0,r1,r0                                
ram:0800410a    016a            ldr         r1,[r0,#0x20]                           
ram:0800410c    0f24            movs        r4,#0xf                                 
ram:0800410e    9c40            lsls        r4,r3                                   
ram:08004110    a143            bics        r1,r4                                   
ram:08004112    0162            str         r1,[r0,#0x20]                           
ram:08004114    016a            ldr         r1,[r0,#0x20]                           
ram:08004116    1143            orrs        r1,r2                                   
ram:08004118    0162            str         r1,[r0,#0x20]                           
ram:0800411a    10bc            pop         {r4}                                    
ram:0800411c    7047            bx          lr                                      
ram:0800411e    0000            movs        r0,r0                                   
ram:08004120    0004            lsls        r0,r0,#0x10                             
ram:08004122    0048            ldr         r0,[LAB_08004124]                       
                            LAB_08004124:                 ;XREF[1,0]:   08004122
ram:08004124    0008            lsrs        r0,r0                                   
ram:08004126    0048            ldr         r0,[LAB_08004128]                       
                            LAB_08004128:                 ;XREF[1,0]:   08004126
ram:08004128    000c            lsrs        r0,r0,#0x10                             
ram:0800412a    0048            ldr         r0,[LAB_0800412c]                       
                            LAB_0800412c:                 ;XREF[1,0]:   0800412a
ram:0800412c    0010            asrs        r0,r0                                   
ram:0800412e    0048            ldr         r0,[LAB_08004130]                       
                            LAB_08004130:                 ;XREF[1,0]:   0800412e
ram:08004130    0014            asrs        r0,r0,#0x10                             
ram:08004132    0048            ldr         r0,[DAT_08004134]                       ;= 0000FFFFh
                            DAT_08004134:                 ;XREF[1,0]:   08004132
ram:08004134    ffff0000        undefined4  0000FFFFh                               
                            ;************************************************************************************************
                            ;*                                           FUNCTION                                           *
                            ;************************************************************************************************
                            ;undefined FUN_08004168(uint * param_1, uint * param_2)
          ;param_1       uint *              r0                      
          ;param_2       uint *              r1                      
                                                          ;XREF[1,0]:   08004b36
ram:08004168    10b4            push        {r4}                                    
ram:0800416a    0268            ldr         r2,[param_1,#0x0]                       
ram:0800416c    5208            lsrs        r2,r2,#0x1                              
ram:0800416e    5200            lsls        r2,r2,#0x1                              
ram:08004170    0260            str         r2,[param_1,#0x0]                       
ram:08004172    0268            ldr         r2,[param_1,#0x0]                       
ram:08004174    ca4b            ldr         r3,[DAT_080044a0]                       ;= 00CFE0FFh
ram:08004176    8c68            ldr         r4,[param_2,#0x8]                       
ram:08004178    1a40            ands        r2,r3                                   
ram:0800417a    2402            lsls        r4,r4,#0x8                              
ram:0800417c    4b68            ldr         r3,[param_2,#0x4]                       
ram:0800417e    1443            orrs        r4,r2                                   
ram:08004180    2343            orrs        r3,r4                                   
ram:08004182    0360            str         r3,[param_1,#0x0]                       
ram:08004184    0f23            movs        r3,#0xf                                 
ram:08004186    0a68            ldr         r2,[param_2,#0x0]                       
ram:08004188    1b06            lsls        r3,r3,#0x18                             
ram:0800418a    9a43            bics        r2,r3                                   
ram:0800418c    0261            str         r2,[param_1,#0x10]                      
ram:0800418e    0268            ldr         r2,[param_1,#0x0]                       
ram:08004190    0123            movs        r3,#0x1                                 
ram:08004192    1a43            orrs        r2,r3                                   
ram:08004194    0260            str         r2,[param_1,#0x0]                       
ram:08004196    0022            movs        r2,#0x0                                 
ram:08004198    8260            str         r2,[param_1,#0x8]                       
ram:0800419a    c260            str         r2,[param_1,#0xc]                       
ram:0800419c    0b69            ldr         r3,[param_2,#0x10]                      
ram:0800419e    8a69            ldr         r2,[param_2,#0x18]                      
ram:080041a0    1a43            orrs        r2,r3                                   
ram:080041a2    8260            str         r2,[param_1,#0x8]                       
ram:080041a4    8268            ldr         r2,[param_1,#0x8]                       
ram:080041a6    0123            movs        r3,#0x1                                 
ram:080041a8    db03            lsls        r3,r3,#0xf                              
ram:080041aa    1a43            orrs        r2,r3                                   
ram:080041ac    8260            str         r2,[param_1,#0x8]                       
ram:080041ae    ca68            ldr         r2,[param_2,#0xc]                       
ram:080041b0    0368            ldr         r3,[param_1,#0x0]                       
ram:080041b2    1343            orrs        r3,r2                                   
ram:080041b4    0360            str         r3,[param_1,#0x0]                       
ram:080041b6    4268            ldr         r2,[param_1,#0x4]                       
ram:080041b8    ba4b            ldr         r3,[DAT_080044a4]                       ;= 07FF7FFFh
ram:080041ba    4969            ldr         param_2,[param_2,#0x14]                 
ram:080041bc    1a40            ands        r2,r3                                   
ram:080041be    1143            orrs        param_2,r2                              
ram:080041c0    4160            str         param_2,[param_1,#0x4]                  
ram:080041c2    10bc            pop         {r4}                                    
ram:080041c4    7047            bx          lr                                      
ram:080041c6    0021            movs        r1,#0x0                                 
ram:080041c8    0160            str         r1,[r0,#0x0]                            
ram:080041ca    4160            str         r1,[r0,#0x4]                            
ram:080041cc    8160            str         r1,[r0,#0x8]                            
ram:080041ce    c160            str         r1,[r0,#0xc]                            
ram:080041d0    0122            movs        r2,#0x1                                 
ram:080041d2    d203            lsls        r2,r2,#0xf                              
ram:080041d4    0161            str         r1,[r0,#0x10]                           
ram:080041d6    4261            str         r2,[r0,#0x14]                           
ram:080041d8    8161            str         r1,[r0,#0x18]                           
ram:080041da    7047            bx          lr                                      
                            ;************************************************************************************************
                            ;*                                           FUNCTION                                           *
                            ;************************************************************************************************
                            ;undefined FUN_080041dc(uint * param_1, int param_2)
          ;param_1       uint *              r0                      
          ;param_2       int                 r1                      
                                                          ;XREF[1,0]:   08004b3e
ram:080041dc    0029            cmp         param_2,#0x0                            
ram:080041de    0168            ldr         param_2,[param_1,#0x0]                  
ram:080041e0    02d0            beq         LAB_080041e8                            
ram:080041e2    0122            movs        r2,#0x1                                 
ram:080041e4    1143            orrs        param_2,r2                              
ram:080041e6    01e0            b           LAB_080041ec                            
                            LAB_080041e8:                 ;XREF[1,0]:   080041e0
ram:080041e8    4908            lsrs        param_2,param_2,#0x1                    
ram:080041ea    4900            lsls        param_2,param_2,#0x1                    
                            LAB_080041ec:                 ;XREF[1,0]:   080041e6
ram:080041ec    0160            str         param_2,[param_1,#0x0]                  
ram:080041ee    7047            bx          lr                                      
ram:080041f0    0168            ldr         r1,[r0,#0x0]                            
ram:080041f2    4908            lsrs        r1,r1,#0x1                              
ram:080041f4    4900            lsls        r1,r1,#0x1                              
ram:080041f6    0160            str         r1,[r0,#0x0]                            
ram:080041f8    0168            ldr         r1,[r0,#0x0]                            
ram:080041fa    0168            ldr         r1,[r0,#0x0]                            
ram:080041fc    0122            movs        r2,#0x1                                 
ram:080041fe    1143            orrs        r1,r2                                   
ram:08004200    0160            str         r1,[r0,#0x0]                            
ram:08004202    7047            bx          lr                                      
ram:08004204    002a            cmp         r2,#0x0                                 
ram:08004206    0268            ldr         r2,[r0,#0x0]                            
ram:08004208    01d0            beq         LAB_0800420e                            
ram:0800420a    0a43            orrs        r2,r1                                   
ram:0800420c    00e0            b           LAB_08004210                            
                            LAB_0800420e:                 ;XREF[1,0]:   08004208
ram:0800420e    8a43            bics        r2,r1                                   
                            LAB_08004210:                 ;XREF[1,0]:   0800420c
ram:08004210    0260            str         r2,[r0,#0x0]                            
ram:08004212    7047            bx          lr                                      
ram:08004214    0122            movs        r2,#0x1                                 
ram:08004216    5204            lsls        r2,r2,#0x11                             
ram:08004218    0029            cmp         r1,#0x0                                 
ram:0800421a    0168            ldr         r1,[r0,#0x0]                            
ram:0800421c    01d0            beq         LAB_08004222                            
ram:0800421e    9143            bics        r1,r2                                   
ram:08004220    00e0            b           LAB_08004224                            
                            LAB_08004222:                 ;XREF[1,0]:   0800421c
ram:08004222    1143            orrs        r1,r2                                   
                            LAB_08004224:                 ;XREF[1,0]:   08004220
ram:08004224    0160            str         r1,[r0,#0x0]                            
ram:08004226    7047            bx          lr                                      
ram:08004228    0122            movs        r2,#0x1                                 
ram:0800422a    9204            lsls        r2,r2,#0x12                             
ram:0800422c    0029            cmp         r1,#0x0                                 
ram:0800422e    0168            ldr         r1,[r0,#0x0]                            
ram:08004230    01d0            beq         LAB_08004236                            
ram:08004232    1143            orrs        r1,r2                                   
ram:08004234    00e0            b           LAB_08004238                            
                            LAB_08004236:                 ;XREF[1,0]:   08004230
ram:08004236    9143            bics        r1,r2                                   
                            LAB_08004238:                 ;XREF[1,0]:   08004234
ram:08004238    0160            str         r1,[r0,#0x0]                            
ram:0800423a    7047            bx          lr                                      
ram:0800423c    0122            movs        r2,#0x1                                 
ram:0800423e    d203            lsls        r2,r2,#0xf                              
ram:08004240    0029            cmp         r1,#0x0                                 
ram:08004242    c168            ldr         r1,[r0,#0xc]                            
ram:08004244    01d0            beq         LAB_0800424a                            
ram:08004246    1143            orrs        r1,r2                                   
ram:08004248    00e0            b           LAB_0800424c                            
                            LAB_0800424a:                 ;XREF[1,0]:   08004244
ram:0800424a    9143            bics        r1,r2                                   
                            LAB_0800424c:                 ;XREF[1,0]:   08004248
ram:0800424c    c160            str         r1,[r0,#0xc]                            
ram:0800424e    7047            bx          lr                                      
ram:08004250    10b4            push        {r4}                                    
ram:08004252    c368            ldr         r3,[r0,#0xc]                            
ram:08004254    944c            ldr         r4,[DAT_080044a8]                       ;= FFFFF801h
ram:08004256    5207            lsls        r2,r2,#0x1d                             
ram:08004258    2340            ands        r3,r4                                   
ram:0800425a    fe24            movs        r4,#0xfe                                
ram:0800425c    2140            ands        r1,r4                                   
ram:0800425e    520d            lsrs        r2,r2,#0x15                             
ram:08004260    1143            orrs        r1,r2                                   
ram:08004262    1943            orrs        r1,r3                                   
ram:08004264    c160            str         r1,[r0,#0xc]                            
ram:08004266    10bc            pop         {r4}                                    
ram:08004268    7047            bx          lr                                      
ram:0800426a    0122            movs        r2,#0x1                                 
ram:0800426c    d204            lsls        r2,r2,#0x13                             
ram:0800426e    0029            cmp         r1,#0x0                                 
ram:08004270    0168            ldr         r1,[r0,#0x0]                            
ram:08004272    01d0            beq         LAB_08004278                            
ram:08004274    1143            orrs        r1,r2                                   
ram:08004276    00e0            b           LAB_0800427a                            
                            LAB_08004278:                 ;XREF[1,0]:   08004272
ram:08004278    9143            bics        r1,r2                                   
                            LAB_0800427a:                 ;XREF[1,0]:   08004276
ram:0800427a    0160            str         r1,[r0,#0x0]                            
ram:0800427c    7047            bx          lr                                      
ram:0800427e    0122            movs        r2,#0x1                                 
ram:08004280    1204            lsls        r2,r2,#0x10                             
ram:08004282    0029            cmp         r1,#0x0                                 
ram:08004284    0168            ldr         r1,[r0,#0x0]                            
ram:08004286    01d0            beq         LAB_0800428c                            
ram:08004288    1143            orrs        r1,r2                                   
ram:0800428a    00e0            b           LAB_0800428e                            
                            LAB_0800428c:                 ;XREF[1,0]:   08004286
ram:0800428c    9143            bics        r1,r2                                   
                            LAB_0800428e:                 ;XREF[1,0]:   0800428a
ram:0800428e    0160            str         r1,[r0,#0x0]                            
ram:08004290    7047            bx          lr                                      
ram:08004292    4268            ldr         r2,[r0,#0x4]                            
ram:08004294    8905            lsls        r1,r1,#0x16                             
ram:08004296    920a            lsrs        r2,r2,#0xa                              
ram:08004298    9202            lsls        r2,r2,#0xa                              
ram:0800429a    890d            lsrs        r1,r1,#0x16                             
ram:0800429c    1143            orrs        r1,r2                                   
ram:0800429e    4160            str         r1,[r0,#0x4]                            
ram:080042a0    7047            bx          lr                                      
ram:080042a2    0122            movs        r2,#0x1                                 
ram:080042a4    d202            lsls        r2,r2,#0xb                              
ram:080042a6    0029            cmp         r1,#0x0                                 
ram:080042a8    4168            ldr         r1,[r0,#0x4]                            
ram:080042aa    01d0            beq         LAB_080042b0                            
ram:080042ac    1143            orrs        r1,r2                                   
ram:080042ae    00e0            b           LAB_080042b2                            
                            LAB_080042b0:                 ;XREF[1,0]:   080042aa
ram:080042b0    9143            bics        r1,r2                                   
                            LAB_080042b2:                 ;XREF[1,0]:   080042ae
ram:080042b2    4160            str         r1,[r0,#0x4]                            
ram:080042b4    7047            bx          lr                                      
ram:080042b6    0122            movs        r2,#0x1                                 
ram:080042b8    5206            lsls        r2,r2,#0x19                             
ram:080042ba    0029            cmp         r1,#0x0                                 
ram:080042bc    4168            ldr         r1,[r0,#0x4]                            
ram:080042be    01d0            beq         LAB_080042c4                            
ram:080042c0    1143            orrs        r1,r2                                   
ram:080042c2    00e0            b           LAB_080042c6                            
                            LAB_080042c4:                 ;XREF[1,0]:   080042be
ram:080042c4    9143            bics        r1,r2                                   
                            LAB_080042c6:                 ;XREF[1,0]:   080042c2
ram:080042c6    4160            str         r1,[r0,#0x4]                            
ram:080042c8    7047            bx          lr                                      
ram:080042ca    0122            movs        r2,#0x1                                 
ram:080042cc    1206            lsls        r2,r2,#0x18                             
ram:080042ce    0029            cmp         r1,#0x0                                 
ram:080042d0    4168            ldr         r1,[r0,#0x4]                            
ram:080042d2    01d0            beq         LAB_080042d8                            
ram:080042d4    1143            orrs        r1,r2                                   
ram:080042d6    00e0            b           LAB_080042da                            
                            LAB_080042d8:                 ;XREF[1,0]:   080042d2
ram:080042d8    9143            bics        r1,r2                                   
                            LAB_080042da:                 ;XREF[1,0]:   080042d6
ram:080042da    4160            str         r1,[r0,#0x4]                            
ram:080042dc    7047            bx          lr                                      
ram:080042de    4268            ldr         r2,[r0,#0x4]                            
ram:080042e0    ff23            movs        r3,#0xff                                
ram:080042e2    1b04            lsls        r3,r3,#0x10                             
ram:080042e4    9a43            bics        r2,r3                                   
ram:080042e6    0904            lsls        r1,r1,#0x10                             
ram:080042e8    1143            orrs        r1,r2                                   
ram:080042ea    4160            str         r1,[r0,#0x4]                            
ram:080042ec    7047            bx          lr                                      
ram:080042ee    0122            movs        r2,#0x1                                 
ram:080042f0    9202            lsls        r2,r2,#0xa                              
ram:080042f2    0029            cmp         r1,#0x0                                 
ram:080042f4    4168            ldr         r1,[r0,#0x4]                            
ram:080042f6    02d0            beq         LAB_080042fe                            
ram:080042f8    1143            orrs        r1,r2                                   
                            LAB_080042fa:                 ;XREF[1,0]:   08004300
ram:080042fa    4160            str         r1,[r0,#0x4]                            
ram:080042fc    7047            bx          lr                                      
                            LAB_080042fe:                 ;XREF[1,0]:   080042f6
ram:080042fe    9143            bics        r1,r2                                   
ram:08004300    fbe7            b           LAB_080042fa                            
ram:08004302    0122            movs        r2,#0x1                                 
ram:08004304    5203            lsls        r2,r2,#0xd                              
ram:08004306    0029            cmp         r1,#0x0                                 
ram:08004308    4168            ldr         r1,[r0,#0x4]                            
ram:0800430a    01d0            beq         LAB_08004310                            
ram:0800430c    1143            orrs        r1,r2                                   
ram:0800430e    00e0            b           LAB_08004312                            
                            LAB_08004310:                 ;XREF[1,0]:   0800430a
ram:08004310    9143            bics        r1,r2                                   
                            LAB_08004312:                 ;XREF[1,0]:   0800430e
ram:08004312    4160            str         r1,[r0,#0x4]                            
ram:08004314    7047            bx          lr                                      
ram:08004316    0122            movs        r2,#0x1                                 
ram:08004318    9203            lsls        r2,r2,#0xe                              
ram:0800431a    0029            cmp         r1,#0x0                                 
ram:0800431c    4168            ldr         r1,[r0,#0x4]                            
ram:0800431e    01d0            beq         LAB_08004324                            
ram:08004320    1143            orrs        r1,r2                                   
ram:08004322    00e0            b           LAB_08004326                            
                            LAB_08004324:                 ;XREF[1,0]:   0800431e
ram:08004324    9143            bics        r1,r2                                   
                            LAB_08004326:                 ;XREF[1,0]:   08004322
ram:08004326    4160            str         r1,[r0,#0x4]                            
ram:08004328    7047            bx          lr                                      
ram:0800432a    0122            movs        r2,#0x1                                 
ram:0800432c    1203            lsls        r2,r2,#0xc                              
ram:0800432e    0029            cmp         r1,#0x0                                 
ram:08004330    4168            ldr         r1,[r0,#0x4]                            
ram:08004332    01d0            beq         LAB_08004338                            
ram:08004334    1143            orrs        r1,r2                                   
ram:08004336    00e0            b           LAB_0800433a                            
                            LAB_08004338:                 ;XREF[1,0]:   08004332
ram:08004338    9143            bics        r1,r2                                   
                            LAB_0800433a:                 ;XREF[1,0]:   08004336
ram:0800433a    4160            str         r1,[r0,#0x4]                            
ram:0800433c    7047            bx          lr                                      
ram:0800433e    0122            movs        r2,#0x1                                 
ram:08004340    d203            lsls        r2,r2,#0xf                              
ram:08004342    0029            cmp         r1,#0x0                                 
ram:08004344    4168            ldr         r1,[r0,#0x4]                            
ram:08004346    01d0            beq         LAB_0800434c                            
ram:08004348    9143            bics        r1,r2                                   
ram:0800434a    00e0            b           LAB_0800434e                            
                            LAB_0800434c:                 ;XREF[1,0]:   08004346
ram:0800434c    1143            orrs        r1,r2                                   
                            LAB_0800434e:                 ;XREF[1,0]:   0800434a
ram:0800434e    4160            str         r1,[r0,#0x4]                            
ram:08004350    7047            bx          lr                                      
ram:08004352    8069            ldr         r0,[r0,#0x18]                           
ram:08004354    fe21            movs        r1,#0xfe                                
ram:08004356    000c            lsrs        r0,r0,#0x10                             
ram:08004358    0840            ands        r0,r1                                   
ram:0800435a    7047            bx          lr                                      
ram:0800435c    0146            mov         r1,r0                                   
ram:0800435e    8969            ldr         r1,[r1,#0x18]                           
ram:08004360    0020            movs        r0,#0x0                                 
ram:08004362    0122            movs        r2,#0x1                                 
ram:08004364    1204            lsls        r2,r2,#0x10                             
ram:08004366    1142            tst         r1,r2                                   
ram:08004368    00d0            beq         LAB_0800436c                            
ram:0800436a    9011            asrs        r0,r2,#0x6                              
                            LAB_0800436c:                 ;XREF[1,0]:   08004368
ram:0800436c    7047            bx          lr                                      
                            ;************************************************************************************************
                            ;*                                           FUNCTION                                           *
                            ;************************************************************************************************
                            ;undefined FUN_0800436e(int param_1, uint param_2, int param_3, uint param_4, uint param_5)
          ;param_1       int                 r0                      
          ;param_2       uint                r1                      
          ;param_3       int                 r2                      
          ;param_4       uint                r3                      
          ;param_5       uint                 0                      ;XREF[1,0]:   08004370
                                                          ;XREF[5,0]:   08003144,0800319e,08003204,08003258
                                                          ;             080032a4
ram:0800436e    70b4            push        {r4,r5,r6}                              
ram:08004370    039d            ldr         r5,[sp,#param_5+0xc]                    
ram:08004372    4468            ldr         r4,[param_1,#0x4]                       
ram:08004374    8905            lsls        param_2,param_2,#0x16                   
ram:08004376    890d            lsrs        param_2,param_2,#0x16                   
ram:08004378    1204            lsls        param_3,param_3,#0x10                   
ram:0800437a    4c4e            ldr         r6,[DAT_080044ac]                       ;= FC009800h
ram:0800437c    1143            orrs        param_2,param_3                         
ram:0800437e    1943            orrs        param_2,param_4                         
ram:08004380    3440            ands        r4,r6                                   
ram:08004382    2943            orrs        param_2,r5                              
ram:08004384    2143            orrs        param_2,r4                              
ram:08004386    4160            str         param_2,[param_1,#0x4]                  
ram:08004388    70bc            pop         {r4,r5,r6}                              
ram:0800438a    7047            bx          lr                                      
ram:0800438c    0122            movs        r2,#0x1                                 
ram:0800438e    9205            lsls        r2,r2,#0x16                             
ram:08004390    0029            cmp         r1,#0x0                                 
ram:08004392    0168            ldr         r1,[r0,#0x0]                            
ram:08004394    01d0            beq         LAB_0800439a                            
ram:08004396    1143            orrs        r1,r2                                   
ram:08004398    00e0            b           LAB_0800439c                            
                            LAB_0800439a:                 ;XREF[1,0]:   08004394
ram:0800439a    9143            bics        r1,r2                                   
                            LAB_0800439c:                 ;XREF[1,0]:   08004398
ram:0800439c    0160            str         r1,[r0,#0x0]                            
ram:0800439e    7047            bx          lr                                      
ram:080043a0    0122            movs        r2,#0x1                                 
ram:080043a2    d203            lsls        r2,r2,#0xf                              
ram:080043a4    0029            cmp         r1,#0x0                                 
ram:080043a6    4169            ldr         r1,[r0,#0x14]                           
ram:080043a8    01d0            beq         LAB_080043ae                            
ram:080043aa    1143            orrs        r1,r2                                   
ram:080043ac    00e0            b           LAB_080043b0                            
                            LAB_080043ae:                 ;XREF[1,0]:   080043a8
ram:080043ae    9143            bics        r1,r2                                   
                            LAB_080043b0:                 ;XREF[1,0]:   080043ac
ram:080043b0    4161            str         r1,[r0,#0x14]                           
ram:080043b2    7047            bx          lr                                      
ram:080043b4    0029            cmp         r1,#0x0                                 
ram:080043b6    4169            ldr         r1,[r0,#0x14]                           
ram:080043b8    03d0            beq         LAB_080043c2                            
ram:080043ba    0122            movs        r2,#0x1                                 
ram:080043bc    d207            lsls        r2,r2,#0x1f                             
ram:080043be    1143            orrs        r1,r2                                   
ram:080043c0    01e0            b           LAB_080043c6                            
                            LAB_080043c2:                 ;XREF[1,0]:   080043b8
ram:080043c2    4900            lsls        r1,r1,#0x1                              
ram:080043c4    4908            lsrs        r1,r1,#0x1                              
                            LAB_080043c6:                 ;XREF[1,0]:   080043c0
ram:080043c6    4161            str         r1,[r0,#0x14]                           
ram:080043c8    7047            bx          lr                                      
ram:080043ca    0122            movs        r2,#0x1                                 
ram:080043cc    1203            lsls        r2,r2,#0xc                              
ram:080043ce    0029            cmp         r1,#0x0                                 
ram:080043d0    4169            ldr         r1,[r0,#0x14]                           
ram:080043d2    01d0            beq         LAB_080043d8                            
ram:080043d4    1143            orrs        r1,r2                                   
ram:080043d6    00e0            b           LAB_080043da                            
                            LAB_080043d8:                 ;XREF[1,0]:   080043d2
ram:080043d8    9143            bics        r1,r2                                   
                            LAB_080043da:                 ;XREF[1,0]:   080043d6
ram:080043da    4161            str         r1,[r0,#0x14]                           
ram:080043dc    7047            bx          lr                                      
ram:080043de    4269            ldr         r2,[r0,#0x14]                           
ram:080043e0    0905            lsls        r1,r1,#0x14                             
ram:080043e2    120b            lsrs        r2,r2,#0xc                              
ram:080043e4    1203            lsls        r2,r2,#0xc                              
ram:080043e6    090d            lsrs        r1,r1,#0x14                             
ram:080043e8    1143            orrs        r1,r2                                   
ram:080043ea    4161            str         r1,[r0,#0x14]                           
ram:080043ec    7047            bx          lr                                      
ram:080043ee    4269            ldr         r2,[r0,#0x14]                           
ram:080043f0    2f4b            ldr         r3,[DAT_080044b0]                       ;= F000FFFFh
ram:080043f2    0905            lsls        r1,r1,#0x14                             
ram:080043f4    1a40            ands        r2,r3                                   
ram:080043f6    0909            lsrs        r1,r1,#0x4                              
ram:080043f8    1143            orrs        r1,r2                                   
ram:080043fa    4161            str         r1,[r0,#0x14]                           
ram:080043fc    7047            bx          lr                                      
ram:080043fe    0122            movs        r2,#0x1                                 
ram:08004400    d205            lsls        r2,r2,#0x17                             
ram:08004402    0029            cmp         r1,#0x0                                 
ram:08004404    0168            ldr         r1,[r0,#0x0]                            
ram:08004406    01d0            beq         LAB_0800440c                            
ram:08004408    1143            orrs        r1,r2                                   
ram:0800440a    00e0            b           LAB_0800440e                            
                            LAB_0800440c:                 ;XREF[1,0]:   08004406
ram:0800440c    9143            bics        r1,r2                                   
                            LAB_0800440e:                 ;XREF[1,0]:   0800440a
ram:0800440e    0160            str         r1,[r0,#0x0]                            
ram:08004410    7047            bx          lr                                      
ram:08004412    0122            movs        r2,#0x1                                 
ram:08004414    9206            lsls        r2,r2,#0x1a                             
ram:08004416    0029            cmp         r1,#0x0                                 
ram:08004418    4168            ldr         r1,[r0,#0x4]                            
ram:0800441a    01d0            beq         LAB_08004420                            
ram:0800441c    1143            orrs        r1,r2                                   
ram:0800441e    00e0            b           LAB_08004422                            
                            LAB_08004420:                 ;XREF[1,0]:   0800441a
ram:08004420    9143            bics        r1,r2                                   
                            LAB_08004422:                 ;XREF[1,0]:   0800441e
ram:08004422    4160            str         r1,[r0,#0x4]                            
ram:08004424    7047            bx          lr                                      
ram:08004426    006a            ldr         r0,[r0,#0x20]                           
ram:08004428    c0b2            uxtb        r0,r0                                   
ram:0800442a    7047            bx          lr                                      
                            ;************************************************************************************************
                            ;*                                           FUNCTION                                           *
                            ;************************************************************************************************
                            ;undefined4 FUN_0800442c(int param_1, int param_2)
          ;param_1       int                 r0                      
          ;param_2       int                 r1                      
          ;local_4       undefined4          -4                      ;XREF[1,0]:   08004430
                                                          ;XREF[4,0]:   08003128,08003154,0800323c,08003268
ram:0800442c    81b0            sub         sp,#0x4                                 
ram:0800442e    4018            adds        param_1,param_1,param_2                 
ram:08004430    0090            str         param_1,[sp,#0x0]=>local_4              
ram:08004432    0068            ldr         param_1,[param_1,#0x0]                  
ram:08004434    01b0            add         sp,#0x4                                 
ram:08004436    7047            bx          lr                                      
                            ;************************************************************************************************
                            ;*                                           FUNCTION                                           *
                            ;************************************************************************************************
                            ;undefined FUN_08004438(int param_1, undefined4 param_2)
          ;param_1       int                 r0                      
          ;param_2       undefined4          r1                      
                                                          ;XREF[4,0]:   080030fe,0800314c,08003260,080032be
ram:08004438    8162            str         param_2,[param_1,#0x28]                 
ram:0800443a    7047            bx          lr                                      
                            ;************************************************************************************************
                            ;*                                           FUNCTION                                           *
                            ;************************************************************************************************
                            ;uint FUN_0800443c(int param_1)
          ;param_1       int                 r0                      
                                                          ;XREF[1,0]:   080031b6
ram:0800443c    406a            ldr         param_1,[param_1,#0x24]                 
ram:0800443e    c0b2            uxtb        param_1,param_1                         
ram:08004440    7047            bx          lr                                      
ram:08004442    002a            cmp         r2,#0x0                                 
ram:08004444    0268            ldr         r2,[r0,#0x0]                            
ram:08004446    01d0            beq         LAB_0800444c                            
ram:08004448    0a43            orrs        r2,r1                                   
ram:0800444a    00e0            b           LAB_0800444e                            
                            LAB_0800444c:                 ;XREF[1,0]:   08004446
ram:0800444c    8a43            bics        r2,r1                                   
                            LAB_0800444e:                 ;XREF[1,0]:   0800444a
ram:0800444e    0260            str         r2,[r0,#0x0]                            
ram:08004450    7047            bx          lr                                      
                            ;************************************************************************************************
                            ;*                                           FUNCTION                                           *
                            ;************************************************************************************************
                            ;bool FUN_08004452(int param_1, uint param_2)
          ;param_1       int                 r0                      
          ;param_2       uint                r1                      
                                                          ;XREF[10,0]:  080030f2,0800311c,08003162,08003182
                                                          ;             080031ac,080031ea,08003230,08003276
                                                          ;             0800328a,080032b2
ram:08004452    0246            mov         r2,param_1                              
ram:08004454    9269            ldr         r2,[r2,#0x18]                           
ram:08004456    0020            movs        param_1,#0x0                            
ram:08004458    0a42            tst         r2,param_2                              
ram:0800445a    00d0            beq         LAB_0800445e                            
ram:0800445c    0120            movs        param_1,#0x1                            
                            LAB_0800445e:                 ;XREF[1,0]:   0800445a
ram:0800445e    7047            bx          lr                                      
                            ;************************************************************************************************
                            ;*                                           FUNCTION                                           *
                            ;************************************************************************************************
                            ;undefined FUN_08004460(int param_1, undefined4 param_2)
          ;param_1       int                 r0                      
          ;param_2       undefined4          r1                      
                                                          ;XREF[2,0]:   08003136,0800324a
ram:08004460    c161            str         param_2,[param_1,#0x1c]                 
ram:08004462    7047            bx          lr                                      
ram:08004464    10b4            push        {r4}                                    
ram:08004466    0023            movs        r3,#0x0                                 
ram:08004468    8a04            lsls        r2,r1,#0x12                             
ram:0800446a    920e            lsrs        r2,r2,#0x1a                             
ram:0800446c    02d0            beq         LAB_08004474                            
ram:0800446e    0268            ldr         r2,[r0,#0x0]                            
ram:08004470    8024            movs        r4,#0x80                                
ram:08004472    04e0            b           LAB_0800447e                            
                            LAB_08004474:                 ;XREF[1,0]:   0800446c
ram:08004474    0a06            lsls        r2,r1,#0x18                             
ram:08004476    920f            lsrs        r2,r2,#0x1e                             
ram:08004478    0268            ldr         r2,[r0,#0x0]                            
ram:0800447a    02d0            beq         LAB_08004482                            
ram:0800447c    4024            movs        r4,#0x40                                
                            LAB_0800447e:                 ;XREF[1,0]:   08004472
ram:0800447e    2240            ands        r2,r4                                   
ram:08004480    00e0            b           LAB_08004484                            
                            LAB_08004482:                 ;XREF[1,0]:   0800447a
ram:08004482    0a40            ands        r2,r1                                   
                            LAB_08004484:                 ;XREF[1,0]:   08004480
ram:08004484    8069            ldr         r0,[r0,#0x18]                           
ram:08004486    0842            tst         r0,r1                                   
ram:08004488    02d0            beq         LAB_08004490                            
ram:0800448a    002a            cmp         r2,#0x0                                 
ram:0800448c    00d0            beq         LAB_08004490                            
ram:0800448e    0123            movs        r3,#0x1                                 
                            LAB_08004490:                 ;XREF[2,0]:   08004488,0800448c
ram:08004490    10bc            pop         {r4}                                    
ram:08004492    1846            mov         r0,r3                                   
ram:08004494    7047            bx          lr                                      
ram:08004496    c161            str         r1,[r0,#0x1c]                           
ram:08004498    7047            bx          lr                                      
ram:0800449a    0000            movs        r0,r0                                   
ram:0800449c    0054            strb        r0,[r0,r0]                              
ram:0800449e    0040            ands        r0,r0                                   
                            DAT_080044a0:                 ;XREF[1,0]:   08004174
ram:080044a0    ffe0cf00        undefined4  00CFE0FFh                               
                            DAT_080044a4:                 ;XREF[1,0]:   080041b8
ram:080044a4    ff7fff07        undefined4  07FF7FFFh                               
                            DAT_080044a8:                 ;XREF[1,0]:   08004254
ram:080044a8    01f8ffff        undefined4  FFFFF801h                               
                            DAT_080044ac:                 ;XREF[1,0]:   0800437a
ram:080044ac    009800fc        undefined4  FC009800h                               
                            DAT_080044b0:                 ;XREF[1,0]:   080043f0
ram:080044b0    ffff00f0        undefined4  F000FFFFh                               
                            ;************************************************************************************************
                            ;*                                           FUNCTION                                           *
                            ;************************************************************************************************
                            ;undefined FUN_080049b8(uint param_1, int param_2)
          ;param_1       uint                r0                      
          ;param_2       int                 r1                      
                                                          ;XREF[10,0]:  0800174e,08001bae,08001bba,08001c52
                                                          ;             08001ca0,08002478,0800249c,080024a6
                                                          ;             08002576,08002584
ram:080049b8    f0b4            push        {r4,r5,r6,r7}                           
ram:080049ba    104b            ldr         r3,[DAT_080049fc]                       ;= 20000208h
ram:080049bc    104c            ldr         r4,[DAT_08004a00]                       ;= 2000020Ch
ram:080049be    1a68            ldr         r2,[r3,#0x0]=>DAT_20000208              
ram:080049c0    2768            ldr         r7,[r4,#0x0]=>DAT_2000020c              
ram:080049c2    1646            mov         r6,r2                                   
ram:080049c4    3d46            mov         r5,r7                                   
ram:080049c6    8643            bics        r6,param_1                              
ram:080049c8    8543            bics        r5,param_1                              
ram:080049ca    0029            cmp         param_2,#0x0                            
ram:080049cc    0ad0            beq         LAB_080049e4                            
ram:080049ce    0129            cmp         param_2,#0x1                            
ram:080049d0    0ad0            beq         LAB_080049e8                            
ram:080049d2    0229            cmp         param_2,#0x2                            
ram:080049d4    0dd0            beq         LAB_080049f2                            
ram:080049d6    0329            cmp         param_2,#0x3                            
ram:080049d8    02d1            bne         LAB_080049e0                            
ram:080049da    0743            orrs        r7,param_1                              
ram:080049dc    1e60            str         r6,[r3,#0x0]=>DAT_20000208              
ram:080049de    2760            str         r7,[r4,#0x0]=>DAT_2000020c              
                            LAB_080049e0:                 ;XREF[1,0]:   080049d8
ram:080049e0    f0bc            pop         {r4,r5,r6,r7}                           
ram:080049e2    7047            bx          lr                                      
                            LAB_080049e4:                 ;XREF[1,0]:   080049cc
ram:080049e4    1e60            str         r6,[r3,#0x0]=>DAT_20000208              
ram:080049e6    06e0            b           LAB_080049f6                            
                            LAB_080049e8:                 ;XREF[1,0]:   080049d0
ram:080049e8    0243            orrs        r2,param_1                              
ram:080049ea    1a60            str         r2,[r3,#0x0]=>DAT_20000208              
ram:080049ec    2560            str         r5,[r4,#0x0]=>DAT_2000020c              
ram:080049ee    f0bc            pop         {r4,r5,r6,r7}                           
ram:080049f0    7047            bx          lr                                      
                            LAB_080049f2:                 ;XREF[1,0]:   080049d4
ram:080049f2    4240            eors        r2,param_1                              
ram:080049f4    1a60            str         r2,[r3,#0x0]=>DAT_20000208              
                            LAB_080049f6:                 ;XREF[1,0]:   080049e6
ram:080049f6    2560            str         r5,[r4,#0x0]=>DAT_2000020c              
ram:080049f8    f0bc            pop         {r4,r5,r6,r7}                           
ram:080049fa    7047            bx          lr                                      
                            DAT_080049fc:                 ;XREF[1,0]:   080049ba
ram:080049fc    08020020        undefined4  20000208h                               
                            DAT_08004a00:                 ;XREF[1,0]:   080049bc
ram:08004a00    0c020020        undefined4  2000020Ch                               
                            ;************************************************************************************************
                            ;*                                           FUNCTION                                           *
                            ;************************************************************************************************
                            ;undefined FUNC_SysTick_08004a22(void)
                                                          ;XREF[0,1]:   08000c4c
ram:08004a22    f948            ldr         r0=>DAT_200001e0,[DAT_08004e08]         ;= 200001E0h
ram:08004a24    016a            ldr         r1,[r0,#0x20]=>DAT_20000200             
ram:08004a26    7d22            movs        r2,#0x7d                                
ram:08004a28    9201            lsls        r2,r2,#0x6                              
ram:08004a2a    8918            adds        r1,r1,r2                                
ram:08004a2c    0162            str         r1,[r0,#0x20]=>DAT_20000200             
ram:08004a2e    0169            ldr         r1,[r0,#0x10]=>DAT_200001f0             
ram:08004a30    491c            adds        r1,r1,#0x1                              
ram:08004a32    02d0            beq         LAB_08004a3a                            
ram:08004a34    0169            ldr         r1,[r0,#0x10]=>DAT_200001f0             
ram:08004a36    491c            adds        r1,r1,#0x1                              
ram:08004a38    0161            str         r1,[r0,#0x10]=>DAT_200001f0             
                            LAB_08004a3a:                 ;XREF[1,0]:   08004a32
ram:08004a3a    4169            ldr         r1,[r0,#0x14]=>DAT_200001f4             
ram:08004a3c    491c            adds        r1,r1,#0x1                              
ram:08004a3e    4161            str         r1,[r0,#0x14]=>DAT_200001f4             
ram:08004a40    0a29            cmp         r1,#0xa                                 
ram:08004a42    07d3            bcc         LAB_08004a54                            
ram:08004a44    0021            movs        r1,#0x0                                 
ram:08004a46    4161            str         r1,[r0,#0x14]=>DAT_200001f4             
ram:08004a48    c168            ldr         r1,[r0,#0xc]=>DAT_200001ec              
ram:08004a4a    491c            adds        r1,r1,#0x1                              
ram:08004a4c    02d0            beq         LAB_08004a54                            
ram:08004a4e    c168            ldr         r1,[r0,#0xc]=>DAT_200001ec              
ram:08004a50    491c            adds        r1,r1,#0x1                              
ram:08004a52    c160            str         r1,[r0,#0xc]=>DAT_200001ec              
                            LAB_08004a54:                 ;XREF[2,0]:   08004a42,08004a4c
ram:08004a54    7047            bx          lr                                      
                            ;************************************************************************************************
                            ;*                                           FUNCTION                                           *
                            ;************************************************************************************************
                            ;undefined FUN_08004a56(void)
          ;local_c       undefined4          -c                      ;XREF[2,0]:   08004ce2,08004d8e
          ;local_10      undefined4         -10                      ;XREF[1,0]:   08004b28
          ;local_14      undefined4         -14                      ;XREF[1,0]:   08004b24
          ;local_1c      undefined4         -1c                      ;XREF[1,0]:   08004b32
          ;local_20      undefined4         -20                      ;XREF[1,0]:   08004b2e
          ;local_24      undefined4         -24                      ;XREF[1,0]:   08004b2c
          ;local_28      undefined4         -28                      ;XREF[1,0]:   08004b2a
          ;local_2e      undefined1         -2e                      ;XREF[1,0]:   08004bd4
          ;local_30      undefined2         -30                      ;XREF[1,0]:   08004bd2
          ;local_34      undefined4         -34                      ;XREF[1,0]:   08004bce
          ;local_36      undefined2         -36                      ;XREF[1,0]:   08004bca
          ;local_38      undefined2         -38                      ;XREF[1,0]:   08004bc8
          ;local_3c      undefined2         -3c                      ;XREF[1,0]:   08004b90
          ;local_3e      undefined2         -3e                      ;XREF[1,0]:   08004b8a
          ;local_40      undefined2         -40                      ;XREF[1,0]:   08004b8c
          ;local_42      undefined2         -42                      ;XREF[1,0]:   08004b88
          ;local_44      undefined2         -44                      ;XREF[4,0]:   08004b84,08004b9e,08004bac,08004bba
                                                          ;XREF[1,0]:   08000cce
ram:08004a56    ed48            ldr         r0,[DAT_08004e0c]                       ;= 40021000h
ram:08004a58    0025            movs        r5,#0x0                                 
ram:08004a5a    4168            ldr         r1,[r0,#offset DAT_40021004 &0xff]      
ram:08004a5c    92b0            sub         sp,#0x48                                
ram:08004a5e    fa24            movs        r4,#0xfa                                
ram:08004a60    8908            lsrs        r1,r1,#0x2                              
ram:08004a62    8900            lsls        r1,r1,#0x2                              
ram:08004a64    4160            str         r1,[r0,#offset DAT_40021004 &0xff]      
ram:08004a66    0168            ldr         r1,[r0,#0x0]=>DAT_40021000              
ram:08004a68    0122            movs        r2,#0x1                                 
ram:08004a6a    1206            lsls        r2,r2,#0x18                             
ram:08004a6c    9143            bics        r1,r2                                   
ram:08004a6e    0160            str         r1,[r0,#0x0]=>DAT_40021000              
ram:08004a70    8121            movs        r1,#0x81                                
ram:08004a72    0160            str         r1,[r0,#0x0]=>DAT_40021000              
ram:08004a74    2e46            mov         r6,r5                                   
ram:08004a76    4560            str         r5,[r0,#offset DAT_40021004 &0xff]      
ram:08004a78    0127            movs        r7,#0x1                                 
ram:08004a7a    4762            str         r7,[r0,#offset DAT_40021024 &0xff]      
ram:08004a7c    0321            movs        r1,#0x3                                 
ram:08004a7e    0163            str         r1,[r0,#offset DAT_40021030 &0xff]      
ram:08004a80    8121            movs        r1,#0x81                                
ram:08004a82    4163            str         r1,[r0,#offset DAT_40021034 &0xff]      
ram:08004a84    e249            ldr         r1,[DAT_08004e10]                       ;= 40022000h
ram:08004a86    0d60            str         r5,[r1,#0x0]=>DAT_40022000              
ram:08004a88    e249            ldr         r1,[DAT_08004e14]                       ;= 004E0055h
ram:08004a8a    4161            str         r1,[r0,#offset DAT_40021014 &0xff]      
ram:08004a8c    e249            ldr         r1,[DAT_08004e18]                       ;= 10200002h
ram:08004a8e    c161            str         r1,[r0,#offset DAT_4002101c &0xff]      
ram:08004a90    e249            ldr         r1,[DAT_08004e1c]                       ;= 00405A01h
ram:08004a92    8161            str         r1,[r0,#offset DAT_40021018 &0xff]      
ram:08004a94    e24a            ldr         r2=>DAT_40007000,[DAT_08004e20]         ;= 40007000h
ram:08004a96    8115            asrs        r1,r0,#0x16                             
ram:08004a98    1160            str         r1,[r2,#0x0]=>DAT_40007000              
ram:08004a9a    8121            movs        r1,#0x81                                
ram:08004a9c    4902            lsls        r1,r1,#0x9                              
ram:08004a9e    0162            str         r1,[r0,#offset DAT_40021020 &0xff]      
ram:08004aa0    4115            asrs        r1,r0,#0x15                             
ram:08004aa2    0162            str         r1,[r0,#offset DAT_40021020 &0xff]      
ram:08004aa4    4121            movs        r1,#0x41                                
ram:08004aa6    4902            lsls        r1,r1,#0x9                              
ram:08004aa8    0162            str         r1,[r0,#offset DAT_40021020 &0xff]      
ram:08004aaa    de48            ldr         r0,[DAT_08004e24]                       ;= 40020000h
ram:08004aac    8660            str         r6,[r0,#offset DAT_40020008 &0xff]      
ram:08004aae    c661            str         r6,[r0,#offset DAT_4002001c &0xff]      
ram:08004ab0    0663            str         r6,[r0,#offset DAT_40020030 &0xff]      
ram:08004ab2    dd48            ldr         r0,[DAT_08004e28]                       ;= 40020040h
ram:08004ab4    4660            str         r6,[r0,#0x4]=>DAT_40020044              
ram:08004ab6    8661            str         r6,[r0,#0x18]=>DAT_40020058             
ram:08004ab8    dd49            ldr         r1,[DAT_08004e30]                       ;= 40010000h
ram:08004aba    dc48            ldr         r0,[DAT_08004e2c]                       ;= 00130603h
ram:08004abc    0860            str         r0,[r1,#0x0]=>DAT_40010000              
ram:08004abe    dd48            ldr         r0,[DAT_08004e34]                       ;= 48001400h
ram:08004ac0    1114            asrs        r1,r2,#0x10                             
ram:08004ac2    0160            str         r1,[r0,#0x0]=>DAT_48001400              
ram:08004ac4    dc49            ldr         r1,[DAT_08004e38]                       ;= 00001005h
ram:08004ac6    c160            str         r1,[r0,#offset DAT_4800140c &0xff]      
ram:08004ac8    8680            strh        r6,[r0,#offset DAT_48001404 &0xff]      
ram:08004aca    8682            strh        r6,[r0,#offset DAT_48001414 &0xff]      
ram:08004acc    1521            movs        r1,#0x15                                
ram:08004ace    db48            ldr         r0,[DAT_08004e3c]                       ;= 48000800h
ram:08004ad0    8906            lsls        r1,r1,#0x1a                             
ram:08004ad2    0160            str         r1,[r0,#0x0]=>DAT_48000800              
ram:08004ad4    0521            movs        r1,#0x5                                 
ram:08004ad6    8906            lsls        r1,r1,#0x1a                             
ram:08004ad8    c160            str         r1,[r0,#offset DAT_4800080c &0xff]      
ram:08004ada    0321            movs        r1,#0x3                                 
ram:08004adc    4903            lsls        r1,r1,#0xd                              
ram:08004ade    8180            strh        r1,[r0,#offset DAT_48000804 &0xff]      
ram:08004ae0    8182            strh        r1,[r0,#offset DAT_48000814 &0xff]      
ram:08004ae2    d848            ldr         r0=>DAT_48000400,[DAT_08004e44]         ;= 48000400h
ram:08004ae4    d649            ldr         r1,[DAT_08004e40]                       ;= A955A55Ah
ram:08004ae6    0160            str         r1,[r0,#0x0]=>DAT_48000400              
ram:08004ae8    c021            movs        r1,#0xc0                                
ram:08004aea    8180            strh        r1,[r0,#offset DAT_48000404 &0xff]      
ram:08004aec    8660            str         r6,[r0,#offset DAT_48000408 &0xff]      
ram:08004aee    0521            movs        r1,#0x5                                 
ram:08004af0    0903            lsls        r1,r1,#0xc                              
ram:08004af2    c160            str         r1,[r0,#offset DAT_4800040c &0xff]      
ram:08004af4    9114            asrs        r1,r2,#0x12                             
ram:08004af6    8182            strh        r1,[r0,#offset DAT_48000414 &0xff]      
ram:08004af8    d349            ldr         r1,[DAT_08004e48]                       ;= 11000011h
ram:08004afa    0162            str         r1,[r0,#offset DAT_48000420 &0xff]      
ram:08004afc    4662            str         r6,[r0,#offset DAT_48000424 &0xff]      
ram:08004afe    0920            movs        r0,#0x9                                 
ram:08004b00    d249            ldr         r1,[DAT_08004e4c]                       ;= 695AAFEFh
ram:08004b02    c006            lsls        r0=>DAT_48000000,r0,#0x1b               
ram:08004b04    0160            str         r1,[r0,#0x0]=>DAT_48000000              
ram:08004b06    0421            movs        r1,#0x4                                 
ram:08004b08    8180            strh        r1,[r0,#offset DAT_48000004 &0xff]      
ram:08004b0a    0f21            movs        r1,#0xf                                 
ram:08004b0c    0904            lsls        r1,r1,#0x10                             
ram:08004b0e    8160            str         r1,[r0,#offset DAT_48000008 &0xff]      
ram:08004b10    1021            movs        r1,#0x10                                
ram:08004b12    c160            str         r1,[r0,#offset DAT_4800000c &0xff]      
ram:08004b14    0421            movs        r1,#0x4                                 
ram:08004b16    8182            strh        r1,[r0,#offset DAT_48000014 &0xff]      
ram:08004b18    cd49            ldr         r1,[DAT_08004e50]                       ;= 11000100h
ram:08004b1a    0162            str         r1,[r0,#offset DAT_48000020 &0xff]      
ram:08004b1c    2221            movs        r1,#0x22                                
ram:08004b1e    4162            str         r1,[r0,#offset DAT_48000024 &0xff]      
ram:08004b20    fdf786fe        bl          FUN_08002830                            ;undefined FUN_08002830(void)
ram:08004b24    0d96            str         r6,[sp,#local_14+0x48]                  
ram:08004b26    cb48            ldr         r0,[DAT_08004e54]                       ;= 00200002h
ram:08004b28    0e96            str         r6,[sp,#local_10+0x48]                  
ram:08004b2a    0890            str         r0,[sp,#local_28+0x48]                  
ram:08004b2c    0996            str         r6,[sp,#local_24+0x48]                  
ram:08004b2e    0a96            str         r6,[sp,#local_20+0x48]                  
ram:08004b30    08a9            add         r1,sp,#0x20                             
ram:08004b32    0b96            str         r6,[sp,#local_1c+0x48]                  
ram:08004b34    c848            ldr         r0,[DAT_08004e58]                       ;= 40005400h
ram:08004b36    fff717fb        bl          FUN_08004168                            ;undefined FUN_08004168(uint * param_...
ram:08004b3a    0121            movs        r1,#0x1                                 
ram:08004b3c    c648            ldr         r0,[DAT_08004e58]                       ;= 40005400h
ram:08004b3e    fff74dfb        bl          FUN_080041dc                            ;undefined FUN_080041dc(uint * param_...
ram:08004b42    c649            ldr         r1,[DAT_08004e5c]                       ;= 40013000h
ram:08004b44    1c20            movs        r0,#0x1c                                
ram:08004b46    0880            strh        r0,[r1,#0x0]=>DAT_40013000              
ram:08004b48    c548            ldr         r0,[DAT_08004e60]                       ;= 00001707h
ram:08004b4a    8880            strh        r0,[r1,#offset DAT_40013004 &0xff]      
ram:08004b4c    c548            ldr         r0,[DAT_08004e64]                       ;= 40012C00h
ram:08004b4e    0680            strh        r6,[r0,#0x0]=>DAT_40012c00              
ram:08004b50    8680            strh        r6,[r0,#offset DAT_40012c04 &0xff]      
ram:08004b52    0681            strh        r6,[r0,#offset DAT_40012c08 &0xff]      
ram:08004b54    8681            strh        r6,[r0,#offset DAT_40012c0c &0xff]      
ram:08004b56    0682            strh        r6,[r0,#offset DAT_40012c10 &0xff]      
ram:08004b58    c349            ldr         r1,[DAT_08004e68]                       ;= 00007060h
ram:08004b5a    0183            strh        r1,[r0,#offset DAT_40012c18 &0xff]      
ram:08004b5c    8683            strh        r6,[r0,#offset DAT_40012c1c &0xff]      
ram:08004b5e    c349            ldr         r1,[DAT_08004e6c]                       ;= 40012C20h
ram:08004b60    1122            movs        r2,#0x11                                
ram:08004b62    0a80            strh        r2,[r1,#0x0]=>DAT_40012c20              
ram:08004b64    0e81            strh        r6,[r1,#0x8]=>DAT_40012c28              
ram:08004b66    ff22            movs        r2,#0xff                                
ram:08004b68    6a32            adds        r2,#0x6a                                
ram:08004b6a    c262            str         r2,[r0,#offset DAT_40012c2c &0xff]      
ram:08004b6c    0e82            strh        r6,[r1,#0x10]=>DAT_40012c30             
ram:08004b6e    4663            str         r6,[r0,#offset DAT_40012c34 &0xff]      
ram:08004b70    511c            adds        r1,r2,#0x1                              
ram:08004b72    8163            str         r1,[r0,#offset DAT_40012c38 &0xff]      
ram:08004b74    3322            movs        r2,#0x33                                
ram:08004b76    be49            ldr         r1,[DAT_08004e70]                       ;= 40012C40h
ram:08004b78    9202            lsls        r2,r2,#0xa                              
ram:08004b7a    8a80            strh        r2,[r1,#0x4]=>DAT_40012c44              
ram:08004b7c    0e81            strh        r6,[r1,#0x8]=>DAT_40012c48              
ram:08004b7e    8e81            strh        r6,[r1,#0xc]=>DAT_40012c4c              
ram:08004b80    0780            strh        r7,[r0,#0x0]=>DAT_40012c00              
ram:08004b82    6846            mov         r0,sp                                   
ram:08004b84    8680            strh        r6,[r0,#local_44+0x48]                  
ram:08004b86    0a21            movs        r1,#0xa                                 
ram:08004b88    c180            strh        r1,[r0,#local_42+0x48]                  
ram:08004b8a    4681            strh        r6,[r0,#local_3e+0x48]                  
ram:08004b8c    0781            strh        r7,[r0,#local_40+0x48]                  
ram:08004b8e    b94f            ldr         r7,[DAT_08004e74]                       ;= 40000400h
ram:08004b90    8681            strh        r6,[r0,#local_3c+0x48]                  
ram:08004b92    01a9            add         r1,sp,#0x4                              
ram:08004b94    3846            mov         r0,r7                                   
ram:08004b96    fef7d4ff        bl          FUN_08003b42                            ;undefined FUN_08003b42(int param_1, ...
ram:08004b9a    0421            movs        r1,#0x4                                 
ram:08004b9c    6846            mov         r0,sp                                   
ram:08004b9e    8180            strh        r1,[r0,#local_44+0x48]                  
ram:08004ba0    01a9            add         r1,sp,#0x4                              
ram:08004ba2    3846            mov         r0,r7                                   
ram:08004ba4    fef7cdff        bl          FUN_08003b42                            ;undefined FUN_08003b42(int param_1, ...
ram:08004ba8    0821            movs        r1,#0x8                                 
ram:08004baa    6846            mov         r0,sp                                   
ram:08004bac    8180            strh        r1,[r0,#local_44+0x48]                  
ram:08004bae    01a9            add         r1,sp,#0x4                              
ram:08004bb0    3846            mov         r0,r7                                   
ram:08004bb2    fef7c6ff        bl          FUN_08003b42                            ;undefined FUN_08003b42(int param_1, ...
ram:08004bb6    0c21            movs        r1,#0xc                                 
ram:08004bb8    6846            mov         r0,sp                                   
ram:08004bba    8180            strh        r1,[r0,#local_44+0x48]                  
ram:08004bbc    01a9            add         r1,sp,#0x4                              
ram:08004bbe    3846            mov         r0,r7                                   
ram:08004bc0    fef7bfff        bl          FUN_08003b42                            ;undefined FUN_08003b42(int param_1, ...
ram:08004bc4    2b21            movs        r1,#0x2b                                
ram:08004bc6    6846            mov         r0,sp                                   
ram:08004bc8    0182            strh        r1,[r0,#local_38+0x48]                  
ram:08004bca    4682            strh        r6,[r0,#local_36+0x48]                  
ram:08004bcc    aa48            ldr         r0,[DAT_08004e78]                       ;= 0000FFFFh
ram:08004bce    0590            str         r0,[sp,#local_34+0x48]                  
ram:08004bd0    6846            mov         r0,sp                                   
ram:08004bd2    0683            strh        r6,[r0,#local_30+0x48]                  
ram:08004bd4    8676            strb        r6,[r0,#local_2e+0x48]                  
ram:08004bd6    04a9            add         r1,sp,#0x10                             
ram:08004bd8    3846            mov         r0,r7                                   
ram:08004bda    fef7f2fc        bl          FUN_080035c2                            ;undefined FUN_080035c2(ushort * para...
ram:08004bde    0021            movs        r1,#0x0                                 
ram:08004be0    3846            mov         r0,r7                                   
ram:08004be2    fef73efd        bl          FUN_08003662                            ;undefined FUN_08003662(ushort * para...
ram:08004be6    0122            movs        r2,#0x1                                 
ram:08004be8    1f21            movs        r1,#0x1f                                
ram:08004bea    3846            mov         r0,r7                                   
ram:08004bec    fff7def8        bl          FUN_08003dac                            ;undefined FUN_08003dac(int param_1, ...
ram:08004bf0    a249            ldr         r1,[DAT_08004e7c]                       ;= E000E100h
ram:08004bf2    b813            asrs        r0,r7,#0xe                              
ram:08004bf4    0860            str         r0,[r1,#0x0]=>DAT_e000e100              
ram:08004bf6    0121            movs        r1,#0x1                                 
ram:08004bf8    3846            mov         r0,r7                                   
ram:08004bfa    fef754fd        bl          FUN_080036a6                            ;undefined FUN_080036a6(ushort * para...
ram:08004bfe    a14f            ldr         r7,[DAT_08004e84]                       ;= 40013800h
ram:08004c00    9f48            ldr         r0,[DAT_08004e80]                       ;= 0000144Ch
ram:08004c02    3860            str         r0,[r7,#0x0]=>DAT_40013800              
ram:08004c04    fdf7f6fc        bl          FUN_080025f4                            ;undefined FUN_080025f4(void)
ram:08004c08    7814            asrs        r0,r7,#0x11                             
ram:08004c0a    7860            str         r0,[r7,#offset DAT_40013804 &0xff]      
ram:08004c0c    9e48            ldr         r0,[DAT_08004e88]                       ;= 000010C8h
ram:08004c0e    b860            str         r0,[r7,#offset DAT_40013808 &0xff]      
ram:08004c10    d020            movs        r0,#0xd0                                
ram:08004c12    b881            strh        r0,[r7,#offset DAT_4001380c &0xff]      
ram:08004c14    9d48            ldr         r0,[DAT_08004e8c]                       ;= 0000144Dh
ram:08004c16    3860            str         r0,[r7,#0x0]=>DAT_40013800              
ram:08004c18    0120            movs        r0,#0x1                                 
ram:08004c1a    9849            ldr         r1,[DAT_08004e7c]                       ;= E000E100h
ram:08004c1c    c006            lsls        r0,r0,#0x1b                             
ram:08004c1e    0860            str         r0,[r1,#0x0]=>DAT_e000e100              
ram:08004c20    7848            ldr         r0,[DAT_08004e04]                       ;= E000E000h
ram:08004c22    9b49            ldr         r1,[DAT_08004e90]                       ;= 00001F3Fh
ram:08004c24    4161            str         r1,[r0,#offset DAT_e000e014 &0xff]      
ram:08004c26    9b49            ldr         r1,[DAT_08004e94]                       ;= E000ED04h
ram:08004c28    c969            ldr         r1,[r1,#0x1c]=>DAT_e000ed20             
ram:08004c2a    0902            lsls        r1,r1,#0x8                              
ram:08004c2c    090a            lsrs        r1,r1,#0x8                              
ram:08004c2e    4204            lsls        r2,r0,#0x11                             
ram:08004c30    1143            orrs        r1,r2                                   
ram:08004c32    984a            ldr         r2,[DAT_08004e94]                       ;= E000ED04h
ram:08004c34    d161            str         r1,[r2,#0x1c]=>DAT_e000ed20             
ram:08004c36    8661            str         r6,[r0,#offset DAT_e000e018 &0xff]      
ram:08004c38    0721            movs        r1,#0x7                                 
ram:08004c3a    0161            str         r1,[r0,#offset DAT_e000e010 &0xff]      
ram:08004c3c    9649            ldr         r1,[DAT_08004e98]                       ;= 40002800h
ram:08004c3e    ca20            movs        r0,#0xca                                
ram:08004c40    4862            str         r0,[r1,#offset DAT_40002824 &0xff]      
ram:08004c42    9548            ldr         r0,[DAT_08004e98]                       ;= 40002800h
ram:08004c44    5321            movs        r1,#0x53                                
ram:08004c46    4162            str         r1,[r0,#offset DAT_40002824 &0xff]      
ram:08004c48    8660            str         r6,[r0,#offset DAT_40002808 &0xff]      
ram:08004c4a    9349            ldr         r1,[DAT_08004e98]                       ;= 40002800h
ram:08004c4c    8020            movs        r0,#0x80                                
ram:08004c4e    c860            str         r0,[r1,#offset DAT_4000280c &0xff]      
ram:08004c50    0846            mov         r0,r1                                   
                            LAB_08004c52:                 ;XREF[1,0]:   08004c56
ram:08004c52    c168            ldr         r1,[r0,#offset DAT_4000280c &0xff]      
ram:08004c54    4906            lsls        r1,r1,#0x19                             
ram:08004c56    fcd5            bpl         LAB_08004c52                            
ram:08004c58    8f49            ldr         r1,[DAT_08004e98]                       ;= 40002800h
ram:08004c5a    904a            ldr         r2,[DAT_08004e9c]                       ;= 007D0140h
ram:08004c5c    0a61            str         r2,[r1,#offset DAT_40002810 &0xff]      
ram:08004c5e    0a61            str         r2,[r1,#offset DAT_40002810 &0xff]      
ram:08004c60    8f48            ldr         r0,[DAT_08004ea0]                       ;= 80808080h
ram:08004c62    c861            str         r0,[r1,#offset DAT_4000281c &0xff]      
ram:08004c64    8f4a            ldr         r2,[DAT_08004ea4]                       ;= 40002840h
ram:08004c66    4803            lsls        r0,r1,#0xd                              
ram:08004c68    5060            str         r0,[r2,#0x4]=>DAT_40002844              
ram:08004c6a    0020            movs        r0,#0x0                                 
ram:08004c6c    c860            str         r0,[r1,#offset DAT_4000280c &0xff]      
ram:08004c6e    1123            movs        r3,#0x11                                
ram:08004c70    1b02            lsls        r3,r3,#0x8                              
ram:08004c72    8b60            str         r3,[r1,#offset DAT_40002808 &0xff]      
ram:08004c74    1060            str         r0,[r2,#0x0]=>DAT_40002840              
ram:08004c76    6e49            ldr         r1,[DAT_08004e30]                       ;= 40010000h
ram:08004c78    8860            str         r0,[r1,#offset DAT_40010008 &0xff]      
ram:08004c7a    c860            str         r0,[r1,#offset DAT_4001000c &0xff]      
ram:08004c7c    0861            str         r0,[r1,#offset DAT_40010010 &0xff]      
ram:08004c7e    4861            str         r0,[r1,#offset DAT_40010014 &0xff]      
ram:08004c80    8a48            ldr         r0,[DAT_08004eac]                       ;= 40010400h
ram:08004c82    894a            ldr         r2,[DAT_08004ea8]                       ;= 00020004h
ram:08004c84    8260            str         r2,[r0,#offset DAT_40010408 &0xff]      
ram:08004c86    0421            movs        r1,#0x4                                 
ram:08004c88    c160            str         r1,[r0,#offset DAT_4001040c &0xff]      
ram:08004c8a    0160            str         r1,[r0,#0x0]=>DAT_40010400              
ram:08004c8c    4260            str         r2,[r0,#offset DAT_40010404 &0xff]      
ram:08004c8e    6620            movs        r0,#0x66                                
ram:08004c90    fef77ffb        bl          FUN_08003392                            ;undefined FUN_08003392(undefined4 pa...
ram:08004c94    fef702f8        bl          FUN_08002c9c                            ;undefined FUN_08002c9c(void)
ram:08004c98    fdf7acfd        bl          FUN_080027f4                            ;undefined FUN_080027f4(void)
ram:08004c9c    6548            ldr         r0,[DAT_08004e34]                       ;= 48001400h
ram:08004c9e    008a            ldrh        r0,[r0,#offset DAT_48001410 &0xff]      
ram:08004ca0    0221            movs        r1,#0x2                                 
ram:08004ca2    834f            ldr         r7,[DAT_08004eb0]                       ;= 2000016Ch
ram:08004ca4    0840            ands        r0,r1                                   
ram:08004ca6    3860            str         r0,[r7,#0x0]=>DAT_2000016c              
ram:08004ca8    62b6            cpsie       i                                       
ram:08004caa    0422            movs        r2,#0x4                                 
ram:08004cac    8149            ldr         r1,[DAT_08004eb4]                       ;= 200001B0h
ram:08004cae    8248            ldr         r0,[DAT_08004eb8]                       ;= 00000040h
ram:08004cb0    fef75dfa        bl          FUN_0800316e                            ;int FUN_0800316e(uint param_1, int p...
ram:08004cb4    0668            ldr         r6,[r0,#0x0]                            
ram:08004cb6    3046            mov         r0,r6                                   
ram:08004cb8    00f029fb        bl          FUN_0800530e                            ;undefined FUN_0800530e(undefined4 pa...
ram:08004cbc    7d48            ldr         r0,[DAT_08004eb4]                       ;= 200001B0h
ram:08004cbe    761c            adds        r6,r6,#0x1                              
ram:08004cc0    0146            mov         r1=>DAT_200001b0,r0                     
ram:08004cc2    0660            str         r6,[r0,#0x0]=>DAT_200001b0              
ram:08004cc4    0422            movs        r2,#0x4                                 
ram:08004cc6    7c48            ldr         r0,[DAT_08004eb8]                       ;= 00000040h
ram:08004cc8    fef77dfa        bl          FUN_080031c6                            ;undefined FUN_080031c6(uint param_1,...
ram:08004ccc    fcf7f4fa        bl          FUN_080012b8                            ;undefined FUN_080012b8(void)
ram:08004cd0    4d4e            ldr         r6,[DAT_08004e08]                       ;= 200001E0h
                            LAB_08004cd2:                 ;XREF[2,0]:   08004f56,08004f72
ram:08004cd2    fef769fb        bl          FUN_080033a8                            ;undefined FUN_080033a8(void)
ram:08004cd6    fcf7fffa        bl          FUN_080012d8                            ;undefined FUN_080012d8(undefined4 pa...
ram:08004cda    fdf7edff        bl          FUN_08002cb8                            ;undefined FUN_08002cb8(void)
ram:08004cde    00f0b2f9        bl          FUN_08005046                            ;undefined4 FUN_08005046(void)
ram:08004ce2    0f90            str         r0,[sp,#local_c+0x48]                   
ram:08004ce4    7548            ldr         r0,[DAT_08004ebc]                       ;= 20000204h
ram:08004ce6    0068            ldr         r0,[r0,#0x0]=>DAT_20000204              
ram:08004ce8    0028            cmp         r0,#0x0                                 
ram:08004cea    28d1            bne         LAB_08004d3e                            
ram:08004cec    514f            ldr         r7,[DAT_08004e34]                       ;= 48001400h
ram:08004cee    388a            ldrh        r0,[r7,#offset DAT_48001410 &0xff]      
ram:08004cf0    6f49            ldr         r1,[DAT_08004eb0]                       ;= 2000016Ch
ram:08004cf2    0978            ldrb        r1,[r1,#0x0]=>DAT_2000016c              
ram:08004cf4    0840            ands        r0,r1                                   
ram:08004cf6    8007            lsls        r0,r0,#0x1e                             
ram:08004cf8    21d5            bpl         LAB_08004d3e                            
ram:08004cfa    fdf7dbfc        bl          FUN_080026b4                            ;undefined4 FUN_080026b4(void)
ram:08004cfe    0028            cmp         r0,#0x0                                 
ram:08004d00    1dd1            bne         LAB_08004d3e                            
ram:08004d02    fcf7d3f9        bl          FUN_080010ac                            ;uint FUN_080010ac(void)
ram:08004d06    0028            cmp         r0,#0x0                                 
ram:08004d08    19d1            bne         LAB_08004d3e                            
ram:08004d0a    f069            ldr         r0,[r6,#0x1c]=>DAT_200001fc             
ram:08004d0c    0028            cmp         r0,#0x0                                 
ram:08004d0e    16d1            bne         LAB_08004d3e                            
ram:08004d10    0920            movs        r0,#0x9                                 
ram:08004d12    c006            lsls        r0,r0,#0x1b                             
ram:08004d14    808a            ldrh        r0,[r0,#offset DAT_48000014 &0xff]      
ram:08004d16    2721            movs        r1,#0x27                                
ram:08004d18    8902            lsls        r1,r1,#0xa                              
ram:08004d1a    0840            ands        r0,r1                                   
ram:08004d1c    4949            ldr         r1=>DAT_48000400,[DAT_08004e44]         ;= 48000400h
ram:08004d1e    898a            ldrh        r1,[r1,#offset DAT_48000414 &0xff]      
ram:08004d20    c322            movs        r2,#0xc3                                
ram:08004d22    1201            lsls        r2,r2,#0x4                              
ram:08004d24    1140            ands        r1,r2                                   
ram:08004d26    0843            orrs        r0,r1                                   
ram:08004d28    09d1            bne         LAB_08004d3e                            
ram:08004d2a    b88a            ldrh        r0,[r7,#offset DAT_48001414 &0xff]      
ram:08004d2c    0006            lsls        r0,r0,#0x18                             
ram:08004d2e    06d4            bmi         LAB_08004d3e                            
ram:08004d30    4c48            ldr         r0,[DAT_08004e64]                       ;= 40012C00h
ram:08004d32    816b            ldr         r1,[r0,#offset DAT_40012c38 &0xff]      
ram:08004d34    406b            ldr         r0,[r0,#offset DAT_40012c34 &0xff]      
ram:08004d36    ff39            subs        r1,#0xff                                
ram:08004d38    6b39            subs        r1,#0x6b                                
ram:08004d3a    0143            orrs        r1,r0                                   
ram:08004d3c    02d0            beq         LAB_08004d44                            
                            LAB_08004d3e:                 ;XREF[7,0]:   08004cea,08004cf8,08004d00,08004d08
                                                          ;             08004d0e,08004d28,08004d2e
ram:08004d3e    6420            movs        r0,#0x64                                
ram:08004d40    3060            str         r0,[r6,#0x0]=>DAT_200001e0              
ram:08004d42    02e0            b           LAB_08004d4a                            
                            LAB_08004d44:                 ;XREF[1,0]:   08004d3c
ram:08004d44    3068            ldr         r0,[r6,#0x0]=>DAT_200001e0              
ram:08004d46    0028            cmp         r0,#0x0                                 
ram:08004d48    25d0            beq         LAB_08004d96                            
                            LAB_08004d4a:                 ;XREF[1,0]:   08004d42
ram:08004d4a    0120            movs        r0,#0x1                                 
ram:08004d4c    3b49            ldr         r1=>DAT_48000800,[DAT_08004e3c]         ;= 48000800h
ram:08004d4e    c003            lsls        r0,r0,#0xf                              
ram:08004d50    8861            str         r0,[r1,#offset DAT_48000818 &0xff]      
ram:08004d52    fdf7abfd        bl          FUN_080028ac                            ;undefined FUN_080028ac(void)
                            LAB_08004d56:                 ;XREF[2,0]:   08004db4,08004dfe
ram:08004d56    5548            ldr         r0,[DAT_08004eac]                       ;= 40010400h
ram:08004d58    4169            ldr         r1,[r0,#offset DAT_40010414 &0xff]      
ram:08004d5a    4907            lsls        r1,r1,#0x1d                             
ram:08004d5c    03d5            bpl         LAB_08004d66                            
ram:08004d5e    0421            movs        r1,#0x4                                 
ram:08004d60    4161            str         r1,[r0,#offset DAT_40010414 &0xff]      
ram:08004d62    1420            movs        r0,#0x14                                
ram:08004d64    7060            str         r0,[r6,#0x4]=>DAT_200001e4              
                            LAB_08004d66:                 ;XREF[1,0]:   08004d5c
ram:08004d66    3348            ldr         r0,[DAT_08004e34]                       ;= 48001400h
ram:08004d68    008a            ldrh        r0,[r0,#offset DAT_48001410 &0xff]      
ram:08004d6a    8007            lsls        r0,r0,#0x1e                             
ram:08004d6c    01d5            bpl         LAB_08004d72                            
ram:08004d6e    0020            movs        r0,#0x0                                 
ram:08004d70    b060            str         r0,[r6,#0x8]=>DAT_200001e8              
                            LAB_08004d72:                 ;XREF[1,0]:   08004d6c
ram:08004d72    3069            ldr         r0,[r6,#0x10]=>DAT_200001f0             
ram:08004d74    0028            cmp         r0,#0x0                                 
ram:08004d76    07d0            beq         LAB_08004d88                            
                            LAB_08004d78:                 ;XREF[1,0]:   08004d86
ram:08004d78    3069            ldr         r0,[r6,#0x10]=>DAT_200001f0             
ram:08004d7a    401e            subs        r0,r0,#0x1                              
ram:08004d7c    3061            str         r0,[r6,#0x10]=>DAT_200001f0             
ram:08004d7e    fef7affa        bl          FUN_080032e0                            ;undefined FUN_080032e0(void)
ram:08004d82    3069            ldr         r0,[r6,#0x10]=>DAT_200001f0             
ram:08004d84    0028            cmp         r0,#0x0                                 
ram:08004d86    f7d1            bne         LAB_08004d78                            
                            LAB_08004d88:                 ;XREF[1,0]:   08004d76
ram:08004d88    f068            ldr         r0,[r6,#0xc]=>DAT_200001ec              
ram:08004d8a    0028            cmp         r0,#0x0                                 
ram:08004d8c    38d0            beq         LAB_08004e00                            
ram:08004d8e    0f98            ldr         r0,[sp,#local_c+0x48]                   
ram:08004d90    0028            cmp         r0,#0x0                                 
ram:08004d92    36d1            bne         LAB_08004e02                            
ram:08004d94    96e0            b           LAB_08004ec4                            
                            LAB_08004d96:                 ;XREF[1,0]:   08004d48
ram:08004d96    0120            movs        r0,#0x1                                 
ram:08004d98    284f            ldr         r7,[DAT_08004e3c]                       ;= 48000800h
ram:08004d9a    c007            lsls        r0,r0,#0x1f                             
ram:08004d9c    b861            str         r0,[r7,#offset DAT_48000818 &0xff]      
ram:08004d9e    00f0adfa        bl          FUN_080052fc                            ;uint FUN_080052fc(void)
ram:08004da2    1921            movs        r1,#0x19                                
ram:08004da4    00f096fa        bl          FUN_080052d4                            ;int FUN_080052d4(uint param_1, uint ...
ram:08004da8    0846            mov         r0,r1                                   
ram:08004daa    6630            adds        r0,#0x66                                
ram:08004dac    fef7f1fa        bl          FUN_08003392                            ;undefined FUN_08003392(undefined4 pa...
ram:08004db0    7068            ldr         r0,[r6,#0x4]=>DAT_200001e4              
ram:08004db2    0028            cmp         r0,#0x0                                 
ram:08004db4    cfd1            bne         LAB_08004d56                            
ram:08004db6    0320            movs        r0,#0x3                                 
ram:08004db8    4003            lsls        r0,r0,#0xd                              
ram:08004dba    b861            str         r0,[r7,#offset DAT_48000818 &0xff]      
                            LAB_08004dbc:                 ;XREF[1,0]:   08004dc2
ram:08004dbc    00f043f9        bl          FUN_08005046                            ;undefined4 FUN_08005046(void)
ram:08004dc0    0028            cmp         r0,#0x0                                 
ram:08004dc2    fbd0            beq         LAB_08004dbc                            
ram:08004dc4    2b4f            ldr         r7,[DAT_08004e74]                       ;= 40000400h
ram:08004dc6    0021            movs        r1,#0x0                                 
ram:08004dc8    3846            mov         r0,r7                                   
ram:08004dca    fef76cfc        bl          FUN_080036a6                            ;undefined FUN_080036a6(ushort * para...
ram:08004dce    3c49            ldr         r1,[DAT_08004ec0]                       ;= E000ED00h
ram:08004dd0    0420            movs        r0,#0x4                                 
ram:08004dd2    0861            str         r0,[r1,#offset DAT_e000ed10 &0xff]      
ram:08004dd4    8101            lsls        r1,r0,#0x6                              
ram:08004dd6    1248            ldr         r0,[DAT_08004e20]                       ;= 40007000h
ram:08004dd8    0160            str         r1,[r0,#0x0]=>DAT_40007000              
ram:08004dda    0022            movs        r2,#0x0                                 
ram:08004ddc    4260            str         r2,[r0,#offset DAT_40007004 &0xff]      
ram:08004dde    20bf            wfe                                                  
ram:08004de0    0160            str         r1,[r0,#0x0]=>DAT_40007000              
ram:08004de2    2d48            ldr         r0,[DAT_08004e98]                       ;= 40002800h
ram:08004de4    c260            str         r2,[r0,#offset DAT_4000280c &0xff]      
ram:08004de6    0121            movs        r1,#0x1                                 
ram:08004de8    3846            mov         r0,r7                                   
ram:08004dea    fef75cfc        bl          FUN_080036a6                            ;undefined FUN_080036a6(ushort * para...
ram:08004dee    00f0cdf8        bl          FUN_08004f8c                            ;undefined FUN_08004f8c(void)
ram:08004df2    fa20            movs        r0,#0xfa                                
ram:08004df4    b061            str         r0,[r6,#0x18]=>DAT_200001f8             
                            LAB_08004df6:                 ;XREF[1,0]:   08004dfc
ram:08004df6    00f026f9        bl          FUN_08005046                            ;undefined4 FUN_08005046(void)
ram:08004dfa    0028            cmp         r0,#0x0                                 
ram:08004dfc    fbd0            beq         LAB_08004df6                            
ram:08004dfe    aae7            b           LAB_08004d56                            
                            LAB_08004e00:                 ;XREF[1,0]:   08004d8c
ram:08004e00    67e0            b           LAB_08004ed2                            
                            LAB_08004e02:                 ;XREF[1,0]:   08004d92
ram:08004e02    62e0            b           LAB_08004eca                            
                            DAT_08004e04:                 ;XREF[1,0]:   08004c20
ram:08004e04    00e000e0        undefined4  E000E000h                               
                            DAT_08004e08:                 ;XREF[2,0]:   08004a22,08004cd0
ram:08004e08    e0010020        undefined4  200001E0h                               
                            DAT_08004e0c:                 ;XREF[1,0]:   08004a56
ram:08004e0c    00100240        undefined4  40021000h                               
                            DAT_08004e10:                 ;XREF[1,0]:   08004a84
ram:08004e10    00200240        undefined4  40022000h                               
                            DAT_08004e14:                 ;XREF[1,0]:   08004a88
ram:08004e14    55004e00        undefined4  004E0055h                               
                            DAT_08004e18:                 ;XREF[1,0]:   08004a8c
ram:08004e18    02002010        undefined4  10200002h                               
                            DAT_08004e1c:                 ;XREF[1,0]:   08004a90
ram:08004e1c    015a4000        undefined4  00405A01h                               
                            DAT_08004e20:                 ;XREF[2,0]:   08004a94,08004dd6
ram:08004e20    00700040        undefined4  40007000h                               
                            DAT_08004e24:                 ;XREF[1,0]:   08004aaa
ram:08004e24    00000240        undefined4  40020000h                               
                            DAT_08004e28:                 ;XREF[1,0]:   08004ab2
ram:08004e28    40000240        undefined4  40020040h                               
                            DAT_08004e2c:                 ;XREF[1,0]:   08004aba
ram:08004e2c    03061300        undefined4  00130603h                               
                            DAT_08004e30:                 ;XREF[2,0]:   08004ab8,08004c76
ram:08004e30    00000140        undefined4  40010000h                               
                            DAT_08004e34:                 ;XREF[4,0]:   08004abe,08004c9c,08004cec,08004d66
ram:08004e34    00140048        undefined4  48001400h                               
                            DAT_08004e38:                 ;XREF[1,0]:   08004ac4
ram:08004e38    05100000        undefined4  00001005h                               
                            DAT_08004e3c:                 ;XREF[3,0]:   08004ace,08004d4c,08004d98
ram:08004e3c    00080048        undefined4  48000800h                               
                            DAT_08004e40:                 ;XREF[1,0]:   08004ae4
ram:08004e40    5aa555a9        undefined4  A955A55Ah                               
                            DAT_08004e44:                 ;XREF[2,0]:   08004ae2,08004d1c
ram:08004e44    00040048        undefined4  48000400h                               
                            DAT_08004e48:                 ;XREF[1,0]:   08004af8
ram:08004e48    11000011        undefined4  11000011h                               
                            DAT_08004e4c:                 ;XREF[1,0]:   08004b00
ram:08004e4c    efaf5a69        undefined4  695AAFEFh                               
                            DAT_08004e50:                 ;XREF[1,0]:   08004b18
ram:08004e50    00010011        undefined4  11000100h                               
                            DAT_08004e54:                 ;XREF[1,0]:   08004b26
ram:08004e54    02002000        undefined4  00200002h                               
                            DAT_08004e58:                 ;XREF[2,0]:   08004b34,08004b3c
ram:08004e58    00540040        undefined4  40005400h                               
                            DAT_08004e5c:                 ;XREF[1,0]:   08004b42
ram:08004e5c    00300140        undefined4  40013000h                               
                            DAT_08004e60:                 ;XREF[1,0]:   08004b48
ram:08004e60    07170000        undefined4  00001707h                               
                            DAT_08004e64:                 ;XREF[2,0]:   08004b4c,08004d30
ram:08004e64    002c0140        undefined4  40012C00h                               
                            DAT_08004e68:                 ;XREF[1,0]:   08004b58
ram:08004e68    60700000        undefined4  00007060h                               
                            DAT_08004e6c:                 ;XREF[1,0]:   08004b5e
ram:08004e6c    202c0140        undefined4  40012C20h                               
                            DAT_08004e70:                 ;XREF[1,0]:   08004b76
ram:08004e70    402c0140        undefined4  40012C40h                               
                            DAT_08004e74:                 ;XREF[2,0]:   08004b8e,08004dc4
ram:08004e74    00040040        undefined4  40000400h                               
                            DAT_08004e78:                 ;XREF[1,0]:   08004bcc
ram:08004e78    ffff0000        undefined4  0000FFFFh                               
                            DAT_08004e7c:                 ;XREF[2,0]:   08004bf0,08004c1a
ram:08004e7c    00e100e0        undefined4  E000E100h                               
                            DAT_08004e80:                 ;XREF[1,0]:   08004c00
ram:08004e80    4c140000        undefined4  0000144Ch                               
                            DAT_08004e84:                 ;XREF[1,0]:   08004bfe
ram:08004e84    00380140        undefined4  40013800h                               
                            DAT_08004e88:                 ;XREF[1,0]:   08004c0c
ram:08004e88    c8100000        undefined4  000010C8h                               
                            DAT_08004e8c:                 ;XREF[1,0]:   08004c14
ram:08004e8c    4d140000        undefined4  0000144Dh                               
                            DAT_08004e90:                 ;XREF[1,0]:   08004c22
ram:08004e90    3f1f0000        undefined4  00001F3Fh                               
                            DAT_08004e94:                 ;XREF[2,0]:   08004c26,08004c32
ram:08004e94    04ed00e0        undefined4  E000ED04h                               
                            DAT_08004e98:                 ;XREF[5,0]:   08004c3c,08004c42,08004c4a,08004c58
                                                          ;             08004de2
ram:08004e98    00280040        undefined4  40002800h                               
                            DAT_08004e9c:                 ;XREF[1,0]:   08004c5a
ram:08004e9c    40017d00        undefined4  007D0140h                               
                            DAT_08004ea0:                 ;XREF[1,0]:   08004c60
ram:08004ea0    80808080        undefined4  80808080h                               
                            DAT_08004ea4:                 ;XREF[1,0]:   08004c64
ram:08004ea4    40280040        undefined4  40002840h                               
                            DAT_08004ea8:                 ;XREF[1,0]:   08004c82
ram:08004ea8    04000200        undefined4  00020004h                               
                            DAT_08004eac:                 ;XREF[2,0]:   08004c80,08004d56
ram:08004eac    00040140        undefined4  40010400h                               
                            DAT_08004eb0:                 ;XREF[2,0]:   08004ca2,08004cf0
ram:08004eb0    6c010020        undefined4  2000016Ch                               
                            DAT_08004eb4:                 ;XREF[2,0]:   08004cac,08004cbc
ram:08004eb4    b0010020        undefined4  200001B0h                               
                            DAT_08004eb8:                 ;XREF[2,0]:   08004cae,08004cc6
ram:08004eb8    40000000        undefined4  00000040h                               
                            DAT_08004ebc:                 ;XREF[1,0]:   08004ce4
ram:08004ebc    04020020        undefined4  20000204h                               
                            DAT_08004ec0:                 ;XREF[1,0]:   08004dce
ram:08004ec0    00ed00e0        undefined4  E000ED00h                               
                            LAB_08004ec4:                 ;XREF[1,0]:   08004d94
ram:08004ec4    b069            ldr         r0,[r6,#0x18]=>DAT_200001f8             
ram:08004ec6    0028            cmp         r0,#0x0                                 
ram:08004ec8    03d1            bne         LAB_08004ed2                            
                            LAB_08004eca:                 ;XREF[1,0]:   08004e02
ram:08004eca    00f05ff8        bl          FUN_08004f8c                            ;undefined FUN_08004f8c(void)
ram:08004ece    fa20            movs        r0,#0xfa                                
ram:08004ed0    b061            str         r0,[r6,#0x18]=>DAT_200001f8             
                            LAB_08004ed2:                 ;XREF[2,0]:   08004e00,08004ec8
ram:08004ed2    f068            ldr         r0,[r6,#0xc]=>DAT_200001ec              
ram:08004ed4    0028            cmp         r0,#0x0                                 
ram:08004ed6    31d0            beq         LAB_08004f3c                            
ram:08004ed8    284f            ldr         r7,[DAT_08004f7c]                       ;= 2000019Eh
                            LAB_08004eda:                 ;XREF[1,0]:   08004f3a
ram:08004eda    f068            ldr         r0,[r6,#0xc]=>DAT_200001ec              
ram:08004edc    401e            subs        r0,r0,#0x1                              
ram:08004ede    f060            str         r0,[r6,#0xc]=>DAT_200001ec              
ram:08004ee0    fef782f8        bl          FUN_08002fe8                            ;undefined FUN_08002fe8(void)
ram:08004ee4    fdf737f8        bl          FUN_08001f56                            ;undefined FUN_08001f56(void)
ram:08004ee8    fdf784fc        bl          FUN_080027f4                            ;undefined FUN_080027f4(void)
ram:08004eec    3878            ldrb        r0,[r7,#0x0]=>DAT_2000019e              
ram:08004eee    0028            cmp         r0,#0x0                                 
ram:08004ef0    08d1            bne         LAB_08004f04                            
ram:08004ef2    7878            ldrb        r0,[r7,#0x1]=>DAT_2000019f              
ram:08004ef4    0028            cmp         r0,#0x0                                 
ram:08004ef6    05d1            bne         LAB_08004f04                            
ram:08004ef8    b878            ldrb        r0,[r7,#0x2]=>DAT_200001a0              
ram:08004efa    0028            cmp         r0,#0x0                                 
ram:08004efc    02d1            bne         LAB_08004f04                            
ram:08004efe    f878            ldrb        r0,[r7,#0x3]=>DAT_200001a1              
ram:08004f00    0028            cmp         r0,#0x0                                 
ram:08004f02    29d0            beq         LAB_08004f58                            
                            LAB_08004f04:                 ;XREF[3,0]:   08004ef0,08004ef6,08004efc
ram:08004f04    fa24            movs        r4,#0xfa                                
                            LAB_08004f06:                 ;XREF[3,0]:   08004f5a,08004f5e,08004f64
ram:08004f06    b069            ldr         r0,[r6,#0x18]=>DAT_200001f8             
ram:08004f08    0028            cmp         r0,#0x0                                 
ram:08004f0a    2cd0            beq         LAB_08004f66                            
ram:08004f0c    401e            subs        r0,r0,#0x1                              
ram:08004f0e    b061            str         r0,[r6,#0x18]=>DAT_200001f8             
                            LAB_08004f10:                 ;XREF[1,0]:   08004f68
ram:08004f10    0a2d            cmp         r5,#0xa                                 
ram:08004f12    0fd3            bcc         LAB_08004f34                            
ram:08004f14    3068            ldr         r0,[r6,#0x0]=>DAT_200001e0              
ram:08004f16    0025            movs        r5,#0x0                                 
ram:08004f18    0028            cmp         r0,#0x0                                 
ram:08004f1a    01d0            beq         LAB_08004f20                            
ram:08004f1c    401e            subs        r0,r0,#0x1                              
ram:08004f1e    3060            str         r0,[r6,#0x0]=>DAT_200001e0              
                            LAB_08004f20:                 ;XREF[1,0]:   08004f1a
ram:08004f20    7068            ldr         r0,[r6,#0x4]=>DAT_200001e4              
ram:08004f22    0028            cmp         r0,#0x0                                 
ram:08004f24    01d0            beq         LAB_08004f2a                            
ram:08004f26    401e            subs        r0,r0,#0x1                              
ram:08004f28    7060            str         r0,[r6,#0x4]=>DAT_200001e4              
                            LAB_08004f2a:                 ;XREF[1,0]:   08004f24
ram:08004f2a    b068            ldr         r0,[r6,#0x8]=>DAT_200001e8              
ram:08004f2c    0128            cmp         r0,#0x1                                 
ram:08004f2e    01d9            bls         LAB_08004f34                            
ram:08004f30    401e            subs        r0,r0,#0x1                              
ram:08004f32    b060            str         r0,[r6,#0x8]=>DAT_200001e8              
                            LAB_08004f34:                 ;XREF[2,0]:   08004f12,08004f2e
ram:08004f34    f068            ldr         r0,[r6,#0xc]=>DAT_200001ec              
ram:08004f36    6d1c            adds        r5,r5,#0x1                              
ram:08004f38    0028            cmp         r0,#0x0                                 
ram:08004f3a    ced1            bne         LAB_08004eda                            
                            LAB_08004f3c:                 ;XREF[1,0]:   08004ed6
ram:08004f3c    1048            ldr         r0,[DAT_08004f80]                       ;= 200004A4h
ram:08004f3e    f269            ldr         r2,[r6,#0x1c]=>DAT_200001fc             
ram:08004f40    4079            ldrb        r0,[r0,#0x5]=>DAT_200004a9              
ram:08004f42    c107            lsls        r1,r0,#0x1f                             
ram:08004f44    c90f            lsrs        r1,r1,#0x1f                             
ram:08004f46    1143            orrs        r1,r2                                   
ram:08004f48    0fd0            beq         LAB_08004f6a                            
ram:08004f4a    8007            lsls        r0,r0,#0x1e                             
ram:08004f4c    0dd4            bmi         LAB_08004f6a                            
ram:08004f4e    0321            movs        r1,#0x3                                 
ram:08004f50    0c48            ldr         r0,[DAT_08004f84]                       ;= 48000400h
ram:08004f52    0902            lsls        r1,r1,#0x8                              
ram:08004f54    8161            str         r1,[r0,#offset DAT_48000418 &0xff]      
ram:08004f56    bce6            b           LAB_08004cd2                            
                            LAB_08004f58:                 ;XREF[1,0]:   08004f02
ram:08004f58    002c            cmp         r4,#0x0                                 
ram:08004f5a    d4d0            beq         LAB_08004f06                            
ram:08004f5c    641e            subs        r4,r4,#0x1                              
ram:08004f5e    d2d1            bne         LAB_08004f06                            
ram:08004f60    fdf78efe        bl          FUN_08002c80                            ;undefined FUN_08002c80(void)
ram:08004f64    cfe7            b           LAB_08004f06                            
                            LAB_08004f66:                 ;XREF[1,0]:   08004f0a
ram:08004f66    00bf            nop                                                  
ram:08004f68    d2e7            b           LAB_08004f10                            
                            LAB_08004f6a:                 ;XREF[2,0]:   08004f48,08004f4c
ram:08004f6a    0320            movs        r0,#0x3                                 
ram:08004f6c    0549            ldr         r1,[DAT_08004f84]                       ;= 48000400h
ram:08004f6e    0006            lsls        r0,r0,#0x18                             
ram:08004f70    8861            str         r0,[r1,#offset DAT_48000418 &0xff]      
ram:08004f72    aee6            b           LAB_08004cd2                            
                            ;************************************************************************************************
                            ;*                                           FUNCTION                                           *
                            ;************************************************************************************************
                            ;undefined FUN_08004f74(undefined4 param_1)
          ;param_1       undefined4          r0                      
                                                          ;XREF[11,0]:  08001472,08001496,08001520,0800161e
                                                          ;             080016a2,080016c0,080016e2,08001704
                                                          ;             08001726,08001b8c,08001c7c
ram:08004f74    0449            ldr         r1,[DAT_08004f88]                       ;= 20000214h
ram:08004f76    0860            str         param_1,[r1,#0x0]=>DAT_20000214         
ram:08004f78    7047            bx          lr                                      
ram:08004f7a    0000            movs        r0,r0                                   
                            DAT_08004f7c:                 ;XREF[1,0]:   08004ed8
ram:08004f7c    9e010020        undefined4  2000019Eh                               
                            DAT_08004f80:                 ;XREF[1,0]:   08004f3c
ram:08004f80    a4040020        undefined4  200004A4h                               
                            DAT_08004f84:                 ;XREF[2,0]:   08004f50,08004f6c
ram:08004f84    00040048        undefined4  48000400h                               
                            DAT_08004f88:                 ;XREF[1,0]:   08004f74
ram:08004f88    14020020        undefined4  20000214h                               
                            ;************************************************************************************************
                            ;*                                           FUNCTION                                           *
                            ;************************************************************************************************
                            ;undefined FUN_08004f8c(void)
          ;local_10      undefined4         -10                      ;XREF[1,0]:   08005016
                                                          ;XREF[2,0]:   08004dee,08004eca
ram:08004f8c    78b4            push        {r3,r4,r5,r6}                           
ram:08004f8e    0120            movs        r0,#0x1                                 
ram:08004f90    4d4e            ldr         r6,[DAT_080050c8]                       ;= 48000400h
ram:08004f92    0003            lsls        r0,r0,#0xc                              
ram:08004f94    b061            str         r0,[r6,#offset DAT_48000418 &0xff]      
ram:08004f96    4d49            ldr         r1,[DAT_080050cc]                       ;= 20000498h
ram:08004f98    0022            movs        r2,#0x0                                 
ram:08004f9a    4d48            ldr         r0,[DAT_080050d0]                       ;= 20000204h
ram:08004f9c    0a70            strb        r2,[r1,#0x0]=>DAT_20000498              
ram:08004f9e    4468            ldr         r4,[r0,#0x4]=>DAT_20000208              
ram:08004fa0    0b46            mov         r3,r1                                   
ram:08004fa2    5c70            strb        r4,[r3,#0x1]=>DAT_20000499              
ram:08004fa4    250a            lsrs        r5,r4,#0x8                              
ram:08004fa6    9d70            strb        r5,[r3,#0x2]=>DAT_2000049a              
ram:08004fa8    250c            lsrs        r5,r4,#0x10                             
ram:08004faa    dd70            strb        r5,[r3,#0x3]=>DAT_2000049b              
ram:08004fac    240e            lsrs        r4,r4,#0x18                             
ram:08004fae    1c71            strb        r4,[r3,#0x4]=>DAT_2000049c              
ram:08004fb0    8468            ldr         r4,[r0,#0x8]=>DAT_2000020c              
ram:08004fb2    5c71            strb        r4,[r3,#0x5]=>DAT_2000049d              
ram:08004fb4    250a            lsrs        r5,r4,#0x8                              
ram:08004fb6    9d71            strb        r5,[r3,#0x6]=>DAT_2000049e              
ram:08004fb8    250c            lsrs        r5,r4,#0x10                             
ram:08004fba    dd71            strb        r5,[r3,#0x7]=>DAT_2000049f              
ram:08004fbc    240e            lsrs        r4,r4,#0x18                             
ram:08004fbe    1c72            strb        r4,[r3,#0x8]=>DAT_200004a0              
ram:08004fc0    037b            ldrb        r3,[r0,#0xc]=>DAT_20000210              
ram:08004fc2    4b72            strb        r3,[r1,#0x9]=>DAT_200004a1              
ram:08004fc4    037c            ldrb        r3,[r0,#0x10]=>DAT_20000214             
ram:08004fc6    8b72            strb        r3,[r1,#0xa]=>DAT_200004a2              
ram:08004fc8    0261            str         r2,[r0,#0x10]=>DAT_20000214             
ram:08004fca    cb7a            ldrb        r3,[r1,#0xb]=>DAT_200004a3              
ram:08004fcc    047d            ldrb        r4,[r0,#0x14]=>DAT_20000218             
ram:08004fce    9b09            lsrs        r3,r3,#0x6                              
ram:08004fd0    a406            lsls        r4,r4,#0x1a                             
ram:08004fd2    9b01            lsls        r3,r3,#0x6                              
ram:08004fd4    a40e            lsrs        r4,r4,#0x1a                             
ram:08004fd6    4261            str         r2,[r0,#0x14]=>DAT_20000218             
ram:08004fd8    2343            orrs        r3,r4                                   
ram:08004fda    bf20            movs        r0,#0xbf                                
ram:08004fdc    0340            ands        r3,r0                                   
ram:08004fde    3d48            ldr         r0,[DAT_080050d4]                       ;= 200001FCh
ram:08004fe0    0078            ldrb        r0,[r0,#0x0]=>DAT_200001fc              
ram:08004fe2    c007            lsls        r0,r0,#0x1f                             
ram:08004fe4    400e            lsrs        r0,r0,#0x19                             
ram:08004fe6    0343            orrs        r3,r0                                   
ram:08004fe8    3b48            ldr         r0,[DAT_080050d8]                       ;= 2000016Ch
ram:08004fea    cb72            strb        r3,[r1,#0xb]=>DAT_200004a3              
ram:08004fec    0068            ldr         r0,[r0,#0x0]=>DAT_2000016c              
ram:08004fee    0028            cmp         r0,#0x0                                 
ram:08004ff0    26d0            beq         LAB_08005040                            
ram:08004ff2    5b06            lsls        r3,r3,#0x19                             
ram:08004ff4    5b0e            lsrs        r3,r3,#0x19                             
                            LAB_08004ff6:                 ;XREF[1,0]:   08005044
ram:08004ff6    3948            ldr         r0,[DAT_080050dc]                       ;= 40013000h
ram:08004ff8    cb72            strb        r3,[r1,#0xb]=>DAT_200004a3              
ram:08004ffa    5c22            movs        r2,#0x5c                                
ram:08004ffc    0280            strh        r2,[r0,#0x0]=>DAT_40013000              
ram:08004ffe    6122            movs        r2,#0x61                                
ram:08005000    374b            ldr         r3,[DAT_080050e0]                       ;= 40020000h
ram:08005002    d201            lsls        r2,r2,#0x7                              
ram:08005004    da61            str         r2,[r3,#offset DAT_4002001c &0xff]      
ram:08005006    9022            movs        r2,#0x90                                
ram:08005008    1a63            str         r2,[r3,#offset DAT_40020030 &0xff]      
ram:0800500a    da02            lsls        r2,r3,#0xb                              
ram:0800500c    b261            str         r2,[r6,#offset DAT_48000418 &0xff]      
ram:0800500e    0289            ldrh        r2,[r0,#offset DAT_40013008 &0xff]      
ram:08005010    d207            lsls        r2,r2,#0x1f                             
ram:08005012    04d0            beq         LAB_0800501e                            
                            LAB_08005014:                 ;XREF[1,0]:   0800501c
ram:08005014    027b            ldrb        r2,[r0,#offset DAT_4001300c &0xff]      
ram:08005016    0092            str         r2,[sp,#0x0]=>local_10                  
ram:08005018    0289            ldrh        r2,[r0,#offset DAT_40013008 &0xff]      
ram:0800501a    d207            lsls        r2,r2,#0x1f                             
ram:0800501c    fad1            bne         LAB_08005014                            
                            LAB_0800501e:                 ;XREF[1,0]:   08005012
ram:0800501e    0c20            movs        r0,#0xc                                 
ram:08005020    1862            str         r0,[r3,#offset DAT_40020020 &0xff]      
ram:08005022    304a            ldr         r2,[DAT_080050e4]                       ;= 4001300Ch
ram:08005024    5a62            str         r2=>DAT_4001300c,[r3,#offset DAT_4002...
ram:08005026    304c            ldr         r4,[DAT_080050e8]                       ;= 200004A4h
ram:08005028    9c62            str         r4,[r3,#offset DAT_40020028 &0xff]      
ram:0800502a    2024            movs        r4,#0x20                                
ram:0800502c    5c60            str         r4,[r3,#offset DAT_40020004 &0xff]      
ram:0800502e    2f4c            ldr         r4,[DAT_080050ec]                       ;= 00003081h
ram:08005030    dc61            str         r4,[r3,#offset DAT_4002001c &0xff]      
ram:08005032    5863            str         r0,[r3,#offset DAT_40020034 &0xff]      
ram:08005034    9a63            str         r2=>DAT_4001300c,[r3,#offset DAT_4002...
ram:08005036    d963            str         r1=>DAT_20000498,[r3,#offset DAT_4002...
ram:08005038    9120            movs        r0,#0x91                                
ram:0800503a    1863            str         r0,[r3,#offset DAT_40020030 &0xff]      
ram:0800503c    78bc            pop         {r3,r4,r5,r6}                           
ram:0800503e    7047            bx          lr                                      
                            LAB_08005040:                 ;XREF[1,0]:   08004ff0
ram:08005040    8020            movs        r0,#0x80                                
ram:08005042    0343            orrs        r3,r0                                   
ram:08005044    d7e7            b           LAB_08004ff6                            
                            ;************************************************************************************************
                            ;*                                           FUNCTION                                           *
                            ;************************************************************************************************
                            ;undefined4 FUN_08005046(void)
                                                          ;XREF[3,0]:   08004cde,08004dbc,08004df6
ram:08005046    2648            ldr         r0,[DAT_080050e0]                       ;= 40020000h
ram:08005048    c169            ldr         r1,[r0,#offset DAT_4002001c &0xff]      
ram:0800504a    c907            lsls        r1,r1,#0x1f                             
ram:0800504c    17d0            beq         LAB_0800507e                            
ram:0800504e    016b            ldr         r1,[r0,#offset DAT_40020030 &0xff]      
ram:08005050    c907            lsls        r1,r1,#0x1f                             
ram:08005052    14d0            beq         LAB_0800507e                            
ram:08005054    0168            ldr         r1,[r0,#0x0]=>DAT_40020000              
ram:08005056    8906            lsls        r1,r1,#0x1a                             
ram:08005058    34d5            bpl         LAB_080050c4                            
ram:0800505a    1b4a            ldr         r2,[DAT_080050c8]                       ;= 48000400h
ram:0800505c    8114            asrs        r1,r0,#0x12                             
ram:0800505e    9161            str         r1,[r2,#offset DAT_48000418 &0xff]      
ram:08005060    6121            movs        r1,#0x61                                
ram:08005062    c901            lsls        r1,r1,#0x7                              
ram:08005064    c161            str         r1,[r0,#offset DAT_4002001c &0xff]      
ram:08005066    9021            movs        r1,#0x90                                
ram:08005068    0163            str         r1,[r0,#offset DAT_40020030 &0xff]      
ram:0800506a    1c49            ldr         r1,[DAT_080050dc]                       ;= 40013000h
ram:0800506c    1c20            movs        r0,#0x1c                                
ram:0800506e    0880            strh        r0,[r1,#0x0]=>DAT_40013000              
ram:08005070    1d48            ldr         r0,[DAT_080050e8]                       ;= 200004A4h
ram:08005072    0178            ldrb        r1,[r0,#0x0]=>DAT_200004a4              
ram:08005074    0029            cmp         r1,#0x0                                 
ram:08005076    05d0            beq         LAB_08005084                            
ram:08005078    0129            cmp         r1,#0x1                                 
ram:0800507a    12d0            beq         LAB_080050a2                            
ram:0800507c    1fe0            b           LAB_080050be                            
                            LAB_0800507e:                 ;XREF[2,0]:   0800504c,08005052
ram:0800507e    0120            movs        r0,#0x1                                 
ram:08005080    c043            mvns        r0,r0                                   
ram:08005082    7047            bx          lr                                      
                            LAB_08005084:                 ;XREF[1,0]:   08005076
ram:08005084    1a49            ldr         r1,[DAT_080050f0]                       ;= 200004A5h
ram:08005086    0a78            ldrb        r2,[r1,#0x0]=>DAT_200004a5              
ram:08005088    1046            mov         r0,r2                                   
ram:0800508a    4a78            ldrb        r2,[r1,#0x1]=>DAT_200004a6              
ram:0800508c    1202            lsls        r2,r2,#0x8                              
ram:0800508e    1043            orrs        r0,r2                                   
ram:08005090    8a78            ldrb        r2,[r1,#0x2]=>DAT_200004a7              
ram:08005092    c978            ldrb        r1,[r1,#0x3]=>DAT_200004a8              
ram:08005094    1204            lsls        r2,r2,#0x10                             
ram:08005096    1043            orrs        r0,r2                                   
ram:08005098    0906            lsls        r1,r1,#0x18                             
ram:0800509a    0843            orrs        r0,r1                                   
ram:0800509c    0c49            ldr         r1,[DAT_080050d0]                       ;= 20000204h
ram:0800509e    0860            str         r0,[r1,#0x0]=>DAT_20000204              
ram:080050a0    0de0            b           LAB_080050be                            
                            LAB_080050a2:                 ;XREF[1,0]:   0800507a
ram:080050a2    c078            ldrb        r0,[r0,#0x3]=>DAT_200004a7              
ram:080050a4    0028            cmp         r0,#0x0                                 
ram:080050a6    0ad0            beq         LAB_080050be                            
ram:080050a8    0528            cmp         r0,#0x5                                 
ram:080050aa    08d0            beq         LAB_080050be                            
ram:080050ac    bff34f8f        dsb         0xf                                     
ram:080050b0    1149            ldr         r1,[DAT_080050f8]                       ;= E000ED00h
ram:080050b2    1048            ldr         r0,[DAT_080050f4]                       ;= 05FA0004h
ram:080050b4    c860            str         r0,[r1,#offset DAT_e000ed0c &0xff]      
ram:080050b6    bff34f8f        dsb         0xf                                     
                            LAB_080050ba:                 ;XREF[1,0]:   080050bc
ram:080050ba    00bf            nop                                                  
ram:080050bc    fde7            b           LAB_080050ba                            
                            LAB_080050be:                 ;XREF[4,0]:   0800507c,080050a0,080050a6,080050aa
ram:080050be    0020            movs        r0,#0x0                                 
ram:080050c0    c043            mvns        r0,r0                                   
ram:080050c2    7047            bx          lr                                      
                            LAB_080050c4:                 ;XREF[1,0]:   08005058
ram:080050c4    0020            movs        r0,#0x0                                 
ram:080050c6    7047            bx          lr                                      
                            DAT_080050c8:                 ;XREF[2,0]:   08004f90,0800505a
ram:080050c8    00040048        undefined4  48000400h                               
                            DAT_080050cc:                 ;XREF[1,0]:   08004f96
ram:080050cc    98040020        undefined4  20000498h                               
                            DAT_080050d0:                 ;XREF[2,0]:   08004f9a,0800509c
ram:080050d0    04020020        undefined4  20000204h                               
                            DAT_080050d4:                 ;XREF[1,0]:   08004fde
ram:080050d4    fc010020        undefined4  200001FCh                               
                            DAT_080050d8:                 ;XREF[1,0]:   08004fe8
ram:080050d8    6c010020        undefined4  2000016Ch                               
                            DAT_080050dc:                 ;XREF[2,0]:   08004ff6,0800506a
ram:080050dc    00300140        undefined4  40013000h                               
                            DAT_080050e0:                 ;XREF[2,0]:   08005000,08005046
ram:080050e0    00000240        undefined4  40020000h                               
                            DAT_080050e4:                 ;XREF[1,0]:   08005022
ram:080050e4    0c300140        undefined4  4001300Ch                               
                            DAT_080050e8:                 ;XREF[2,0]:   08005026,08005070
ram:080050e8    a4040020        undefined4  200004A4h                               
                            DAT_080050ec:                 ;XREF[1,0]:   0800502e
ram:080050ec    81300000        undefined4  00003081h                               
                            DAT_080050f0:                 ;XREF[1,0]:   08005084
ram:080050f0    a5040020        undefined4  200004A5h                               
                            DAT_080050f4:                 ;XREF[1,0]:   080050b2
ram:080050f4    0400fa05        undefined4  05FA0004h                               
                            DAT_080050f8:                 ;XREF[1,0]:   080050b0
ram:080050f8    00ed00e0        undefined4  E000ED00h                               
                            ;************************************************************************************************
                            ;*                                           FUNCTION                                           *
                            ;************************************************************************************************
                            ;undefined FUNC_Reset_080050fc(void)
                                                          ;XREF[0,1]:   08000c14
ram:080050fc    0c48            ldr         r0,[DAT_08005130]                       ;= 200008B0h
ram:080050fe    80f30888        msr         msp,r0                                  
ram:08005102    0c48            ldr         r0,[DAT_08005134]                       ;= 00000004h
ram:08005104    0168            ldr         r1,[r0,#0x0]=>DAT_00000004              
ram:08005106    090e            lsrs        r1,r1,#0x18                             
ram:08005108    0b4a            ldr         r2,[DAT_08005138]                       ;= 0000001Fh
ram:0800510a    9142            cmp         r1,r2                                   
ram:0800510c    05d1            bne         LAB_0800511a                            
ram:0800510e    0b48            ldr         r0,[DAT_0800513c]                       ;= 40021018h
ram:08005110    0b49            ldr         r1,[DAT_08005140]                       ;= 00000001h
ram:08005112    0160            str         r1,[r0,#0x0]=>DAT_40021018              
ram:08005114    0b48            ldr         r0,[DAT_08005144]                       ;= 40010000h
ram:08005116    0c49            ldr         r1,[DAT_08005148]                       
ram:08005118    0160            str         r1,[r0,#0x0]=>DAT_40010000              
                            LAB_0800511a:                 ;XREF[1,0]:   0800510c
ram:0800511a    0c48            ldr         r0,[DAT_0800514c]                       ;= 08005155h
ram:0800511c    8047            blx         r0=>FUN_08005154                        ;undefined FUN_08005154(void)
ram:0800511e    0c48            ldr         r0,[DAT_08005150]                       ;= 08000CC5h
ram:08005120    0047            bx          r0=>FUN_08000cc4                        ;undefined FUN_08000cc4(undefined4 pa...
                            ;************************************************************************************************
                            ;*                                           FUNCTION                                           *
                            ;************************************************************************************************
                            ;undefined FUNC_NMI_08005122(void)
                                                          ;XREF[1,1]:   08005122,08000c18
ram:08005122    fee7            b           FUNC_NMI_08005122                       
                            ;************************************************************************************************
                            ;*                                           FUNCTION                                           *
                            ;************************************************************************************************
                            ;undefined FUNC_HardFault_08005124(void)
                                                          ;XREF[1,1]:   08005124,08000c1c
ram:08005124    fee7            b           FUNC_HardFault_08005124                 
                            ;************************************************************************************************
                            ;*                                           FUNCTION                                           *
                            ;************************************************************************************************
                            ;undefined FUNC_SVCall_08005126(void)
                                                          ;XREF[1,1]:   08005126,08000c3c
ram:08005126    fee7            b           FUNC_SVCall_08005126                    
                            ;************************************************************************************************
                            ;*                                           FUNCTION                                           *
                            ;************************************************************************************************
                            ;undefined FUNC_PendSV_08005128(void)
                                                          ;XREF[1,1]:   08005128,08000c48
ram:08005128    fee7            b           FUNC_PendSV_08005128                    
                            ;************************************************************************************************
                            ;*                                           FUNCTION                                           *
                            ;************************************************************************************************
                            ;undefined FUN_0800512a(void)
                                                          ;XREF[1,0]:   0800512a
ram:0800512a    fee7            b           FUN_0800512a                            
                            ;************************************************************************************************
                            ;*                                           FUNCTION                                           *
                            ;************************************************************************************************
                            ;undefined FUNC_IRQ_0800512c(void)
                                                          ;XREF[1,22]:  0800512c,08000c50,08000c58,08000c5c
                                                          ;             08000c60,08000c64,08000c68,08000c6c
                                                          ;             08000c74,08000c78,08000c7c,08000c80
                                                          ;             08000c84,08000c88,08000c9c,08000ca0
                                                          ;             08000ca4,08000ca8,08000cac,08000cb0
                                                          ;             08000cb4,08000cb8,08000cc0
ram:0800512c    fee7            b           FUNC_IRQ_0800512c                       
ram:0800512e    0000            movs        r0,r0                                   
                            DAT_08005130:                 ;XREF[1,0]:   080050fc
ram:08005130    b0080020        undefined4  200008B0h                               
                            DAT_08005134:                 ;XREF[1,0]:   08005102
ram:08005134    04000000        undefined4  00000004h                               
                            DAT_08005138:                 ;XREF[1,0]:   08005108
ram:08005138    1f000000        undefined4  0000001Fh                               
                            DAT_0800513c:                 ;XREF[1,0]:   0800510e
ram:0800513c    18100240        undefined4  40021018h                               
                            DAT_08005140:                 ;XREF[1,0]:   08005110
ram:08005140    01000000        undefined4  00000001h                               
                            DAT_08005144:                 ;XREF[1,0]:   08005114
ram:08005144    00000140        undefined4  40010000h                               
                            DAT_08005148:                 ;XREF[1,0]:   08005116
ram:08005148    00000000        undefined4  00000000h                               
                            DAT_0800514c:                 ;XREF[1,0]:   0800511a
ram:0800514c    55510008        undefined4  08005155h                               ;?  ->  08005155
                            DAT_08005150:                 ;XREF[1,0]:   0800511e
ram:08005150    c50c0008        undefined4  08000CC5h                               ;?  ->  08000cc5
                            ;************************************************************************************************
                            ;*                                           FUNCTION                                           *
                            ;************************************************************************************************
                            ;undefined FUN_08005154(void)
          ;local_c       undefined4          -c                      ;XREF[4,0]:   080051a0,080051b8,080051bc,080051c4
          ;local_10      undefined4         -10                      ;XREF[5,0]:   080051a2,080051b6,080051be,080051d4,08005224
                                                          ;XREF[1,0]:   0800511c
ram:08005154    30b4            push        {r4,r5}                                 
ram:08005156    4c48            ldr         r0=>DAT_40021000,[DAT_08005288]         ;= 40021000h
ram:08005158    82b0            sub         sp,#0x8                                 
ram:0800515a    0168            ldr         r1,[r0,#0x0]=>DAT_40021000              
ram:0800515c    0124            movs        r4,#0x1                                 
ram:0800515e    2143            orrs        r1,r4                                   
ram:08005160    0160            str         r1,[r0,#0x0]=>DAT_40021000              
ram:08005162    4168            ldr         r1,[r0,#offset DAT_40021004 &0xff]      
ram:08005164    494a            ldr         r2,[DAT_0800528c]                       ;= 08FFB80Ch
ram:08005166    1140            ands        r1,r2                                   
ram:08005168    4160            str         r1,[r0,#offset DAT_40021004 &0xff]      
ram:0800516a    0168            ldr         r1,[r0,#0x0]=>DAT_40021000              
ram:0800516c    484a            ldr         r2,[DAT_08005290]                       ;= FEF6FFFFh
ram:0800516e    1140            ands        r1,r2                                   
ram:08005170    0160            str         r1,[r0,#0x0]=>DAT_40021000              
ram:08005172    0168            ldr         r1,[r0,#0x0]=>DAT_40021000              
ram:08005174    a204            lsls        r2,r4,#0x12                             
ram:08005176    9143            bics        r1,r2                                   
ram:08005178    0160            str         r1,[r0,#0x0]=>DAT_40021000              
ram:0800517a    4168            ldr         r1,[r0,#offset DAT_40021004 &0xff]      
ram:0800517c    3f22            movs        r2,#0x3f                                
ram:0800517e    1204            lsls        r2,r2,#0x10                             
ram:08005180    9143            bics        r1,r2                                   
ram:08005182    4160            str         r1,[r0,#offset DAT_40021004 &0xff]      
ram:08005184    c16a            ldr         r1,[r0,#offset DAT_4002102c &0xff]      
ram:08005186    0909            lsrs        r1,r1,#0x4                              
ram:08005188    0901            lsls        r1,r1,#0x4                              
ram:0800518a    c162            str         r1,[r0,#offset DAT_4002102c &0xff]      
ram:0800518c    016b            ldr         r1,[r0,#offset DAT_40021030 &0xff]      
ram:0800518e    ff22            movs        r2,#0xff                                
ram:08005190    5432            adds        r2,#0x54                                
ram:08005192    9143            bics        r1,r2                                   
ram:08005194    0163            str         r1,[r0,#offset DAT_40021030 &0xff]      
ram:08005196    416b            ldr         r1,[r0,#offset DAT_40021034 &0xff]      
ram:08005198    a143            bics        r1,r4                                   
ram:0800519a    4163            str         r1,[r0,#offset DAT_40021034 &0xff]      
ram:0800519c    0023            movs        r3,#0x0                                 
ram:0800519e    8360            str         r3,[r0,#offset DAT_40021008 &0xff]      
ram:080051a0    0193            str         r3,[sp,#local_c+0x10]                   
ram:080051a2    0093            str         r3,[sp,#0x0]=>local_10                  
ram:080051a4    0168            ldr         r1,[r0,#0x0]=>DAT_40021000              
ram:080051a6    2204            lsls        r2,r4,#0x10                             
ram:080051a8    1143            orrs        r1,r2                                   
ram:080051aa    0160            str         r1,[r0,#0x0]=>DAT_40021000              
ram:080051ac    5200            lsls        r2,r2,#0x1                              
ram:080051ae    0525            movs        r5,#0x5                                 
ram:080051b0    2d03            lsls        r5,r5,#0xc                              
                            LAB_080051b2:                 ;XREF[1,0]:   080051c8
ram:080051b2    0168            ldr         r1,[r0,#0x0]=>DAT_40021000              
ram:080051b4    1140            ands        r1,r2                                   
ram:080051b6    0091            str         r1,[sp,#0x0]=>local_10                  
ram:080051b8    0199            ldr         r1,[sp,#local_c+0x10]                   
ram:080051ba    491c            adds        r1,r1,#0x1                              
ram:080051bc    0191            str         r1,[sp,#local_c+0x10]                   
ram:080051be    0099            ldr         r1,[sp,#0x0]=>local_10                  
ram:080051c0    0029            cmp         r1,#0x0                                 
ram:080051c2    02d1            bne         LAB_080051ca                            
ram:080051c4    0199            ldr         r1,[sp,#local_c+0x10]                   
ram:080051c6    a942            cmp         r1,r5                                   
ram:080051c8    f3d1            bne         LAB_080051b2                            
                            LAB_080051ca:                 ;XREF[1,0]:   080051c2
ram:080051ca    0168            ldr         r1,[r0,#0x0]=>DAT_40021000              
ram:080051cc    8903            lsls        r1,r1,#0xe                              
ram:080051ce    29d5            bpl         LAB_08005224                            
ram:080051d0    304a            ldr         r2,[DAT_08005294]                       ;= 40022000h
ram:080051d2    1121            movs        r1,#0x11                                
ram:080051d4    0094            str         r4,[sp,#0x0]=>local_10                  
ram:080051d6    1160            str         r1,[r2,#0x0]=>DAT_40022000              
ram:080051d8    4168            ldr         r1,[r0,#offset DAT_40021004 &0xff]      
ram:080051da    4160            str         r1,[r0,#offset DAT_40021004 &0xff]      
ram:080051dc    4168            ldr         r1,[r0,#offset DAT_40021004 &0xff]      
ram:080051de    4160            str         r1,[r0,#offset DAT_40021004 &0xff]      
ram:080051e0    4168            ldr         r1,[r0,#offset DAT_40021004 &0xff]      
ram:080051e2    7f22            movs        r2,#0x7f                                
ram:080051e4    d203            lsls        r2,r2,#0xf                              
ram:080051e6    9143            bics        r1,r2                                   
ram:080051e8    4160            str         r1,[r0,#offset DAT_40021004 &0xff]      
ram:080051ea    4168            ldr         r1,[r0,#offset DAT_40021004 &0xff]      
ram:080051ec    1122            movs        r2,#0x11                                
ram:080051ee    1204            lsls        r2,r2,#0x10                             
ram:080051f0    1143            orrs        r1,r2                                   
ram:080051f2    4160            str         r1,[r0,#offset DAT_40021004 &0xff]      
ram:080051f4    0168            ldr         r1,[r0,#0x0]=>DAT_40021000              
ram:080051f6    0122            movs        r2,#0x1                                 
ram:080051f8    1206            lsls        r2,r2,#0x18                             
ram:080051fa    1143            orrs        r1,r2                                   
ram:080051fc    0160            str         r1,[r0,#0x0]=>DAT_40021000              
                            LAB_080051fe:                 ;XREF[1,0]:   08005202
ram:080051fe    0168            ldr         r1,[r0,#0x0]=>DAT_40021000              
ram:08005200    8901            lsls        r1,r1,#0x6                              
ram:08005202    fcd5            bpl         LAB_080051fe                            
ram:08005204    4168            ldr         r1,[r0,#offset DAT_40021004 &0xff]      
ram:08005206    8908            lsrs        r1,r1,#0x2                              
ram:08005208    8900            lsls        r1,r1,#0x2                              
ram:0800520a    4160            str         r1,[r0,#offset DAT_40021004 &0xff]      
ram:0800520c    4168            ldr         r1,[r0,#offset DAT_40021004 &0xff]      
ram:0800520e    0222            movs        r2,#0x2                                 
ram:08005210    1143            orrs        r1,r2                                   
ram:08005212    4160            str         r1,[r0,#offset DAT_40021004 &0xff]      
                            LAB_08005214:                 ;XREF[1,0]:   0800521c
ram:08005214    4168            ldr         r1,[r0,#offset DAT_40021004 &0xff]      
ram:08005216    0907            lsls        r1,r1,#0x1c                             
ram:08005218    890f            lsrs        r1,r1,#0x1e                             
ram:0800521a    0229            cmp         r1,#0x2                                 
ram:0800521c    fad1            bne         LAB_08005214                            
ram:0800521e    02b0            add         sp,#0x8                                 
ram:08005220    30bc            pop         {r4,r5}                                 
ram:08005222    7047            bx          lr                                      
                            LAB_08005224:                 ;XREF[1,0]:   080051ce
ram:08005224    0093            str         r3,[sp,#0x0]=>local_10                  
ram:08005226    02b0            add         sp,#0x8                                 
ram:08005228    30bc            pop         {r4,r5}                                 
ram:0800522a    7047            bx          lr                                      
                            ;************************************************************************************************
                            ;*                                           FUNCTION                                           *
                            ;************************************************************************************************
                            ;undefined FUN_0800522c(void)
ram:0800522c    70b5            push        {r4,r5,r6,lr}                           
ram:0800522e    164d            ldr         r5,[DAT_08005288]                       ;= 40021000h
ram:08005230    6968            ldr         r1,[r5,#offset DAT_40021004 &0xff]      
ram:08005232    0c20            movs        r0,#0xc                                 
ram:08005234    0140            ands        r1,r0                                   
ram:08005236    1848            ldr         r0,[DAT_08005298]                       ;= 007A1200h
ram:08005238    184c            ldr         r4,[DAT_0800529c]                       ;= 2000021Ch
ram:0800523a    03d0            beq         LAB_08005244                            
ram:0800523c    0429            cmp         r1,#0x4                                 
ram:0800523e    01d0            beq         LAB_08005244                            
ram:08005240    0829            cmp         r1,#0x8                                 
ram:08005242    01d0            beq         LAB_08005248                            
                            LAB_08005244:                 ;XREF[2,0]:   0800523a,0800523e
ram:08005244    2060            str         r0,[r4,#0x0]=>DAT_2000021c              
ram:08005246    11e0            b           LAB_0800526c                            
                            LAB_08005248:                 ;XREF[1,0]:   08005242
ram:08005248    6a68            ldr         r2,[r5,#offset DAT_40021004 &0xff]      
ram:0800524a    6968            ldr         r1,[r5,#offset DAT_40021004 &0xff]      
ram:0800524c    0323            movs        r3,#0x3                                 
ram:0800524e    9202            lsls        r2,r2,#0xa                              
ram:08005250    db03            lsls        r3,r3,#0xf                              
ram:08005252    160f            lsrs        r6,r2,#0x1c                             
ram:08005254    1940            ands        r1,r3                                   
ram:08005256    b61c            adds        r6,r6,#0x2                              
ram:08005258    0029            cmp         r1,#0x0                                 
ram:0800525a    10d0            beq         LAB_0800527e                            
ram:0800525c    e96a            ldr         r1,[r5,#offset DAT_4002102c &0xff]      
ram:0800525e    0907            lsls        r1,r1,#0x1c                             
ram:08005260    090f            lsrs        r1,r1,#0x1c                             
ram:08005262    491c            adds        r1,r1,#0x1                              
ram:08005264    00f020f8        bl          FUN_080052a8                            ;int FUN_080052a8(uint param_1, uint ...
ram:08005268    7043            muls        r0,r6                                   
ram:0800526a    2060            str         r0,[r4,#0x0]=>DAT_2000021c              
                            LAB_0800526c:                 ;XREF[2,0]:   08005246,08005284
ram:0800526c    6868            ldr         r0,[r5,#offset DAT_40021004 &0xff]      
ram:0800526e    0c49            ldr         r1,[DAT_080052a0]                       ;= 20000220h
ram:08005270    0006            lsls        r0,r0,#0x18                             
ram:08005272    000f            lsrs        r0,r0,#0x1c                             
ram:08005274    085c            ldrb        r0,[r1,r0]                              
ram:08005276    2168            ldr         r1,[r4,#0x0]=>DAT_2000021c              
ram:08005278    c140            lsrs        r1,r0                                   
ram:0800527a    2160            str         r1,[r4,#0x0]=>DAT_2000021c              
ram:0800527c    70bd            pop         {r4,r5,r6,pc}                           
                            LAB_0800527e:                 ;XREF[1,0]:   0800525a
ram:0800527e    0948            ldr         r0,[DAT_080052a4]                       ;= 003D0900h
ram:08005280    4643            muls        r6,r0                                   
ram:08005282    2660            str         r6,[r4,#0x0]=>DAT_2000021c              
ram:08005284    f2e7            b           LAB_0800526c                            
ram:08005286    0000            movs        r0,r0                                   
                            DAT_08005288:                 ;XREF[2,0]:   08005156,0800522e
ram:08005288    00100240        undefined4  40021000h                               
                            DAT_0800528c:                 ;XREF[1,0]:   08005164
ram:0800528c    0cb8ff08        undefined4  08FFB80Ch                               
                            DAT_08005290:                 ;XREF[1,0]:   0800516c
ram:08005290    fffff6fe        undefined4  FEF6FFFFh                               
                            DAT_08005294:                 ;XREF[1,0]:   080051d0
ram:08005294    00200240        undefined4  40022000h                               
                            DAT_08005298:                 ;XREF[1,0]:   08005236
ram:08005298    00127a00        undefined4  007A1200h                               
                            DAT_0800529c:                 ;XREF[1,0]:   08005238
ram:0800529c    1c020020        undefined4  2000021Ch                               
                            DAT_080052a0:                 ;XREF[1,0]:   0800526e
ram:080052a0    20020020        undefined4  20000220h                               
                            DAT_080052a4:                 ;XREF[1,0]:   0800527e
ram:080052a4    00093d00        undefined4  003D0900h                               
                            ;************************************************************************************************
                            ;*                                           FUNCTION                                           *
                            ;************************************************************************************************
                            ;int FUN_080052a8(uint param_1, uint param_2)
          ;param_1       uint                r0                      
          ;param_2       uint                r1                      
                                                          ;XREF[3,0]:   08002c58,08005264,080052ea
ram:080052a8    30b5            push        {r4,r5,lr}                              
ram:080052aa    0b46            mov         r3,param_2                              
ram:080052ac    0146            mov         param_2,param_1                         
ram:080052ae    0020            movs        param_1,#0x0                            
ram:080052b0    2022            movs        r2,#0x20                                
ram:080052b2    0124            movs        r4,#0x1                                 
ram:080052b4    09e0            b           LAB_080052ca                            
                            LAB_080052b6:                 ;XREF[1,0]:   080052d0
ram:080052b6    0d46            mov         r5,param_2                              
ram:080052b8    d540            lsrs        r5,r2                                   
ram:080052ba    9d42            cmp         r5,r3                                   
ram:080052bc    05d3            bcc         LAB_080052ca                            
ram:080052be    1d46            mov         r5,r3                                   
ram:080052c0    9540            lsls        r5,r2                                   
ram:080052c2    491b            subs        param_2,param_2,r5                      
ram:080052c4    2546            mov         r5,r4                                   
ram:080052c6    9540            lsls        r5,r2                                   
ram:080052c8    4019            adds        param_1,param_1,r5                      
                            LAB_080052ca:                 ;XREF[2,0]:   080052b4,080052bc
ram:080052ca    1546            mov         r5,r2                                   
ram:080052cc    521e            subs        r2,r2,#0x1                              
ram:080052ce    002d            cmp         r5,#0x0                                 
ram:080052d0    f1dc            bgt         LAB_080052b6                            
ram:080052d2    30bd            pop         {r4,r5,pc}                              
                            ;************************************************************************************************
                            ;*                                           FUNCTION                                           *
                            ;************************************************************************************************
                            ;int FUN_080052d4(uint param_1, uint param_2)
          ;param_1       uint                r0                      
          ;param_2       uint                r1                      
                                                          ;XREF[2,0]:   08000e7c,08004da4
ram:080052d4    70b5            push        {r4,r5,r6,lr}                           
ram:080052d6    0024            movs        r4,#0x0                                 
ram:080052d8    2546            mov         r5,r4                                   
ram:080052da    0028            cmp         param_1,#0x0                            
ram:080052dc    01da            bge         LAB_080052e2                            
ram:080052de    0124            movs        r4,#0x1                                 
ram:080052e0    4042            rsbs        param_1,param_1                         
                            LAB_080052e2:                 ;XREF[1,0]:   080052dc
ram:080052e2    0029            cmp         param_2,#0x0                            
ram:080052e4    01da            bge         LAB_080052ea                            
ram:080052e6    0125            movs        r5,#0x1                                 
ram:080052e8    4942            rsbs        param_2,param_2                         
                            LAB_080052ea:                 ;XREF[1,0]:   080052e4
ram:080052ea    fff7ddff        bl          FUN_080052a8                            ;int FUN_080052a8(uint param_1, uint ...
ram:080052ee    ac42            cmp         r4,r5                                   
ram:080052f0    00d0            beq         LAB_080052f4                            
ram:080052f2    4042            rsbs        param_1,param_1                         
                            LAB_080052f4:                 ;XREF[1,0]:   080052f0
ram:080052f4    002c            cmp         r4,#0x0                                 
ram:080052f6    00d0            beq         LAB_080052fa                            
ram:080052f8    4942            rsbs        param_2,param_2                         
                            LAB_080052fa:                 ;XREF[1,0]:   080052f6
ram:080052fa    70bd            pop         {r4,r5,r6,pc}                           
                            ;************************************************************************************************
                            ;*                                           FUNCTION                                           *
                            ;************************************************************************************************
                            ;uint FUN_080052fc(void)
                                                          ;XREF[2,0]:   08000e76,08004d9e
ram:080052fc    0549            ldr         r1,[DAT_08005314]                       ;= 20000230h
ram:080052fe    064a            ldr         r2,[DAT_08005318]                       ;= 41C64E6Dh
ram:08005300    0868            ldr         r0,[r1,#0x0]=>DAT_20000230              
ram:08005302    5043            muls        r0,r2                                   
ram:08005304    054a            ldr         r2,[DAT_0800531c]                       ;= 00003039h
ram:08005306    8018            adds        r0,r0,r2                                
ram:08005308    0860            str         r0,[r1,#0x0]=>DAT_20000230              
ram:0800530a    4008            lsrs        r0,r0,#0x1                              
ram:0800530c    7047            bx          lr                                      
                            ;************************************************************************************************
                            ;*                                           FUNCTION                                           *
                            ;************************************************************************************************
                            ;undefined FUN_0800530e(undefined4 param_1)
          ;param_1       undefined4          r0                      
                                                          ;XREF[1,0]:   08004cb8
ram:0800530e    0149            ldr         r1,[DAT_08005314]                       ;= 20000230h
ram:08005310    0860            str         param_1,[r1,#0x0]=>DAT_20000230         
ram:08005312    7047            bx          lr                                      
                            DAT_08005314:                 ;XREF[2,0]:   080052fc,0800530e
ram:08005314    30020020        undefined4  20000230h                               
                            DAT_08005318:                 ;XREF[1,0]:   080052fe
ram:08005318    6d4ec641        undefined4  41C64E6Dh                               
                            DAT_0800531c:                 ;XREF[1,0]:   08005304
ram:0800531c    39300000        undefined4  00003039h                               
                            ;************************************************************************************************
                            ;*                                           FUNCTION                                           *
                            ;************************************************************************************************
                            ;undefined FUN_08005320(int param_1, int param_2, uint param_3)
          ;param_1       int                 r0                      
          ;param_2       int                 r1                      
          ;param_3       uint                r2                      
                                                          ;XREF[1,0]:   08001922
ram:08005320    30b5            push        {r4,r5,lr}                              
ram:08005322    0446            mov         r4,param_1                              
ram:08005324    0020            movs        param_1,#0x0                            
ram:08005326    0346            mov         r3,param_1                              
ram:08005328    00e0            b           LAB_0800532c                            
                            LAB_0800532a:                 ;XREF[1,0]:   08005336
ram:0800532a    5b1c            adds        r3,r3,#0x1                              
                            LAB_0800532c:                 ;XREF[1,0]:   08005328
ram:0800532c    9342            cmp         r3,param_3                              
ram:0800532e    03d2            bcs         LAB_08005338                            
ram:08005330    e05c            ldrb        param_1,[r4,r3]                         
ram:08005332    cd5c            ldrb        r5,[param_2,r3]                         
ram:08005334    401b            subs        param_1,param_1,r5                      
ram:08005336    f8d0            beq         LAB_0800532a                            
                            LAB_08005338:                 ;XREF[1,0]:   0800532e
ram:08005338    30bd            pop         {r4,r5,pc}                              
ram:0800533a    0000            movs        r0,r0                                   
                            ;************************************************************************************************
                            ;*                                           FUNCTION                                           *
                            ;************************************************************************************************
                            ;undefined FUN_0800533c(undefined4 param_1, undefined4 param_2, undefined * param_3, uint param_4)
          ;param_1       undefined4          r0                      
          ;param_2       undefined4          r1                      
          ;param_3       undefined *         r2                      
          ;param_4       uint                r3                      
                                                          ;XREF[1,0]:   08000cc8
ram:0800533c    064c            ldr         r4,[FUN_08005358]                       
ram:0800533e    0125            movs        r5,#0x1                                 
ram:08005340    064e            ldr         r6,[LAB_0800535c]                       
ram:08005342    05e0            b           LAB_08005350                            
                            LAB_08005344:                 ;XREF[1,0]:   08005352
ram:08005344    e368            ldr         param_4,[r4,#0xc]=>DAT_080054f0         ;= 08005360h
                                                          ; FWD[5,0]:   080054e4,080054e8,080054ec,08005504
                                                          ;             200000c4
ram:08005346    07cc            ldmia       r4!,{param_1,param_2,param_3}=>PTR_DA...;= 08005504
                                                                                    ;= 200000C4h
                                                                                    ;= 00000174h
                                                                                    ;= 02h
ram:08005348    2b43            orrs        param_4,r5                              
ram:0800534a    0c3c            subs        r4,#0xc                                 
ram:0800534c    9847            blx         param_4=>FUN_08005360                   ;undefined FUN_08005360(byte * param_...
ram:0800534e    1034            adds        r4,#0x10                                
                            LAB_08005350:                 ;XREF[1,0]:   08005342
ram:08005350    b442            cmp         r4,r6                                   
ram:08005352    f7d3            bcc         LAB_08005344                            
ram:08005354    fbf7bafc        bl          thunk_FUN_08004a56                      ;undefined thunk_FUN_08004a56(void)
                            ;************************************************************************************************
                            ;*                                           FUNCTION                                           *
                            ;************************************************************************************************
                            ;undefined FUN_08005358(undefined4 param_1, byte * param_2, int param_3, int param_4)
          ;param_1       undefined4          r0                      
          ;param_2       byte *              r1                      
          ;param_3       int                 r2                      
          ;param_4       int                 r3                      
                                                          ;XREF[2,0]:   0800533c,080053b4
ram:08005358    e454            strb        r4=>PTR_DAT_0800...,[r4,param_4]=>PTR...;= 08005504
ram:0800535a    0008            lsrs        param_1,param_1                         
                            LAB_0800535c:                 ;XREF[1,0]:   08005340
ram:0800535c    0455            strb        r4=>PTR_DAT_0800...,[param_1,r4]=>PTR...;= 08005504
ram:0800535e    0008            lsrs        param_1,param_1                         
                            ;************************************************************************************************
                            ;*                                           FUNCTION                                           *
                            ;************************************************************************************************
                            ;undefined FUN_08005360(byte * param_1, byte * param_2, int param_3)
          ;param_1       byte *              r0                      
          ;param_2       byte *              r1                      
          ;param_3       int                 r2                      
                                                          ;XREF[1,0]:   0800534c
                                                          ; FWD[2,0]:   080054e4,08005504
ram:08005360    70b5            push        {r4,r5,r6,lr}=>DAT_08005504             ;= 08005504
                                                                                    ;= 02h
ram:08005362    8c18            adds        r4,param_2,param_3                      
                            LAB_08005364:                 ;XREF[1,0]:   080053b0
ram:08005364    0578            ldrb        r5,[param_1,#0x0]                       
ram:08005366    401c            adds        param_1,param_1,#0x1                    
ram:08005368    6b07            lsls        r3,r5,#0x1d                             
ram:0800536a    5b0f            lsrs        r3,r3,#0x1d                             
ram:0800536c    01d1            bne         LAB_08005372                            
ram:0800536e    0378            ldrb        r3,[param_1,#0x0]                       
ram:08005370    401c            adds        param_1,param_1,#0x1                    
                            LAB_08005372:                 ;XREF[1,0]:   0800536c
ram:08005372    2a11            asrs        param_3,r5,#0x4                         
ram:08005374    06d1            bne         LAB_08005384                            
ram:08005376    0278            ldrb        param_3,[param_1,#0x0]                  
ram:08005378    401c            adds        param_1,param_1,#0x1                    
ram:0800537a    03e0            b           LAB_08005384                            
                            LAB_0800537c:                 ;XREF[1,0]:   08005386
ram:0800537c    0678            ldrb        r6,[param_1,#0x0]                       
ram:0800537e    0e70            strb        r6,[param_2,#0x0]                       
ram:08005380    401c            adds        param_1,param_1,#0x1                    
ram:08005382    491c            adds        param_2,param_2,#0x1                    
                            LAB_08005384:                 ;XREF[2,0]:   08005374,0800537a
ram:08005384    5b1e            subs        r3,r3,#0x1                              
ram:08005386    f9d1            bne         LAB_0800537c                            
ram:08005388    2b07            lsls        r3,r5,#0x1c                             
ram:0800538a    05d4            bmi         LAB_08005398                            
ram:0800538c    0023            movs        r3,#0x0                                 
                            LAB_0800538e:                 ;XREF[1,0]:   08005396
ram:0800538e    521e            subs        param_3,param_3,#0x1                    
ram:08005390    0dd4            bmi         LAB_080053ae                            
ram:08005392    0b70            strb        r3,[param_2,#0x0]                       
ram:08005394    491c            adds        param_2,param_2,#0x1                    
ram:08005396    fae7            b           LAB_0800538e                            
                            LAB_08005398:                 ;XREF[1,0]:   0800538a
ram:08005398    0378            ldrb        r3,[param_1,#0x0]                       
ram:0800539a    401c            adds        param_1,param_1,#0x1                    
ram:0800539c    cb1a            subs        r3,param_2,r3                           
ram:0800539e    921c            adds        param_3,param_3,#0x2                    
ram:080053a0    03e0            b           LAB_080053aa                            
                            LAB_080053a2:                 ;XREF[1,0]:   080053ac
ram:080053a2    1d78            ldrb        r5,[r3,#0x0]                            
ram:080053a4    0d70            strb        r5,[param_2,#0x0]                       
ram:080053a6    491c            adds        param_2,param_2,#0x1                    
ram:080053a8    5b1c            adds        r3,r3,#0x1                              
                            LAB_080053aa:                 ;XREF[1,0]:   080053a0
ram:080053aa    521e            subs        param_3,param_3,#0x1                    
ram:080053ac    f9d5            bpl         LAB_080053a2                            
                            LAB_080053ae:                 ;XREF[1,0]:   08005390
ram:080053ae    a142            cmp         param_2,r4                              
ram:080053b0    d8d3            bcc         LAB_08005364                            
ram:080053b2    0020            movs        param_1,#0x0                            
ram:080053b4    70bd            pop         {r4,r5,r6,pc}=>FUN_08005358             
ram:080053b6    02e0            b           LAB_080053be                            
                            ;************************************************************************************************
                            ;*                                           FUNCTION                                           *
                            ;************************************************************************************************
                            ;undefined FUN_080053b8(undefined4 * param_1, undefined4 * param_2, int param_3)
          ;param_1       undefined4 *        r0                      
          ;param_2       undefined4 *        r1                      
          ;param_3       int                 r2                      
                                                          ;XREF[1,0]:   080053c0
ram:080053b8    08c8            ldmia       param_1!,{r3}                           
ram:080053ba    121f            subs        param_3,param_3,#0x4                    
ram:080053bc    08c1            stmia       param_2!,{r3}                           
                            LAB_080053be:                 ;XREF[1,0]:   080053b6
ram:080053be    002a            cmp         param_3,#0x0                            
ram:080053c0    fad1            bne         FUN_080053b8                            
ram:080053c2    7047            bx          lr                                      
ram:080053c4    7047            bx          lr                                      
ram:080053c6    0020            movs        r0,#0x0                                 
ram:080053c8    01e0            b           LAB_080053ce                            
                            LAB_080053ca:                 ;XREF[1,0]:   080053d0
ram:080053ca    01c1            stmia       r1!,{r0}                                
ram:080053cc    121f            subs        r2,r2,#0x4                              
                            LAB_080053ce:                 ;XREF[1,0]:   080053c8
ram:080053ce    002a            cmp         r2,#0x0                                 
ram:080053d0    fbd1            bne         LAB_080053ca                            
ram:080053d2    7047            bx          lr                                      
                            LAB_080053d4:                 ;XREF[4,0]:   0800152a,080015c0,0800162e,080019f0
ram:080053d4    cf0d            lsrs        r7,r1,#0x17                             
ram:080053d6    3025            movs        r5,#0x30                                
ram:080053d8    0180            strh        r1,[r0,#0x0]                            
ram:080053da    0180            strh        r1,[r0,#0x0]                            
ram:080053dc    131f            subs        r3,r2,#0x4                              
ram:080053de    2413            asrs        r4,r4,#0xc                              
ram:080053e0    0180            strh        r1,[r0,#0x0]                            
ram:080053e2    0180            strh        r1,[r0,#0x0]                            
ram:080053e4    e015            asrs        r0,r4,#0x17                             
ram:080053e6    d426            movs        r6,#0xd4                                
ram:080053e8    0180            strh        r1,[r0,#0x0]                            
ram:080053ea    0180            strh        r1,[r0,#0x0]                            
ram:080053ec    f00a            lsrs        r0,r6,#0xb                              
ram:080053ee    0180            strh        r1,[r0,#0x0]                            
ram:080053f0    0180            strh        r1,[r0,#0x0]                            
ram:080053f2    0180            strh        r1,[r0,#0x0]                            
ram:080053f4    403d            subs        r5,#0x40                                
ram:080053f6    8c23            movs        r3,#0x8c                                
ram:080053f8    0180            strh        r1,[r0,#0x0]                            
ram:080053fa    0180            strh        r1,[r0,#0x0]                            
                            DAT_080053fc:                 ;XREF[3,0]:   080024b6,080024c8,08002522
ram:080053fc    00              undefined1  00h                                     
                            DAT_08005400:                 ;XREF[2,0]:   0800259e,080025ec
                            DAT_08005410:                 ;XREF[2,0]:   08002474,080024ec
ram:08005410    00000000        undefined4  00000000h                               
                            DAT_08005428:                 ;XREF[2,0]:   08002482,080024f0
ram:08005428    00001868        undefined4  68180000h                               
                            DAT_08005440:                 ;XREF[3,0]:   0800270e,0800271e,080027cc
                            DAT_08005450:                 ;XREF[3,0]:   08002718,08002726,080027d0
                            DAT_08005460:                 ;XREF[3,0]:   0800273a,0800274a,080027e0
                            DAT_08005470:                 ;XREF[3,0]:   08002744,08002752,080027e4
                            DAT_08005480:                 ;XREF[2,0]:   08002910,08002a14
ram:08005480    00000000        undefined4  00000000h                               
                            DAT_08005484:                 ;XREF[1,0]:   0800293c
ram:08005484    01000000        undefined4  00000001h                               
                            DAT_08005488:                 ;XREF[1,0]:   08002968
ram:08005488    03000000        undefined4  00000003h                               
                            DAT_0800548c:                 ;XREF[1,0]:   08002996
ram:0800548c    04000000        undefined4  00000004h                               
                            DAT_08005490:                 ;XREF[2,0]:   08002904,08002a10
ram:08005490    02000000        undefined4  00000002h                               
                            DAT_08005494:                 ;XREF[2,0]:   08002a28,08002e14
ram:08005494    02000400        undefined4  00040002h                               
                            DAT_08005498:                 ;XREF[1,0]:   08002a26
ram:08005498    08001000        undefined4  00100008h                               
                            DAT_0800549c:                 ;XREF[1,0]:   08002a30
ram:0800549c    40008000        undefined4  00800040h                               
                            DAT_080054a0:                 ;XREF[1,0]:   08002a2e
ram:080054a0    01000200        undefined4  00020001h                               
                            DAT_080054a4:                 ;XREF[1,0]:   08002a38
ram:080054a4    00000048        undefined4  48000000h                               
                            DAT_080054a8:                 ;XREF[1,0]:   08002a38
ram:080054a8    00000048        undefined4  48000000h                               
                            DAT_080054ac:                 ;XREF[1,0]:   08002a38
ram:080054ac    00040048        undefined4  48000400h                               
                            DAT_080054b0:                 ;XREF[1,0]:   08002a38
ram:080054b0    00040048        undefined4  48000400h                               
                            DAT_080054b4:                 ;XREF[2,0]:   08003062,080030dc
ram:080054b4    02              undefined1  02h                                     
                            DAT_080054bd:                 ;XREF[3,0]:   08003072,080030a8,080030e0
ram:080054bd    00              undefined1  00h                                     
                            DAT_080054c6:                 ;XREF[2,0]:   08003098,080030e4
ram:080054c6    05              undefined1  05h                                     
                            DAT_080054cf:                 ;XREF[3,0]:   0800302a,0800302a,080030d0
ram:080054cf    00              undefined1  00h                                     
                            DAT_080054d8:                 ;XREF[2,0]:   0800303a,080030d4
                            PTR_DAT_080054e4:             ;XREF[6,0]:   08005346,08005358,08005358,0800535c
                                                          ;             0800535c,08005360
ram:080054e4    04550008        addr        DAT_08005504                            ;= 02h
                            DAT_080054e8:                 ;XREF[1,0]:   08005346
ram:080054e8    c4000020        undefined4  200000C4h                               
                            DAT_080054ec:                 ;XREF[1,0]:   08005346
ram:080054ec    74010000        undefined4  00000174h                               
                            DAT_080054f0:                 ;XREF[1,0]:   08005344
ram:080054f0    60530008        undefined4  08005360h                               ;?  ->  08005360
                            DAT_08005504:                 ;XREF[3,0]:   08005346,08005360,080054e4
