                            MasterStackPointer:           
ram:00018000    18390020        addr        DAT_20003918                            
                            Reset:                        ;XREF[1,0]:   Entry Point
ram:00018004    59810100        addr        FUNC_Reset_00018158+1                   
                            NMI:                          ;XREF[1,0]:   Entry Point
ram:00018008    73810100        addr        FUNC_NMI_00018172+1                     
                            HardFault:                    ;XREF[1,0]:   Entry Point
ram:0001800c    75810100        addr        FUNC_HardFault_00018174+1               
                            MemManage:                    ;XREF[1,0]:   Entry Point
ram:00018010    00000000        addr        00000000                                
                            BusFault:                     ;XREF[1,0]:   Entry Point
ram:00018014    00000000        addr        00000000                                
                            UsageFault:                   ;XREF[1,0]:   Entry Point
ram:00018018    00000000        addr        00000000                                
                            Reserved1:                    ;XREF[1,0]:   Entry Point
ram:0001801c    00000000        addr        00000000                                
                            Reserved2:                    ;XREF[1,0]:   Entry Point
ram:00018020    00000000        addr        00000000                                
                            Reserved3:                    ;XREF[1,0]:   Entry Point
ram:00018024    00000000        addr        00000000                                
                            Reserved5:                    ;XREF[1,0]:   Entry Point
                            Reserved6:                    
                            Reserved4:                    
ram:00018028    00000000        addr        00000000                                
                            SVCall:                       ;XREF[1,0]:   Entry Point
ram:0001802c    77810100        addr        FUNC_SVCall_00018176+1                  
ram:00018030    00000000        addr        00000000                                
ram:00018034    00000000        addr        00000000                                
                            PendSV:                       ;XREF[1,0]:   Entry Point
ram:00018038    79810100        addr        FUNC_PendSV_00018178+1                  
                            SysTick:                      ;XREF[1,0]:   Entry Point
ram:0001803c    7b810100        addr        FUNC_SysTick_0001817a+1                 
                            IRQ:                          ;XREF[1,0]:   Entry Point
ram:00018040    7d810100        addr        FUNC_IRQ_0001817c+1                     
ram:00018044    7d810100        addr        FUNC_IRQ_0001817c+1                     
ram:00018048    05880100        addr        FUNC_VT_00018804+1                      
ram:0001804c    7d810100        addr        FUNC_IRQ_0001817c+1                     
ram:00018050    7d810100        addr        FUNC_IRQ_0001817c+1                     
ram:00018054    00000000        addr        00000000                                
ram:00018058    01850100        addr        FUNC_VT_00018500+1                      
ram:0001805c    d9830100        addr        FUNC_VT_000183d8+1                      
ram:00018060    7d810100        addr        FUNC_IRQ_0001817c+1                     
ram:00018064    e5870100        addr        FUNC_VT_000187e4+1                      
ram:00018068    7d810100        addr        FUNC_IRQ_0001817c+1                     
ram:0001806c    7d810100        addr        FUNC_IRQ_0001817c+1                     
ram:00018070    7d810100        addr        FUNC_IRQ_0001817c+1                     
ram:00018074    7d810100        addr        FUNC_IRQ_0001817c+1                     
ram:00018078    7d810100        addr        FUNC_IRQ_0001817c+1                     
ram:0001807c    7d810100        addr        FUNC_IRQ_0001817c+1                     
ram:00018080    7d810100        addr        FUNC_IRQ_0001817c+1                     
ram:00018084    f9860100        addr        FUNC_VT_000186f8+1                      
ram:00018088    7d810100        addr        FUNC_IRQ_0001817c+1                     
ram:0001808c    7d810100        addr        FUNC_IRQ_0001817c+1                     
ram:00018090    19870100        addr        FUNC_VT_00018718+1                      
ram:00018094    7d810100        addr        FUNC_IRQ_0001817c+1                     
ram:00018098    6d870100        addr        FUNC_VT_0001876c+1                      
ram:0001809c    7d810100        addr        FUNC_IRQ_0001817c+1                     
ram:000180a0    7d810100        addr        FUNC_IRQ_0001817c+1                     
ram:000180a4    7d810100        addr        FUNC_IRQ_0001817c+1                     
ram:000180a8    00000000        addr        00000000                                
ram:000180ac    00000000        addr        00000000                                
ram:000180b0    00000000        addr        00000000                                
ram:000180b4    00000000        addr        00000000                                
ram:000180b8    00000000        addr        00000000                                
ram:000180bc    00              ??          00h                                     
ram:000180bd    00              ??          00h                                     
ram:000180be    00              ??          00h                                     
ram:000180bf    00              ??          00h                                     
                            ;************************************************************************************************
                            ;*                                           FUNCTION                                           *
                            ;************************************************************************************************
                            ;undefined LAB_000180c0+1(undefined4 param_1, undefined4 param_2, uint * param_3, uint param_4)
          ;param_1       undefined4          r0                      
          ;param_2       undefined4          r1                      
          ;param_3       uint *              r2                      
          ;param_4       uint                r3                      
                                                          ;XREF[1,1]:   00018170,0001818c
ram:000180c0    0348            ldr         param_1=>DAT_20003918,[DAT_000180d0]    ;= 20003918h
ram:000180c2    8546            mov         sp,param_1                              
ram:000180c4    00f038f9        bl          FUN_00018338                            ;longlong FUN_00018338(undefined4 par...
                            ;************************************************************************************************
                            ;*                                           FUNCTION                                           *
                            ;************************************************************************************************
                            ;undefined thunk_FUN_0001a9f0(void)
                                                          ;XREF[1,0]:   00018350
ram:000180c8    0048            ldr         r0,[DAT_000180cc]                       ;= 0001A9F1h
ram:000180ca    0047            bx          r0=>FUN_0001a9f0                        ;undefined FUN_0001a9f0(void)
                            DAT_000180cc:                 ;XREF[1,0]:   000180c8
ram:000180cc    f1a90100        undefined4  0001A9F1h                               ;?  ->  0001a9f1
                            DAT_000180d0:                 ;XREF[1,0]:   000180c0
ram:000180d0    18390020        undefined4  20003918h                               
                            ;************************************************************************************************
                            ;*                                           FUNCTION                                           *
                            ;************************************************************************************************
                            ;undefined FUN_000180d4(int param_1)
          ;param_1       int                 r0                      
                                                          ;XREF[2,0]:   000180ee,0001adac
ram:000180d4    401e            subs        param_1,param_1,#0x1                    
ram:000180d6    00bf            nop                                                  
ram:000180d8    00bf            nop                                                  
ram:000180da    00bf            nop                                                  
ram:000180dc    00bf            nop                                                  
ram:000180de    00bf            nop                                                  
ram:000180e0    00bf            nop                                                  
ram:000180e2    00bf            nop                                                  
ram:000180e4    00bf            nop                                                  
ram:000180e6    00bf            nop                                                  
ram:000180e8    00bf            nop                                                  
ram:000180ea    00bf            nop                                                  
ram:000180ec    00bf            nop                                                  
ram:000180ee    f1d1            bne         FUN_000180d4                            
ram:000180f0    7047            bx          lr                                      
ram:000180f2    0000            movs        r0,r0                                   
                            ;************************************************************************************************
                            ;*                                           FUNCTION                                           *
                            ;************************************************************************************************
                            ;undefined FUN_000180f4(int param_1)
          ;param_1       int                 r0                      
                                                          ;XREF[4,0]:   0001810e,00019d28,0001b690,0001b69e
ram:000180f4    401e            subs        param_1,param_1,#0x1                    
ram:000180f6    00bf            nop                                                  
ram:000180f8    00bf            nop                                                  
ram:000180fa    00bf            nop                                                  
ram:000180fc    00bf            nop                                                  
ram:000180fe    00bf            nop                                                  
ram:00018100    00bf            nop                                                  
ram:00018102    00bf            nop                                                  
ram:00018104    00bf            nop                                                  
ram:00018106    00bf            nop                                                  
ram:00018108    00bf            nop                                                  
ram:0001810a    00bf            nop                                                  
ram:0001810c    00bf            nop                                                  
ram:0001810e    f1d1            bne         FUN_000180f4                            
ram:00018110    7047            bx          lr                                      
ram:00018112    0000            movs        r0,r0                                   
                            ;************************************************************************************************
                            ;*                                           FUNCTION                                           *
                            ;************************************************************************************************
                            ;undefined FUN_00018114(undefined4 * param_1)
          ;param_1       undefined4 *        r0                      
                                                          ;XREF[1,0]:   000199ea
ram:00018114    0568            ldr         r5,[param_1,#0x0]                       
ram:00018116    85f30888        msr         msp,r5                                  
ram:0001811a    4668            ldr         r6,[param_1,#0x4]                       
ram:0001811c    0a4a            ldr         r2,[DAT_00018148]                       
ram:0001811e    eff30583        mrs         r3,ipsr                                 
ram:00018122    9a42            cmp         r2,r3                                   
ram:00018124    3046            mov         param_1,r6                              
ram:00018126    02d1            bne         LAB_0001812e                            
ram:00018128    084c            ldr         r4,[DAT_0001814c]                       ;= FFFFFFFFh
ram:0001812a    a646            mov         lr,r4                                   
ram:0001812c    3047            bx          r6                                      
                            LAB_0001812e:                 ;XREF[1,0]:   00018126
ram:0001812e    074c            ldr         r4,[DAT_0001814c]                       ;= FFFFFFFFh
ram:00018130    064d            ldr         r5,[DAT_0001814c]                       ;= FFFFFFFFh
ram:00018132    0646            mov         r6,param_1                              
ram:00018134    064f            ldr         r7,[DAT_00018150]                       ;= 21000000h
ram:00018136    f0b4            push        {r4,r5,r6,r7}                           
ram:00018138    034c            ldr         r4,[DAT_00018148]                       
ram:0001813a    034d            ldr         r5,[DAT_00018148]                       
ram:0001813c    024e            ldr         r6,[DAT_00018148]                       
ram:0001813e    024f            ldr         r7,[DAT_00018148]                       
ram:00018140    f0b4            push        {r4,r5,r6,r7}                           
ram:00018142    0448            ldr         param_1,[DAT_00018154]                  ;= FFFFFFF9h
ram:00018144    0047            bx          param_1=>LAB_fffffff8                   
ram:00018146    0000            movs        r0,r0                                   
                            DAT_00018148:                 ;XREF[5,0]:   0001811c,00018138,0001813a,0001813c
                                                          ;             0001813e
ram:00018148    00000000        undefined4  00000000h                               
                            DAT_0001814c:                 ;XREF[3,0]:   00018128,0001812e,00018130
ram:0001814c    ffffffff        undefined4  FFFFFFFFh                               
                            DAT_00018150:                 ;XREF[1,0]:   00018134
ram:00018150    00000021        undefined4  21000000h                               
                            DAT_00018154:                 ;XREF[1,0]:   00018142
ram:00018154    f9ffffff        undefined4  FFFFFFF9h                               
                            ;************************************************************************************************
                            ;*                                           FUNCTION                                           *
                            ;************************************************************************************************
                            ;undefined FUNC_Reset_00018158(void)
                                                          ;XREF[0,1]:   00018004
ram:00018158    0321            movs        r1,#0x3                                 
ram:0001815a    0948            ldr         r0,[DAT_00018180]                       ;= 40000524h
ram:0001815c    0268            ldr         r2,[r0,#0x0]=>DAT_40000524              
ram:0001815e    0a43            orrs        r2,r1                                   
ram:00018160    0260            str         r2,[r0,#0x0]=>DAT_40000524              
ram:00018162    0848            ldr         r0,[DAT_00018184]                       ;= 40000554h
ram:00018164    0268            ldr         r2,[r0,#0x0]=>DAT_40000554              
ram:00018166    0a43            orrs        r2,r1                                   
ram:00018168    0260            str         r2,[r0,#0x0]=>DAT_40000554              
ram:0001816a    0748            ldr         r0,[PTR_FUN_00018790+1_00018188]        ;= 00018791
ram:0001816c    8047            blx         r0=>FUN_00018790                        ;undefined FUN_00018790(void)
ram:0001816e    0748            ldr         r0,[PTR_LAB_000180c0+1+1_0001818c]      ;= 000180c1
ram:00018170    0047            bx          r0=>LAB_000180c0+1                      ;undefined LAB_000180c0+1(undefined4 ...
                            ;************************************************************************************************
                            ;*                                           FUNCTION                                           *
                            ;************************************************************************************************
                            ;undefined FUNC_NMI_00018172(void)
                                                          ;XREF[1,1]:   00018172,00018008
ram:00018172    fee7            b           FUNC_NMI_00018172                       
                            ;************************************************************************************************
                            ;*                                           FUNCTION                                           *
                            ;************************************************************************************************
                            ;undefined FUNC_HardFault_00018174(void)
                                                          ;XREF[1,1]:   00018174,0001800c
ram:00018174    fee7            b           FUNC_HardFault_00018174                 
                            ;************************************************************************************************
                            ;*                                           FUNCTION                                           *
                            ;************************************************************************************************
                            ;undefined FUNC_SVCall_00018176(void)
                                                          ;XREF[1,1]:   00018176,0001802c
ram:00018176    fee7            b           FUNC_SVCall_00018176                    
                            ;************************************************************************************************
                            ;*                                           FUNCTION                                           *
                            ;************************************************************************************************
                            ;undefined FUNC_PendSV_00018178(void)
                                                          ;XREF[1,1]:   00018178,00018038
ram:00018178    fee7            b           FUNC_PendSV_00018178                    
                            ;************************************************************************************************
                            ;*                                           FUNCTION                                           *
                            ;************************************************************************************************
                            ;undefined FUNC_SysTick_0001817a(void)
                                                          ;XREF[1,1]:   0001817a,0001803c
ram:0001817a    fee7            b           FUNC_SysTick_0001817a                   
                            ;************************************************************************************************
                            ;*                                           FUNCTION                                           *
                            ;************************************************************************************************
                            ;undefined FUNC_IRQ_0001817c(void)
                                                          ;XREF[1,18]:  0001817c,00018040,00018044,0001804c
                                                          ;             00018050,00018060,00018068,0001806c
                                                          ;             00018070,00018074,00018078,0001807c
                                                          ;             00018080,00018088,0001808c,00018094
                                                          ;             0001809c,000180a0,000180a4
ram:0001817c    fee7            b           FUNC_IRQ_0001817c                       
ram:0001817e    0000            movs        r0,r0                                   
                            DAT_00018180:                 ;XREF[1,0]:   0001815a
ram:00018180    24050040        undefined4  40000524h                               
                            DAT_00018184:                 ;XREF[1,0]:   00018162
ram:00018184    54050040        undefined4  40000554h                               
                            PTR_FUN_00018790+1_00018188:  ;XREF[1,0]:   0001816a
ram:00018188    91870100        addr        FUN_00018790+1                          
                            PTR_LAB_000180c0+1+1_0001818c:;XREF[1,0]:   0001816e
ram:0001818c    c1800100        addr        LAB_000180c0+1+1                        
                            ;************************************************************************************************
                            ;*                                           FUNCTION                                           *
                            ;************************************************************************************************
                            ;int FUN_00018190(uint param_1, uint param_2)
          ;param_1       uint                r0                      
          ;param_2       uint                r1                      
                                                          ;XREF[8,0]:   00019b76,00019bf0,00019c24,0001b116
                                                          ;             0001b15a,0001b1da,0001b2fe,0001ba3a
ram:00018190    30b5            push        {r4,r5,lr}                              
ram:00018192    0b46            mov         r3,param_2                              
ram:00018194    0146            mov         param_2,param_1                         
ram:00018196    0020            movs        param_1,#0x0                            
ram:00018198    2022            movs        r2,#0x20                                
ram:0001819a    0124            movs        r4,#0x1                                 
ram:0001819c    09e0            b           LAB_000181b2                            
                            LAB_0001819e:                 ;XREF[1,0]:   000181b8
ram:0001819e    0d46            mov         r5,param_2                              
ram:000181a0    d540            lsrs        r5,r2                                   
ram:000181a2    9d42            cmp         r5,r3                                   
ram:000181a4    05d3            bcc         LAB_000181b2                            
ram:000181a6    1d46            mov         r5,r3                                   
ram:000181a8    9540            lsls        r5,r2                                   
ram:000181aa    491b            subs        param_2,param_2,r5                      
ram:000181ac    2546            mov         r5,r4                                   
ram:000181ae    9540            lsls        r5,r2                                   
ram:000181b0    4019            adds        param_1,param_1,r5                      
                            LAB_000181b2:                 ;XREF[2,0]:   0001819c,000181a4
ram:000181b2    1546            mov         r5,r2                                   
ram:000181b4    521e            subs        r2,r2,#0x1                              
ram:000181b6    002d            cmp         r5,#0x0                                 
ram:000181b8    f1dc            bgt         LAB_0001819e                            
ram:000181ba    30bd            pop         {r4,r5,pc}                              
                            ;************************************************************************************************
                            ;*                                           FUNCTION                                           *
                            ;************************************************************************************************
                            ;undefined FUN_000181bc(undefined4 * param_1, undefined4 * param_2, uint param_3)
          ;param_1       undefined4 *        r0                      
          ;param_2       undefined4 *        r1                      
          ;param_3       uint                r2                      
                                                          ;XREF[24,0]:  00018fc0,000194ac,000194b6,00019572
                                                          ;             00019586,00019608,0001963c,00019f84
                                                          ;             0001a166,0001a172,0001a17e,0001a18c
                                                          ;             0001a4b6,0001ad20,0001ae60,0001b274
                                                          ;             0001b574,0001b5d2,0001b78e,0001bb08
                                                          ;             0001bbe0,0001bd08,0001bd12,0001c030
ram:000181bc    0346            mov         r3,param_1                              
ram:000181be    0b43            orrs        r3,param_2                              
ram:000181c0    9b07            lsls        r3,r3,#0x1e                             
ram:000181c2    03d0            beq         LAB_000181cc                            
ram:000181c4    09e0            b           LAB_000181da                            
                            LAB_000181c6:                 ;XREF[1,0]:   000181ce
ram:000181c6    08c9            ldmia       param_2!,{r3}                           
ram:000181c8    121f            subs        param_3,param_3,#0x4                    
ram:000181ca    08c0            stmia       param_1!,{r3}                           
                            LAB_000181cc:                 ;XREF[1,0]:   000181c2
ram:000181cc    042a            cmp         param_3,#0x4                            
ram:000181ce    fad2            bcs         LAB_000181c6                            
ram:000181d0    03e0            b           LAB_000181da                            
                            LAB_000181d2:                 ;XREF[1,0]:   000181dc
ram:000181d2    0b78            ldrb        r3,[param_2,#0x0]                       
ram:000181d4    0370            strb        r3,[param_1,#0x0]                       
ram:000181d6    401c            adds        param_1,param_1,#0x1                    
ram:000181d8    491c            adds        param_2,param_2,#0x1                    
                            LAB_000181da:                 ;XREF[2,0]:   000181c4,000181d0
ram:000181da    521e            subs        param_3,param_3,#0x1                    
ram:000181dc    f9d2            bcs         LAB_000181d2                            
ram:000181de    7047            bx          lr                                      
                            ;************************************************************************************************
                            ;*                                           FUNCTION                                           *
                            ;************************************************************************************************
                            ;undefined FUN_000181e0(undefined * param_1, int param_2, undefined param_3)
          ;param_1       undefined *         r0                      
          ;param_2       int                 r1                      
          ;param_3       undefined           r2                      
                                                          ;XREF[2,0]:   000181f0,000181fc
ram:000181e0    d2b2            uxtb        param_3,param_3                         
ram:000181e2    01e0            b           LAB_000181e8                            
                            LAB_000181e4:                 ;XREF[1,0]:   000181ea
ram:000181e4    0270            strb        param_3,[param_1,#0x0]                  
ram:000181e6    401c            adds        param_1,param_1,#0x1                    
                            LAB_000181e8:                 ;XREF[1,0]:   000181e2
ram:000181e8    491e            subs        param_2,param_2,#0x1                    
ram:000181ea    fbd2            bcs         LAB_000181e4                            
ram:000181ec    7047            bx          lr                                      
                            ;************************************************************************************************
                            ;*                                           FUNCTION                                           *
                            ;************************************************************************************************
                            ;undefined FUN_000181ee(undefined * param_1, int param_2)
          ;param_1       undefined *         r0                      
          ;param_2       int                 r1                      
                                                          ;XREF[19,0]:  00018aea,00018b1e,00018b68,00018c94
                                                          ;             00019286,000192d6,0001a1da,0001a22e
                                                          ;             0001a262,0001a2b2,0001a2e8,0001a340
                                                          ;             0001a6b6,0001a712,0001ab36,0001ba7a
                                                          ;             0001baca,0001bc6a,0001bcba
ram:000181ee    0022            movs        r2,#0x0                                 
ram:000181f0    f6e7            b           FUN_000181e0                            ;undefined FUN_000181e0(undefined * p...
                            ;************************************************************************************************
                            ;*                                           FUNCTION                                           *
                            ;************************************************************************************************
                            ;undefined * FUN_000181f2(undefined * param_1, undefined param_2, int param_3)
          ;param_1       undefined *         r0                      
          ;param_2       undefined           r1                      
          ;param_3       int                 r2                      
ram:000181f2    10b5            push        {r4,lr}                                 
ram:000181f4    1346            mov         r3,param_3                              
ram:000181f6    0a46            mov         param_3,param_2                         
ram:000181f8    0446            mov         r4,param_1                              
ram:000181fa    1946            mov         param_2,r3                              
ram:000181fc    fff7f0ff        bl          FUN_000181e0                            ;undefined FUN_000181e0(undefined * p...
ram:00018200    2046            mov         param_1,r4                              
ram:00018202    10bd            pop         {r4,pc}                                 
                            ;************************************************************************************************
                            ;*                                           FUNCTION                                           *
                            ;************************************************************************************************
                            ;undefined FUN_00018204(int param_1, int param_2, uint param_3)
          ;param_1       int                 r0                      
          ;param_2       int                 r1                      
          ;param_3       uint                r2                      
                                                          ;XREF[1,0]:   0001ae6c
ram:00018204    30b5            push        {r4,r5,lr}                              
ram:00018206    0446            mov         r4,param_1                              
ram:00018208    0020            movs        param_1,#0x0                            
ram:0001820a    0346            mov         r3,param_1                              
ram:0001820c    00e0            b           LAB_00018210                            
                            LAB_0001820e:                 ;XREF[1,0]:   0001821a
ram:0001820e    5b1c            adds        r3,r3,#0x1                              
                            LAB_00018210:                 ;XREF[1,0]:   0001820c
ram:00018210    9342            cmp         r3,param_3                              
ram:00018212    03d2            bcs         LAB_0001821c                            
ram:00018214    e05c            ldrb        param_1,[r4,r3]                         
ram:00018216    cd5c            ldrb        r5,[param_2,r3]                         
ram:00018218    401b            subs        param_1,param_1,r5                      
ram:0001821a    f8d0            beq         LAB_0001820e                            
                            LAB_0001821c:                 ;XREF[1,0]:   00018212
ram:0001821c    30bd            pop         {r4,r5,pc}                              
                            ;************************************************************************************************
                            ;*                                           FUNCTION                                           *
                            ;************************************************************************************************
                            ;uint FUN_0001821e(int param_1, undefined4 param_2, uint param_3)
          ;param_1       int                 r0                      
          ;param_2       undefined4          r1                      
          ;param_3       uint                r2                      
                                                          ;XREF[1,0]:   000194e0
ram:0001821e    0321            movs        param_2,#0x3                            
ram:00018220    001d            adds        param_1,param_1,#0x4                    
                            LAB_00018222:                 ;XREF[1,0]:   0001822c
ram:00018222    401e            subs        param_1,param_1,#0x1                    
ram:00018224    0378            ldrb        r3,[param_1,#0x0]                       
ram:00018226    1202            lsls        param_3,param_3,#0x8                    
ram:00018228    1a43            orrs        param_3,r3                              
ram:0001822a    491e            subs        param_2,param_2,#0x1                    
ram:0001822c    f9d5            bpl         LAB_00018222                            
ram:0001822e    1046            mov         param_1,param_3                         
ram:00018230    7047            bx          lr                                      
ram:00018232    0000            movs        r0,r0                                   
                            ;************************************************************************************************
                            ;*                                           FUNCTION                                           *
                            ;************************************************************************************************
                            ;ulonglong FUN_00018234(uint param_1)
          ;param_1       uint                r0                      
          ;local_8       undefined4          -8                      ;XREF[1,0]:   00018238
          ;local_c       undefined4          -c                      ;XREF[1,0]:   00018242
          ;local_10      undefined4         -10                      ;XREF[1,0]:   0001823c
                                                          ;XREF[1,0]:   000183f6
ram:00018234    0eb5            push        {r1,r2,r3,lr}                           
ram:00018236    0549            ldr         r1,[DAT_0001824c]                       ;= 00000433h
ram:00018238    0291            str         r1,[sp,#local_8+0x10]                   
ram:0001823a    0021            movs        r1,#0x0                                 
ram:0001823c    0091            str         r1,[sp,#0x0]=>local_10                  
ram:0001823e    0a46            mov         r2,r1                                   
ram:00018240    0b46            mov         r3,r1                                   
ram:00018242    0191            str         r1,[sp,#local_c+0x10]                   
ram:00018244    00f025f8        bl          FUN_00018292                            ;ulonglong FUN_00018292(uint param_1,...
ram:00018248    03b0            add         sp,#0xc                                 
ram:0001824a    00bd            pop         {pc}                                    
                            DAT_0001824c:                 ;XREF[1,0]:   00018236
ram:0001824c    33040000        undefined4  00000433h                               
                            ;************************************************************************************************
                            ;*                                           FUNCTION                                           *
                            ;************************************************************************************************
                            ;int FUN_00018250(int param_1, int param_2)
          ;param_1       int                 r0                      
          ;param_2       int                 r1                      
                                                          ;XREF[6,0]:   00018402,0001841c,00018434,0001844c
                                                          ;             00018464,0001847e
ram:00018250    10b5            push        {r4,lr}                                 
ram:00018252    0029            cmp         param_2,#0x0                            
ram:00018254    04db            blt         LAB_00018260                            
ram:00018256    0124            movs        r4,#0x1                                 
ram:00018258    e407            lsls        r4,r4,#0x1f                             
ram:0001825a    4042            rsbs        param_1,param_1                         
ram:0001825c    8c41            sbcs        r4,param_2                              
ram:0001825e    2146            mov         param_2,r4                              
                            LAB_00018260:                 ;XREF[1,0]:   00018254
ram:00018260    002b            cmp         r3,#0x0                                 
ram:00018262    04db            blt         LAB_0001826e                            
ram:00018264    1c46            mov         r4,r3                                   
ram:00018266    0123            movs        r3,#0x1                                 
ram:00018268    db07            lsls        r3,r3,#0x1f                             
ram:0001826a    5242            rsbs        r2,r2                                   
ram:0001826c    a341            sbcs        r3,r4                                   
                            LAB_0001826e:                 ;XREF[1,0]:   00018262
ram:0001826e    9942            cmp         param_2,r3                              
ram:00018270    00d1            bne         LAB_00018274                            
ram:00018272    9042            cmp         param_1,r2                              
                            LAB_00018274:                 ;XREF[1,0]:   00018270
ram:00018274    10bd            pop         {r4,pc}                                 
ram:00018276    0000            movs        r0,r0                                   
                            ;************************************************************************************************
                            ;*                                           FUNCTION                                           *
                            ;************************************************************************************************
                            ;undefined8 FUN_00018278(uint param_1, int param_2, uint param_3, int param_4)
          ;param_1       uint                r0                      
          ;param_2       int                 r1                      
          ;param_3       uint                r2                      
          ;param_4       int                 r3                      
                                                          ;XREF[1,0]:   00018330
ram:00018278    10b5            push        {r4,lr}                                 
ram:0001827a    002b            cmp         param_4,#0x0                            
ram:0001827c    08da            bge         LAB_00018290                            
ram:0001827e    0024            movs        r4,#0x0                                 
ram:00018280    401c            adds        param_1,param_1,#0x1                    
ram:00018282    6141            adcs        param_2,r4                              
ram:00018284    9218            adds        param_3,param_3,param_3                 
ram:00018286    5b41            adcs        param_4,param_4                         
ram:00018288    1a43            orrs        param_3,param_4                         
ram:0001828a    01d1            bne         LAB_00018290                            
ram:0001828c    4008            lsrs        param_1,param_1,#0x1                    
ram:0001828e    4000            lsls        param_1,param_1,#0x1                    
                            LAB_00018290:                 ;XREF[2,0]:   0001827c,0001828a
ram:00018290    10bd            pop         {r4,pc}                                 
                            ;************************************************************************************************
                            ;*                                           FUNCTION                                           *
                            ;************************************************************************************************
                            ;ulonglong FUN_00018292(uint param_1, uint param_2, uint param_3, uint param_4, uint param_5, int param_6, int param_7)
          ;param_1       uint                r0                      
          ;param_2       uint                r1                      
          ;param_3       uint                r2                      
          ;param_4       uint                r3                      
          ;param_5       uint                 0                      ;XREF[1,0]:   00018328
          ;param_6       int                  4                      ;XREF[1,0]:   0001832a
          ;param_7       int                  8                      ;XREF[1,0]:   00018308
          ;local_1c      undefined4         -1c                      ;XREF[3,0]:   000182ba,000182d6,000182e2
          ;local_20      undefined4         -20                      ;XREF[2,0]:   000182b8,000182e4
          ;local_30      undefined4         -30                      ;XREF[4,0]:   000182ae,000182ce,000182e0,00018306
                                                          ;XREF[1,0]:   00018244
ram:00018292    f0b5            push        {r4,r5,r6,r7,lr}                        
ram:00018294    1fb4            push        {param_1,param_2,param_3,param_4,r4}    
ram:00018296    82b0            sub         sp,#0x8                                 
ram:00018298    0546            mov         r5,param_1                              
ram:0001829a    0c00            movs        r4,param_2                              
ram:0001829c    03d0            beq         LAB_000182a6                            
ram:0001829e    0846            mov         param_1,param_2                         
ram:000182a0    00f0ecfa        bl          FUN_0001887c                            ;int FUN_0001887c(uint param_1)
ram:000182a4    02e0            b           LAB_000182ac                            
                            LAB_000182a6:                 ;XREF[1,0]:   0001829c
ram:000182a6    00f0e9fa        bl          FUN_0001887c                            ;int FUN_0001887c(uint param_1)
ram:000182aa    2030            adds        param_1,#0x20                           
                            LAB_000182ac:                 ;XREF[1,0]:   000182a4
ram:000182ac    0246            mov         param_3,param_1                         
ram:000182ae    0090            str         param_1,[sp,#0x0]=>local_30             
ram:000182b0    2146            mov         param_2,r4                              
ram:000182b2    2846            mov         param_1,r5                              
ram:000182b4    00f052f8        bl          FUN_0001835c                            ;longlong FUN_0001835c(uint param_1, ...
ram:000182b8    049b            ldr         param_4,[sp,#local_20+0x30]             
ram:000182ba    059a            ldr         param_3,[sp,#local_1c+0x30]             
ram:000182bc    0446            mov         r4,param_1                              
ram:000182be    0f46            mov         r7,param_2                              
ram:000182c0    1843            orrs        param_1,param_4                         
ram:000182c2    1143            orrs        param_2,param_3                         
ram:000182c4    0843            orrs        param_1,param_2                         
ram:000182c6    14d0            beq         LAB_000182f2                            
ram:000182c8    1846            mov         param_1,param_4                         
ram:000182ca    1043            orrs        param_1,param_3                         
ram:000182cc    1bd0            beq         LAB_00018306                            
ram:000182ce    0098            ldr         param_1,[sp,#0x0]=>local_30             
ram:000182d0    4021            movs        param_2,#0x40                           
ram:000182d2    0a1a            subs        param_3,param_2,param_1                 
ram:000182d4    1846            mov         param_1,param_4                         
ram:000182d6    0599            ldr         param_2,[sp,#local_1c+0x30]             
ram:000182d8    00f050f8        bl          FUN_0001837c                            ;ulonglong FUN_0001837c(uint param_1,...
ram:000182dc    0546            mov         r5,param_1                              
ram:000182de    0e46            mov         r6,param_2                              
ram:000182e0    009a            ldr         param_3,[sp,#0x0]=>local_30             
ram:000182e2    0599            ldr         param_2,[sp,#local_1c+0x30]             
ram:000182e4    0498            ldr         param_1,[sp,#local_20+0x30]             
ram:000182e6    00f039f8        bl          FUN_0001835c                            ;longlong FUN_0001835c(uint param_1, ...
ram:000182ea    0843            orrs        param_1,param_2                         
ram:000182ec    05d0            beq         LAB_000182fa                            
ram:000182ee    0120            movs        param_1,#0x1                            
ram:000182f0    04e0            b           LAB_000182fc                            
                            LAB_000182f2:                 ;XREF[1,0]:   000182c6
ram:000182f2    2046            mov         param_1,r4                              
ram:000182f4    3946            mov         param_2,r7                              
                            LAB_000182f6:                 ;XREF[2,0]:   00018320,00018334
ram:000182f6    07b0            add         sp,#0x1c                                
ram:000182f8    f0bd            pop         {r4,r5,r6,r7,pc}                        
                            LAB_000182fa:                 ;XREF[1,0]:   000182ec
ram:000182fa    0020            movs        param_1,#0x0                            
                            LAB_000182fc:                 ;XREF[1,0]:   000182f0
ram:000182fc    c117            asrs        param_2,param_1,#0x1f                   
ram:000182fe    0543            orrs        r5,param_1                              
ram:00018300    0e43            orrs        r6,param_2                              
ram:00018302    2c43            orrs        r4,r5                                   
ram:00018304    3743            orrs        r7,r6                                   
                            LAB_00018306:                 ;XREF[1,0]:   000182cc
ram:00018306    0099            ldr         param_2,[sp,#0x0]=>local_30             
ram:00018308    0e98            ldr         param_1,[sp,#param_7+0x30]              
ram:0001830a    6305            lsls        param_4,r4,#0x15                        
ram:0001830c    401a            subs        param_1,param_1,param_2                 
ram:0001830e    7905            lsls        param_2,r7,#0x15                        
ram:00018310    e40a            lsrs        r4,r4,#0xb                              
ram:00018312    0022            movs        param_3,#0x0                            
ram:00018314    0c43            orrs        r4,param_2                              
ram:00018316    fd0a            lsrs        r5,r7,#0xb                              
ram:00018318    0a30            adds        param_1,#0xa                            
ram:0001831a    02d5            bpl         LAB_00018322                            
ram:0001831c    0020            movs        param_1,#0x0                            
ram:0001831e    0146            mov         param_2,param_1                         
ram:00018320    e9e7            b           LAB_000182f6                            
                            LAB_00018322:                 ;XREF[1,0]:   0001831a
ram:00018322    0105            lsls        param_2,param_1,#0x14                   
ram:00018324    1019            adds        param_1,param_3,r4                      
ram:00018326    6941            adcs        param_2,r5                              
ram:00018328    0c9c            ldr         r4,[sp,#param_5+0x30]                   
ram:0001832a    0d9d            ldr         r5,[sp,#param_6+0x30]                   
ram:0001832c    0019            adds        param_1,param_1,r4                      
ram:0001832e    6941            adcs        param_2,r5                              
ram:00018330    fff7a2ff        bl          FUN_00018278                            ;undefined8 FUN_00018278(uint param_1...
ram:00018334    dfe7            b           LAB_000182f6                            
ram:00018336    0000            movs        r0,r0                                   
                            ;************************************************************************************************
                            ;*                                           FUNCTION                                           *
                            ;************************************************************************************************
                            ;longlong FUN_00018338(undefined4 param_1, undefined4 param_2, uint * param_3, uint param_4)
          ;param_1       undefined4          r0                      
          ;param_2       undefined4          r1                      
          ;param_3       uint *              r2                      
          ;param_4       uint                r3                      
                                                          ;XREF[1,0]:   000180c4
ram:00018338    064c            ldr         r4,[LAB_00018354]                       
ram:0001833a    0125            movs        r5,#0x1                                 
ram:0001833c    064e            ldr         r6,[LAB_00018358]                       
ram:0001833e    05e0            b           LAB_0001834c                            
                            LAB_00018340:                 ;XREF[1,0]:   0001834e
ram:00018340    e368            ldr         param_4,[r4,#0xc]=>->FUN_0001839e       ;= 0001839e
                                                          ; FWD[4,0]:   0001c2a8,0001c2ac,0001c2b0,0001c2c8
ram:00018342    07cc            ldmia       r4!,{param_1,param_2,param_3}=>PTR_DA...;= 0001c2c8
                                                                                    ;= 20002000h
                                                                                    ;= 00000150h
                                                                                    ;= 51h    Q
ram:00018344    2b43            orrs        param_4,r5                              
ram:00018346    0c3c            subs        r4,#0xc                                 
ram:00018348    9847            blx         param_4=>FUN_0001839e                   ;undefined4 FUN_0001839e(byte * param...
ram:0001834a    1034            adds        r4,#0x10                                
                            LAB_0001834c:                 ;XREF[1,0]:   0001833e
ram:0001834c    b442            cmp         r4,r6                                   
ram:0001834e    f7d3            bcc         LAB_00018340                            
ram:00018350    fff7bafe        bl          thunk_FUN_0001a9f0                      ;undefined thunk_FUN_0001a9f0(void)
                            LAB_00018354:                 ;XREF[1,0]:   00018338
ram:00018354    a8c2            stmia       param_3!,{param_4,r5,r7}                
ram:00018356    0100            movs        param_2,param_1                         
                            LAB_00018358:                 ;XREF[1,0]:   0001833c
ram:00018358    c8c2            stmia       param_3!,{param_4,r6,r7}=>DAT_0001c2c8  ;= 51h    Q
ram:0001835a    0100            movs        param_2,param_1                         
                            ;************************************************************************************************
                            ;*                                           FUNCTION                                           *
                            ;************************************************************************************************
                            ;longlong FUN_0001835c(uint param_1, int param_2, uint param_3)
          ;param_1       uint                r0                      
          ;param_2       int                 r1                      
          ;param_3       uint                r2                      
                                                          ;XREF[2,0]:   000182b4,000182e6
ram:0001835c    10b5            push        {r4,lr}=>PTR_DAT_0001c2a8               ;= 0001c2c8
ram:0001835e    202a            cmp         param_3,#0x20                           
ram:00018360    04db            blt         LAB_0001836c                            
ram:00018362    0146            mov         param_2,param_1                         
ram:00018364    203a            subs        param_3,#0x20                           
ram:00018366    9140            lsls        param_2,param_3                         
ram:00018368    0020            movs        param_1,#0x0                            
ram:0001836a    10bd            pop         {r4,pc}                                 
                            LAB_0001836c:                 ;XREF[1,0]:   00018360
ram:0001836c    9140            lsls        param_2,param_3                         
ram:0001836e    2023            movs        r3,#0x20                                
ram:00018370    9c1a            subs        r4,r3,param_3                           
ram:00018372    0346            mov         r3,param_1                              
ram:00018374    e340            lsrs        r3,r4                                   
ram:00018376    1943            orrs        param_2,r3                              
ram:00018378    9040            lsls        param_1,param_3                         
ram:0001837a    10bd            pop         {r4,pc}                                 
                            ;************************************************************************************************
                            ;*                                           FUNCTION                                           *
                            ;************************************************************************************************
                            ;ulonglong FUN_0001837c(uint param_1, uint param_2, uint param_3)
          ;param_1       uint                r0                      
          ;param_2       uint                r1                      
          ;param_3       uint                r2                      
                                                          ;XREF[1,0]:   000182d8
ram:0001837c    10b5            push        {r4,lr}                                 
ram:0001837e    202a            cmp         param_3,#0x20                           
ram:00018380    04db            blt         LAB_0001838c                            
ram:00018382    0846            mov         param_1,param_2                         
ram:00018384    203a            subs        param_3,#0x20                           
ram:00018386    d040            lsrs        param_1,param_3                         
ram:00018388    0021            movs        param_2,#0x0                            
ram:0001838a    10bd            pop         {r4,pc}                                 
                            LAB_0001838c:                 ;XREF[1,0]:   00018380
ram:0001838c    0b46            mov         r3,param_2                              
ram:0001838e    d340            lsrs        r3,param_3                              
ram:00018390    d040            lsrs        param_1,param_3                         
ram:00018392    2024            movs        r4,#0x20                                
ram:00018394    a21a            subs        param_3,r4,param_3                      
ram:00018396    9140            lsls        param_2,param_3                         
ram:00018398    0843            orrs        param_1,param_2                         
ram:0001839a    1946            mov         param_2,r3                              
ram:0001839c    10bd            pop         {r4,pc}                                 
                            ;************************************************************************************************
                            ;*                                           FUNCTION                                           *
                            ;************************************************************************************************
                            ;undefined4 FUN_0001839e(byte * param_1, byte * param_2, int param_3)
          ;param_1       byte *              r0                      
          ;param_2       byte *              r1                      
          ;param_3       int                 r2                      
                                                          ;XREF[2,0]:   00018348,0001c2b4
ram:0001839e    30b5            push        {r4,r5,lr}                              
ram:000183a0    8c18            adds        r4,param_2,param_3                      
                            LAB_000183a2:                 ;XREF[1,0]:   000183d2
ram:000183a2    0278            ldrb        param_3,[param_1,#0x0]                  
ram:000183a4    401c            adds        param_1,param_1,#0x1                    
ram:000183a6    1307            lsls        r3,param_3,#0x1c                        
ram:000183a8    1b0f            lsrs        r3,r3,#0x1c                             
ram:000183aa    01d1            bne         LAB_000183b0                            
ram:000183ac    0378            ldrb        r3,[param_1,#0x0]                       
ram:000183ae    401c            adds        param_1,param_1,#0x1                    
                            LAB_000183b0:                 ;XREF[1,0]:   000183aa
ram:000183b0    1209            lsrs        param_3,param_3,#0x4                    
ram:000183b2    06d1            bne         LAB_000183c2                            
ram:000183b4    0278            ldrb        param_3,[param_1,#0x0]                  
ram:000183b6    401c            adds        param_1,param_1,#0x1                    
ram:000183b8    03e0            b           LAB_000183c2                            
                            LAB_000183ba:                 ;XREF[1,0]:   000183c4
ram:000183ba    0578            ldrb        r5,[param_1,#0x0]                       
ram:000183bc    0d70            strb        r5,[param_2,#0x0]                       
ram:000183be    401c            adds        param_1,param_1,#0x1                    
ram:000183c0    491c            adds        param_2,param_2,#0x1                    
                            LAB_000183c2:                 ;XREF[2,0]:   000183b2,000183b8
ram:000183c2    5b1e            subs        r3,r3,#0x1                              
ram:000183c4    f9d1            bne         LAB_000183ba                            
ram:000183c6    01e0            b           LAB_000183cc                            
                            LAB_000183c8:                 ;XREF[1,0]:   000183ce
ram:000183c8    0b70            strb        r3,[param_2,#0x0]                       
ram:000183ca    491c            adds        param_2,param_2,#0x1                    
                            LAB_000183cc:                 ;XREF[1,0]:   000183c6
ram:000183cc    521e            subs        param_3,param_3,#0x1                    
ram:000183ce    fbd1            bne         LAB_000183c8                            
ram:000183d0    a142            cmp         param_2,r4                              
ram:000183d2    e6d3            bcc         LAB_000183a2                            
ram:000183d4    0020            movs        param_1,#0x0                            
ram:000183d6    30bd            pop         {r4,r5,pc}                              
                            ;************************************************************************************************
                            ;*                                           FUNCTION                                           *
                            ;************************************************************************************************
                            ;undefined FUNC_VT_000183d8(void)
          ;local_1c      undefined4         -1c                      ;XREF[6,0]:   000183fe,00018418,00018430,00018448,00018460
                                                                     ;             0001847a
          ;local_20      undefined4         -20                      ;XREF[6,0]:   00018400,0001841a,00018432,0001844a,00018462
                                                                     ;             0001847c
                                                          ;XREF[0,1]:   0001805c
ram:000183d8    feb5            push        {r1,r2,r3,r4,r5,r6,r7,lr}               
ram:000183da    3148            ldr         r0,[DAT_000184a0]                       ;= 40007100h
ram:000183dc    0025            movs        r5,#0x0                                 
ram:000183de    0560            str         r5,[r0,#0x0]=>DAT_40007100              
ram:000183e0    304e            ldr         r6,[DAT_000184a4]                       ;= 40007500h
ram:000183e2    b068            ldr         r0,[r6,#offset DAT_40007508 &0xff]      
ram:000183e4    304c            ldr         r4,[DAT_000184a8]                       ;= 20002020h
ram:000183e6    80b2            uxth        r0,r0                                   
ram:000183e8    304f            ldr         r7,[DAT_000184ac]                       ;= 55555556h
ram:000183ea    d428            cmp         r0,#0xd4                                
ram:000183ec    03d3            bcc         LAB_000183f6                            
ram:000183ee    2068            ldr         r0,[r4,#0x0]=>DAT_20002020              
ram:000183f0    0721            movs        r1,#0x7                                 
ram:000183f2    0843            orrs        r0,r1                                   
ram:000183f4    4de0            b           LAB_00018492                            
                            LAB_000183f6:                 ;XREF[1,0]:   000183ec
ram:000183f6    fff71dff        bl          FUN_00018234                            ;ulonglong FUN_00018234(uint param_1)
ram:000183fa    3a46            mov         r2,r7                                   
ram:000183fc    2c4b            ldr         r3,[DAT_000184b0]                       ;= 40692555h
ram:000183fe    0191            str         r1,[sp,#local_1c+0x20]                  
ram:00018400    0090            str         r0,[sp,#0x0]=>local_20                  
ram:00018402    fff725ff        bl          FUN_00018250                            ;int FUN_00018250(int param_1, int pa...
ram:00018406    04d8            bhi         LAB_00018412                            
ram:00018408    2068            ldr         r0,[r4,#0x0]=>DAT_20002020              
ram:0001840a    c008            lsrs        r0,r0,#0x3                              
ram:0001840c    c000            lsls        r0,r0,#0x3                              
ram:0001840e    801d            adds        r0,r0,#0x6                              
ram:00018410    3fe0            b           LAB_00018492                            
                            LAB_00018412:                 ;XREF[1,0]:   00018406
ram:00018412    264a            ldr         r2,[DAT_000184ac]                       ;= 55555556h
ram:00018414    274b            ldr         r3,[DAT_000184b4]                       ;= 4067BAAAh
ram:00018416    5242            rsbs        r2,r2                                   
ram:00018418    0199            ldr         r1,[sp,#local_1c+0x20]                  
ram:0001841a    0098            ldr         r0,[sp,#0x0]=>local_20                  
ram:0001841c    fff718ff        bl          FUN_00018250                            ;int FUN_00018250(int param_1, int pa...
ram:00018420    04d8            bhi         LAB_0001842c                            
ram:00018422    2068            ldr         r0,[r4,#0x0]=>DAT_20002020              
ram:00018424    c008            lsrs        r0,r0,#0x3                              
ram:00018426    c000            lsls        r0,r0,#0x3                              
ram:00018428    401d            adds        r0,r0,#0x5                              
ram:0001842a    32e0            b           LAB_00018492                            
                            LAB_0001842c:                 ;XREF[1,0]:   00018420
ram:0001842c    0022            movs        r2,#0x0                                 
ram:0001842e    224b            ldr         r3,[DAT_000184b8]                       ;= 40665000h
ram:00018430    0199            ldr         r1,[sp,#local_1c+0x20]                  
ram:00018432    0098            ldr         r0,[sp,#0x0]=>local_20                  
ram:00018434    fff70cff        bl          FUN_00018250                            ;int FUN_00018250(int param_1, int pa...
ram:00018438    04d8            bhi         LAB_00018444                            
ram:0001843a    2068            ldr         r0,[r4,#0x0]=>DAT_20002020              
ram:0001843c    c008            lsrs        r0,r0,#0x3                              
ram:0001843e    c000            lsls        r0,r0,#0x3                              
ram:00018440    001d            adds        r0,r0,#0x4                              
ram:00018442    26e0            b           LAB_00018492                            
                            LAB_00018444:                 ;XREF[1,0]:   00018438
ram:00018444    3a46            mov         r2,r7                                   
ram:00018446    1d4b            ldr         r3,[DAT_000184bc]                       ;= 4064E555h
ram:00018448    0199            ldr         r1,[sp,#local_1c+0x20]                  
ram:0001844a    0098            ldr         r0,[sp,#0x0]=>local_20                  
ram:0001844c    fff700ff        bl          FUN_00018250                            ;int FUN_00018250(int param_1, int pa...
ram:00018450    04d8            bhi         LAB_0001845c                            
ram:00018452    2068            ldr         r0,[r4,#0x0]=>DAT_20002020              
ram:00018454    c008            lsrs        r0,r0,#0x3                              
ram:00018456    c000            lsls        r0,r0,#0x3                              
ram:00018458    c01c            adds        r0,r0,#0x3                              
ram:0001845a    1ae0            b           LAB_00018492                            
                            LAB_0001845c:                 ;XREF[1,0]:   00018450
ram:0001845c    0022            movs        r2,#0x0                                 
ram:0001845e    184b            ldr         r3,[DAT_000184c0]                       ;= 40643000h
ram:00018460    0199            ldr         r1,[sp,#local_1c+0x20]                  
ram:00018462    0098            ldr         r0,[sp,#0x0]=>local_20                  
ram:00018464    fff7f4fe        bl          FUN_00018250                            ;int FUN_00018250(int param_1, int pa...
ram:00018468    04d8            bhi         LAB_00018474                            
ram:0001846a    2068            ldr         r0,[r4,#0x0]=>DAT_20002020              
ram:0001846c    c008            lsrs        r0,r0,#0x3                              
ram:0001846e    c000            lsls        r0,r0,#0x3                              
ram:00018470    801c            adds        r0,r0,#0x2                              
ram:00018472    0ee0            b           LAB_00018492                            
                            LAB_00018474:                 ;XREF[1,0]:   00018468
ram:00018474    0d4a            ldr         r2,[DAT_000184ac]                       ;= 55555556h
ram:00018476    134b            ldr         r3,[DAT_000184c4]                       ;= 4063D555h
ram:00018478    521e            subs        r2,r2,#0x1                              
ram:0001847a    0199            ldr         r1,[sp,#local_1c+0x20]                  
ram:0001847c    0098            ldr         r0,[sp,#0x0]=>local_20                  
ram:0001847e    fff7e7fe        bl          FUN_00018250                            ;int FUN_00018250(int param_1, int pa...
ram:00018482    2068            ldr         r0,[r4,#0x0]=>DAT_20002020              
ram:00018484    03d8            bhi         LAB_0001848e                            
ram:00018486    c008            lsrs        r0,r0,#0x3                              
ram:00018488    c000            lsls        r0,r0,#0x3                              
ram:0001848a    401c            adds        r0,r0,#0x1                              
ram:0001848c    01e0            b           LAB_00018492                            
                            LAB_0001848e:                 ;XREF[1,0]:   00018484
ram:0001848e    c008            lsrs        r0,r0,#0x3                              
ram:00018490    c000            lsls        r0,r0,#0x3                              
                            LAB_00018492:                 ;XREF[7,0]:   000183f4,00018410,0001842a,00018442
                                                          ;             0001845a,00018472,0001848c
ram:00018492    2060            str         r0,[r4,#0x0]=>DAT_20002020              
ram:00018494    0c49            ldr         r1,[DAT_000184c8]                       ;= 40007000h
ram:00018496    0120            movs        r0,#0x1                                 
ram:00018498    4860            str         r0,[r1,#offset DAT_40007004 &0xff]      
ram:0001849a    4adf            svc         0x4a                                    
ram:0001849c    3560            str         r5,[r6,#0x0]=>DAT_40007500              
ram:0001849e    febd            pop         {r1,r2,r3,r4,r5,r6,r7,pc}               
                            DAT_000184a0:                 ;XREF[1,0]:   000183da
ram:000184a0    00710040        undefined4  40007100h                               
                            DAT_000184a4:                 ;XREF[1,0]:   000183e0
ram:000184a4    00750040        undefined4  40007500h                               
                            DAT_000184a8:                 ;XREF[1,0]:   000183e4
ram:000184a8    20200020        undefined4  20002020h                               
                            DAT_000184ac:                 ;XREF[3,0]:   000183e8,00018412,00018474
ram:000184ac    56555555        undefined4  55555556h                               
                            DAT_000184b0:                 ;XREF[1,0]:   000183fc
ram:000184b0    55256940        undefined4  40692555h                               
                            DAT_000184b4:                 ;XREF[1,0]:   00018414
ram:000184b4    aaba6740        undefined4  4067BAAAh                               
                            DAT_000184b8:                 ;XREF[1,0]:   0001842e
ram:000184b8    00506640        undefined4  40665000h                               
                            DAT_000184bc:                 ;XREF[1,0]:   00018446
ram:000184bc    55e56440        undefined4  4064E555h                               
                            DAT_000184c0:                 ;XREF[1,0]:   0001845e
ram:000184c0    00306440        undefined4  40643000h                               
                            DAT_000184c4:                 ;XREF[1,0]:   00018476
ram:000184c4    55d56340        undefined4  4063D555h                               
                            DAT_000184c8:                 ;XREF[1,0]:   00018494
ram:000184c8    00700040        undefined4  40007000h                               
                            ;************************************************************************************************
                            ;*                                           FUNCTION                                           *
                            ;************************************************************************************************
                            ;undefined FUN_000184cc(uint param_1)
          ;param_1       uint                r0                      
                                                          ;XREF[2,0]:   00018654,0001869e
ram:000184cc    10b5            push        {r4,lr}                                 
ram:000184ce    0446            mov         r4,param_1                              
ram:000184d0    0146            mov         r1,param_1                              
ram:000184d2    0220            movs        param_1,#0x2                            
ram:000184d4    0140            ands        r1,param_1                              
ram:000184d6    0920            movs        param_1,#0x9                            
ram:000184d8    02f080fc        bl          FUN_0001addc                            ;undefined FUN_0001addc(uint param_1,...
ram:000184dc    e107            lsls        r1,r4,#0x1f                             
ram:000184de    c90f            lsrs        r1,r1,#0x1f                             
ram:000184e0    0a20            movs        param_1,#0xa                            
ram:000184e2    02f07bfc        bl          FUN_0001addc                            ;undefined FUN_0001addc(uint param_1,...
ram:000184e6    10bd            pop         {r4,pc}                                 
                            ;************************************************************************************************
                            ;*                                           FUNCTION                                           *
                            ;************************************************************************************************
                            ;undefined FUN_000184e8(void)
                                                          ;XREF[2,0]:   00019eac,00019efc
ram:000184e8    10b5            push        {r4,lr}                                 
ram:000184ea    0820            movs        r0,#0x8                                 
ram:000184ec    02f066fc        bl          FUN_0001adbc                            ;undefined FUN_0001adbc(uint param_1)
ram:000184f0    0920            movs        r0,#0x9                                 
ram:000184f2    02f063fc        bl          FUN_0001adbc                            ;undefined FUN_0001adbc(uint param_1)
ram:000184f6    0a20            movs        r0,#0xa                                 
ram:000184f8    02f060fc        bl          FUN_0001adbc                            ;undefined FUN_0001adbc(uint param_1)
ram:000184fc    10bd            pop         {r4,pc}                                 
ram:000184fe    0000            movs        r0,r0                                   
                            ;************************************************************************************************
                            ;*                                           FUNCTION                                           *
                            ;************************************************************************************************
                            ;undefined FUNC_VT_00018500(void)
          ;local_1c      undefined4         -1c                      ;XREF[3,0]:   0001852a,0001856e,00018582
          ;local_20      undefined4         -20                      ;XREF[3,0]:   00018538,0001857a,00018584
          ;local_24      undefined4         -24                      ;XREF[2,0]:   00018550,00018564
          ;local_28      undefined4         -28                      ;XREF[6,0]:   00018528,0001855c,00018566,00018570,00018578
                                                                     ;             0001858e
                                                          ;XREF[0,1]:   00018058
ram:00018500    f0b5            push        {r4,r5,r6,r7,lr}                        
ram:00018502    2a48            ldr         r0,[DAT_000185ac]                       ;= 50000500h
ram:00018504    85b0            sub         sp,#0x14                                
ram:00018506    0469            ldr         r4,[r0,#offset DAT_50000510 &0xff]      
ram:00018508    2948            ldr         r0,[DAT_000185b0]                       ;= 40006140h
ram:0001850a    0021            movs        r1,#0x0                                 
ram:0001850c    c163            str         r1,[r0,#0x3c]=>DAT_4000617c             
ram:0001850e    0e46            mov         r6,r1                                   
ram:00018510    284f            ldr         r7,[DAT_000185b4]                       ;= 200020F4h
ram:00018512    45e0            b           LAB_000185a0                            
                            LAB_00018514:                 ;XREF[1,0]:   000185a4
ram:00018514    1420            movs        r0,#0x14                                
ram:00018516    7968            ldr         r1,[r7,#0x4]=>DAT_200020f8              
ram:00018518    7043            muls        r0,r6                                   
ram:0001851a    4518            adds        r5,r0,r1                                
ram:0001851c    0120            movs        r0,#0x1                                 
ram:0001851e    b968            ldr         r1,[r7,#0x8]=>DAT_200020fc              
ram:00018520    b040            lsls        r0,r6                                   
ram:00018522    0842            tst         r0,r1                                   
ram:00018524    3ad0            beq         LAB_0001859c                            
ram:00018526    0020            movs        r0,#0x0                                 
ram:00018528    0090            str         r0,[sp,#0x0]=>local_28                  
ram:0001852a    0390            str         r0,[sp,#local_1c+0x28]                  
ram:0001852c    e868            ldr         r0,[r5,#0xc]                            
ram:0001852e    2968            ldr         r1,[r5,#0x0]                            
ram:00018530    c043            mvns        r0,r0                                   
ram:00018532    6040            eors        r0,r4                                   
ram:00018534    0840            ands        r0,r1                                   
ram:00018536    0146            mov         r1,r0                                   
ram:00018538    0290            str         r0,[sp,#local_20+0x28]                  
ram:0001853a    2846            mov         r0,r5                                   
ram:0001853c    03f0d8f8        bl          FUN_0001b6f0                            ;undefined FUN_0001b6f0(int param_1, ...
ram:00018540    1a48            ldr         r0,[DAT_000185ac]                       ;= 50000500h
ram:00018542    0069            ldr         r0,[r0,#offset DAT_50000510 &0xff]      
ram:00018544    2968            ldr         r1,[r5,#0x0]                            
ram:00018546    6040            eors        r0,r4                                   
ram:00018548    0840            ands        r0,r1                                   
ram:0001854a    16d0            beq         LAB_0001857a                            
ram:0001854c    2246            mov         r2,r4                                   
ram:0001854e    4240            eors        r2,r0                                   
ram:00018550    0192            str         r2,[sp,#local_24+0x28]                  
ram:00018552    e868            ldr         r0,[r5,#0xc]                            
ram:00018554    c043            mvns        r0,r0                                   
ram:00018556    5040            eors        r0,r2                                   
ram:00018558    0840            ands        r0,r1                                   
ram:0001855a    0146            mov         r1,r0                                   
ram:0001855c    0090            str         r0,[sp,#0x0]=>local_28                  
ram:0001855e    2846            mov         r0,r5                                   
ram:00018560    03f0c6f8        bl          FUN_0001b6f0                            ;undefined FUN_0001b6f0(int param_1, ...
ram:00018564    019a            ldr         r2,[sp,#local_24+0x28]                  
ram:00018566    0098            ldr         r0,[sp,#0x0]=>local_28                  
ram:00018568    a968            ldr         r1,[r5,#0x8]                            
ram:0001856a    9043            bics        r0,r2                                   
ram:0001856c    0140            ands        r1,r0                                   
ram:0001856e    0391            str         r1,[sp,#local_1c+0x28]                  
ram:00018570    0098            ldr         r0,[sp,#0x0]=>local_28                  
ram:00018572    6968            ldr         r1,[r5,#0x4]                            
ram:00018574    0240            ands        r2,r0                                   
ram:00018576    1140            ands        r1,r2                                   
ram:00018578    0091            str         r1,[sp,#0x0]=>local_28                  
                            LAB_0001857a:                 ;XREF[1,0]:   0001854a
ram:0001857a    0298            ldr         r0,[sp,#local_20+0x28]                  
ram:0001857c    a968            ldr         r1,[r5,#0x8]                            
ram:0001857e    a043            bics        r0,r4                                   
ram:00018580    0140            ands        r1,r0                                   
ram:00018582    0398            ldr         r0,[sp,#local_1c+0x28]                  
ram:00018584    029a            ldr         r2,[sp,#local_20+0x28]                  
ram:00018586    0143            orrs        r1,r0                                   
ram:00018588    6868            ldr         r0,[r5,#0x4]                            
ram:0001858a    2240            ands        r2,r4                                   
ram:0001858c    1040            ands        r0,r2                                   
ram:0001858e    009a            ldr         r2,[sp,#0x0]=>local_28                  
ram:00018590    1043            orrs        r0,r2                                   
ram:00018592    0246            mov         r2,r0                                   
ram:00018594    0a43            orrs        r2,r1                                   
ram:00018596    01d0            beq         LAB_0001859c                            
ram:00018598    2a69            ldr         r2,[r5,#0x10]                           
ram:0001859a    9047            blx         r2                                      
                            LAB_0001859c:                 ;XREF[2,0]:   00018524,00018596
ram:0001859c    761c            adds        r6,r6,#0x1                              
ram:0001859e    f6b2            uxtb        r6,r6                                   
                            LAB_000185a0:                 ;XREF[1,0]:   00018512
ram:000185a0    7878            ldrb        r0,[r7,#0x1]=>DAT_200020f5              
ram:000185a2    8642            cmp         r6,r0                                   
ram:000185a4    b6d3            bcc         LAB_00018514                            
ram:000185a6    05b0            add         sp,#0x14                                
ram:000185a8    f0bd            pop         {r4,r5,r6,r7,pc}                        
ram:000185aa    0000            movs        r0,r0                                   
                            DAT_000185ac:                 ;XREF[2,0]:   00018502,00018540
ram:000185ac    00050050        undefined4  50000500h                               
                            DAT_000185b0:                 ;XREF[1,0]:   00018508
ram:000185b0    40610040        undefined4  40006140h                               
                            DAT_000185b4:                 ;XREF[1,0]:   00018510
ram:000185b4    f4200020        undefined4  200020F4h                               
                            ;************************************************************************************************
                            ;*                                           FUNCTION                                           *
                            ;************************************************************************************************
                            ;undefined FUN_000185b8(void)
                                                          ;XREF[2,0]:   000185e6,00018698
ram:000185b8    0549            ldr         r1,[DAT_000185d0]                       ;= 50000720h
ram:000185ba    0320            movs        r0,#0x3                                 
ram:000185bc    0860            str         r0,[r1,#0x0]=>DAT_50000720              
ram:000185be    091d            adds        r1,r1,#0x4                              
ram:000185c0    0860            str         r0,[r1,#0x0]=>DAT_50000724              
ram:000185c2    091d            adds        r1,r1,#0x4                              
ram:000185c4    0860            str         r0,[r1,#0x0]=>DAT_50000728              
ram:000185c6    ff20            movs        r0,#0xff                                
ram:000185c8    0249            ldr         r1,[DAT_000185d4]                       ;= 50000500h
ram:000185ca    0130            adds        r0,#0x1                                 
ram:000185cc    8860            str         r0,[r1,#offset DAT_50000508 &0xff]      
ram:000185ce    7047            bx          lr                                      
                            DAT_000185d0:                 ;XREF[1,0]:   000185b8
ram:000185d0    20070050        undefined4  50000720h                               
                            DAT_000185d4:                 ;XREF[1,0]:   000185c8
ram:000185d4    00050050        undefined4  50000500h                               
                            ;************************************************************************************************
                            ;*                                           FUNCTION                                           *
                            ;************************************************************************************************
                            ;undefined FUN_000185d8(void)
                                                          ;XREF[1,0]:   0001abda
ram:000185d8    70b5            push        {r4,r5,r6,lr}                           
ram:000185da    2148            ldr         r0,[DAT_00018660]                       ;= 20002020h
ram:000185dc    0068            ldr         r0,[r0,#0x0]=>DAT_20002020              
ram:000185de    4007            lsls        r0,r0,#0x1d                             
ram:000185e0    400f            lsrs        r0,r0,#0x1d                             
ram:000185e2    0128            cmp         r0,#0x1                                 
ram:000185e4    3ad9            bls         LAB_0001865c                            
ram:000185e6    fff7e7ff        bl          FUN_000185b8                            ;undefined FUN_000185b8(void)
ram:000185ea    1d4c            ldr         r4,[DAT_00018660]                       ;= 20002020h
ram:000185ec    241f            subs        r4,r4,#0x4                              
ram:000185ee    2068            ldr         r0,[r4,#0x0]=>DAT_2000201c              
ram:000185f0    0121            movs        r1,#0x1                                 
ram:000185f2    c903            lsls        r1,r1,#0xf                              
ram:000185f4    8843            bics        r0,r1                                   
ram:000185f6    2060            str         r0,[r4,#0x0]=>DAT_2000201c              
ram:000185f8    2068            ldr         r0,[r4,#0x0]=>DAT_2000201c              
ram:000185fa    ff21            movs        r1,#0xff                                
ram:000185fc    4901            lsls        r1,r1,#0x5                              
ram:000185fe    8843            bics        r0,r1                                   
ram:00018600    2060            str         r0,[r4,#0x0]=>DAT_2000201c              
ram:00018602    0420            movs        r0,#0x4                                 
ram:00018604    1749            ldr         r1,[DAT_00018664]                       ;= 50000710h
ram:00018606    1025            movs        r5,#0x10                                
ram:00018608    0860            str         r0,[r1,#0x0]=>DAT_50000710              
ram:0001860a    091d            adds        r1=>DAT_50000714,r1,#0x4                
ram:0001860c    0860            str         r0,[r1,#0x0]=>DAT_50000714              
ram:0001860e    2068            ldr         r0,[r4,#0x0]=>DAT_2000201c              
ram:00018610    0826            movs        r6,#0x8                                 
ram:00018612    b043            bics        r0,r6                                   
ram:00018614    2060            str         r0,[r4,#0x0]=>DAT_2000201c              
ram:00018616    2068            ldr         r0,[r4,#0x0]=>DAT_2000201c              
ram:00018618    a843            bics        r0,r5                                   
ram:0001861a    2060            str         r0,[r4,#0x0]=>DAT_2000201c              
ram:0001861c    0420            movs        r0,#0x4                                 
ram:0001861e    02f0d5fb        bl          FUN_0001adcc                            ;uint FUN_0001adcc(uint param_1)
ram:00018622    c007            lsls        r0,r0,#0x1f                             
ram:00018624    010f            lsrs        r1,r0,#0x1c                             
ram:00018626    2068            ldr         r0,[r4,#0x0]=>DAT_2000201c              
ram:00018628    b043            bics        r0,r6                                   
ram:0001862a    0843            orrs        r0,r1                                   
ram:0001862c    2060            str         r0,[r4,#0x0]=>DAT_2000201c              
ram:0001862e    0520            movs        r0,#0x5                                 
ram:00018630    02f0ccfb        bl          FUN_0001adcc                            ;uint FUN_0001adcc(uint param_1)
ram:00018634    c007            lsls        r0,r0,#0x1f                             
ram:00018636    c10e            lsrs        r1,r0,#0x1b                             
ram:00018638    2068            ldr         r0,[r4,#0x0]=>DAT_2000201c              
ram:0001863a    a843            bics        r0,r5                                   
ram:0001863c    0843            orrs        r0,r1                                   
ram:0001863e    2060            str         r0,[r4,#0x0]=>DAT_2000201c              
ram:00018640    2068            ldr         r0,[r4,#0x0]=>DAT_2000201c              
ram:00018642    0321            movs        r1,#0x3                                 
ram:00018644    0904            lsls        r1,r1,#0x10                             
ram:00018646    8843            bics        r0,r1                                   
ram:00018648    6903            lsls        r1,r5,#0xd                              
ram:0001864a    4018            adds        r0,r0,r1                                
ram:0001864c    2060            str         r0,[r4,#0x0]=>DAT_2000201c              
ram:0001864e    2068            ldr         r0,[r4,#0x0]=>DAT_2000201c              
ram:00018650    8003            lsls        r0,r0,#0xe                              
ram:00018652    800f            lsrs        r0,r0,#0x1e                             
ram:00018654    fff73aff        bl          FUN_000184cc                            ;undefined FUN_000184cc(uint param_1)
ram:00018658    01f05efc        bl          FUN_00019f18                            ;undefined FUN_00019f18(void)
                            LAB_0001865c:                 ;XREF[1,0]:   000185e4
ram:0001865c    70bd            pop         {r4,r5,r6,pc}                           
ram:0001865e    0000            movs        r0,r0                                   
                            DAT_00018660:                 ;XREF[2,0]:   000185da,000185ea
ram:00018660    20200020        undefined4  20002020h                               
                            DAT_00018664:                 ;XREF[1,0]:   00018604
ram:00018664    10070050        undefined4  50000710h                               
                            ;************************************************************************************************
                            ;*                                           FUNCTION                                           *
                            ;************************************************************************************************
                            ;undefined FUN_00018668(int param_1)
          ;param_1       int                 r0                      
                                                          ;XREF[1,0]:   0001ac06
ram:00018668    10b5            push        {r4,lr}                                 
ram:0001866a    1149            ldr         r1=>DAT_2000201c,[DAT_000186b0]         ;= 2000201Ch
ram:0001866c    0128            cmp         param_1,#0x1                            
ram:0001866e    1bd0            beq         LAB_000186a8                            
ram:00018670    0028            cmp         param_1,#0x0                            
ram:00018672    18d1            bne         LAB_000186a6                            
ram:00018674    0868            ldr         param_1,[r1,#0x0]=>DAT_2000201c         
ram:00018676    8003            lsls        param_1,param_1,#0xe                    
ram:00018678    800f            lsrs        param_1,param_1,#0x1e                   
ram:0001867a    c043            mvns        param_1,param_1                         
ram:0001867c    c4b2            uxtb        r4,param_1                              
                            LAB_0001867e:                 ;XREF[1,0]:   000186ae
ram:0001867e    002c            cmp         r4,#0x0                                 
ram:00018680    11d0            beq         LAB_000186a6                            
ram:00018682    0b48            ldr         param_1,[DAT_000186b0]                  ;= 2000201Ch
ram:00018684    001d            adds        param_1,param_1,#0x4                    
ram:00018686    0068            ldr         param_1,[param_1,#0x0]=>DAT_20002020    
ram:00018688    4007            lsls        param_1,param_1,#0x1d                   
ram:0001868a    400f            lsrs        param_1,param_1,#0x1d                   
ram:0001868c    0128            cmp         param_1,#0x1                            
ram:0001868e    0ad9            bls         LAB_000186a6                            
ram:00018690    0868            ldr         param_1,[r1,#0x0]=>DAT_2000201c         
ram:00018692    0122            movs        r2,#0x1                                 
ram:00018694    1043            orrs        param_1,r2                              
ram:00018696    0860            str         param_1,[r1,#0x0]=>DAT_2000201c         
ram:00018698    fff78eff        bl          FUN_000185b8                            ;undefined FUN_000185b8(void)
ram:0001869c    2046            mov         param_1,r4                              
ram:0001869e    fff715ff        bl          FUN_000184cc                            ;undefined FUN_000184cc(uint param_1)
ram:000186a2    01f039fc        bl          FUN_00019f18                            ;undefined FUN_00019f18(void)
                            LAB_000186a6:                 ;XREF[3,0]:   00018672,00018680,0001868e
ram:000186a6    10bd            pop         {r4,pc}                                 
                            LAB_000186a8:                 ;XREF[1,0]:   0001866e
ram:000186a8    0868            ldr         param_1,[r1,#0x0]=>DAT_2000201c         
ram:000186aa    8003            lsls        param_1,param_1,#0xe                    
ram:000186ac    840f            lsrs        r4,param_1,#0x1e                        
ram:000186ae    e6e7            b           LAB_0001867e                            
                            DAT_000186b0:                 ;XREF[2,0]:   0001866a,00018682
ram:000186b0    1c200020        undefined4  2000201Ch                               
                            ;************************************************************************************************
                            ;*                                           FUNCTION                                           *
                            ;************************************************************************************************
                            ;undefined FUN_000186b4(uint param_1, int param_2)
          ;param_1       uint                r0                      
          ;param_2       int                 r1                      
                                                          ;XREF[2,0]:   0001914e,00019160
ram:000186b4    8307            lsls        r3,param_1,#0x1e                        
ram:000186b6    ff22            movs        r2,#0xff                                
ram:000186b8    db0e            lsrs        r3,r3,#0x1b                             
ram:000186ba    9a40            lsls        r2,r3                                   
ram:000186bc    8907            lsls        param_2,param_2,#0x1e                   
ram:000186be    090e            lsrs        param_2,param_2,#0x18                   
ram:000186c0    9940            lsls        param_2,r3                              
ram:000186c2    0028            cmp         param_1,#0x0                            
ram:000186c4    0bda            bge         LAB_000186de                            
ram:000186c6    0007            lsls        param_1,param_1,#0x1c                   
ram:000186c8    000f            lsrs        param_1,param_1,#0x1c                   
ram:000186ca    0838            subs        param_1,#0x8                            
ram:000186cc    8308            lsrs        r3,param_1,#0x2                         
ram:000186ce    0848            ldr         param_1,[DAT_000186f0]                  ;= E000ED00h
ram:000186d0    9b00            lsls        r3,r3,#0x2                              
ram:000186d2    1818            adds        param_1,r3,param_1                      
ram:000186d4    c369            ldr         r3,[param_1,#0x1c]                      
ram:000186d6    9343            bics        r3,r2                                   
ram:000186d8    0b43            orrs        r3,param_2                              
ram:000186da    c361            str         r3,[param_1,#0x1c]                      
ram:000186dc    7047            bx          lr                                      
                            LAB_000186de:                 ;XREF[1,0]:   000186c4
ram:000186de    8308            lsrs        r3,param_1,#0x2                         
ram:000186e0    0448            ldr         param_1,[DAT_000186f4]                  ;= E000E400h
ram:000186e2    9b00            lsls        r3,r3,#0x2                              
ram:000186e4    1b18            adds        r3,r3,param_1                           
ram:000186e6    1868            ldr         param_1,[r3,#0x0]                       
ram:000186e8    9043            bics        param_1,r2                              
ram:000186ea    0843            orrs        param_1,param_2                         
ram:000186ec    1860            str         param_1,[r3,#0x0]                       
ram:000186ee    7047            bx          lr                                      
                            DAT_000186f0:                 ;XREF[1,0]:   000186ce
ram:000186f0    00ed00e0        undefined4  E000ED00h                               
                            DAT_000186f4:                 ;XREF[1,0]:   000186e0
ram:000186f4    00e400e0        undefined4  E000E400h                               
                            ;************************************************************************************************
                            ;*                                           FUNCTION                                           *
                            ;************************************************************************************************
                            ;undefined FUNC_VT_000186f8(void)
                                                          ;XREF[0,1]:   00018084
ram:000186f8    10b5            push        {r4,lr}                                 
ram:000186fa    0649            ldr         r1,[DAT_00018714]                       ;= 40011140h
ram:000186fc    0020            movs        r0,#0x0                                 
ram:000186fe    0860            str         r0,[r1,#0x0]=>DAT_40011140              
ram:00018700    4860            str         r0,[r1,#0x4]=>DAT_40011144              
ram:00018702    8860            str         r0,[r1,#0x8]=>DAT_40011148              
ram:00018704    c860            str         r0,[r1,#0xc]=>DAT_4001114c              
ram:00018706    0349            ldr         r1,[DAT_00018714]                       ;= 40011140h
ram:00018708    4039            subs        r1=>DAT_40011100,#0x40                  
ram:0001870a    0860            str         r0,[r1,#0x0]=>DAT_40011100              
ram:0001870c    4860            str         r0,[r1,#offset DAT_40011104 &0xff]      
ram:0001870e    03f0f5fb        bl          FUN_0001befc                            ;undefined FUN_0001befc(void)
ram:00018712    10bd            pop         {r4,pc}                                 
                            DAT_00018714:                 ;XREF[2,0]:   000186fa,00018706
ram:00018714    40110140        undefined4  40011140h                               
                            ;************************************************************************************************
                            ;*                                           FUNCTION                                           *
                            ;************************************************************************************************
                            ;undefined FUNC_VT_00018718(undefined4 param_1, uint param_2)
          ;param_1       undefined4          r0                      
          ;param_2       uint                r1                      
          ;local_18      undefined4         -18                      ;XREF[3,0]:   00018720,00018744,0001874c
          ;local_1c      undefined4         -1c                      ;XREF[2,0]:   00018724,0001873c
          ;local_20      undefined4         -20                      ;XREF[1,0]:   0001873e
                                                          ;XREF[0,1]:   00018090
ram:00018718    feb5            push        {param_2,r2,r3,r4,r5,r6,r7,lr}          
ram:0001871a    0020            movs        param_1,#0x0                            
ram:0001871c    c043            mvns        param_1,param_1                         
ram:0001871e    124d            ldr         r5,[DAT_00018768]                       ;= 20002110h
ram:00018720    0290            str         param_1,[sp,#local_18+0x20]             
ram:00018722    6869            ldr         param_1,[r5,#0x14]=>DAT_20002124        
ram:00018724    0190            str         param_1,[sp,#local_1c+0x20]             
ram:00018726    6846            mov         param_1,sp                              
ram:00018728    2e69            ldr         r6,[r5,#0x10]=>DAT_20002120             
ram:0001872a    01f0dffe        bl          FUN_0001a4ec                            ;undefined4 FUN_0001a4ec(int * param_1)
ram:0001872e    0746            mov         r7,param_1                              
ram:00018730    02f082f8        bl          FUN_0001a838                            ;undefined4 FUN_0001a838(void)
ram:00018734    0446            mov         r4,param_1                              
ram:00018736    002f            cmp         r7,#0x0                                 
ram:00018738    08d0            beq         LAB_0001874c                            
ram:0001873a    02aa            add         r2,sp,#0x8                              
ram:0001873c    0199            ldr         param_2,[sp,#local_1c+0x20]             
ram:0001873e    0098            ldr         param_1,[sp,#0x0]=>local_20             
ram:00018740    01f0f4fe        bl          FUN_0001a52c                            ;undefined FUN_0001a52c(uint param_1,...
ram:00018744    0298            ldr         param_1,[sp,#local_18+0x20]             
ram:00018746    02f0c1f8        bl          FUN_0001a8cc                            ;undefined4 FUN_0001a8cc(int param_1)
ram:0001874a    06e0            b           LAB_0001875a                            
                            LAB_0001874c:                 ;XREF[1,0]:   00018738
ram:0001874c    0298            ldr         param_1,[sp,#local_18+0x20]             
ram:0001874e    02f0bdf8        bl          FUN_0001a8cc                            ;undefined4 FUN_0001a8cc(int param_1)
ram:00018752    0028            cmp         param_1,#0x0                            
ram:00018754    01d1            bne         LAB_0001875a                            
ram:00018756    002c            cmp         r4,#0x0                                 
ram:00018758    02d0            beq         LAB_00018760                            
                            LAB_0001875a:                 ;XREF[2,0]:   0001874a,00018754
ram:0001875a    3046            mov         param_1,r6                              
ram:0001875c    01f0c0fa        bl          FUN_00019ce0                            ;undefined FUN_00019ce0(void)
                            LAB_00018760:                 ;XREF[1,0]:   00018758
ram:00018760    0020            movs        param_1,#0x0                            
ram:00018762    6871            strb        param_1,[r5,#0x5]=>DAT_20002115         
ram:00018764    febd            pop         {param_2,r2,r3,r4,r5,r6,r7,pc}          
ram:00018766    0000            movs        r0,r0                                   
                            DAT_00018768:                 ;XREF[1,0]:   0001871e
ram:00018768    10210020        undefined4  20002110h                               
                            ;************************************************************************************************
                            ;*                                           FUNCTION                                           *
                            ;************************************************************************************************
                            ;undefined FUNC_VT_0001876c(void)
                                                          ;XREF[0,1]:   00018098
ram:0001876c    10b5            push        {r4,lr}                                 
ram:0001876e    0748            ldr         r0,[DAT_0001878c]                       ;= 20002134h
ram:00018770    4068            ldr         r0,[r0,#0x4]=>DAT_20002138              
ram:00018772    0028            cmp         r0,#0x0                                 
ram:00018774    07d0            beq         LAB_00018786                            
ram:00018776    8047            blx         r0                                      
ram:00018778    0028            cmp         r0,#0x0                                 
ram:0001877a    03d0            beq         LAB_00018784                            
ram:0001877c    0022            movs        r2,#0x0                                 
ram:0001877e    1146            mov         r1,r2                                   
ram:00018780    00f068fa        bl          FUN_00018c54                            ;undefined FUN_00018c54(void)
                            LAB_00018784:                 ;XREF[1,0]:   0001877a
ram:00018784    10bd            pop         {r4,pc}                                 
                            LAB_00018786:                 ;XREF[1,0]:   00018774
ram:00018786    01f0dfff        bl          FUN_0001a748                            ;undefined FUN_0001a748(void)
ram:0001878a    10bd            pop         {r4,pc}                                 
                            DAT_0001878c:                 ;XREF[1,0]:   0001876e
ram:0001878c    34210020        undefined4  20002134h                               
                            ;************************************************************************************************
                            ;*                                           FUNCTION                                           *
                            ;************************************************************************************************
                            ;undefined FUN_00018790(void)
                                                          ;XREF[1,1]:   0001816c,00018188
ram:00018790    10b5            push        {r4,lr}                                 
ram:00018792    02f027f8        bl          FUN_0001a7e4                            ;undefined4 FUN_0001a7e4(void)
ram:00018796    0028            cmp         r0,#0x0                                 
ram:00018798    05d0            beq         LAB_000187a6                            
ram:0001879a    0e49            ldr         r1,[DAT_000187d4]                       ;= 40000500h
ram:0001879c    0c48            ldr         r0,[DAT_000187d0]                       ;= C007FFDFh
ram:0001879e    4860            str         r0,[r1,#offset DAT_40000504 &0xff]      
ram:000187a0    c813            asrs        r0,r1,#0xf                              
ram:000187a2    0d49            ldr         r1,[DAT_000187d8]                       ;= 40006C00h
ram:000187a4    8861            str         r0,[r1,#offset DAT_40006c18 &0xff]      
                            LAB_000187a6:                 ;XREF[1,0]:   00018798
ram:000187a6    0d48            ldr         r0,[DAT_000187dc]                       ;= F0000FC0h
ram:000187a8    018c            ldrh        r1,[r0,#0x20]=>DAT_f0000fe0             
ram:000187aa    c9b2            uxtb        r1,r1                                   
ram:000187ac    0129            cmp         r1,#0x1                                 
ram:000187ae    0ed1            bne         LAB_000187ce                            
ram:000187b0    818c            ldrh        r1,[r0,#0x24]=>DAT_f0000fe4             
ram:000187b2    0907            lsls        r1,r1,#0x1c                             
ram:000187b4    0bd1            bne         LAB_000187ce                            
ram:000187b6    018d            ldrh        r1,[r0,#0x28]=>DAT_f0000fe8             
ram:000187b8    0906            lsls        r1,r1,#0x18                             
ram:000187ba    090f            lsrs        r1,r1,#0x1c                             
ram:000187bc    0429            cmp         r1,#0x4                                 
ram:000187be    06d1            bne         LAB_000187ce                            
ram:000187c0    808d            ldrh        r0,[r0,#0x2c]=>DAT_f0000fec             
ram:000187c2    0006            lsls        r0,r0,#0x18                             
ram:000187c4    000f            lsrs        r0,r0,#0x1c                             
ram:000187c6    02d1            bne         LAB_000187ce                            
ram:000187c8    0549            ldr         r1,[DAT_000187e0]                       ;= 40000600h
ram:000187ca    0120            movs        r0,#0x1                                 
ram:000187cc    8860            str         r0,[r1,#offset DAT_40000608 &0xff]      
                            LAB_000187ce:                 ;XREF[4,0]:   000187ae,000187b4,000187be,000187c6
ram:000187ce    10bd            pop         {r4,pc}                                 
                            DAT_000187d0:                 ;XREF[1,0]:   0001879c
ram:000187d0    dfff07c0        undefined4  C007FFDFh                               
                            DAT_000187d4:                 ;XREF[1,0]:   0001879a
ram:000187d4    00050040        undefined4  40000500h                               
                            DAT_000187d8:                 ;XREF[1,0]:   000187a2
ram:000187d8    006c0040        undefined4  40006C00h                               
                            DAT_000187dc:                 ;XREF[1,0]:   000187a6
ram:000187dc    c00f00f0        undefined4  F0000FC0h                               
                            DAT_000187e0:                 ;XREF[1,0]:   000187c8
ram:000187e0    00060040        undefined4  40000600h                               
                            ;************************************************************************************************
                            ;*                                           FUNCTION                                           *
                            ;************************************************************************************************
                            ;undefined FUNC_VT_000187e4(void)
                                                          ;XREF[0,1]:   00018064
ram:000187e4    0548            ldr         r0=>DAT_40009140,[DAT_000187fc]         ;= 40009140h
ram:000187e6    0168            ldr         r1,[r0,#0x0]=>DAT_40009140              
ram:000187e8    0029            cmp         r1,#0x0                                 
ram:000187ea    05d0            beq         LAB_000187f8                            
ram:000187ec    0449            ldr         r1,[DAT_00018800]                       ;= 40009300h
ram:000187ee    4968            ldr         r1,[r1,#offset DAT_40009304 &0xff]      
ram:000187f0    c903            lsls        r1,r1,#0xf                              
ram:000187f2    01d5            bpl         LAB_000187f8                            
ram:000187f4    0021            movs        r1,#0x0                                 
ram:000187f6    0160            str         r1,[r0,#0x0]=>DAT_40009140              
                            LAB_000187f8:                 ;XREF[2,0]:   000187ea,000187f2
ram:000187f8    7047            bx          lr                                      
ram:000187fa    0000            movs        r0,r0                                   
                            DAT_000187fc:                 ;XREF[1,0]:   000187e4
ram:000187fc    40910040        undefined4  40009140h                               
                            DAT_00018800:                 ;XREF[1,0]:   000187ec
ram:00018800    00930040        undefined4  40009300h                               
                            ;************************************************************************************************
                            ;*                                           FUNCTION                                           *
                            ;************************************************************************************************
                            ;undefined FUNC_VT_00018804(undefined4 param_1, undefined4 param_2, uint param_3, undefined4 param_4)
          ;param_1       undefined4          r0                      
          ;param_2       undefined4          r1                      
          ;param_3       uint                r2                      
          ;param_4       undefined4          r3                      
          ;local_1c      undefined4         -1c                      ;XREF[2,0]:   0001882a,00018862
          ;local_20      undefined1         -20                      ;XREF[2,0]:   00018828,00018860
                                                          ;XREF[0,1]:   00018048
ram:00018804    feb5            push        {param_2,param_3,param_4,r4,r5,r6,r7,lr}
ram:00018806    194c            ldr         r4,[DAT_0001886c]                       ;= 40002100h
ram:00018808    a068            ldr         param_1,[r4,#offset DAT_40002108 &0xff] 
ram:0001880a    194d            ldr         r5,[DAT_00018870]                       ;= 200020B8h
ram:0001880c    194e            ldr         r6,[DAT_00018874]                       ;= 40002300h
ram:0001880e    0027            movs        r7,#0x0                                 
ram:00018810    0028            cmp         param_1,#0x0                            
ram:00018812    0ed0            beq         LAB_00018832                            
ram:00018814    7068            ldr         param_1,[r6,#offset DAT_40002304 &0xff] 
ram:00018816    4007            lsls        param_1,param_1,#0x1d                   
ram:00018818    0bd5            bpl         LAB_00018832                            
ram:0001881a    a760            str         r7,[r4,#offset DAT_40002108 &0xff]      
ram:0001881c    1648            ldr         param_1,[DAT_00018878]                  ;= 40002500h
ram:0001881e    8069            ldr         param_1,[param_1,#offset DAT_40002518...
ram:00018820    0422            movs        param_3,#0x4                            
ram:00018822    c0b2            uxtb        param_1,param_1                         
ram:00018824    a880            strh        param_1,[r5,#0x4]=>DAT_200020bc         
ram:00018826    6946            mov         param_2,sp                              
ram:00018828    0a70            strb        param_3,[param_2,#0x0]=>local_20        
ram:0001882a    0871            strb        param_1,[r1,#local_1c+0x20]             
ram:0001882c    e968            ldr         param_2,[r5,#0xc]=>DAT_200020c4         
ram:0001882e    6846            mov         param_1,sp                              
ram:00018830    8847            blx         param_2                                 
                            LAB_00018832:                 ;XREF[2,0]:   00018812,00018818
ram:00018832    e069            ldr         param_1,[r4,#offset DAT_4000211c &0xff] 
ram:00018834    0028            cmp         param_1,#0x0                            
ram:00018836    06d0            beq         LAB_00018846                            
ram:00018838    7068            ldr         param_1,[r6,#offset DAT_40002304 &0xff] 
ram:0001883a    0006            lsls        param_1,param_1,#0x18                   
ram:0001883c    03d5            bpl         LAB_00018846                            
ram:0001883e    e761            str         r7,[r4,#offset DAT_4000211c &0xff]      
ram:00018840    0320            movs        param_1,#0x3                            
ram:00018842    02f0bbfb        bl          FUN_0001afbc                            ;undefined FUN_0001afbc(uint param_1)
                            LAB_00018846:                 ;XREF[2,0]:   00018836,0001883c
ram:00018846    606a            ldr         param_1,[r4,#offset DAT_40002124 &0xff] 
ram:00018848    0028            cmp         param_1,#0x0                            
ram:0001884a    0ed0            beq         LAB_0001886a                            
ram:0001884c    7068            ldr         param_1,[r6,#offset DAT_40002304 &0xff] 
ram:0001884e    8005            lsls        param_1,param_1,#0x16                   
ram:00018850    0bd5            bpl         LAB_0001886a                            
ram:00018852    6762            str         r7,[r4,#offset DAT_40002124 &0xff]      
ram:00018854    0849            ldr         param_2,[DAT_00018878]                  ;= 40002500h
ram:00018856    8039            subs        param_2,#0x80                           
ram:00018858    0868            ldr         param_1,[param_2,#0x0]=>DAT_40002480    
ram:0001885a    0860            str         param_1,[param_2,#0x0]=>DAT_40002480    
ram:0001885c    0221            movs        param_2,#0x2                            
ram:0001885e    6a46            mov         param_3,sp                              
ram:00018860    1170            strb        param_2,[param_3,#0x0]=>local_20        
ram:00018862    0190            str         param_1,[sp,#local_1c+0x20]             
ram:00018864    e968            ldr         param_2,[r5,#0xc]=>DAT_200020c4         
ram:00018866    6846            mov         param_1,sp                              
ram:00018868    8847            blx         param_2                                 
                            LAB_0001886a:                 ;XREF[2,0]:   0001884a,00018850
ram:0001886a    febd            pop         {param_2,param_3,param_4,r4,r5,r6,r7,pc}
                            DAT_0001886c:                 ;XREF[1,0]:   00018806
ram:0001886c    00210040        undefined4  40002100h                               
                            DAT_00018870:                 ;XREF[1,0]:   0001880a
ram:00018870    b8200020        undefined4  200020B8h                               
                            DAT_00018874:                 ;XREF[1,0]:   0001880c
ram:00018874    00230040        undefined4  40002300h                               
                            DAT_00018878:                 ;XREF[2,0]:   0001881c,00018854
ram:00018878    00250040        undefined4  40002500h                               
                            ;************************************************************************************************
                            ;*                                           FUNCTION                                           *
                            ;************************************************************************************************
                            ;int FUN_0001887c(uint param_1)
          ;param_1       uint                r0                      
                                                          ;XREF[2,0]:   000182a0,000182a6
ram:0001887c    2021            movs        r1,#0x20                                
ram:0001887e    020c            lsrs        r2,param_1,#0x10                        
ram:00018880    01d0            beq         LAB_00018886                            
ram:00018882    1021            movs        r1,#0x10                                
ram:00018884    1046            mov         param_1,r2                              
                            LAB_00018886:                 ;XREF[1,0]:   00018880
ram:00018886    020a            lsrs        r2,param_1,#0x8                         
ram:00018888    01d0            beq         LAB_0001888e                            
ram:0001888a    1046            mov         param_1,r2                              
ram:0001888c    0839            subs        r1,#0x8                                 
                            LAB_0001888e:                 ;XREF[1,0]:   00018888
ram:0001888e    0209            lsrs        r2,param_1,#0x4                         
ram:00018890    01d0            beq         LAB_00018896                            
ram:00018892    1046            mov         param_1,r2                              
ram:00018894    091f            subs        r1,r1,#0x4                              
                            LAB_00018896:                 ;XREF[1,0]:   00018890
ram:00018896    8208            lsrs        r2,param_1,#0x2                         
ram:00018898    01d0            beq         LAB_0001889e                            
ram:0001889a    1046            mov         param_1,r2                              
ram:0001889c    891e            subs        r1,r1,#0x2                              
                            LAB_0001889e:                 ;XREF[1,0]:   00018898
ram:0001889e    4208            lsrs        r2,param_1,#0x1                         
ram:000188a0    01d0            beq         LAB_000188a6                            
ram:000188a2    881e            subs        param_1,r1,#0x2                         
ram:000188a4    7047            bx          lr                                      
                            LAB_000188a6:                 ;XREF[1,0]:   000188a0
ram:000188a6    081a            subs        param_1,r1,param_1                      
ram:000188a8    7047            bx          lr                                      
                            ;************************************************************************************************
                            ;*                                           FUNCTION                                           *
                            ;************************************************************************************************
                            ;undefined __ARM_common_switch8(void)
                                                          ;XREF[4,0]:   0001af26,0001afca,0001b94a,0001bd28
ram:000188aa    30b4            push        {r4,r5}                                 
ram:000188ac    7446            mov         r4,lr                                   
ram:000188ae    641e            subs        r4,r4,#0x1                              
ram:000188b0    2578            ldrb        r5,[r4,#0x0]                            
ram:000188b2    641c            adds        r4,r4,#0x1                              
ram:000188b4    ab42            cmp         r3,r5                                   
ram:000188b6    00d2            bcs         FUN_000188ba                            
ram:000188b8    1d46            mov         r5,r3                                   
                            ;************************************************************************************************
                            ;*                                           FUNCTION                                           *
                            ;************************************************************************************************
                            ;undefined FUN_000188ba(void)
                                                          ;XREF[1,0]:   000188b6
ram:000188ba    635d            ldrb        r3,[r4,r5]                              
ram:000188bc    5b00            lsls        r3,r3,#0x1                              
ram:000188be    e318            adds        r3,r4,r3                                
ram:000188c0    30bc            pop         {r4,r5}                                 
ram:000188c2    1847            bx          r3                                      
ram:000188c4    02e0            b           LAB_000188cc                            
                            ;************************************************************************************************
                            ;*                                           FUNCTION                                           *
                            ;************************************************************************************************
                            ;undefined FUN_000188c6(undefined4 * param_1, undefined4 * param_2, int param_3)
          ;param_1       undefined4 *        r0                      
          ;param_2       undefined4 *        r1                      
          ;param_3       int                 r2                      
                                                          ;XREF[1,0]:   000188ce
ram:000188c6    08c8            ldmia       param_1!,{r3}                           
ram:000188c8    121f            subs        param_3,param_3,#0x4                    
ram:000188ca    08c1            stmia       param_2!,{r3}                           
                            LAB_000188cc:                 ;XREF[1,0]:   000188c4
ram:000188cc    002a            cmp         param_3,#0x0                            
ram:000188ce    fad1            bne         FUN_000188c6                            
ram:000188d0    7047            bx          lr                                      
ram:000188d2    7047            bx          lr                                      
ram:000188d4    0020            movs        r0,#0x0                                 
ram:000188d6    01e0            b           LAB_000188dc                            
                            LAB_000188d8:                 ;XREF[1,0]:   000188de
ram:000188d8    01c1            stmia       r1!,{r0}                                
ram:000188da    121f            subs        r2,r2,#0x4                              
                            LAB_000188dc:                 ;XREF[1,0]:   000188d6
ram:000188dc    002a            cmp         r2,#0x0                                 
ram:000188de    fbd1            bne         LAB_000188d8                            
ram:000188e0    7047            bx          lr                                      
ram:000188e2    0000            movs        r0,r0                                   
ram:000188e4    1cb5            push        {r2,r3,r4,lr}                           
ram:000188e6    0649            ldr         r1,[DAT_00018900]                       ;= 40002000h
ram:000188e8    0120            movs        r0,#0x1                                 
ram:000188ea    c860            str         r0,[r1,#offset DAT_4000200c &0xff]      
ram:000188ec    0549            ldr         r1,[DAT_00018904]                       ;= 200020B8h
ram:000188ee    4870            strb        r0,[r1,#0x1]=>DAT_200020b9              
ram:000188f0    0320            movs        r0,#0x3                                 
ram:000188f2    6a46            mov         r2,sp                                   
ram:000188f4    1070            strb        r0,[r2,#0x0]                            
ram:000188f6    c968            ldr         r1,[r1,#0xc]=>DAT_200020c4              
ram:000188f8    6846            mov         r0,sp                                   
ram:000188fa    8847            blx         r1                                      
ram:000188fc    1cbd            pop         {r2,r3,r4,pc}                           
ram:000188fe    0000            movs        r0,r0                                   
                            DAT_00018900:                 ;XREF[1,0]:   000188e6
ram:00018900    00200040        undefined4  40002000h                               
                            DAT_00018904:                 ;XREF[1,0]:   000188ec
ram:00018904    b8200020        undefined4  200020B8h                               
ram:00018908    04              ??          04h                                     
ram:00018909    49              ??          49h    I                                
ram:0001890a    00              ??          00h                                     
ram:0001890b    20              ??          20h                                     
ram:0001890c    48              ??          48h    H                                
ram:0001890d    70              ??          70h    p                                
ram:0001890e    04              ??          04h                                     
ram:0001890f    49              ??          49h    I                                
ram:00018910    01              ??          01h                                     
ram:00018911    22              ??          22h    "                                
ram:00018912    ca              ??          CAh                                     
ram:00018913    60              ??          60h    `                                
ram:00018914    4a              ??          4Ah    J                                
ram:00018915    60              ??          60h    `                                
ram:00018916    03              ??          03h                                     
ram:00018917    49              ??          49h    I                                
ram:00018918    08              ??          08h                                     
ram:00018919    60              ??          60h    `                                
ram:0001891a    70              ??          70h    p                                
ram:0001891b    47              ??          47h    G                                
ram:0001891c    b8              ??          B8h                                     
ram:0001891d    20              ??          20h                                     
ram:0001891e    00              ??          00h                                     
ram:0001891f    20              ??          20h                                     
ram:00018920    00              ??          00h                                     
ram:00018921    20              ??          20h                                     
ram:00018922    00              ??          00h                                     
ram:00018923    40              ??          40h    @                                
ram:00018924    00              ??          00h                                     
ram:00018925    25              ??          25h    %                                
ram:00018926    00              ??          00h                                     
ram:00018927    40              ??          40h    @                                
                            ;************************************************************************************************
                            ;*                                           FUNCTION                                           *
                            ;************************************************************************************************
                            ;undefined FUN_00018928(void)
                                                          ;XREF[2,0]:   0001ab14,0001bbc6
ram:00018928    0249            ldr         r1,[DAT_00018934]                       ;= 40007500h
ram:0001892a    0120            movs        r0,#0x1                                 
ram:0001892c    0860            str         r0,[r1,#0x0]=>DAT_40007500              
ram:0001892e    0249            ldr         r1,[DAT_00018938]                       ;= 40007000h
ram:00018930    0860            str         r0,[r1,#0x0]=>DAT_40007000              
ram:00018932    7047            bx          lr                                      
                            DAT_00018934:                 ;XREF[1,0]:   00018928
ram:00018934    00750040        undefined4  40007500h                               
                            DAT_00018938:                 ;XREF[1,0]:   0001892e
ram:00018938    00700040        undefined4  40007000h                               
                            ;************************************************************************************************
                            ;*                                           FUNCTION                                           *
                            ;************************************************************************************************
                            ;undefined * FUN_0001893c(char * param_1, undefined * param_2, byte * param_3)
          ;param_1       char *              r0                      
          ;param_2       undefined *         r1                      
          ;param_3       byte *              r2                      
          ;local_1c      undefined4         -1c                      ;XREF[12,0]:  00018950,00018962,000189a8,000189b2,000189c2
                                                                     ;             000189da,00018a0a,00018a24,00018a3e,00018a50
                                                                     ;             00018a62,00018a78
          ;local_28      undefined4         -28                      ;XREF[4,0]:   00018992,00018a02,00018a1c,00018a36
                                                          ;XREF[2,0]:   00019528,0001954c
ram:0001893c    f7b5            push        {param_1,param_2,param_3,r4,r5,r6,r7,lr}
ram:0001893e    82b0            sub         sp,#0x8                                 
ram:00018940    0026            movs        r6,#0x0                                 
ram:00018942    0546            mov         r5,param_1                              
ram:00018944    1670            strb        r6,[param_3,#0x0]                       
ram:00018946    0078            ldrb        param_1,[param_1,#0x0]                  
ram:00018948    1446            mov         r4,param_3                              
ram:0001894a    0028            cmp         param_1,#0x0                            
ram:0001894c    05d0            beq         LAB_0001895a                            
ram:0001894e    2846            mov         param_1,r5                              
ram:00018950    0399            ldr         param_2,[sp,#local_1c+0x28]             
ram:00018952    02f0eff9        bl          FUN_0001ad34                            ;int FUN_0001ad34(char * param_1, int...
ram:00018956    0600            movs        r6,param_1                              
ram:00018958    08d1            bne         LAB_0001896c                            
                            LAB_0001895a:                 ;XREF[1,0]:   0001894c
ram:0001895a    a878            ldrb        param_1,[r5,#0x2]                       
ram:0001895c    0028            cmp         param_1,#0x0                            
ram:0001895e    1ed0            beq         LAB_0001899e                            
ram:00018960    2078            ldrb        param_1,[r4,#0x0]                       
ram:00018962    039f            ldr         r7,[sp,#local_1c+0x28]                  
ram:00018964    001d            adds        param_1,param_1,#0x4                    
ram:00018966    1f28            cmp         param_1,#0x1f                           
ram:00018968    02d9            bls         LAB_00018970                            
                            LAB_0001896a:                 ;XREF[1,0]:   000189de
ram:0001896a    0c20            movs        param_1,#0xc                            
                            LAB_0001896c:                 ;XREF[7,0]:   00018958,00018976,00018a12,00018a2c
                                                          ;             00018a46,00018a58,00018a84
ram:0001896c    05b0            add         sp,#0x14                                
ram:0001896e    f0bd            pop         {r4,r5,r6,r7,pc}                        
                            LAB_00018970:                 ;XREF[1,0]:   00018968
ram:00018970    6846            mov         param_1,sp                              
ram:00018972    79df            svc         0x79                                    
ram:00018974    0028            cmp         param_1,#0x0                            
                            LAB_00018976:                 ;XREF[1,0]:   00018a6a
ram:00018976    f9d1            bne         LAB_0001896c                            
ram:00018978    2178            ldrb        param_2,[r4,#0x0]                       
ram:0001897a    0322            movs        param_3,#0x3                            
ram:0001897c    481c            adds        param_1,param_2,#0x1                    
ram:0001897e    2070            strb        param_1,[r4,#0x0]                       
ram:00018980    7a54            strb        param_3,[r7,param_2]                    
ram:00018982    2178            ldrb        param_2,[r4,#0x0]                       
ram:00018984    1922            movs        param_3,#0x19                           
ram:00018986    481c            adds        param_1,param_2,#0x1                    
ram:00018988    2070            strb        param_1,[r4,#0x0]                       
ram:0001898a    7a54            strb        param_3,[r7,param_2]                    
ram:0001898c    2078            ldrb        param_1,[r4,#0x0]                       
ram:0001898e    c119            adds        param_2,param_1,r7                      
ram:00018990    6846            mov         param_1,sp                              
ram:00018992    0088            ldrh        param_1=>local_28,[param_1,#0x0]        
ram:00018994    03f05dfb        bl          FUN_0001c052                            ;undefined4 FUN_0001c052(undefined4 p...
ram:00018998    2178            ldrb        param_2,[r4,#0x0]                       
ram:0001899a    4018            adds        param_1,param_1,param_2                 
ram:0001899c    2070            strb        param_1,[r4,#0x0]                       
                            LAB_0001899e:                 ;XREF[1,0]:   0001895e
ram:0001899e    e878            ldrb        param_1,[r5,#0x3]                       
ram:000189a0    0223            movs        r3,#0x2                                 
ram:000189a2    0028            cmp         param_1,#0x0                            
ram:000189a4    10d0            beq         LAB_000189c8                            
ram:000189a6    2078            ldrb        param_1,[r4,#0x0]                       
ram:000189a8    039a            ldr         param_3,[sp,#local_1c+0x28]             
ram:000189aa    411c            adds        param_2,param_1,#0x1                    
ram:000189ac    2170            strb        param_2,[r4,#0x0]                       
ram:000189ae    1354            strb        r3,[param_3,param_1]                    
ram:000189b0    2078            ldrb        param_1,[r4,#0x0]                       
ram:000189b2    0399            ldr         param_2,[sp,#local_1c+0x28]             
ram:000189b4    471c            adds        r7,param_1,#0x1                         
ram:000189b6    0122            movs        param_3,#0x1                            
ram:000189b8    2770            strb        r7,[r4,#0x0]                            
ram:000189ba    0a54            strb        param_3,[param_2,param_1]               
ram:000189bc    2078            ldrb        param_1,[r4,#0x0]                       
ram:000189be    ea78            ldrb        param_3,[r5,#0x3]                       
ram:000189c0    471c            adds        r7,param_1,#0x1                         
ram:000189c2    0399            ldr         param_2,[sp,#local_1c+0x28]             
ram:000189c4    2770            strb        r7,[r4,#0x0]                            
ram:000189c6    0a54            strb        param_3,[param_2,param_1]               
                            LAB_000189c8:                 ;XREF[1,0]:   000189a4
ram:000189c8    6868            ldr         param_1,[r5,#0x4]                       
ram:000189ca    0028            cmp         param_1,#0x0                            
ram:000189cc    15d0            beq         LAB_000189fa                            
ram:000189ce    0021            movs        param_2,#0x0                            
ram:000189d0    4156            ldrsb       param_2,[param_1,param_2]               
ram:000189d2    2078            ldrb        param_1,[r4,#0x0]                       
ram:000189d4    8c46            mov         r12,param_2                             
ram:000189d6    0246            mov         param_3,param_1                         
ram:000189d8    c01c            adds        param_1,param_1,#0x3                    
ram:000189da    0399            ldr         param_2,[sp,#local_1c+0x28]             
ram:000189dc    1f28            cmp         param_1,#0x1f                           
ram:000189de    c4d8            bhi         LAB_0001896a                            
ram:000189e0    501c            adds        param_1,param_3,#0x1                    
ram:000189e2    2070            strb        param_1,[r4,#0x0]                       
ram:000189e4    8b54            strb        r3,[param_2,param_3]                    
ram:000189e6    2278            ldrb        param_3,[r4,#0x0]                       
ram:000189e8    0a23            movs        r3,#0xa                                 
ram:000189ea    501c            adds        param_1,param_3,#0x1                    
ram:000189ec    2070            strb        param_1,[r4,#0x0]                       
ram:000189ee    8b54            strb        r3,[param_2,param_3]                    
ram:000189f0    2078            ldrb        param_1,[r4,#0x0]                       
ram:000189f2    6246            mov         param_3,r12                             
ram:000189f4    431c            adds        r3,param_1,#0x1                         
ram:000189f6    2370            strb        r3,[r4,#0x0]                            
ram:000189f8    0a54            strb        param_3,[param_2,param_1]               
                            LAB_000189fa:                 ;XREF[1,0]:   000189cc
ram:000189fa    2889            ldrh        param_1,[r5,#0x8]                       
ram:000189fc    0028            cmp         param_1,#0x0                            
ram:000189fe    09d0            beq         LAB_00018a14                            
ram:00018a00    2846            mov         param_1,r5                              
ram:00018a02    0094            str         r4,[sp,#0x0]=>local_28                  
ram:00018a04    0622            movs        param_3,#0x6                            
ram:00018a06    0221            movs        param_2,#0x2                            
ram:00018a08    0830            adds        param_1,#0x8                            
ram:00018a0a    039b            ldr         r3,[sp,#local_1c+0x28]                  
ram:00018a0c    03f0b2fb        bl          FUN_0001c174                            ;undefined8 FUN_0001c174(ushort * par...
ram:00018a10    0600            movs        r6,param_1                              
                            LAB_00018a12:                 ;XREF[1,0]:   00018a80
ram:00018a12    abd1            bne         LAB_0001896c                            
                            LAB_00018a14:                 ;XREF[1,0]:   000189fe
ram:00018a14    288a            ldrh        param_1,[r5,#0x10]                      
ram:00018a16    0028            cmp         param_1,#0x0                            
ram:00018a18    09d0            beq         LAB_00018a2e                            
ram:00018a1a    2846            mov         param_1,r5                              
ram:00018a1c    0094            str         r4,[sp,#0x0]=>local_28                  
ram:00018a1e    0722            movs        param_3,#0x7                            
ram:00018a20    0321            movs        param_2,#0x3                            
ram:00018a22    1030            adds        param_1,#0x10                           
ram:00018a24    039b            ldr         r3,[sp,#local_1c+0x28]                  
ram:00018a26    03f0a5fb        bl          FUN_0001c174                            ;undefined8 FUN_0001c174(ushort * par...
ram:00018a2a    0600            movs        r6,param_1                              
ram:00018a2c    9ed1            bne         LAB_0001896c                            
                            LAB_00018a2e:                 ;XREF[1,0]:   00018a18
ram:00018a2e    288b            ldrh        param_1,[r5,#0x18]                      
ram:00018a30    0028            cmp         param_1,#0x0                            
ram:00018a32    09d0            beq         LAB_00018a48                            
ram:00018a34    2846            mov         param_1,r5                              
ram:00018a36    0094            str         r4,[sp,#0x0]=>local_28                  
ram:00018a38    1522            movs        param_3,#0x15                           
ram:00018a3a    1421            movs        param_2,#0x14                           
ram:00018a3c    1830            adds        param_1,#0x18                           
ram:00018a3e    039b            ldr         r3,[sp,#local_1c+0x28]                  
ram:00018a40    03f098fb        bl          FUN_0001c174                            ;undefined8 FUN_0001c174(ushort * par...
ram:00018a44    0600            movs        r6,param_1                              
ram:00018a46    91d1            bne         LAB_0001896c                            
                            LAB_00018a48:                 ;XREF[1,0]:   00018a32
ram:00018a48    286a            ldr         param_1,[r5,#0x20]                      
ram:00018a4a    0028            cmp         param_1,#0x0                            
ram:00018a4c    05d0            beq         LAB_00018a5a                            
ram:00018a4e    2246            mov         param_3,r4                              
ram:00018a50    0399            ldr         param_2,[sp,#local_1c+0x28]             
ram:00018a52    01f097f9        bl          FUN_00019d84                            ;undefined4 FUN_00019d84(ushort * par...
ram:00018a56    0600            movs        r6,param_1                              
ram:00018a58    88d1            bne         LAB_0001896c                            
                            LAB_00018a5a:                 ;XREF[1,0]:   00018a4c
ram:00018a5a    686a            ldr         param_1,[r5,#0x24]                      
ram:00018a5c    0028            cmp         param_1,#0x0                            
ram:00018a5e    05d0            beq         LAB_00018a6c                            
ram:00018a60    2246            mov         param_3,r4                              
ram:00018a62    0399            ldr         param_2,[sp,#local_1c+0x28]             
ram:00018a64    02f034f9        bl          FUN_0001acd0                            ;undefined4 FUN_0001acd0(ushort * par...
ram:00018a68    0600            movs        r6,param_1                              
ram:00018a6a    84d1            bne         LAB_00018976                            
                            LAB_00018a6c:                 ;XREF[1,0]:   00018a5e
ram:00018a6c    2c20            movs        param_1,#0x2c                           
ram:00018a6e    405d            ldrb        param_1,[param_1,r5]                    
ram:00018a70    0028            cmp         param_1,#0x0                            
ram:00018a72    06d0            beq         LAB_00018a82                            
ram:00018a74    2246            mov         param_3,r4                              
ram:00018a76    2846            mov         param_1,r5                              
ram:00018a78    0399            ldr         param_2,[sp,#local_1c+0x28]             
ram:00018a7a    02f05bfe        bl          FUN_0001b734                            ;undefined4 FUN_0001b734(int param_1,...
ram:00018a7e    0600            movs        r6,param_1                              
ram:00018a80    c7d1            bne         LAB_00018a12                            
                            LAB_00018a82:                 ;XREF[1,0]:   00018a72
ram:00018a82    3046            mov         param_1,r6                              
ram:00018a84    72e7            b           LAB_0001896c                            
ram:00018a86    0000            movs        r0,r0                                   
                            ;************************************************************************************************
                            ;*                                           FUNCTION                                           *
                            ;************************************************************************************************
                            ;undefined FUN_00018a88(undefined4 param_1, undefined4 param_2, undefined4 param_3, undefined4 param_4)
          ;param_1       undefined4          r0                      
          ;param_2       undefined4          r1                      
          ;param_3       undefined4          r2                      
          ;param_4       undefined4          r3                      
          ;local_18      undefined4         -18                      ;XREF[1,1]:   00018b02,00018b0c
          ;local_1c      undefined4         -1c                      ;XREF[1,0]:   00018ade
          ;local_20      undefined2         -20                      ;XREF[1,0]:   00018ae4
          ;local_24      undefined2         -24                      ;XREF[1,0]:   00018ac2
          ;local_28      undefined4         -28                      ;XREF[1,0]:   00018b18
          ;local_2c      undefined2         -2c                      ;XREF[1,0]:   00018b14
          ;local_30      undefined2         -30                      ;XREF[1,0]:   00018b12
          ;local_33      undefined1         -33                      ;XREF[1,0]:   00018abc
          ;local_34      undefined1         -34                      ;XREF[1,0]:   00018ab2
          ;local_35      undefined1         -35                      ;XREF[1,0]:   00018aaa
          ;local_36      undefined1         -36                      ;XREF[1,0]:   00018aa8
          ;local_37      undefined1         -37                      ;XREF[1,0]:   00018aa4
          ;local_38      undefined1         -38                      ;XREF[1,0]:   00018aa2
          ;local_3c      undefined1         -3c                      ;XREF[1,0]:   00018b2e
          ;local_40      undefined4         -40                      ;XREF[1,0]:   00018b32
          ;local_54      undefined4         -54                      ;XREF[1,0]:   00018b2a
          ;local_58      undefined2         -58                      ;XREF[1,0]:   00018b26
          ;local_74      undefined4         -74                      ;XREF[1,0]:   00018afc
          ;local_95      undefined1         -95                      ;XREF[1,0]:   00018af8
          ;local_96      undefined1         -96                      ;XREF[1,0]:   00018af4
          ;local_98      undefined1         -98                      ;XREF[1,0]:   00018af2
                                                          ;XREF[2,0]:   0001ab2e,0001ac1c
ram:00018a88    f0b5            push        {r4,r5,r6,r7,lr}                        
ram:00018a8a    3048            ldr         param_1,[DAT_00018b4c]                  ;= 10000040h
ram:00018a8c    a1b0            sub         sp,#0x84                                
ram:00018a8e    016a            ldr         param_2,[param_1,#0x20]=>DAT_10000060   
ram:00018a90    cfb2            uxtb        r7,param_2                              
ram:00018a92    016a            ldr         param_2,[param_1,#0x20]=>DAT_10000060   
ram:00018a94    0904            lsls        param_2,param_2,#0x10                   
ram:00018a96    0e0e            lsrs        r6,param_2,#0x18                        
ram:00018a98    016a            ldr         param_2,[param_1,#0x20]=>DAT_10000060   
ram:00018a9a    006a            ldr         param_1,[param_1,#0x20]=>DAT_10000060   
ram:00018a9c    0902            lsls        param_2,param_2,#0x8                    
ram:00018a9e    0d0e            lsrs        r5,param_2,#0x18                        
ram:00018aa0    18a9            add         param_2,sp,#0x60                        
ram:00018aa2    0f70            strb        r7,[param_2,#0x0]=>local_38             
ram:00018aa4    4e70            strb        r6,[r1,#local_37+0x38]                  
ram:00018aa6    040e            lsrs        r4,param_1,#0x18                        
ram:00018aa8    8d70            strb        r5,[r1,#local_36+0x38]                  
ram:00018aaa    cc70            strb        r4,[r1,#local_35+0x38]                  
ram:00018aac    01f0acfd        bl          FUN_0001a608                            ;uint FUN_0001a608(void)
ram:00018ab0    18a9            add         param_2,sp,#0x60                        
ram:00018ab2    0871            strb        param_1,[r1,#local_34+0x38]             
ram:00018ab4    2648            ldr         param_1,[DAT_00018b50]                  ;= 2000266Ch
ram:00018ab6    03f0affa        bl          FUN_0001c018                            ;undefined8 FUN_0001c018(int param_1,...
ram:00018aba    18a9            add         param_2,sp,#0x60                        
ram:00018abc    4871            strb        param_1,[r1,#local_33+0x38]             
ram:00018abe    4c20            movs        param_1,#0x4c                           
ram:00018ac0    10a9            add         param_2,sp,#0x40                        
ram:00018ac2    8886            strh        param_1,[r1,#local_24+0x58]             
ram:00018ac4    2348            ldr         param_1,[DAT_00018b54]                  ;= 20002000h
ram:00018ac6    8178            ldrb        param_2,[param_1,#offset DAT_20002002...
ram:00018ac8    4c30            adds        param_1,#0x4c                           
ram:00018aca    0329            cmp         param_2,#0x3                            
ram:00018acc    01d3            bcc         LAB_00018ad2                            
ram:00018ace    ff21            movs        param_2,#0xff                           
ram:00018ad0    00e0            b           LAB_00018ad4                            
                            LAB_00018ad2:                 ;XREF[1,0]:   00018acc
ram:00018ad2    0121            movs        param_2,#0x1                            
                            LAB_00018ad4:                 ;XREF[1,0]:   00018ad0
ram:00018ad4    8170            strb        param_2,[param_1,#0x2]=>DAT_2000204e    
ram:00018ad6    8774            strb        r7,[param_1,#0x12]=>DAT_2000205e        
ram:00018ad8    c674            strb        r6,[param_1,#0x13]=>DAT_2000205f        
ram:00018ada    0575            strb        r5,[param_1,#0x14]=>DAT_20002060        
ram:00018adc    4475            strb        r4,[param_1,#0x15]=>DAT_20002061        
ram:00018ade    1f90            str         param_1,[sp,#local_1c+0x98]             
ram:00018ae0    1721            movs        param_2,#0x17                           
ram:00018ae2    10a8            add         param_1,sp,#0x40                        
ram:00018ae4    0187            strh        param_2,[r0,#local_20+0x58]             
ram:00018ae6    3021            movs        param_2,#0x30                           
ram:00018ae8    6846            mov         param_1,sp                              
ram:00018aea    fff780fb        bl          FUN_000181ee                            ;undefined FUN_000181ee(undefined * p...
ram:00018aee    0021            movs        param_2,#0x0                            
ram:00018af0    6846            mov         param_1,sp                              
ram:00018af2    0170            strb        param_2,[param_1,#0x0]=>local_98        
ram:00018af4    8170            strb        param_2,[r0,#local_96+0x98]             
ram:00018af6    0621            movs        param_2,#0x6                            
ram:00018af8    c170            strb        param_2,[r0,#local_95+0x98]             
ram:00018afa    1da8            add         param_1,sp,#0x74                        
ram:00018afc    0990            str         param_1,[sp,#local_74+0x98]             
ram:00018afe    1648            ldr         param_1,[PTR_DAT_00018b58]              ;= 0001c284
ram:00018b00    0068            ldr         param_1,[param_1,#0x0]=>DAT_0001c284    ;= 00001523h
ram:00018b02    2090            str         param_1,[sp,#local_18+0x98]             
ram:00018b04    1248            ldr         param_1,[DAT_00018b50]                  ;= 2000266Ch
ram:00018b06    5438            subs        param_1,#0x54                           
ram:00018b08    827c            ldrb        param_3,[param_1,#0x12]=>DAT_2000262a   
ram:00018b0a    20a8            add         param_1,sp,#0x80                        
ram:00018b0c    8270            strb        param_3,[r0,#local_18+0x1a]             
ram:00018b0e    134a            ldr         param_3,[DAT_00018b5c]                  ;= 00001523h
ram:00018b10    10a8            add         param_1,sp,#0x40                        
ram:00018b12    0285            strh        param_3,[r0,#local_30+0x58]             
ram:00018b14    8185            strh        param_2,[r0,#local_2c+0x58]             
ram:00018b16    18a8            add         param_1,sp,#0x60                        
ram:00018b18    1c90            str         param_1,[sp,#local_28+0x98]             
ram:00018b1a    3021            movs        param_2,#0x30                           
ram:00018b1c    0ca8            add         param_1,sp,#0x30                        
ram:00018b1e    fff766fb        bl          FUN_000181ee                            ;undefined FUN_000181ee(undefined * p...
ram:00018b22    0121            movs        param_2,#0x1                            
ram:00018b24    10a8            add         param_1,sp,#0x40                        
ram:00018b26    0180            strh        param_2,[param_1,#0x0]=>local_58        
ram:00018b28    20a8            add         param_1,sp,#0x80                        
ram:00018b2a    1190            str         param_1,[sp,#local_54+0x98]             
ram:00018b2c    10a8            add         param_1,sp,#0x40                        
ram:00018b2e    0177            strb        param_2,[r0,#local_3c+0x58]             
ram:00018b30    1aa8            add         param_1,sp,#0x68                        
ram:00018b32    1690            str         param_1,[sp,#local_40+0x98]             
ram:00018b34    0ca9            add         param_2,sp,#0x30                        
ram:00018b36    6846            mov         param_1,sp                              
ram:00018b38    00f0e8fc        bl          FUN_0001950c                            ;undefined * FUN_0001950c(char * para...
ram:00018b3c    0028            cmp         param_1,#0x0                            
ram:00018b3e    03d0            beq         LAB_00018b48                            
ram:00018b40    0022            movs        param_3,#0x0                            
ram:00018b42    1146            mov         param_2,param_3                         
ram:00018b44    00f086f8        bl          FUN_00018c54                            ;undefined FUN_00018c54(void)
                            LAB_00018b48:                 ;XREF[1,0]:   00018b3e
ram:00018b48    21b0            add         sp,#0x84                                
ram:00018b4a    f0bd            pop         {r4,r5,r6,r7,pc}                        
                            DAT_00018b4c:                 ;XREF[1,0]:   00018a8a
ram:00018b4c    40000010        undefined4  10000040h                               
                            DAT_00018b50:                 ;XREF[2,0]:   00018ab4,00018b04
ram:00018b50    6c260020        undefined4  2000266Ch                               
                            DAT_00018b54:                 ;XREF[1,0]:   00018ac4
ram:00018b54    00200020        undefined4  20002000h                               
                            PTR_DAT_00018b58:             ;XREF[1,0]:   00018afe
ram:00018b58    84c20100        addr        DAT_0001c284                            ;= 00001523h
                            DAT_00018b5c:                 ;XREF[1,0]:   00018b0e
ram:00018b5c    23150000        undefined4  00001523h                               
                            ;************************************************************************************************
                            ;*                                           FUNCTION                                           *
                            ;************************************************************************************************
                            ;undefined FUN_00018b60(void)
          ;local_e       undefined2          -e                      ;XREF[1,0]:   00018b7c
          ;local_10      undefined2         -10                      ;XREF[1,0]:   00018b7a
          ;local_18      undefined1         -18                      ;XREF[1,0]:   00018b76
          ;local_1c      undefined4         -1c                      ;XREF[1,0]:   00018b72
          ;local_20      undefined1         -20                      ;XREF[1,0]:   00018b70
                                                          ;XREF[2,0]:   0001aba2,0001ae52
ram:00018b60    00b5            push        {lr}                                    
ram:00018b62    87b0            sub         sp,#0x1c                                
ram:00018b64    1821            movs        r1,#0x18                                
ram:00018b66    6846            mov         r0,sp                                   
ram:00018b68    fff741fb        bl          FUN_000181ee                            ;undefined FUN_000181ee(undefined * p...
ram:00018b6c    0020            movs        r0,#0x0                                 
ram:00018b6e    6946            mov         r1,sp                                   
ram:00018b70    0870            strb        r0,[r1,#0x0]=>local_20                  
ram:00018b72    0190            str         r0,[sp,#local_1c+0x20]                  
ram:00018b74    ff22            movs        r2,#0xff                                
ram:00018b76    0872            strb        r0,[r1,#local_18+0x20]                  
ram:00018b78    ff32            adds        r2,#0xff                                
ram:00018b7a    0a82            strh        r2,[r1,#local_10+0x20]                  
ram:00018b7c    4882            strh        r0,[r1,#local_e+0x20]                   
ram:00018b7e    6846            mov         r0,sp                                   
ram:00018b80    73df            svc         0x73                                    
ram:00018b82    0028            cmp         r0,#0x0                                 
ram:00018b84    03d0            beq         LAB_00018b8e                            
ram:00018b86    0022            movs        r2,#0x0                                 
ram:00018b88    1146            mov         r1,r2                                   
ram:00018b8a    00f063f8        bl          FUN_00018c54                            ;undefined FUN_00018c54(void)
                            LAB_00018b8e:                 ;XREF[1,0]:   00018b84
ram:00018b8e    07b0            add         sp,#0x1c                                
ram:00018b90    00bd            pop         {pc}                                    
                            ;************************************************************************************************
                            ;*                                           FUNCTION                                           *
                            ;************************************************************************************************
                            ;undefined FUN_00018b92(undefined * param_1)
          ;param_1       undefined *         r0                      
                                                          ;XREF[1,0]:   0001ab1c
ram:00018b92    0021            movs        r1,#0x0                                 
ram:00018b94    0170            strb        r1,[param_1,#0x0]                       
ram:00018b96    4170            strb        r1,[param_1,#0x1]                       
ram:00018b98    8170            strb        r1,[param_1,#0x2]                       
ram:00018b9a    0e21            movs        r1,#0xe                                 
ram:00018b9c    c170            strb        r1,[param_1,#0x3]                       
ram:00018b9e    7047            bx          lr                                      
                            ;************************************************************************************************
                            ;*                                           FUNCTION                                           *
                            ;************************************************************************************************
                            ;undefined FUN_00018ba0(int param_1)
          ;param_1       int                 r0                      
                                                          ;XREF[3,0]:   00018bc0,00019b34,00019b3e
ram:00018ba0    0021            movs        r1,#0x0                                 
ram:00018ba2    4170            strb        r1,[param_1,#0x1]                       
ram:00018ba4    ff21            movs        r1,#0xff                                
ram:00018ba6    8170            strb        r1,[param_1,#0x2]                       
ram:00018ba8    c170            strb        r1,[param_1,#0x3]                       
ram:00018baa    0179            ldrb        r1,[param_1,#0x4]                       
ram:00018bac    f122            movs        r2,#0xf1                                
ram:00018bae    1140            ands        r1,r2                                   
ram:00018bb0    0171            strb        r1,[param_1,#0x4]                       
ram:00018bb2    7047            bx          lr                                      
                            ;************************************************************************************************
                            ;*                                           FUNCTION                                           *
                            ;************************************************************************************************
                            ;undefined FUN_00018bb4(int param_1)
          ;param_1       int                 r0                      
                                                          ;XREF[1,0]:   0001ab24
ram:00018bb4    10b5            push        {r4,lr}                                 
ram:00018bb6    0446            mov         r4,param_1                              
ram:00018bb8    0023            movs        r3,#0x0                                 
                            LAB_00018bba:                 ;XREF[1,0]:   00018bc8
ram:00018bba    9800            lsls        param_1,r3,#0x2                         
ram:00018bbc    1818            adds        param_1,r3,param_1                      
ram:00018bbe    0019            adds        param_1,param_1,r4                      
ram:00018bc0    fff7eeff        bl          FUN_00018ba0                            ;undefined FUN_00018ba0(int param_1)
ram:00018bc4    5b1c            adds        r3,r3,#0x1                              
ram:00018bc6    062b            cmp         r3,#0x6                                 
ram:00018bc8    f7db            blt         LAB_00018bba                            
ram:00018bca    10bd            pop         {r4,pc}                                 
                            ;************************************************************************************************
                            ;*                                           FUNCTION                                           *
                            ;************************************************************************************************
                            ;undefined4 FUN_00018bcc(void)
                                                          ;XREF[1,0]:   0001aa46
ram:00018bcc    10b5            push        {r4,lr}                                 
ram:00018bce    0548            ldr         r0,[DAT_00018be4]                       ;= 200020DCh
ram:00018bd0    4168            ldr         r1,[r0,#0x4]=>DAT_200020e0              
ram:00018bd2    0029            cmp         r1,#0x0                                 
ram:00018bd4    03d0            beq         LAB_00018bde                            
ram:00018bd6    4078            ldrb        r0,[r0,#0x1]=>DAT_200020dd              
ram:00018bd8    00f096f8        bl          FUN_00018d08                            ;undefined4 FUN_00018d08(uint param_1)
ram:00018bdc    10bd            pop         {r4,pc}                                 
                            LAB_00018bde:                 ;XREF[1,0]:   00018bd4
ram:00018bde    0820            movs        r0,#0x8                                 
ram:00018be0    10bd            pop         {r4,pc}                                 
ram:00018be2    0000            movs        r0,r0                                   
                            DAT_00018be4:                 ;XREF[1,0]:   00018bce
ram:00018be4    dc200020        undefined4  200020DCh                               
                            ;************************************************************************************************
                            ;*                                           FUNCTION                                           *
                            ;************************************************************************************************
                            ;int FUN_00018be8(int param_1, uint param_2, uint param_3)
          ;param_1       int                 r0                      
          ;param_2       uint                r1                      
          ;param_3       uint                r2                      
                                                          ;XREF[1,0]:   0001aa36
ram:00018be8    f8b5            push        {r3,r4,r5,r6,r7,lr}                     
ram:00018bea    0b46            mov         r3,param_2                              
ram:00018bec    052a            cmp         param_3,#0x5                            
ram:00018bee    01d2            bcs         LAB_00018bf4                            
ram:00018bf0    0720            movs        param_1,#0x7                            
                            LAB_00018bf2:                 ;XREF[1,0]:   00018c34
ram:00018bf2    f8bd            pop         {r3,r4,r5,r6,r7,pc}                     
                            LAB_00018bf4:                 ;XREF[1,0]:   00018bee
ram:00018bf4    1349            ldr         param_2,[DAT_00018c44]                  ;= 200020DCh
ram:00018bf6    144d            ldr         r5,[DAT_00018c48]                       ;= 50000700h
ram:00018bf8    4860            str         param_1,[param_2,#0x4]=>DAT_200020e0    
ram:00018bfa    0b70            strb        r3,[param_2,#0x0]=>DAT_200020dc         
ram:00018bfc    8a60            str         param_3,[param_2,#0x8]=>DAT_200020e4    
ram:00018bfe    0021            movs        param_2,#0x0                            
ram:00018c00    0124            movs        r4,#0x1                                 
ram:00018c02    0be0            b           LAB_00018c1c                            
                            LAB_00018c04:                 ;XREF[1,0]:   00018c24
ram:00018c04    da00            lsls        param_3,r3,#0x3                         
ram:00018c06    1218            adds        param_3,param_3,param_1                 
ram:00018c08    1678            ldrb        r6,[param_3,#0x0]                       
ram:00018c0a    9778            ldrb        r7,[param_3,#0x2]                       
ram:00018c0c    b600            lsls        r6,r6,#0x2                              
ram:00018c0e    bf00            lsls        r7,r7,#0x2                              
ram:00018c10    7619            adds        r6,r6,r5                                
ram:00018c12    3760            str         r7,[r6,#0x0]=>DAT_50000700              
ram:00018c14    1678            ldrb        r6,[param_3,#0x0]                       
ram:00018c16    2246            mov         param_3,r4                              
ram:00018c18    b240            lsls        param_3,r6                              
ram:00018c1a    1143            orrs        param_2,param_3                         
                            LAB_00018c1c:                 ;XREF[1,0]:   00018c02
ram:00018c1c    1a46            mov         param_3,r3                              
ram:00018c1e    5b1e            subs        r3,r3,#0x1                              
ram:00018c20    dbb2            uxtb        r3,r3                                   
ram:00018c22    002a            cmp         param_3,#0x0                            
ram:00018c24    eed1            bne         LAB_00018c04                            
ram:00018c26    0748            ldr         param_1,[DAT_00018c44]                  ;= 200020DCh
ram:00018c28    084b            ldr         r3=>FUN_0001a65c+1,[PTR_FUN_0001a65c+...;= 0001a65d
ram:00018c2a    0a46            mov         param_3,param_2                         
ram:00018c2c    401c            adds        param_1=>DAT_200020dd,param_1,#0x1      
ram:00018c2e    00f0b5f8        bl          FUN_00018d9c                            ;undefined4 FUN_00018d9c(byte * param...
ram:00018c32    0028            cmp         param_1,#0x0                            
ram:00018c34    ddd1            bne         LAB_00018bf2                            
ram:00018c36    0348            ldr         param_1,[DAT_00018c44]                  ;= 200020DCh
ram:00018c38    054a            ldr         param_3=>LAB_000...,[PTR_LAB_0001a088...;= 0001a089
ram:00018c3a    0021            movs        param_2,#0x0                            
ram:00018c3c    0c30            adds        param_1=>DAT_200020e8,#0xc              
ram:00018c3e    00f003fa        bl          FUN_00019048                            ;undefined4 FUN_00019048(int * param_...
ram:00018c42    f8bd            pop         {r3,r4,r5,r6,r7,pc}                     
                            DAT_00018c44:                 ;XREF[3,0]:   00018bf4,00018c26,00018c36
ram:00018c44    dc200020        undefined4  200020DCh                               
                            DAT_00018c48:                 ;XREF[1,0]:   00018bf6
ram:00018c48    00070050        undefined4  50000700h                               
                            PTR_FUN_0001a65c+1_00018c4c:  ;XREF[1,0]:   00018c28
ram:00018c4c    5da60100        addr        FUN_0001a65c+1                          
                            PTR_LAB_0001a088+1+1_00018c50:;XREF[1,0]:   00018c38
ram:00018c50    89a00100        addr        LAB_0001a088+1+1                        
                            ;************************************************************************************************
                            ;*                                           FUNCTION                                           *
                            ;************************************************************************************************
                            ;undefined FUN_00018c54(void)
                                                          ;XREF[57,0]:  00018780,00018b44,00018b8a,00018dfc
                                                          ;             00018e14,00018e4e,00018e7e,00018f54
                                                          ;             00018f9a,000190a2,00019338,00019390
                                                          ;             000193a6,000193c4,0001943e,00019484
                                                          ;             000198fe,0001991a,0001992c,0001993e
                                                          ;             00019976,00019984,00019996,00019a14
                                                          ;             00019e0e,00019f44,0001a108,0001a146
                                                          ;             0001a156,0001a19c,0001a780,0001a7aa
                                                          ;             0001aa26,0001aa42,0001aa52,0001aa6a
                                                          ;             0001aa7a,0001aa9c,0001aaba,0001aade
                                                          ;             0001ab68,0001ab9e,0001ac2e,0001ae40
                                                          ;             0001aec8,0001b644,0001b654,0001b7d0
                                                          ;             0001b7f4,0001bb4c,0001bdc4,0001bf3e
                                                          ;             0001bf96,0001bfac,0001bfc4,0001bfdc
                                                          ;             0001bff4
ram:00018c54    bff34f8f        dsb         0xf                                     
ram:00018c58    0449            ldr         r1,[DAT_00018c6c]                       ;= E000ED00h
ram:00018c5a    0348            ldr         r0,[DAT_00018c68]                       ;= 05FA0004h
ram:00018c5c    c860            str         r0,[r1,#offset DAT_e000ed0c &0xff]      
ram:00018c5e    bff34f8f        dsb         0xf                                     
                            LAB_00018c62:                 ;XREF[1,0]:   00018c64
ram:00018c62    00bf            nop                                                  
ram:00018c64    fde7            b           LAB_00018c62                            
ram:00018c66    0000            movs        r0,r0                                   
                            DAT_00018c68:                 ;XREF[1,0]:   00018c5a
ram:00018c68    0400fa05        undefined4  05FA0004h                               
                            DAT_00018c6c:                 ;XREF[1,0]:   00018c58
ram:00018c6c    00ed00e0        undefined4  E000ED00h                               
                            ;************************************************************************************************
                            ;*                                           FUNCTION                                           *
                            ;************************************************************************************************
                            ;undefined4 FUN_00018c70(int param_1, undefined * param_2)
          ;param_1       int                 r0                      
          ;param_2       undefined *         r1                      
                                                          ;XREF[1,0]:   0001aa1a
ram:00018c70    10b5            push        {r4,lr}                                 
ram:00018c72    0029            cmp         param_2,#0x0                            
ram:00018c74    03d0            beq         LAB_00018c7e                            
ram:00018c76    8a07            lsls        r2,param_2,#0x1e                        
ram:00018c78    0024            movs        r4,#0x0                                 
ram:00018c7a    002a            cmp         r2,#0x0                                 
ram:00018c7c    01d0            beq         LAB_00018c82                            
                            LAB_00018c7e:                 ;XREF[1,0]:   00018c74
ram:00018c7e    0720            movs        param_1,#0x7                            
ram:00018c80    10bd            pop         {r4,pc}                                 
                            LAB_00018c82:                 ;XREF[1,0]:   00018c7c
ram:00018c82    0f4a            ldr         r2=>DAT_200020f4,[DAT_00018cc0]         ;= 200020F4h
ram:00018c84    0b46            mov         r3,param_2                              
ram:00018c86    5160            str         param_2,[r2,#0x4]=>DAT_200020f8         
ram:00018c88    1070            strb        param_1,[r2,#0x0]=>DAT_200020f4         
ram:00018c8a    1421            movs        param_2,#0x14                           
ram:00018c8c    5470            strb        r4,[r2,#0x1]=>DAT_200020f5              
ram:00018c8e    4143            muls        param_2,param_1                         
ram:00018c90    1846            mov         param_1,r3                              
ram:00018c92    9460            str         r4,[r2,#0x8]=>DAT_200020fc              
ram:00018c94    fff7abfa        bl          FUN_000181ee                            ;undefined FUN_000181ee(undefined * p...
ram:00018c98    0020            movs        param_1,#0x0                            
ram:00018c9a    0a49            ldr         param_2,[DAT_00018cc4]                  ;= 40006300h
ram:00018c9c    c043            mvns        param_1,param_1                         
ram:00018c9e    8860            str         param_1,[param_2,#offset DAT_40006308...
ram:00018ca0    0948            ldr         param_1,[DAT_00018cc8]                  ;= E000E280h
ram:00018ca2    4021            movs        param_2,#0x40                           
ram:00018ca4    0160            str         param_2,[param_1,#0x0]=>DAT_e000e280    
ram:00018ca6    094a            ldr         r2,[DAT_00018ccc]                       ;= E000E404h
ram:00018ca8    1068            ldr         param_1,[r2,#0x0]=>DAT_e000e404         
ram:00018caa    ff23            movs        r3,#0xff                                
ram:00018cac    1b04            lsls        r3,r3,#0x10                             
ram:00018cae    9843            bics        param_1,r3                              
ram:00018cb0    0b04            lsls        r3,param_2,#0x10                        
ram:00018cb2    1843            orrs        param_1,r3                              
ram:00018cb4    1060            str         param_1,[r2,#0x0]=>DAT_e000e404         
ram:00018cb6    0648            ldr         param_1,[DAT_00018cd0]                  ;= E000E100h
ram:00018cb8    0160            str         param_2,[param_1,#0x0]=>DAT_e000e100    
ram:00018cba    0020            movs        param_1,#0x0                            
ram:00018cbc    10bd            pop         {r4,pc}                                 
ram:00018cbe    0000            movs        r0,r0                                   
                            DAT_00018cc0:                 ;XREF[1,0]:   00018c82
ram:00018cc0    f4200020        undefined4  200020F4h                               
                            DAT_00018cc4:                 ;XREF[1,0]:   00018c9a
ram:00018cc4    00630040        undefined4  40006300h                               
                            DAT_00018cc8:                 ;XREF[1,0]:   00018ca0
ram:00018cc8    80e200e0        undefined4  E000E280h                               
                            DAT_00018ccc:                 ;XREF[1,0]:   00018ca6
ram:00018ccc    04e400e0        undefined4  E000E404h                               
                            DAT_00018cd0:                 ;XREF[1,0]:   00018cb6
ram:00018cd0    00e100e0        undefined4  E000E100h                               
                            ;************************************************************************************************
                            ;*                                           FUNCTION                                           *
                            ;************************************************************************************************
                            ;undefined4 FUN_00018cd4(uint param_1, uint * param_2)
          ;param_1       uint                r0                      
          ;param_2       uint *              r1                      
                                                          ;XREF[1,0]:   0001a090
ram:00018cd4    0a4b            ldr         r3,[DAT_00018d00]                       ;= 200020F4h
ram:00018cd6    5a68            ldr         r2,[r3,#0x4]=>DAT_200020f8              
ram:00018cd8    002a            cmp         r2,#0x0                                 
ram:00018cda    04d0            beq         LAB_00018ce6                            
ram:00018cdc    5b78            ldrb        r3,[r3,#0x1]=>DAT_200020f5              
ram:00018cde    9842            cmp         param_1,r3                              
ram:00018ce0    03d3            bcc         LAB_00018cea                            
ram:00018ce2    0720            movs        param_1,#0x7                            
ram:00018ce4    7047            bx          lr                                      
                            LAB_00018ce6:                 ;XREF[1,0]:   00018cda
ram:00018ce6    0820            movs        param_1,#0x8                            
ram:00018ce8    7047            bx          lr                                      
                            LAB_00018cea:                 ;XREF[1,0]:   00018ce0
ram:00018cea    1423            movs        r3,#0x14                                
ram:00018cec    5843            muls        param_1,r3                              
ram:00018cee    8018            adds        param_1,param_1,r2                      
ram:00018cf0    044a            ldr         r2,[DAT_00018d04]                       ;= 50000500h
ram:00018cf2    1269            ldr         r2,[r2,#offset DAT_50000510 &0xff]      
ram:00018cf4    0068            ldr         param_1,[param_1,#0x0]                  
ram:00018cf6    0240            ands        r2,param_1                              
ram:00018cf8    0020            movs        param_1,#0x0                            
ram:00018cfa    0a60            str         r2,[param_2,#0x0]                       
ram:00018cfc    7047            bx          lr                                      
ram:00018cfe    0000            movs        r0,r0                                   
                            DAT_00018d00:                 ;XREF[1,0]:   00018cd4
ram:00018d00    f4200020        undefined4  200020F4h                               
                            DAT_00018d04:                 ;XREF[1,0]:   00018cf0
ram:00018d04    00050050        undefined4  50000500h                               
                            ;************************************************************************************************
                            ;*                                           FUNCTION                                           *
                            ;************************************************************************************************
                            ;undefined4 FUN_00018d08(uint param_1)
          ;param_1       uint                r0                      
                                                          ;XREF[1,0]:   00018bd8
ram:00018d08    f0b5            push        {r4,r5,r6,r7,lr}                        
ram:00018d0a    1f4a            ldr         r2,[DAT_00018d88]                       ;= 200020F4h
ram:00018d0c    5168            ldr         r1,[r2,#0x4]=>DAT_200020f8              
ram:00018d0e    0029            cmp         r1,#0x0                                 
ram:00018d10    04d0            beq         LAB_00018d1c                            
ram:00018d12    5378            ldrb        r3,[r2,#0x1]=>DAT_200020f5              
ram:00018d14    9842            cmp         param_1,r3                              
ram:00018d16    03d3            bcc         LAB_00018d20                            
ram:00018d18    0720            movs        param_1,#0x7                            
ram:00018d1a    f0bd            pop         {r4,r5,r6,r7,pc}                        
                            LAB_00018d1c:                 ;XREF[1,0]:   00018d10
ram:00018d1c    0820            movs        param_1,#0x8                            
ram:00018d1e    f0bd            pop         {r4,r5,r6,r7,pc}                        
                            LAB_00018d20:                 ;XREF[1,0]:   00018d16
ram:00018d20    1a4b            ldr         r3,[DAT_00018d8c]                       ;= 40006140h
ram:00018d22    0025            movs        r5,#0x0                                 
ram:00018d24    dd63            str         r5,[r3,#0x3c]=>DAT_4000617c             
ram:00018d26    1a4b            ldr         r3,[DAT_00018d90]                       ;= 50000500h
ram:00018d28    1c69            ldr         r4,[r3,#offset DAT_50000510 &0xff]      
ram:00018d2a    9768            ldr         r7,[r2,#0x8]=>DAT_200020fc              
ram:00018d2c    002f            cmp         r7,#0x0                                 
ram:00018d2e    02d1            bne         LAB_00018d36                            
ram:00018d30    184e            ldr         r6,[DAT_00018d94]                       ;= 40006300h
ram:00018d32    db05            lsls        r3,r3,#0x17                             
ram:00018d34    7360            str         r3,[r6,#offset DAT_40006304 &0xff]      
                            LAB_00018d36:                 ;XREF[1,0]:   00018d2e
ram:00018d36    0126            movs        r6,#0x1                                 
ram:00018d38    8640            lsls        r6,param_1                              
ram:00018d3a    3e43            orrs        r6,r7                                   
ram:00018d3c    9660            str         r6,[r2,#0x8]=>DAT_200020fc              
ram:00018d3e    1422            movs        r2,#0x14                                
ram:00018d40    5043            muls        param_1,r2                              
ram:00018d42    4218            adds        r2,param_1,r1                           
ram:00018d44    d560            str         r5,[r2,#0xc]                            
ram:00018d46    0022            movs        r2,#0x0                                 
                            LAB_00018d48:                 ;XREF[1,0]:   00018d82
ram:00018d48    0123            movs        r3,#0x1                                 
ram:00018d4a    0d58            ldr         r5,[r1,param_1]                         
ram:00018d4c    9340            lsls        r3,r2                                   
ram:00018d4e    1d42            tst         r5,r3                                   
ram:00018d50    15d0            beq         LAB_00018d7e                            
ram:00018d52    1c42            tst         r4,r3                                   
ram:00018d54    02d0            beq         LAB_00018d5c                            
ram:00018d56    0325            movs        r5,#0x3                                 
ram:00018d58    2d04            lsls        r5,r5,#0x10                             
ram:00018d5a    05e0            b           LAB_00018d68                            
                            LAB_00018d5c:                 ;XREF[1,0]:   00018d54
ram:00018d5c    0125            movs        r5,#0x1                                 
ram:00018d5e    6d04            lsls        r5,r5,#0x11                             
ram:00018d60    4618            adds        r6,param_1,r1                           
ram:00018d62    f768            ldr         r7,[r6,#0xc]                            
ram:00018d64    1f43            orrs        r7,r3                                   
ram:00018d66    f760            str         r7,[r6,#0xc]                            
                            LAB_00018d68:                 ;XREF[1,0]:   00018d5a
ram:00018d68    0b4b            ldr         r3,[DAT_00018d98]                       ;= 50000700h
ram:00018d6a    9600            lsls        r6,r2,#0x2                              
ram:00018d6c    f318            adds        r3,r6,r3                                
ram:00018d6e    1e68            ldr         r6,[r3,#0x0]=>DAT_50000700              
ram:00018d70    0327            movs        r7,#0x3                                 
ram:00018d72    3f04            lsls        r7,r7,#0x10                             
ram:00018d74    be43            bics        r6,r7                                   
ram:00018d76    1e60            str         r6,[r3,#0x0]=>DAT_50000700              
ram:00018d78    1e68            ldr         r6,[r3,#0x0]=>DAT_50000700              
ram:00018d7a    2e43            orrs        r6,r5                                   
ram:00018d7c    1e60            str         r6,[r3,#0x0]=>DAT_50000700              
                            LAB_00018d7e:                 ;XREF[1,0]:   00018d50
ram:00018d7e    521c            adds        r2,r2,#0x1                              
ram:00018d80    202a            cmp         r2,#0x20                                
ram:00018d82    e1d3            bcc         LAB_00018d48                            
ram:00018d84    0020            movs        param_1,#0x0                            
ram:00018d86    f0bd            pop         {r4,r5,r6,r7,pc}                        
                            DAT_00018d88:                 ;XREF[1,0]:   00018d0a
ram:00018d88    f4200020        undefined4  200020F4h                               
                            DAT_00018d8c:                 ;XREF[1,0]:   00018d20
ram:00018d8c    40610040        undefined4  40006140h                               
                            DAT_00018d90:                 ;XREF[1,0]:   00018d26
ram:00018d90    00050050        undefined4  50000500h                               
                            DAT_00018d94:                 ;XREF[1,0]:   00018d30
ram:00018d94    00630040        undefined4  40006300h                               
                            DAT_00018d98:                 ;XREF[1,0]:   00018d68
ram:00018d98    00070050        undefined4  50000700h                               
                            ;************************************************************************************************
                            ;*                                           FUNCTION                                           *
                            ;************************************************************************************************
                            ;undefined4 FUN_00018d9c(byte * param_1, uint param_2, uint param_3, int param_4)
          ;param_1       byte *              r0                      
          ;param_2       uint                r1                      
          ;param_3       uint                r2                      
          ;param_4       int                 r3                      
                                                          ;XREF[1,0]:   00018c2e
ram:00018d9c    f8b5            push        {param_4,r4,r5,r6,r7,lr}                
ram:00018d9e    114f            ldr         r7,[DAT_00018de4]                       ;= 200020F4h
ram:00018da0    8446            mov         r12,param_1                             
ram:00018da2    7d68            ldr         r5,[r7,#0x4]=>DAT_200020f8              
ram:00018da4    002d            cmp         r5,#0x0                                 
ram:00018da6    07d0            beq         LAB_00018db8                            
ram:00018da8    002b            cmp         param_4,#0x0                            
ram:00018daa    07d0            beq         LAB_00018dbc                            
ram:00018dac    7878            ldrb        param_1,[r7,#0x1]=>DAT_200020f5         
ram:00018dae    3c78            ldrb        r4,[r7,#0x0]=>DAT_200020f4              
ram:00018db0    a042            cmp         param_1,r4                              
ram:00018db2    05d3            bcc         LAB_00018dc0                            
ram:00018db4    0420            movs        param_1,#0x4                            
ram:00018db6    f8bd            pop         {param_4,r4,r5,r6,r7,pc}                
                            LAB_00018db8:                 ;XREF[1,0]:   00018da6
ram:00018db8    0820            movs        param_1,#0x8                            
ram:00018dba    f8bd            pop         {param_4,r4,r5,r6,r7,pc}                
                            LAB_00018dbc:                 ;XREF[1,0]:   00018daa
ram:00018dbc    0720            movs        param_1,#0x7                            
ram:00018dbe    f8bd            pop         {param_4,r4,r5,r6,r7,pc}                
                            LAB_00018dc0:                 ;XREF[1,0]:   00018db2
ram:00018dc0    0e46            mov         r6,param_2                              
ram:00018dc2    1424            movs        r4,#0x14                                
ram:00018dc4    1643            orrs        r6,param_3                              
ram:00018dc6    4443            muls        r4,param_1                              
ram:00018dc8    2e51            str         r6,[r5,r4]                              
ram:00018dca    6419            adds        r4,r4,r5                                
ram:00018dcc    2361            str         param_4,[r4,#0x10]                      
ram:00018dce    a260            str         param_3,[r4,#0x8]                       
ram:00018dd0    6160            str         param_2,[r4,#0x4]                       
ram:00018dd2    6146            mov         param_2,r12                             
ram:00018dd4    0870            strb        param_1,[param_2,#0x0]                  
ram:00018dd6    411c            adds        param_2,param_1,#0x1                    
ram:00018dd8    7970            strb        param_2,[r7,#0x1]=>DAT_200020f5         
ram:00018dda    02f02ff9        bl          FUN_0001b03c                            ;undefined FUN_0001b03c(int param_1)
ram:00018dde    0020            movs        param_1,#0x0                            
ram:00018de0    f8bd            pop         {param_4,r4,r5,r6,r7,pc}                
ram:00018de2    0000            movs        r0,r0                                   
                            DAT_00018de4:                 ;XREF[1,0]:   00018d9e
ram:00018de4    f4200020        undefined4  200020F4h                               
                            ;************************************************************************************************
                            ;*                                           FUNCTION                                           *
                            ;************************************************************************************************
                            ;undefined8 FUN_00018de8(undefined4 param_1, uint param_2, uint param_3, undefined4 param_4)
          ;param_1       undefined4          r0                      
          ;param_2       uint                r1                      
          ;param_3       uint                r2                      
          ;param_4       undefined4          r3                      
          ;local_14      undefined1         -14                      ;XREF[2,0]:   00018e26,00018e6a
          ;local_16      undefined2         -16                      ;XREF[2,0]:   00018e38,00018e68
          ;local_18      undefined2         -18                      ;XREF[2,0]:   00018e32,00018e64
                                                          ;XREF[1,0]:   0001aaa0
ram:00018de8    1fb5            push        {param_1,param_2,param_3,param_4,r4,lr} 
ram:00018dea    02aa            add         param_3,sp,#0x8                         
ram:00018dec    0021            movs        param_2,#0x0                            
ram:00018dee    2548            ldr         param_1,[DAT_00018e84]                  ;= 20002044h
ram:00018df0    02f042f9        bl          FUN_0001b078                            ;undefined4 FUN_0001b078(uint * param...
ram:00018df4    0028            cmp         param_1,#0x0                            
ram:00018df6    03d0            beq         LAB_00018e00                            
ram:00018df8    0022            movs        param_3,#0x0                            
ram:00018dfa    1146            mov         param_2,param_3                         
ram:00018dfc    fff72aff        bl          FUN_00018c54                            ;undefined FUN_00018c54(void)
                            LAB_00018e00:                 ;XREF[1,0]:   00018df6
ram:00018e00    0023            movs        param_4,#0x0                            
ram:00018e02    0822            movs        param_3,#0x8                            
ram:00018e04    02a9            add         param_2,sp,#0x8                         
ram:00018e06    6846            mov         param_1,sp                              
ram:00018e08    02f0f4f9        bl          FUN_0001b1f4                            ;undefined4 FUN_0001b1f4(undefined4 *...
ram:00018e0c    0028            cmp         param_1,#0x0                            
ram:00018e0e    03d0            beq         LAB_00018e18                            
ram:00018e10    0022            movs        param_3,#0x0                            
ram:00018e12    1146            mov         param_2,param_3                         
ram:00018e14    fff71eff        bl          FUN_00018c54                            ;undefined FUN_00018c54(void)
                            LAB_00018e18:                 ;XREF[1,0]:   00018e0e
ram:00018e18    0421            movs        param_2,#0x4                            
ram:00018e1a    6846            mov         param_1,sp                              
ram:00018e1c    02f042fd        bl          FUN_0001b8a4                            ;char FUN_0001b8a4(int param_1, int p...
ram:00018e20    0028            cmp         param_1,#0x0                            
ram:00018e22    0cd0            beq         LAB_00018e3e                            
ram:00018e24    6946            mov         param_2,sp                              
ram:00018e26    0979            ldrb        param_2,[r1,#local_14+0x18]             
ram:00018e28    8142            cmp         param_2,param_1                         
ram:00018e2a    08d1            bne         LAB_00018e3e                            
ram:00018e2c    1549            ldr         param_2,[DAT_00018e84]                  ;= 20002044h
ram:00018e2e    6846            mov         param_1,sp                              
ram:00018e30    4439            subs        param_2,#0x44                           
ram:00018e32    0088            ldrh        param_1=>local_18,[param_1,#0x0]        
ram:00018e34    c880            strh        param_1,[param_2,#offset DAT_20002006...
ram:00018e36    6846            mov         param_1,sp                              
ram:00018e38    4088            ldrh        param_1,[r0,#local_16+0x18]             
ram:00018e3a    0881            strh        param_1,[param_2,#offset DAT_20002008...
                            LAB_00018e3c:                 ;XREF[1,0]:   00018e78
ram:00018e3c    1fbd            pop         {param_1,param_2,param_3,param_4,r4,pc} 
                            LAB_00018e3e:                 ;XREF[2,0]:   00018e22,00018e2a
ram:00018e3e    0821            movs        param_2,#0x8                            
ram:00018e40    1048            ldr         param_1,[DAT_00018e84]                  ;= 20002044h
ram:00018e42    02f043f9        bl          FUN_0001b0cc                            ;int FUN_0001b0cc(uint * param_1, und...
ram:00018e46    0028            cmp         param_1,#0x0                            
ram:00018e48    03d0            beq         LAB_00018e52                            
ram:00018e4a    0022            movs        param_3,#0x0                            
ram:00018e4c    1146            mov         param_2,param_3                         
ram:00018e4e    fff701ff        bl          FUN_00018c54                            ;undefined FUN_00018c54(void)
                            LAB_00018e52:                 ;XREF[1,0]:   00018e48
ram:00018e52    0c48            ldr         param_1,[DAT_00018e84]                  ;= 20002044h
ram:00018e54    0421            movs        param_2,#0x4                            
ram:00018e56    3e38            subs        param_1=>DAT_20002006,#0x3e             
ram:00018e58    02f024fd        bl          FUN_0001b8a4                            ;char FUN_0001b8a4(int param_1, int p...
ram:00018e5c    094a            ldr         param_3,[DAT_00018e84]                  ;= 20002044h
ram:00018e5e    6946            mov         param_2,sp                              
ram:00018e60    443a            subs        param_3,#0x44                           
ram:00018e62    d388            ldrh        param_4,[param_3,#offset DAT_20002006...
ram:00018e64    0b80            strh        param_4,[param_2,#0x0]=>local_18        
ram:00018e66    1289            ldrh        param_3,[param_3,#offset DAT_20002008...
ram:00018e68    4a80            strh        param_3,[r1,#local_16+0x18]             
ram:00018e6a    0871            strb        param_1,[r1,#local_14+0x18]             
ram:00018e6c    0023            movs        param_4,#0x0                            
ram:00018e6e    0822            movs        param_3,#0x8                            
ram:00018e70    0448            ldr         param_1,[DAT_00018e84]                  ;= 20002044h
ram:00018e72    02f087fa        bl          FUN_0001b384                            ;int FUN_0001b384(uint * param_1, uin...
ram:00018e76    0028            cmp         param_1,#0x0                            
ram:00018e78    e0d0            beq         LAB_00018e3c                            
ram:00018e7a    0022            movs        param_3,#0x0                            
ram:00018e7c    1146            mov         param_2,param_3                         
ram:00018e7e    fff7e9fe        bl          FUN_00018c54                            ;undefined FUN_00018c54(void)
ram:00018e82    1fbd            pop         {param_1,param_2,param_3,param_4,r4,pc} 
                            DAT_00018e84:                 ;XREF[6,0]:   00018dee,00018e2c,00018e40,00018e52
                                                          ;             00018e5c,00018e70
ram:00018e84    44200020        undefined4  20002044h                               
                            ;************************************************************************************************
                            ;*                                           FUNCTION                                           *
                            ;************************************************************************************************
                            ;undefined FUN_00018e88(undefined4 param_1, undefined * param_2)
          ;param_1       undefined4          r0                      
          ;param_2       undefined *         r1                      
          ;local_10      undefined4         -10                      ;XREF[1,0]:   00018e98
                                                          ;XREF[2,0]:   0001b45e,0001b504
ram:00018e88    38b5            push        {r3,r4,r5,lr}                           
ram:00018e8a    0c46            mov         r4,param_2                              
ram:00018e8c    a268            ldr         r2,[r4,#0x8]                            
ram:00018e8e    064b            ldr         r3,[DAT_00018ea8]                       ;= 200028B8h
ram:00018e90    1201            lsls        r2,r2,#0x4                              
ram:00018e92    9d58            ldr         r5,[r3,r2]=>DAT_200028b8                
ram:00018e94    0978            ldrb        param_2,[param_2,#0x0]                  
ram:00018e96    6288            ldrh        r2,[r4,#0x2]                            
ram:00018e98    0092            str         r2,[sp,#0x0]=>local_10                  
ram:00018e9a    0246            mov         r2,param_1                              
ram:00018e9c    2046            mov         param_1,r4                              
ram:00018e9e    0830            adds        param_1,#0x8                            
ram:00018ea0    2369            ldr         r3,[r4,#0x10]                           
ram:00018ea2    a847            blx         r5                                      
ram:00018ea4    38bd            pop         {r3,r4,r5,pc}                           
ram:00018ea6    0000            movs        r0,r0                                   
                            DAT_00018ea8:                 ;XREF[1,0]:   00018e8e
ram:00018ea8    b8280020        undefined4  200028B8h                               
                            ;************************************************************************************************
                            ;*                                           FUNCTION                                           *
                            ;************************************************************************************************
                            ;undefined4 FUN_00018eac(int * param_1, undefined2 * param_2, undefined4 * param_3)
          ;param_1       int *               r0                      
          ;param_2       undefined2 *        r1                      
          ;param_3       undefined4 *        r2                      
                                                          ;XREF[1,0]:   00019004
ram:00018eac    70b5            push        {r4,r5,r6,lr}                           
ram:00018eae    0f4b            ldr         r3,[DAT_00018eec]                       ;= 20002100h
ram:00018eb0    0524            movs        r4,#0x5                                 
ram:00018eb2    1d78            ldrb        r5,[r3,#0x0]=>DAT_20002100              
ram:00018eb4    5e78            ldrb        r6,[r3,#offset DAT_20002101 &0xff]      
ram:00018eb6    ae42            cmp         r6,r5                                   
ram:00018eb8    15d0            beq         LAB_00018ee6                            
ram:00018eba    1d78            ldrb        r5,[r3,#0x0]=>DAT_20002100              
ram:00018ebc    1c78            ldrb        r4,[r3,#0x0]=>DAT_20002100              
ram:00018ebe    9e88            ldrh        r6,[r3,#offset DAT_20002104 &0xff]      
ram:00018ec0    b442            cmp         r4,r6                                   
ram:00018ec2    01da            bge         LAB_00018ec8                            
ram:00018ec4    641c            adds        r4,r4,#0x1                              
ram:00018ec6    00e0            b           LAB_00018eca                            
                            LAB_00018ec8:                 ;XREF[1,0]:   00018ec2
ram:00018ec8    0024            movs        r4,#0x0                                 
                            LAB_00018eca:                 ;XREF[1,0]:   00018ec6
ram:00018eca    1c70            strb        r4,[r3,#0x0]=>DAT_20002100              
ram:00018ecc    5c88            ldrh        r4,[r3,#offset DAT_20002102 &0xff]      
ram:00018ece    de68            ldr         r6,[r3,#offset DAT_2000210c &0xff]      
ram:00018ed0    6c43            muls        r4,r5                                   
ram:00018ed2    a419            adds        r4,r4,r6                                
ram:00018ed4    0460            str         r4,[param_1,#0x0]                       
ram:00018ed6    9b68            ldr         r3,[r3,#offset DAT_20002108 &0xff]      
ram:00018ed8    e800            lsls        param_1,r5,#0x3                         
ram:00018eda    c418            adds        r4,param_1,r3                           
ram:00018edc    a488            ldrh        r4,[r4,#0x4]                            
ram:00018ede    0c80            strh        r4,[param_2,#0x0]                       
ram:00018ee0    1858            ldr         param_1,[r3,param_1]                    
ram:00018ee2    0024            movs        r4,#0x0                                 
ram:00018ee4    1060            str         param_1,[param_3,#0x0]                  
                            LAB_00018ee6:                 ;XREF[1,0]:   00018eb8
ram:00018ee6    2046            mov         param_1,r4                              
ram:00018ee8    70bd            pop         {r4,r5,r6,pc}                           
ram:00018eea    0000            movs        r0,r0                                   
                            DAT_00018eec:                 ;XREF[1,0]:   00018eae
ram:00018eec    00210020        undefined4  20002100h                               
                            ;************************************************************************************************
                            ;*                                           FUNCTION                                           *
                            ;************************************************************************************************
                            ;undefined4 FUN_00018ef0(undefined4 * param_1, uint param_2, undefined4 param_3)
          ;param_1       undefined4 *        r0                      
          ;param_2       uint                r1                      
          ;param_3       undefined4          r2                      
          ;local_18      undefined4         -18                      ;XREF[1,0]:   00018fa8
          ;local_20      undefined4         -20                      ;XREF[1,0]:   00018fac
          ;local_28      undefined1         -28                      ;XREF[2,0]:   00018f02,00018f8a
                                                          ;XREF[1,0]:   000190bc
ram:00018ef0    f7b5            push        {param_1,param_2,param_3,r4,r5,r6,r7,lr}
ram:00018ef2    3b4c            ldr         r4,[DAT_00018fe0]                       ;= 20002100h
ram:00018ef4    82b0            sub         sp,#0x8                                 
ram:00018ef6    6088            ldrh        param_1,[r4,#offset DAT_20002102 &0xff] 
ram:00018ef8    0f46            mov         r7,param_2                              
ram:00018efa    8142            cmp         param_2,param_1                         
ram:00018efc    6ed8            bhi         LAB_00018fdc                            
ram:00018efe    0020            movs        param_1,#0x0                            
ram:00018f00    6946            mov         param_2,sp                              
ram:00018f02    0870            strb        param_1,[param_2,#0x0]=>local_28        
ram:00018f04    3849            ldr         param_2,[DAT_00018fe8]                  ;= E000ED00h
ram:00018f06    374e            ldr         r6,[DAT_00018fe4]                       ;= 0000FFFFh
ram:00018f08    4868            ldr         param_1,[param_2,#offset DAT_e000ed04...
ram:00018f0a    c005            lsls        param_1,param_1,#0x17                   
ram:00018f0c    c00d            lsrs        param_1,param_1,#0x17                   
ram:00018f0e    18d0            beq         LAB_00018f42                            
ram:00018f10    1038            subs        param_1,#0x10                           
ram:00018f12    40b2            sxtb        param_1,param_1                         
ram:00018f14    0028            cmp         param_1,#0x0                            
ram:00018f16    07da            bge         LAB_00018f28                            
ram:00018f18    0207            lsls        param_3,param_1,#0x1c                   
ram:00018f1a    120f            lsrs        param_3,param_3,#0x1c                   
ram:00018f1c    083a            subs        param_3,#0x8                            
ram:00018f1e    9208            lsrs        param_3,param_3,#0x2                    
ram:00018f20    9200            lsls        param_3,param_3,#0x2                    
ram:00018f22    5118            adds        param_2,param_3,param_2                 
ram:00018f24    c969            ldr         param_2,[param_2,#0x1c]                 
ram:00018f26    04e0            b           LAB_00018f32                            
                            LAB_00018f28:                 ;XREF[1,0]:   00018f16
ram:00018f28    8108            lsrs        param_2,param_1,#0x2                    
ram:00018f2a    304a            ldr         param_3,[DAT_00018fec]                  ;= E000E400h
ram:00018f2c    8900            lsls        param_2,param_2,#0x2                    
ram:00018f2e    8918            adds        param_2,param_2,param_3                 
ram:00018f30    0968            ldr         param_2,[param_2,#0x0]                  
                            LAB_00018f32:                 ;XREF[1,0]:   00018f26
ram:00018f32    8007            lsls        param_1,param_1,#0x1e                   
ram:00018f34    c00e            lsrs        param_1,param_1,#0x1b                   
ram:00018f36    c140            lsrs        param_2,param_1                         
ram:00018f38    0806            lsls        param_1,param_2,#0x18                   
ram:00018f3a    850f            lsrs        r5,param_1,#0x1e                        
ram:00018f3c    012d            cmp         r5,#0x1                                 
ram:00018f3e    01d1            bne         LAB_00018f44                            
ram:00018f40    0ae0            b           LAB_00018f58                            
                            LAB_00018f42:                 ;XREF[1,0]:   00018f0e
ram:00018f42    0425            movs        r5,#0x4                                 
                            LAB_00018f44:                 ;XREF[1,0]:   00018f3e
ram:00018f44    6846            mov         param_1,sp                              
ram:00018f46    36df            svc         0x36                                    
ram:00018f48    0228            cmp         param_1,#0x2                            
ram:00018f4a    0cd0            beq         LAB_00018f66                            
ram:00018f4c    0028            cmp         param_1,#0x0                            
ram:00018f4e    03d0            beq         LAB_00018f58                            
ram:00018f50    0022            movs        param_3,#0x0                            
ram:00018f52    1146            mov         param_2,param_3                         
ram:00018f54    fff77efe        bl          FUN_00018c54                            ;undefined FUN_00018c54(void)
                            LAB_00018f58:                 ;XREF[3,0]:   00018f40,00018f4e,00018f68
ram:00018f58    2278            ldrb        param_3,[r4,#0x0]=>DAT_20002100         
ram:00018f5a    6078            ldrb        param_1,[r4,#offset DAT_20002101 &0xff] 
ram:00018f5c    a188            ldrh        param_2,[r4,#offset DAT_20002104 &0xff] 
ram:00018f5e    8842            cmp         param_1,param_2                         
ram:00018f60    03da            bge         LAB_00018f6a                            
ram:00018f62    401c            adds        param_1,param_1,#0x1                    
ram:00018f64    02e0            b           LAB_00018f6c                            
                            LAB_00018f66:                 ;XREF[1,0]:   00018f4a
ram:00018f66    72b6            cpsid       i                                       
ram:00018f68    f6e7            b           LAB_00018f58                            
                            LAB_00018f6a:                 ;XREF[1,0]:   00018f60
ram:00018f6a    0020            movs        param_1,#0x0                            
                            LAB_00018f6c:                 ;XREF[1,0]:   00018f64
ram:00018f6c    c0b2            uxtb        param_1,param_1                         
ram:00018f6e    9042            cmp         param_1,param_3                         
ram:00018f70    07d0            beq         LAB_00018f82                            
ram:00018f72    6678            ldrb        r6,[r4,#offset DAT_20002101 &0xff]      
ram:00018f74    6078            ldrb        param_1,[r4,#offset DAT_20002101 &0xff] 
ram:00018f76    8842            cmp         param_1,param_2                         
ram:00018f78    01da            bge         LAB_00018f7e                            
ram:00018f7a    401c            adds        param_1,param_1,#0x1                    
ram:00018f7c    00e0            b           LAB_00018f80                            
                            LAB_00018f7e:                 ;XREF[1,0]:   00018f78
ram:00018f7e    0020            movs        param_1,#0x0                            
                            LAB_00018f80:                 ;XREF[1,0]:   00018f7c
ram:00018f80    6070            strb        param_1,[r4,#offset DAT_20002101 &0xff] 
                            LAB_00018f82:                 ;XREF[1,0]:   00018f70
ram:00018f82    012d            cmp         r5,#0x1                                 
ram:00018f84    0bd0            beq         LAB_00018f9e                            
ram:00018f86    62b6            cpsie       i                                       
ram:00018f88    6846            mov         param_1,sp                              
ram:00018f8a    0078            ldrb        param_1=>local_28,[param_1,#0x0]        
ram:00018f8c    37df            svc         0x37                                    
ram:00018f8e    0228            cmp         param_1,#0x2                            
ram:00018f90    05d0            beq         LAB_00018f9e                            
ram:00018f92    0028            cmp         param_1,#0x0                            
ram:00018f94    03d0            beq         LAB_00018f9e                            
ram:00018f96    0022            movs        param_3,#0x0                            
ram:00018f98    1146            mov         param_2,param_3                         
ram:00018f9a    fff75bfe        bl          FUN_00018c54                            ;undefined FUN_00018c54(void)
                            LAB_00018f9e:                 ;XREF[3,0]:   00018f84,00018f90,00018f94
ram:00018f9e    1148            ldr         param_1,[DAT_00018fe4]                  ;= 0000FFFFh
ram:00018fa0    8642            cmp         r6,param_1                              
ram:00018fa2    19d0            beq         LAB_00018fd8                            
ram:00018fa4    a068            ldr         param_1,[r4,#offset DAT_20002108 &0xff] 
ram:00018fa6    f500            lsls        r5,r6,#0x3                              
ram:00018fa8    0499            ldr         param_2,[sp,#local_18+0x28]             
ram:00018faa    4151            str         param_2,[param_1,r5]                    
ram:00018fac    0299            ldr         param_2,[sp,#local_20+0x28]             
ram:00018fae    0029            cmp         param_2,#0x0                            
ram:00018fb0    0cd0            beq         LAB_00018fcc                            
ram:00018fb2    002f            cmp         r7,#0x0                                 
ram:00018fb4    0ad0            beq         LAB_00018fcc                            
ram:00018fb6    6088            ldrh        param_1,[r4,#offset DAT_20002102 &0xff] 
ram:00018fb8    3a46            mov         param_3,r7                              
ram:00018fba    4643            muls        r6,param_1                              
ram:00018fbc    e068            ldr         param_1,[r4,#offset DAT_2000210c &0xff] 
ram:00018fbe    3018            adds        param_1,r6,param_1                      
ram:00018fc0    fff7fcf8        bl          FUN_000181bc                            ;undefined FUN_000181bc(undefined4 * ...
ram:00018fc4    a068            ldr         param_1,[r4,#offset DAT_20002108 &0xff] 
ram:00018fc6    2818            adds        param_1,r5,param_1                      
ram:00018fc8    8780            strh        r7,[param_1,#0x4]                       
ram:00018fca    02e0            b           LAB_00018fd2                            
                            LAB_00018fcc:                 ;XREF[2,0]:   00018fb0,00018fb4
ram:00018fcc    0021            movs        param_2,#0x0                            
ram:00018fce    2818            adds        param_1,r5,param_1                      
ram:00018fd0    8180            strh        param_2,[param_1,#0x4]                  
                            LAB_00018fd2:                 ;XREF[1,0]:   00018fca
ram:00018fd2    0020            movs        param_1,#0x0                            
                            LAB_00018fd4:                 ;XREF[2,0]:   00018fda,00018fde
ram:00018fd4    05b0            add         sp,#0x14                                
ram:00018fd6    f0bd            pop         {r4,r5,r6,r7,pc}                        
                            LAB_00018fd8:                 ;XREF[1,0]:   00018fa2
ram:00018fd8    0420            movs        param_1,#0x4                            
ram:00018fda    fbe7            b           LAB_00018fd4                            
                            LAB_00018fdc:                 ;XREF[1,0]:   00018efc
ram:00018fdc    0920            movs        param_1,#0x9                            
ram:00018fde    f9e7            b           LAB_00018fd4                            
                            DAT_00018fe0:                 ;XREF[1,0]:   00018ef2
ram:00018fe0    00210020        undefined4  20002100h                               
                            DAT_00018fe4:                 ;XREF[2,0]:   00018f06,00018f9e
ram:00018fe4    ffff0000        undefined4  0000FFFFh                               
                            DAT_00018fe8:                 ;XREF[1,0]:   00018f04
ram:00018fe8    00ed00e0        undefined4  E000ED00h                               
                            DAT_00018fec:                 ;XREF[1,0]:   00018f2a
ram:00018fec    00e400e0        undefined4  E000E400h                               
                            ;************************************************************************************************
                            ;*                                           FUNCTION                                           *
                            ;************************************************************************************************
                            ;undefined FUN_00018ff0(undefined4 param_1, int param_2, uint param_3, undefined * param_4)
          ;param_1       undefined4          r0                      
          ;param_2       int                 r1                      
          ;param_3       uint                r2                      
          ;param_4       undefined *         r3                      
          ;local_8       undefined4          -8                      ;XREF[1,0]:   00018ff8
          ;local_c       undefined2          -c                      ;XREF[1,0]:   00018ff6
          ;local_10      undefined4         -10                      ;XREF[1,0]:   00018ffa
                                                          ;XREF[1,0]:   0001ac20
ram:00018ff0    0eb5            push        {param_2,param_3,param_4,lr}            
ram:00018ff2    04e0            b           LAB_00018ffe                            
                            LAB_00018ff4:                 ;XREF[1,0]:   0001900a
ram:00018ff4    6846            mov         param_1,sp                              
ram:00018ff6    8188            ldrh        param_2=>local_c,[param_1,#0x4]         
ram:00018ff8    029a            ldr         param_3=>local_8,[sp,#0x8]              
ram:00018ffa    0098            ldr         param_1=>local_10,[sp,#0x0]             
ram:00018ffc    9047            blx         param_3                                 
                            LAB_00018ffe:                 ;XREF[1,0]:   00018ff2
ram:00018ffe    02aa            add         param_3,sp,#0x8                         
ram:00019000    01a9            add         param_2,sp,#0x4                         
ram:00019002    6846            mov         param_1,sp                              
ram:00019004    fff752ff        bl          FUN_00018eac                            ;undefined4 FUN_00018eac(int * param_...
ram:00019008    0028            cmp         param_1,#0x0                            
ram:0001900a    f3d0            beq         LAB_00018ff4                            
ram:0001900c    0ebd            pop         {param_2,param_3,param_4,pc}            
ram:0001900e    0000            movs        r0,r0                                   
                            ;************************************************************************************************
                            ;*                                           FUNCTION                                           *
                            ;************************************************************************************************
                            ;undefined4 FUN_00019010(undefined2 param_1, short param_2, uint param_3)
          ;param_1       undefined2          r0                      
          ;param_2       short               r1                      
          ;param_3       uint                r2                      
                                                          ;XREF[1,0]:   0001aa5e
ram:00019010    30b5            push        {r4,r5,lr}                              
ram:00019012    cb00            lsls        r3,param_2,#0x3                         
ram:00019014    0833            adds        r3,#0x8                                 
ram:00019016    9db2            uxth        r5,r3                                   
ram:00019018    9307            lsls        r3,param_3,#0x1e                        
ram:0001901a    0024            movs        r4,#0x0                                 
ram:0001901c    002b            cmp         r3,#0x0                                 
ram:0001901e    01d0            beq         LAB_00019024                            
ram:00019020    0720            movs        param_1,#0x7                            
ram:00019022    30bd            pop         {r4,r5,pc}                              
                            LAB_00019024:                 ;XREF[1,0]:   0001901e
ram:00019024    044b            ldr         r3,[DAT_00019038]                       ;= 20002100h
ram:00019026    9a60            str         param_3,[r3,#offset DAT_20002108 &0xff] 
ram:00019028    5219            adds        param_3,param_3,r5                      
ram:0001902a    da60            str         param_3,[r3,#offset DAT_2000210c &0xff] 
ram:0001902c    5c70            strb        r4,[r3,#offset DAT_20002101 &0xff]      
ram:0001902e    1c70            strb        r4,[r3,#0x0]=>DAT_20002100              
ram:00019030    5880            strh        param_1,[r3,#offset DAT_20002102 &0xff] 
ram:00019032    9980            strh        param_2,[r3,#offset DAT_20002104 &0xff] 
ram:00019034    0020            movs        param_1,#0x0                            
ram:00019036    30bd            pop         {r4,r5,pc}                              
                            DAT_00019038:                 ;XREF[1,0]:   00019024
ram:00019038    00210020        undefined4  20002100h                               
                            ;************************************************************************************************
                            ;*                                           FUNCTION                                           *
                            ;************************************************************************************************
                            ;undefined LAB_0001903c+1(void)
                                                          ;XREF[0,2]:   0001aa8a,0001ac48
ram:0001903c    0149            ldr         r1,[DAT_00019044]                       ;= 2000203Ch
ram:0001903e    0020            movs        r0,#0x0                                 
ram:00019040    0860            str         r0,[r1,#0x0]=>DAT_2000203c              
ram:00019042    7047            bx          lr                                      
                            DAT_00019044:                 ;XREF[1,0]:   0001903c
ram:00019044    3c200020        undefined4  2000203Ch                               
                            ;************************************************************************************************
                            ;*                                           FUNCTION                                           *
                            ;************************************************************************************************
                            ;undefined4 FUN_00019048(int * param_1, undefined param_2, int param_3)
          ;param_1       int *               r0                      
          ;param_2       undefined           r1                      
          ;param_3       int                 r2                      
                                                          ;XREF[6,0]:   00018c3e,000195aa,0001bfa0,0001bfb8
                                                          ;             0001bfd0,0001bfe8
ram:00019048    70b5            push        {r4,r5,r6,lr}                           
ram:0001904a    114c            ldr         r4,[DAT_00019090]                       ;= 20002110h
ram:0001904c    a568            ldr         r5,[r4,#0x8]=>DAT_20002118              
ram:0001904e    002d            cmp         r5,#0x0                                 
ram:00019050    06d0            beq         LAB_00019060                            
ram:00019052    002a            cmp         param_3,#0x0                            
ram:00019054    06d0            beq         LAB_00019064                            
ram:00019056    0028            cmp         param_1,#0x0                            
ram:00019058    04d0            beq         LAB_00019064                            
ram:0001905a    0023            movs        r3,#0x0                                 
ram:0001905c    2478            ldrb        r4,[r4,#0x0]=>DAT_20002110              
ram:0001905e    09e0            b           LAB_00019074                            
                            LAB_00019060:                 ;XREF[1,0]:   00019050
ram:00019060    0820            movs        param_1,#0x8                            
ram:00019062    70bd            pop         {r4,r5,r6,pc}                           
                            LAB_00019064:                 ;XREF[2,0]:   00019054,00019058
ram:00019064    0720            movs        param_1,#0x7                            
ram:00019066    70bd            pop         {r4,r5,r6,pc}                           
                            LAB_00019068:                 ;XREF[1,0]:   00019076
ram:00019068    2426            movs        r6,#0x24                                
ram:0001906a    5e43            muls        r6,r3                                   
ram:0001906c    ae5d            ldrb        r6,[r5,r6]                              
ram:0001906e    002e            cmp         r6,#0x0                                 
ram:00019070    04d0            beq         LAB_0001907c                            
ram:00019072    5b1c            adds        r3,r3,#0x1                              
                            LAB_00019074:                 ;XREF[1,0]:   0001905e
ram:00019074    a342            cmp         r3,r4                                   
ram:00019076    f7db            blt         LAB_00019068                            
ram:00019078    0420            movs        param_1,#0x4                            
ram:0001907a    70bd            pop         {r4,r5,r6,pc}                           
                            LAB_0001907c:                 ;XREF[1,0]:   00019070
ram:0001907c    2424            movs        r4,#0x24                                
ram:0001907e    0126            movs        r6,#0x1                                 
ram:00019080    5c43            muls        r4,r3                                   
ram:00019082    2e55            strb        r6,[r5,r4]                              
ram:00019084    6419            adds        r4,r4,r5                                
ram:00019086    6170            strb        param_2,[r4,#0x1]                       
ram:00019088    a261            str         param_3,[r4,#0x18]                      
ram:0001908a    0360            str         r3,[param_1,#0x0]                       
ram:0001908c    0020            movs        param_1,#0x0                            
ram:0001908e    70bd            pop         {r4,r5,r6,pc}                           
                            DAT_00019090:                 ;XREF[1,0]:   0001904a
ram:00019090    10210020        undefined4  20002110h                               
                            ;************************************************************************************************
                            ;*                                           FUNCTION                                           *
                            ;************************************************************************************************
                            ;undefined FUN_00019094(undefined * * param_1, int param_2)
          ;param_1       undefined * *       r0                      
          ;param_2       int                 r1                      
                                                          ;XREF[0,2]:   000190b6,000190c4
ram:00019094    10b5            push        {r4,lr}                                 
ram:00019096    0446            mov         r4,param_1                              
ram:00019098    0829            cmp         param_2,#0x8                            
ram:0001909a    04d0            beq         LAB_000190a6                            
ram:0001909c    0022            movs        r2,#0x0                                 
ram:0001909e    1146            mov         param_2,r2                              
ram:000190a0    1046            mov         param_1,r2                              
ram:000190a2    fff7d7fd        bl          FUN_00018c54                            ;undefined FUN_00018c54(void)
                            LAB_000190a6:                 ;XREF[1,0]:   0001909a
ram:000190a6    2168            ldr         param_2,[r4,#0x0]                       
ram:000190a8    6068            ldr         param_1,[r4,#0x4]                       
ram:000190aa    8847            blx         param_2                                 
ram:000190ac    10bd            pop         {r4,pc}                                 
ram:000190ae    0000            movs        r0,r0                                   
                            ;************************************************************************************************
                            ;*                                           FUNCTION                                           *
                            ;************************************************************************************************
                            ;undefined LAB_000190b0+1(undefined4 param_1, undefined4 param_2)
          ;param_1       undefined4          r0                      
          ;param_2       undefined4          r1                      
          ;local_c       undefined4          -c                      ;XREF[1,0]:   000190b2
          ;local_10      undefined4         -10                      ;XREF[1,0]:   000190b4
                                                          ;XREF[0,2]:   0001bf80,0001bffc
ram:000190b0    1cb5            push        {r2,r3,r4,lr}                           
ram:000190b2    0191            str         param_2,[sp,#local_c+0x10]              
ram:000190b4    0090            str         param_1,[sp,#0x0]=>local_10             
ram:000190b6    034a            ldr         r2=>FUN_00019094+1,[PTR_FUN_00019094+...;= 00019095
ram:000190b8    0821            movs        param_2,#0x8                            
ram:000190ba    6846            mov         param_1,sp                              
ram:000190bc    fff718ff        bl          FUN_00018ef0                            ;undefined4 FUN_00018ef0(undefined4 *...
ram:000190c0    1cbd            pop         {r2,r3,r4,pc}                           
ram:000190c2    0000            movs        r0,r0                                   
                            PTR_FUN_00019094+1_000190c4:  ;XREF[1,0]:   000190b6
ram:000190c4    95900100        addr        FUN_00019094+1                          
                            ;************************************************************************************************
                            ;*                                           FUNCTION                                           *
                            ;************************************************************************************************
                            ;undefined4 FUN_000190c8(undefined4 param_1, int param_2, int param_3, uint param_4, undefined4 param_5)
          ;param_1       undefined4          r0                      
          ;param_2       int                 r1                      
          ;param_3       int                 r2                      
          ;param_4       uint                r3                      
          ;param_5       undefined4           0                      ;XREF[1,0]:   000190e4
          ;local_24      undefined4         -24                      ;XREF[1,0]:   00019158
                                                          ;XREF[1,0]:   0001bf8a
ram:000190c8    ffb5            push        {param_1,param_2,param_3,param_4,r4,r...
ram:000190ca    9807            lsls        param_1,param_4,#0x1e                   
ram:000190cc    0024            movs        r4,#0x0                                 
ram:000190ce    81b0            sub         sp,#0x4                                 
ram:000190d0    1e46            mov         r6,param_4                              
ram:000190d2    1546            mov         r5,param_3                              
ram:000190d4    0f46            mov         r7,param_2                              
ram:000190d6    0028            cmp         param_1,#0x0                            
ram:000190d8    0bd1            bne         LAB_000190f2                            
ram:000190da    002e            cmp         r6,#0x0                                 
ram:000190dc    09d0            beq         LAB_000190f2                            
ram:000190de    02f0c9fa        bl          FUN_0001b674                            ;undefined FUN_0001b674(void)
ram:000190e2    2249            ldr         param_2,[DAT_0001916c]                  ;= 20002110h
ram:000190e4    0a98            ldr         param_1,[sp,#param_5+0x28]              
ram:000190e6    8861            str         param_1,[param_2,#0x18]=>DAT_20002128   
ram:000190e8    0f70            strb        r7,[param_2,#0x0]=>DAT_20002110         
ram:000190ea    3246            mov         param_3,r6                              
ram:000190ec    0020            movs        param_1,#0x0                            
ram:000190ee    8e60            str         r6,[param_2,#0x8]=>DAT_20002118         
ram:000190f0    08e0            b           LAB_00019104                            
                            LAB_000190f2:                 ;XREF[2,0]:   000190d8,000190dc
ram:000190f2    0720            movs        param_1,#0x7                            
                            LAB_000190f4:                 ;XREF[1,0]:   0001916a
ram:000190f4    05b0            add         sp,#0x14                                
ram:000190f6    f0bd            pop         {r4,r5,r6,r7,pc}                        
                            LAB_000190f8:                 ;XREF[1,0]:   00019106
ram:000190f8    2423            movs        param_4,#0x24                           
ram:000190fa    4343            muls        param_4,param_1                         
ram:000190fc    d454            strb        r4,[param_3,param_4]                    
ram:000190fe    9b18            adds        param_4,param_4,param_3                 
ram:00019100    1c75            strb        r4,[param_4,#0x14]                      
ram:00019102    401c            adds        param_1,param_1,#0x1                    
                            LAB_00019104:                 ;XREF[1,0]:   000190f0
ram:00019104    b842            cmp         param_1,r7                              
ram:00019106    f7db            blt         LAB_000190f8                            
ram:00019108    2420            movs        param_1,#0x24                           
ram:0001910a    4743            muls        r7,param_1                              
ram:0001910c    bb19            adds        param_4,r7,r6                           
ram:0001910e    0320            movs        param_1,#0x3                            
ram:00019110    4870            strb        param_1,[param_2,#0x1]=>DAT_20002111    
ram:00019112    0f46            mov         r7,param_2                              
ram:00019114    1846            mov         param_1,param_4                         
ram:00019116    cb60            str         param_4,[param_2,#0xc]=>DAT_2000211c    
ram:00019118    1946            mov         param_2,param_4                         
ram:0001911a    1830            adds        param_1,#0x18                           
ram:0001911c    0022            movs        param_3,#0x0                            
ram:0001911e    1823            movs        param_4,#0x18                           
ram:00019120    2e46            mov         r6,r5                                   
ram:00019122    5e43            muls        r6,param_4                              
                            LAB_00019124:                 ;XREF[1,0]:   00019136
ram:00019124    d300            lsls        param_4,param_3,#0x3                    
ram:00019126    5b18            adds        param_4,param_4,param_2                 
ram:00019128    1c70            strb        r4,[param_4,#0x0]                       
ram:0001912a    5c70            strb        r4,[param_4,#0x1]                       
ram:0001912c    9d70            strb        r5,[param_4,#0x2]                       
ram:0001912e    5860            str         param_1,[param_4,#0x4]                  
ram:00019130    3018            adds        param_1,r6,param_1                      
ram:00019132    521c            adds        param_3,param_3,#0x1                    
ram:00019134    032a            cmp         param_3,#0x3                            
ram:00019136    f5db            blt         LAB_00019124                            
ram:00019138    0020            movs        param_1,#0x0                            
ram:0001913a    c043            mvns        param_1,param_1                         
ram:0001913c    3861            str         param_1,[r7,#0x10]=>DAT_20002120        
ram:0001913e    bc70            strb        r4,[r7,#0x2]=>DAT_20002112              
ram:00019140    fc70            strb        r4,[r7,#0x3]=>DAT_20002113              
ram:00019142    0124            movs        r4,#0x1                                 
ram:00019144    0a48            ldr         param_1,[DAT_00019170]                  ;= E000E280h
ram:00019146    2405            lsls        r4,r4,#0x14                             
ram:00019148    0460            str         r4,[param_1,#0x0]=>DAT_e000e280         
ram:0001914a    0321            movs        param_2,#0x3                            
ram:0001914c    1420            movs        param_1,#0x14                           
ram:0001914e    fff7b1fa        bl          FUN_000186b4                            ;undefined FUN_000186b4(uint param_1,...
ram:00019152    0848            ldr         param_1,[DAT_00019174]                  ;= E000E100h
ram:00019154    0460            str         r4,[param_1,#0x0]=>DAT_e000e100         
ram:00019156    084c            ldr         r4,[DAT_00019178]                       ;= 40011500h
ram:00019158    0198            ldr         param_1,[sp,#local_24+0x28]             
ram:0001915a    a060            str         param_1,[r4,#offset DAT_40011508 &0xff] 
ram:0001915c    0321            movs        param_2,#0x3                            
ram:0001915e    1120            movs        param_1,#0x11                           
ram:00019160    fff7a8fa        bl          FUN_000186b4                            ;undefined FUN_000186b4(uint param_1,...
ram:00019164    6068            ldr         param_1,[r4,#offset DAT_40011504 &0xff] 
ram:00019166    7861            str         param_1,[r7,#0x14]=>DAT_20002124        
ram:00019168    0020            movs        param_1,#0x0                            
ram:0001916a    c3e7            b           LAB_000190f4                            
                            DAT_0001916c:                 ;XREF[1,0]:   000190e2
ram:0001916c    10210020        undefined4  20002110h                               
                            DAT_00019170:                 ;XREF[1,0]:   00019144
ram:00019170    80e200e0        undefined4  E000E280h                               
                            DAT_00019174:                 ;XREF[1,0]:   00019152
ram:00019174    00e100e0        undefined4  E000E100h                               
                            DAT_00019178:                 ;XREF[1,0]:   00019156
ram:00019178    00150140        undefined4  40011500h                               
                            ;************************************************************************************************
                            ;*                                           FUNCTION                                           *
                            ;************************************************************************************************
                            ;longlong FUN_0001917c(uint param_1, uint param_2, undefined4 param_3, undefined4 param_4)
          ;param_1       uint                r0                      
          ;param_2       uint                r1                      
          ;param_3       undefined4          r2                      
          ;param_4       undefined4          r3                      
          ;local_1c      undefined4         -1c                      ;XREF[2,0]:   000191bc,000191dc
          ;local_20      undefined4         -20                      ;XREF[1,0]:   000191e2
                                                          ;XREF[6,0]:   00019368,00019a40,00019e56,00019f38
                                                          ;             0001a67e,0001ab92
ram:0001917c    feb5            push        {param_2,param_3,param_4,r4,r5,r6,r7,lr}
ram:0001917e    0446            mov         r4,param_1                              
ram:00019180    1d48            ldr         param_1,[DAT_000191f8]                  ;= 20002110h
ram:00019182    1746            mov         r7,param_3                              
ram:00019184    8268            ldr         param_3,[param_1,#0x8]=>DAT_20002118    
ram:00019186    0d46            mov         r5,param_2                              
ram:00019188    002a            cmp         param_3,#0x0                            
ram:0001918a    0cd0            beq         LAB_000191a6                            
ram:0001918c    0178            ldrb        param_2,[param_1,#0x0]=>DAT_20002110    
ram:0001918e    8c42            cmp         r4,param_2                              
ram:00019190    01d2            bcs         LAB_00019196                            
ram:00019192    052d            cmp         r5,#0x5                                 
ram:00019194    01d2            bcs         LAB_0001919a                            
                            LAB_00019196:                 ;XREF[1,0]:   00019190
ram:00019196    0720            movs        param_1,#0x7                            
ram:00019198    febd            pop         {param_2,param_3,param_4,r4,r5,r6,r7,pc}
                            LAB_0001919a:                 ;XREF[1,0]:   00019194
ram:0001919a    2146            mov         param_2,r4                              
ram:0001919c    2423            movs        param_4,#0x24                           
ram:0001919e    5943            muls        param_2,param_4                         
ram:000191a0    535c            ldrb        param_4,[param_3,param_2]               
ram:000191a2    012b            cmp         param_4,#0x1                            
ram:000191a4    01d0            beq         LAB_000191aa                            
                            LAB_000191a6:                 ;XREF[1,0]:   0001918a
ram:000191a6    0820            movs        param_1,#0x8                            
ram:000191a8    febd            pop         {param_2,param_3,param_4,r4,r5,r6,r7,pc}
                            LAB_000191aa:                 ;XREF[1,0]:   000191a4
ram:000191aa    8818            adds        param_1,param_2,param_3                 
ram:000191ac    4078            ldrb        param_1,[param_1,#0x1]                  
ram:000191ae    0128            cmp         param_1,#0x1                            
ram:000191b0    1dd0            beq         LAB_000191ee                            
ram:000191b2    0026            movs        r6,#0x0                                 
                            LAB_000191b4:                 ;XREF[1,0]:   000191f0
ram:000191b4    02f0a2ff        bl          FUN_0001c0fc                            ;undefined4 FUN_0001c0fc(void)
ram:000191b8    c000            lsls        param_1,param_1,#0x3                    
ram:000191ba    0f49            ldr         param_2,[DAT_000191f8]                  ;= 20002110h
ram:000191bc    0190            str         param_1,[sp,#local_1c+0x20]             
ram:000191be    c968            ldr         param_2,[param_2,#0xc]=>DAT_2000211c    
ram:000191c0    4018            adds        param_1,param_1,param_2                 
ram:000191c2    6946            mov         param_2,sp                              
ram:000191c4    02f0c4ff        bl          FUN_0001c150                            ;int FUN_0001c150(byte * param_1, uin...
ram:000191c8    0028            cmp         param_1,#0x0                            
ram:000191ca    12d0            beq         LAB_000191f2                            
ram:000191cc    0121            movs        param_2,#0x1                            
ram:000191ce    0170            strb        param_2,[param_1,#0x0]                  
ram:000191d0    0a49            ldr         param_2,[DAT_000191fc]                  ;= 40011500h
ram:000191d2    4460            str         r4,[param_1,#0x4]                       
ram:000191d4    4968            ldr         param_2,[param_2,#offset DAT_40011504...
ram:000191d6    0830            adds        param_1,#0x8                            
ram:000191d8    e2c0            stmia       param_1!,{param_2,r5,r6,r7}             
ram:000191da    0749            ldr         param_2,[DAT_000191f8]                  ;= 20002110h
ram:000191dc    0198            ldr         param_1,[sp,#local_1c+0x20]             
ram:000191de    c968            ldr         param_2,[param_2,#0xc]=>DAT_2000211c    
ram:000191e0    4118            adds        param_2,param_1,param_2                 
ram:000191e2    0098            ldr         param_1,[sp,#0x0]=>local_20             
ram:000191e4    4870            strb        param_1,[param_2,#0x1]                  
ram:000191e6    02f017fe        bl          FUN_0001be18                            ;undefined FUN_0001be18(void)
ram:000191ea    0020            movs        param_1,#0x0                            
ram:000191ec    febd            pop         {param_2,param_3,param_4,r4,r5,r6,r7,pc}
                            LAB_000191ee:                 ;XREF[1,0]:   000191b0
ram:000191ee    2e46            mov         r6,r5                                   
ram:000191f0    e0e7            b           LAB_000191b4                            
                            LAB_000191f2:                 ;XREF[1,0]:   000191ca
ram:000191f2    0420            movs        param_1,#0x4                            
ram:000191f4    febd            pop         {param_2,param_3,param_4,r4,r5,r6,r7,pc}
ram:000191f6    0000            movs        r0,r0                                   
                            DAT_000191f8:                 ;XREF[3,0]:   00019180,000191ba,000191da
ram:000191f8    10210020        undefined4  20002110h                               
                            DAT_000191fc:                 ;XREF[1,0]:   000191d0
ram:000191fc    00150140        undefined4  40011500h                               
                            ;************************************************************************************************
                            ;*                                           FUNCTION                                           *
                            ;************************************************************************************************
                            ;undefined4 FUN_00019200(uint param_1, undefined4 param_2, undefined4 param_3, uint param_4)
          ;param_1       uint                r0                      
          ;param_2       undefined4          r1                      
          ;param_3       undefined4          r2                      
          ;param_4       uint                r3                      
          ;local_18      undefined4         -18                      ;XREF[1,0]:   00019242
                                                          ;XREF[8,0]:   000193f4,00019454,00019622,00019652
                                                          ;             00019a08,00019f0e,0001a666,0001a9e2
ram:00019200    f8b5            push        {param_4,r4,r5,r6,r7,lr}                
ram:00019202    144d            ldr         r5,[DAT_00019254]                       ;= 20002110h
ram:00019204    0446            mov         r4,param_1                              
ram:00019206    a868            ldr         param_1,[r5,#0x8]=>DAT_20002118         
ram:00019208    0028            cmp         param_1,#0x0                            
ram:0001920a    09d0            beq         LAB_00019220                            
ram:0001920c    2978            ldrb        param_2,[r5,#0x0]=>DAT_20002110         
ram:0001920e    8c42            cmp         r4,param_2                              
ram:00019210    01d3            bcc         LAB_00019216                            
ram:00019212    0720            movs        param_1,#0x7                            
ram:00019214    f8bd            pop         {param_4,r4,r5,r6,r7,pc}                
                            LAB_00019216:                 ;XREF[1,0]:   00019210
ram:00019216    2421            movs        param_2,#0x24                           
ram:00019218    6143            muls        param_2,r4                              
ram:0001921a    405c            ldrb        param_1,[param_1,param_2]               
ram:0001921c    0128            cmp         param_1,#0x1                            
ram:0001921e    01d0            beq         LAB_00019224                            
                            LAB_00019220:                 ;XREF[1,0]:   0001920a
ram:00019220    0820            movs        param_1,#0x8                            
ram:00019222    f8bd            pop         {param_4,r4,r5,r6,r7,pc}                
                            LAB_00019224:                 ;XREF[1,0]:   0001921e
ram:00019224    02f06aff        bl          FUN_0001c0fc                            ;undefined4 FUN_0001c0fc(void)
ram:00019228    c600            lsls        r6,param_1,#0x3                         
ram:0001922a    e868            ldr         param_1,[r5,#0xc]=>DAT_2000211c         
ram:0001922c    6946            mov         param_2,sp                              
ram:0001922e    3018            adds        param_1,r6,param_1                      
ram:00019230    02f08eff        bl          FUN_0001c150                            ;int FUN_0001c150(byte * param_1, uin...
ram:00019234    0028            cmp         param_1,#0x0                            
ram:00019236    0ad0            beq         LAB_0001924e                            
ram:00019238    0221            movs        param_2,#0x2                            
ram:0001923a    0170            strb        param_2,[param_1,#0x0]                  
ram:0001923c    4460            str         r4,[param_1,#0x4]                       
ram:0001923e    e868            ldr         param_1,[r5,#0xc]=>DAT_2000211c         
ram:00019240    3118            adds        param_2,r6,param_1                      
ram:00019242    0098            ldr         param_1,[sp,#0x0]=>local_18             
ram:00019244    4870            strb        param_1,[param_2,#0x1]                  
ram:00019246    02f0e7fd        bl          FUN_0001be18                            ;undefined FUN_0001be18(void)
ram:0001924a    0020            movs        param_1,#0x0                            
ram:0001924c    f8bd            pop         {param_4,r4,r5,r6,r7,pc}                
                            LAB_0001924e:                 ;XREF[1,0]:   00019236
ram:0001924e    0420            movs        param_1,#0x4                            
ram:00019250    f8bd            pop         {param_4,r4,r5,r6,r7,pc}                
ram:00019252    0000            movs        r0,r0                                   
                            DAT_00019254:                 ;XREF[1,0]:   00019202
ram:00019254    10210020        undefined4  20002110h                               
                            ;************************************************************************************************
                            ;*                                           FUNCTION                                           *
                            ;************************************************************************************************
                            ;undefined8 FUN_00019258(ushort * param_1)
          ;param_1       ushort *            r0                      
          ;local_18      undefined4         -18                      ;XREF[1,0]:   000192ec
          ;local_1c      undefined2         -1c                      ;XREF[1,0]:   000192ea
          ;local_1e      undefined2         -1e                      ;XREF[1,0]:   000192e8
          ;local_20      undefined2         -20                      ;XREF[1,0]:   000192e4
          ;local_24      undefined4         -24                      ;XREF[1,0]:   000192e0
          ;local_28      undefined4         -28                      ;XREF[1,0]:   000192dc
          ;local_2a      undefined1         -2a                      ;XREF[1,0]:   000192ac
          ;local_2c      undefined2         -2c                      ;XREF[1,0]:   000192b2
          ;local_30      undefined4         -30                      ;XREF[2,3]:   0001926a,0001926c,00019276,00019278,00019280
          ;local_34      undefined4         -34                      ;XREF[1,0]:   000192a4
          ;local_38      undefined4         -38                      ;XREF[1,0]:   0001929e
          ;local_3c      undefined4         -3c                      ;XREF[1,0]:   000192a2
          ;local_40      undefined4         -40                      ;XREF[1,0]:   000192a0
          ;local_48      undefined4         -48                      ;XREF[1,0]:   0001929c
          ;local_4c      undefined1         -4c                      ;XREF[2,0]:   0001928c,00019298
          ;local_50      undefined4         -50                      ;XREF[2,3]:   000192b6,000192b8,000192ba,000192bc,000192d0
                                                          ;XREF[1,0]:   00019868
ram:00019258    70b5            push        {r4,r5,r6,lr}                           
ram:0001925a    0024            movs        r4,#0x0                                 
ram:0001925c    0546            mov         r5,param_1                              
ram:0001925e    601c            adds        param_1,r4,#0x1                         
ram:00019260    90b0            sub         sp,#0x40                                
ram:00019262    0007            lsls        param_1,param_1,#0x1c                   
ram:00019264    000f            lsrs        param_1,param_1,#0x1c                   
ram:00019266    08a9            add         r1,sp,#0x20                             
ram:00019268    1030            adds        param_1,#0x10                           
ram:0001926a    0894            str         r4,[sp,#local_30+0x50]                  
ram:0001926c    0870            strb        param_1,[r1,#0x0]=>local_30             
ram:0001926e    601c            adds        param_1,r4,#0x1                         
ram:00019270    0007            lsls        param_1,param_1,#0x1c                   
ram:00019272    000f            lsrs        param_1,param_1,#0x1c                   
ram:00019274    1030            adds        param_1,#0x10                           
ram:00019276    4870            strb        param_1,[r1,#local_30+0x31]             
ram:00019278    8878            ldrb        param_1,[r1,#local_30+0x32]             
ram:0001927a    f926            movs        r6,#0xf9                                
ram:0001927c    3040            ands        param_1,r6                              
ram:0001927e    801c            adds        param_1,param_1,#0x2                    
ram:00019280    8870            strb        param_1,[r1,#local_30+0x32]             
ram:00019282    1c21            movs        r1,#0x1c                                
ram:00019284    01a8            add         param_1,sp,#0x4                         
ram:00019286    fef7b2ff        bl          FUN_000181ee                            ;undefined FUN_000181ee(undefined * p...
ram:0001928a    6946            mov         r1,sp                                   
ram:0001928c    0879            ldrb        param_1,[r1,#local_4c+0x50]             
ram:0001928e    fd21            movs        r1,#0xfd                                
ram:00019290    0840            ands        param_1,r1                              
ram:00019292    1821            movs        r1,#0x18                                
ram:00019294    0843            orrs        param_1,r1                              
ram:00019296    6946            mov         r1,sp                                   
ram:00019298    0871            strb        param_1,[r1,#local_4c+0x50]             
ram:0001929a    08a8            add         param_1,sp,#0x20                        
ram:0001929c    0294            str         r4,[sp,#local_48+0x50]                  
ram:0001929e    0690            str         param_1,[sp,#local_38+0x50]             
ram:000192a0    0494            str         r4,[sp,#local_40+0x50]                  
ram:000192a2    0594            str         r4,[sp,#local_3c+0x50]                  
ram:000192a4    0794            str         r4,[sp,#local_34+0x50]                  
ram:000192a6    3220            movs        param_1,#0x32                           
ram:000192a8    405d            ldrb        param_1,[param_1,r5]                    
ram:000192aa    08a9            add         r1,sp,#0x20                             
ram:000192ac    8871            strb        param_1,[r1,#local_2a+0x30]             
ram:000192ae    1448            ldr         param_1,[DAT_00019300]                  ;= 00001529h
ram:000192b0    6946            mov         r1,sp                                   
ram:000192b2    8884            strh        param_1,[r1,#local_2c+0x50]             
ram:000192b4    1120            movs        param_1,#0x11                           
ram:000192b6    0094            str         r4,[sp,#0x0]=>local_50                  
ram:000192b8    0870            strb        param_1,[r1,#0x0]=>local_50             
ram:000192ba    4870            strb        param_1,[r1,#local_50+0x51]             
ram:000192bc    8878            ldrb        param_1,[r1,#local_50+0x52]             
ram:000192be    f721            movs        r1,#0xf7                                
ram:000192c0    3040            ands        param_1,r6                              
ram:000192c2    801c            adds        param_1,param_1,#0x2                    
ram:000192c4    0840            ands        param_1,r1                              
ram:000192c6    ef21            movs        r1,#0xef                                
ram:000192c8    0840            ands        param_1,r1                              
ram:000192ca    0126            movs        r6,#0x1                                 
ram:000192cc    3043            orrs        param_1,r6                              
ram:000192ce    6946            mov         r1,sp                                   
ram:000192d0    8870            strb        param_1,[r1,#local_50+0x52]             
ram:000192d2    1421            movs        r1,#0x14                                
ram:000192d4    0aa8            add         param_1,sp,#0x28                        
ram:000192d6    fef78aff        bl          FUN_000181ee                            ;undefined FUN_000181ee(undefined * p...
ram:000192da    09a8            add         param_1,sp,#0x24                        
ram:000192dc    0a90            str         param_1,[sp,#local_28+0x50]             
ram:000192de    6846            mov         param_1,sp                              
ram:000192e0    0b90            str         param_1,[sp,#local_24+0x50]             
ram:000192e2    6946            mov         r1,sp                                   
ram:000192e4    0e86            strh        r6,[r1,#local_20+0x50]                  
ram:000192e6    0720            movs        param_1,#0x7                            
ram:000192e8    4c86            strh        r4,[r1,#local_1e+0x50]                  
ram:000192ea    8886            strh        param_1,[r1,#local_1c+0x50]             
ram:000192ec    0e94            str         r4,[sp,#local_18+0x50]                  
ram:000192ee    2b46            mov         r3,r5                                   
ram:000192f0    2888            ldrh        param_1,[r5,#0x0]                       
ram:000192f2    2a33            adds        r3,#0x2a                                
ram:000192f4    0aaa            add         r2,sp,#0x28                             
ram:000192f6    01a9            add         r1,sp,#0x4                              
ram:000192f8    a2df            svc         0xa2                                    
ram:000192fa    10b0            add         sp,#0x40                                
ram:000192fc    70bd            pop         {r4,r5,r6,pc}                           
ram:000192fe    0000            movs        r0,r0                                   
                            DAT_00019300:                 ;XREF[1,0]:   000192ae
ram:00019300    29150000        undefined4  00001529h                               
                            ;************************************************************************************************
                            ;*                                           FUNCTION                                           *
                            ;************************************************************************************************
                            ;undefined LAB_00019304+1(int param_1, uint param_2, undefined4 param_3, undefined4 param_4)
          ;param_1       int                 r0                      
          ;param_2       uint                r1                      
          ;param_3       undefined4          r2                      
          ;param_4       undefined4          r3                      
          ;local_18      undefined4         -18                      ;XREF[1,0]:   00019370
                                                          ;XREF[0,2]:   0001b7be,0001b80c
ram:00019304    f3b5            push        {param_1,param_2,r4,r5,r6,r7,lr}        
ram:00019306    0746            mov         r7,param_1                              
ram:00019308    0325            movs        r5,#0x3                                 
ram:0001930a    83b0            sub         sp,#0xc                                 
ram:0001930c    2846            mov         param_1,r5                              
ram:0001930e    01f0a9fc        bl          FUN_0001ac64                            ;uint * FUN_0001ac64(int param_1)
ram:00019312    3e79            ldrb        r6,[r7,#0x4]                            
ram:00019314    0446            mov         r4,param_1                              
ram:00019316    012e            cmp         r6,#0x1                                 
ram:00019318    15d0            beq         LAB_00019346                            
ram:0001931a    022e            cmp         r6,#0x2                                 
ram:0001931c    27d0            beq         LAB_0001936e                            
ram:0001931e    0120            movs        param_1,#0x1                            
ram:00019320    6670            strb        r6,[r4,#0x1]                            
ram:00019322    a070            strb        param_1,[r4,#0x2]                       
ram:00019324    2a48            ldr         param_1,[DAT_000193d0]                  ;= 200025F8h
ram:00019326    2b46            mov         param_4,r5                              
ram:00019328    418d            ldrh        param_2,[param_1,#0x2a]=>DAT_20002622   
ram:0001932a    2246            mov         param_3,r4                              
ram:0001932c    02f0c4f9        bl          FUN_0001b6b8                            ;undefined8 FUN_0001b6b8(int param_1,...
ram:00019330    0028            cmp         param_1,#0x0                            
ram:00019332    03d0            beq         LAB_0001933c                            
ram:00019334    0022            movs        param_3,#0x0                            
ram:00019336    1146            mov         param_2,param_3                         
ram:00019338    fff78cfc        bl          FUN_00018c54                            ;undefined FUN_00018c54(void)
                            LAB_0001933c:                 ;XREF[3,0]:   00019332,0001936c,000193ce
ram:0001933c    2046            mov         param_1,r4                              
ram:0001933e    01f021f9        bl          FUN_0001a584                            ;undefined FUN_0001a584(int param_1)
ram:00019342    05b0            add         sp,#0x14                                
ram:00019344    f0bd            pop         {r4,r5,r6,r7,pc}                        
                            LAB_00019346:                 ;XREF[1,0]:   00019318
ram:00019346    2248            ldr         param_1,[DAT_000193d0]                  ;= 200025F8h
ram:00019348    9430            adds        param_1,#0x94                           
ram:0001934a    8168            ldr         param_2,[param_1,#0x8]=>DAT_20002694    
ram:0001934c    0122            movs        param_3,#0x1                            
ram:0001934e    1143            orrs        param_2,param_3                         
ram:00019350    8160            str         param_2,[param_1,#0x8]=>DAT_20002694    
ram:00019352    8168            ldr         param_2,[param_1,#0x8]=>DAT_20002694    
ram:00019354    0222            movs        param_3,#0x2                            
ram:00019356    9143            bics        param_2,param_3                         
ram:00019358    8160            str         param_2,[param_1,#0x8]=>DAT_20002694    
ram:0001935a    0021            movs        param_2,#0x0                            
ram:0001935c    c160            str         param_2,[param_1,#0xc]=>DAT_20002698    
ram:0001935e    0a46            mov         param_3,param_2                         
ram:00019360    1c48            ldr         param_1,[DAT_000193d4]                  ;= 20002000h
ram:00019362    0121            movs        param_2,#0x1                            
ram:00019364    c903            lsls        param_2,param_2,#0xf                    
ram:00019366    8069            ldr         param_1,[param_1,#offset DAT_20002018...
ram:00019368    fff708ff        bl          FUN_0001917c                            ;longlong FUN_0001917c(uint param_1, ...
ram:0001936c    e6e7            b           LAB_0001933c                            
                            LAB_0001936e:                 ;XREF[1,0]:   0001931c
ram:0001936e    3846            mov         param_1,r7                              
ram:00019370    0499            ldr         param_2,[sp,#local_18+0x28]             
ram:00019372    00f08ff8        bl          FUN_00019494                            ;undefined4 FUN_00019494(int param_1,...
ram:00019376    0706            lsls        r7,param_1,#0x18                        
ram:00019378    3f0e            lsrs        r7,r7,#0x18                             
ram:0001937a    17d1            bne         LAB_000193ac                            
ram:0001937c    1548            ldr         param_1,[DAT_000193d4]                  ;= 20002000h
ram:0001937e    6a46            mov         param_3,sp                              
ram:00019380    0021            movs        param_2,#0x0                            
ram:00019382    4430            adds        param_1,#0x44                           
ram:00019384    01f078fe        bl          FUN_0001b078                            ;undefined4 FUN_0001b078(uint * param...
ram:00019388    0028            cmp         param_1,#0x0                            
ram:0001938a    03d0            beq         LAB_00019394                            
ram:0001938c    0022            movs        param_3,#0x0                            
ram:0001938e    1146            mov         param_2,param_3                         
ram:00019390    fff760fc        bl          FUN_00018c54                            ;undefined FUN_00018c54(void)
                            LAB_00019394:                 ;XREF[1,0]:   0001938a
ram:00019394    0f48            ldr         param_1,[DAT_000193d4]                  ;= 20002000h
ram:00019396    0821            movs        param_2,#0x8                            
ram:00019398    4430            adds        param_1,#0x44                           
ram:0001939a    01f097fe        bl          FUN_0001b0cc                            ;int FUN_0001b0cc(uint * param_1, und...
ram:0001939e    0028            cmp         param_1,#0x0                            
ram:000193a0    04d0            beq         LAB_000193ac                            
ram:000193a2    0022            movs        param_3,#0x0                            
ram:000193a4    1146            mov         param_2,param_3                         
ram:000193a6    fff755fc        bl          FUN_00018c54                            ;undefined FUN_00018c54(void)
ram:000193aa    0327            movs        r7,#0x3                                 
                            LAB_000193ac:                 ;XREF[2,0]:   0001937a,000193a0
ram:000193ac    6670            strb        r6,[r4,#0x1]                            
ram:000193ae    0848            ldr         param_1,[DAT_000193d0]                  ;= 200025F8h
ram:000193b0    a770            strb        r7,[r4,#0x2]                            
ram:000193b2    418d            ldrh        param_2,[param_1,#0x2a]=>DAT_20002622   
ram:000193b4    2b46            mov         param_4,r5                              
ram:000193b6    2246            mov         param_3,r4                              
ram:000193b8    02f07ef9        bl          FUN_0001b6b8                            ;undefined8 FUN_0001b6b8(int param_1,...
ram:000193bc    0028            cmp         param_1,#0x0                            
ram:000193be    03d0            beq         LAB_000193c8                            
ram:000193c0    0022            movs        param_3,#0x0                            
ram:000193c2    1146            mov         param_2,param_3                         
ram:000193c4    fff746fc        bl          FUN_00018c54                            ;undefined FUN_00018c54(void)
                            LAB_000193c8:                 ;XREF[1,0]:   000193be
ram:000193c8    02f02ef9        bl          FUN_0001b628                            ;undefined FUN_0001b628(undefined4 pa...
ram:000193cc    35df            svc         0x35                                    
ram:000193ce    b5e7            b           LAB_0001933c                            
                            DAT_000193d0:                 ;XREF[3,0]:   00019324,00019346,000193ae
ram:000193d0    f8250020        undefined4  200025F8h                               
                            DAT_000193d4:                 ;XREF[3,0]:   00019360,0001937c,00019394
ram:000193d4    00200020        undefined4  20002000h                               
                            ;************************************************************************************************
                            ;*                                           FUNCTION                                           *
                            ;************************************************************************************************
                            ;undefined LAB_000193d8+1(undefined4 param_1, undefined4 param_2, undefined4 param_3, uint param_4)
          ;param_1       undefined4          r0                      
          ;param_2       undefined4          r1                      
          ;param_3       undefined4          r2                      
          ;param_4       uint                r3                      
          ;local_16      undefined1         -16                      ;XREF[1,0]:   0001946e
          ;local_17      undefined1         -17                      ;XREF[1,0]:   0001946a
                                                          ;XREF[0,2]:   0001bfe2,0001c014
ram:000193d8    f8b5            push        {param_4,r4,r5,r6,r7,lr}                
ram:000193da    2c4c            ldr         r4,[DAT_0001948c]                       ;= 2000268Ch
ram:000193dc    a068            ldr         param_1,[r4,#0x8]=>DAT_20002694         
ram:000193de    0025            movs        r5,#0x0                                 
ram:000193e0    c107            lsls        param_2,param_1,#0x1f                   
ram:000193e2    2b48            ldr         param_1,[DAT_00019490]                  ;= 20002000h
ram:000193e4    0226            movs        r6,#0x2                                 
ram:000193e6    0127            movs        r7,#0x1                                 
ram:000193e8    8069            ldr         param_1,[param_1,#offset DAT_20002018...
ram:000193ea    0029            cmp         param_2,#0x0                            
ram:000193ec    2dd0            beq         LAB_0001944a                            
ram:000193ee    a168            ldr         param_2,[r4,#0x8]=>DAT_20002694         
ram:000193f0    8907            lsls        param_2,param_2,#0x1e                   
ram:000193f2    2ad5            bpl         LAB_0001944a                            
ram:000193f4    fff704ff        bl          FUN_00019200                            ;undefined4 FUN_00019200(uint param_1...
ram:000193f8    a068            ldr         param_1,[r4,#0x8]=>DAT_20002694         
ram:000193fa    b843            bics        param_1,r7                              
ram:000193fc    a060            str         param_1,[r4,#0x8]=>DAT_20002694         
ram:000193fe    a068            ldr         param_1,[r4,#0x8]=>DAT_20002694         
ram:00019400    b043            bics        param_1,r6                              
ram:00019402    a060            str         param_1,[r4,#0x8]=>DAT_20002694         
ram:00019404    e560            str         r5,[r4,#0xc]=>DAT_20002698              
ram:00019406    2068            ldr         param_1,[r4,#0x0]=>DAT_2000268c         
ram:00019408    0726            movs        r6,#0x7                                 
ram:0001940a    3046            mov         param_1,r6                              
ram:0001940c    01f02afc        bl          FUN_0001ac64                            ;uint * FUN_0001ac64(int param_1)
ram:00019410    4770            strb        r7,[param_1,#0x1]                       
ram:00019412    0446            mov         r4,param_1                              
ram:00019414    8570            strb        r5,[param_1,#0x2]                       
ram:00019416    1e49            ldr         param_2,[DAT_00019490]                  ;= 20002000h
ram:00019418    0020            movs        param_1,#0x0                            
ram:0001941a    891d            adds        param_2,param_2,#0x6                    
                            LAB_0001941c:                 ;XREF[1,0]:   00019426
                                                          ; FWD[2,0]:   20002006,20002007
ram:0001941c    0a5c            ldrb        param_3,[param_2,param_1]=>DAT_20002006 
ram:0001941e    2318            adds        param_4,r4,param_1                      
ram:00019420    401c            adds        param_1,param_1,#0x1                    
ram:00019422    da70            strb        param_3,[param_4,#0x3]                  
ram:00019424    0428            cmp         param_1,#0x4                            
ram:00019426    f9db            blt         LAB_0001941c                            
ram:00019428    1848            ldr         param_1,[DAT_0001948c]                  ;= 2000268Ch
ram:0001942a    3346            mov         param_4,r6                              
ram:0001942c    9438            subs        param_1,#0x94                           
ram:0001942e    418d            ldrh        param_2,[param_1,#0x2a]=>DAT_20002622   
ram:00019430    2246            mov         param_3,r4                              
ram:00019432    02f041f9        bl          FUN_0001b6b8                            ;undefined8 FUN_0001b6b8(int param_1,...
ram:00019436    0028            cmp         param_1,#0x0                            
ram:00019438    03d0            beq         LAB_00019442                            
ram:0001943a    0022            movs        param_3,#0x0                            
ram:0001943c    1146            mov         param_2,param_3                         
ram:0001943e    fff709fc        bl          FUN_00018c54                            ;undefined FUN_00018c54(void)
                            LAB_00019442:                 ;XREF[1,0]:   00019438
ram:00019442    2046            mov         param_1,r4                              
ram:00019444    01f09ef8        bl          FUN_0001a584                            ;undefined FUN_0001a584(int param_1)
                            LAB_00019448:                 ;XREF[2,0]:   00019452,0001947e
ram:00019448    f8bd            pop         {param_4,r4,r5,r6,r7,pc}                
                            LAB_0001944a:                 ;XREF[2,0]:   000193ec,000193f2
ram:0001944a    e168            ldr         param_2,[r4,#0xc]=>DAT_20002698         
ram:0001944c    4a1c            adds        param_3,param_2,#0x1                    
ram:0001944e    e260            str         param_3,[r4,#0xc]=>DAT_20002698         
ram:00019450    0a29            cmp         param_2,#0xa                            
ram:00019452    f9d3            bcc         LAB_00019448                            
ram:00019454    fff7d4fe        bl          FUN_00019200                            ;undefined4 FUN_00019200(uint param_1...
ram:00019458    a068            ldr         param_1,[r4,#0x8]=>DAT_20002694         
ram:0001945a    4008            lsrs        param_1,param_1,#0x1                    
ram:0001945c    4000            lsls        param_1,param_1,#0x1                    
ram:0001945e    a060            str         param_1,[r4,#0x8]=>DAT_20002694         
ram:00019460    a068            ldr         param_1,[r4,#0x8]=>DAT_20002694         
ram:00019462    b043            bics        param_1,r6                              
ram:00019464    a060            str         param_1,[r4,#0x8]=>DAT_20002694         
ram:00019466    e560            str         r5,[r4,#0xc]=>DAT_20002698              
ram:00019468    6846            mov         param_1,sp                              
ram:0001946a    4770            strb        r7,[r0,#local_17+0x18]                  
ram:0001946c    0323            movs        param_4,#0x3                            
ram:0001946e    8370            strb        param_4,[r0,#local_16+0x18]             
ram:00019470    0648            ldr         param_1,[DAT_0001948c]                  ;= 2000268Ch
ram:00019472    6a46            mov         param_3,sp                              
ram:00019474    9438            subs        param_1,#0x94                           
ram:00019476    418d            ldrh        param_2,[param_1,#0x2a]=>DAT_20002622   
ram:00019478    02f01ef9        bl          FUN_0001b6b8                            ;undefined8 FUN_0001b6b8(int param_1,...
ram:0001947c    0028            cmp         param_1,#0x0                            
ram:0001947e    e3d0            beq         LAB_00019448                            
ram:00019480    0022            movs        param_3,#0x0                            
ram:00019482    1146            mov         param_2,param_3                         
ram:00019484    fff7e6fb        bl          FUN_00018c54                            ;undefined FUN_00018c54(void)
ram:00019488    f8bd            pop         {param_4,r4,r5,r6,r7,pc}                
ram:0001948a    0000            movs        r0,r0                                   
                            DAT_0001948c:                 ;XREF[3,0]:   000193da,00019428,00019470
ram:0001948c    8c260020        undefined4  2000268Ch                               
                            DAT_00019490:                 ;XREF[2,0]:   000193e2,00019416
ram:00019490    00200020        undefined4  20002000h                               
                            ;************************************************************************************************
                            ;*                                           FUNCTION                                           *
                            ;************************************************************************************************
                            ;undefined4 FUN_00019494(int param_1, uint param_2)
          ;param_1       int                 r0                      
          ;param_2       uint                r1                      
                                                          ;XREF[3,0]:   00019372,0001bb10,0001bd1a
ram:00019494    f8b5            push        {r3,r4,r5,r6,r7,lr}                     
ram:00019496    0646            mov         r6,param_1                              
ram:00019498    0c46            mov         r4,param_2                              
ram:0001949a    0846            mov         param_1,param_2                         
ram:0001949c    01f0e2fb        bl          FUN_0001ac64                            ;uint * FUN_0001ac64(int param_1)
ram:000194a0    0546            mov         r5,param_1                              
ram:000194a2    201f            subs        param_1,r4,#0x4                         
ram:000194a4    c7b2            uxtb        r7,param_1                              
ram:000194a6    3a46            mov         r2,r7                                   
ram:000194a8    311d            adds        param_2,r6,#0x4                         
ram:000194aa    2846            mov         param_1,r5                              
ram:000194ac    fef786fe        bl          FUN_000181bc                            ;undefined FUN_000181bc(undefined4 * ...
ram:000194b0    e819            adds        param_1,r5,r7                           
ram:000194b2    0422            movs        r2,#0x4                                 
ram:000194b4    1349            ldr         param_2=>DAT_20002006,[DAT_00019504]    ;= 20002006h
ram:000194b6    fef781fe        bl          FUN_000181bc                            ;undefined FUN_000181bc(undefined4 * ...
ram:000194ba    2878            ldrb        param_1,[r5,#0x0]                       
ram:000194bc    2946            mov         param_2,r5                              
ram:000194be    c001            lsls        param_1,param_1,#0x7                    
ram:000194c0    0022            movs        r2,#0x0                                 
ram:000194c2    06e0            b           LAB_000194d2                            
                            LAB_000194c4:                 ;XREF[1,0]:   000194d4
ram:000194c4    104f            ldr         r7,[DAT_00019508]                       ;= 000F4243h
ram:000194c6    0b78            ldrb        r3,[param_2,#0x0]                       
ram:000194c8    7843            muls        param_1,r7                              
ram:000194ca    5840            eors        param_1,r3                              
ram:000194cc    6040            eors        param_1,r4                              
ram:000194ce    491c            adds        param_2,param_2,#0x1                    
ram:000194d0    521c            adds        r2,r2,#0x1                              
                            LAB_000194d2:                 ;XREF[1,0]:   000194c2
ram:000194d2    a242            cmp         r2,r4                                   
ram:000194d4    f6d3            bcc         LAB_000194c4                            
ram:000194d6    411c            adds        param_2,param_1,#0x1                    
ram:000194d8    00d1            bne         LAB_000194dc                            
ram:000194da    881e            subs        param_1,param_2,#0x2                    
                            LAB_000194dc:                 ;XREF[1,0]:   000194d8
ram:000194dc    04ba            rev         r4,param_1                              
ram:000194de    3046            mov         param_1,r6                              
ram:000194e0    fef79dfe        bl          FUN_0001821e                            ;uint FUN_0001821e(int param_1, undef...
ram:000194e4    00ba            rev         param_1,param_1                         
ram:000194e6    000a            lsrs        param_1,param_1,#0x8                    
ram:000194e8    f178            ldrb        param_2,[r6,#0x3]                       
ram:000194ea    0002            lsls        param_1,param_1,#0x8                    
ram:000194ec    0843            orrs        param_1,param_2                         
ram:000194ee    a042            cmp         param_1,r4                              
ram:000194f0    2846            mov         param_1,r5                              
ram:000194f2    03d0            beq         LAB_000194fc                            
ram:000194f4    01f046f8        bl          FUN_0001a584                            ;undefined FUN_0001a584(int param_1)
ram:000194f8    0420            movs        param_1,#0x4                            
ram:000194fa    f8bd            pop         {r3,r4,r5,r6,r7,pc}                     
                            LAB_000194fc:                 ;XREF[1,0]:   000194f2
ram:000194fc    01f042f8        bl          FUN_0001a584                            ;undefined FUN_0001a584(int param_1)
ram:00019500    0020            movs        param_1,#0x0                            
ram:00019502    f8bd            pop         {r3,r4,r5,r6,r7,pc}                     
                            DAT_00019504:                 ;XREF[1,0]:   000194b4
ram:00019504    06200020        undefined4  20002006h                               
                            DAT_00019508:                 ;XREF[1,0]:   000194c4
ram:00019508    43420f00        undefined4  000F4243h                               
                            ;************************************************************************************************
                            ;*                                           FUNCTION                                           *
                            ;************************************************************************************************
                            ;undefined * FUN_0001950c(char * param_1, char * param_2)
          ;param_1       char *              r0                      
          ;param_2       char *              r1                      
          ;local_54      undefined1         -54                      ;XREF[2,0]:   0001951a,0001955c
          ;local_58      undefined1         -58                      ;XREF[2,0]:   00019516,0001955e
                                                          ;XREF[1,0]:   00018b38
ram:0001950c    70b5            push        {r4,r5,r6,lr}                           
ram:0001950e    0c46            mov         r4,param_2                              
ram:00019510    92b0            sub         sp,#0x48                                
ram:00019512    0021            movs        param_2,#0x0                            
ram:00019514    6a46            mov         r2,sp                                   
ram:00019516    1170            strb        param_2,[r2,#0x0]=>local_58             
ram:00019518    0725            movs        r5,#0x7                                 
ram:0001951a    1171            strb        param_2,[r2,#local_54+0x58]             
ram:0001951c    0028            cmp         param_1,#0x0                            
ram:0001951e    09d0            beq         LAB_00019534                            
ram:00019520    c178            ldrb        param_2,[param_1,#0x3]                  
ram:00019522    4907            lsls        param_2,param_2,#0x1d                   
ram:00019524    0cd5            bpl         LAB_00019540                            
ram:00019526    02a9            add         param_2,sp,#0x8                         
ram:00019528    fff708fa        bl          FUN_0001893c                            ;undefined * FUN_0001893c(char * para...
ram:0001952c    0028            cmp         param_1,#0x0                            
ram:0001952e    08d1            bne         LAB_00019542                            
ram:00019530    02ae            add         r6,sp,#0x8                              
ram:00019532    00e0            b           LAB_00019536                            
                            LAB_00019534:                 ;XREF[1,0]:   0001951e
ram:00019534    0026            movs        r6,#0x0                                 
                            LAB_00019536:                 ;XREF[1,0]:   00019532
ram:00019536    002c            cmp         r4,#0x0                                 
ram:00019538    0ed0            beq         LAB_00019558                            
ram:0001953a    e078            ldrb        param_1,[r4,#0x3]                       
ram:0001953c    0028            cmp         param_1,#0x0                            
ram:0001953e    02d0            beq         LAB_00019546                            
                            LAB_00019540:                 ;XREF[1,0]:   00019524
ram:00019540    2846            mov         param_1,r5                              
                            LAB_00019542:                 ;XREF[3,0]:   0001952e,00019552,00019564
ram:00019542    12b0            add         sp,#0x48                                
ram:00019544    70bd            pop         {r4,r5,r6,pc}                           
                            LAB_00019546:                 ;XREF[1,0]:   0001953e
ram:00019546    01aa            add         r2,sp,#0x4                              
ram:00019548    0aa9            add         param_2,sp,#0x28                        
ram:0001954a    2046            mov         param_1,r4                              
ram:0001954c    fff7f6f9        bl          FUN_0001893c                            ;undefined * FUN_0001893c(char * para...
ram:00019550    0028            cmp         param_1,#0x0                            
ram:00019552    f6d1            bne         LAB_00019542                            
ram:00019554    0aaa            add         r2,sp,#0x28                             
ram:00019556    00e0            b           LAB_0001955a                            
                            LAB_00019558:                 ;XREF[1,0]:   00019538
ram:00019558    0022            movs        r2,#0x0                                 
                            LAB_0001955a:                 ;XREF[1,0]:   00019556
ram:0001955a    6846            mov         param_1,sp                              
ram:0001955c    0379            ldrb        r3,[r0,#local_54+0x58]                  
ram:0001955e    0178            ldrb        param_2,[param_1,#0x0]=>local_58        
ram:00019560    3046            mov         param_1,r6                              
ram:00019562    72df            svc         0x72                                    
ram:00019564    ede7            b           LAB_00019542                            
ram:00019566    0000            movs        r0,r0                                   
                            ;************************************************************************************************
                            ;*                                           FUNCTION                                           *
                            ;************************************************************************************************
                            ;undefined FUN_00019568(undefined4 * param_1)
          ;param_1       undefined4 *        r0                      
                                                          ;XREF[1,0]:   0001ab5c
ram:00019568    70b5            push        {r4,r5,r6,lr}                           
ram:0001956a    0546            mov         r5,param_1                              
ram:0001956c    0146            mov         r1,param_1                              
ram:0001956e    1c22            movs        r2,#0x1c                                
ram:00019570    0f48            ldr         param_1,[DAT_000195b0]                  ;= 200027D0h
ram:00019572    fef723fe        bl          FUN_000181bc                            ;undefined FUN_000181bc(undefined4 * ...
ram:00019576    0f4c            ldr         r4,[DAT_000195b4]                       ;= 200020A0h
ram:00019578    0026            movs        r6,#0x0                                 
ram:0001957a    2670            strb        r6,[r4,#0x0]=>DAT_200020a0              
ram:0001957c    2968            ldr         r1,[r5,#0x0]                            
ram:0001957e    0029            cmp         r1,#0x0                                 
ram:00019580    07d0            beq         LAB_00019592                            
ram:00019582    0822            movs        r2,#0x8                                 
ram:00019584    a018            adds        param_1=>DAT_200020a8,r4,r2             
ram:00019586    fef719fe        bl          FUN_000181bc                            ;undefined FUN_000181bc(undefined4 * ...
ram:0001958a    2046            mov         param_1,r4                              
ram:0001958c    0830            adds        param_1,#0x8                            
ram:0001958e    7adf            svc         0x7a                                    
ram:00019590    02e0            b           LAB_00019598                            
                            LAB_00019592:                 ;XREF[1,0]:   00019580
ram:00019592    0848            ldr         param_1,[DAT_000195b4]                  ;= 200020A0h
ram:00019594    0830            adds        param_1,#0x8                            
ram:00019596    7bdf            svc         0x7b                                    
                            LAB_00019598:                 ;XREF[1,0]:   00019590
ram:00019598    0028            cmp         param_1,#0x0                            
ram:0001959a    08d1            bne         LAB_000195ae                            
ram:0001959c    401e            subs        param_1,param_1,#0x1                    
ram:0001959e    6080            strh        param_1,[r4,#0x2]=>DAT_200020a2         
ram:000195a0    0448            ldr         param_1,[DAT_000195b4]                  ;= 200020A0h
ram:000195a2    6670            strb        r6,[r4,#0x1]=>DAT_200020a1              
ram:000195a4    044a            ldr         r2=>FUN_0001c098+1,[PTR_FUN_0001c098+...;= 0001c099
ram:000195a6    0021            movs        r1,#0x0                                 
ram:000195a8    001d            adds        param_1=>DAT_200020a4,param_1,#0x4      
ram:000195aa    fff74dfd        bl          FUN_00019048                            ;undefined4 FUN_00019048(int * param_...
                            LAB_000195ae:                 ;XREF[1,0]:   0001959a
ram:000195ae    70bd            pop         {r4,r5,r6,pc}                           
                            DAT_000195b0:                 ;XREF[1,0]:   00019570
ram:000195b0    d0270020        undefined4  200027D0h                               
                            DAT_000195b4:                 ;XREF[3,0]:   00019576,00019592,000195a0
ram:000195b4    a0200020        undefined4  200020A0h                               
                            PTR_FUN_0001c098+1_000195b8:  ;XREF[1,0]:   000195a4
ram:000195b8    99c00100        addr        FUN_0001c098+1                          
                            ;************************************************************************************************
                            ;*                                           FUNCTION                                           *
                            ;************************************************************************************************
                            ;undefined FUN_000195bc(ushort * param_1, undefined4 param_2, undefined4 param_3, uint param_4)
          ;param_1       ushort *            r0                      
          ;param_2       undefined4          r1                      
          ;param_3       undefined4          r2                      
          ;param_4       uint                r3                      
                                                          ;XREF[1,0]:   000197da
ram:000195bc    f8b5            push        {param_4,r4,r5,r6,r7,lr}                
ram:000195be    224c            ldr         r4,[DAT_00019648]                       ;= 200027D0h
ram:000195c0    0288            ldrh        param_3,[param_1,#0x0]                  
ram:000195c2    0027            movs        r7,#0x0                                 
ram:000195c4    1f4d            ldr         r5,[DAT_00019644]                       ;= 200020A0h
ram:000195c6    e689            ldrh        r6,[r4,#0xe]=>DAT_200027de              
ram:000195c8    102a            cmp         param_3,#0x10                           
ram:000195ca    16d0            beq         LAB_000195fa                            
ram:000195cc    2946            mov         param_2,r5                              
ram:000195ce    4968            ldr         param_2,[param_2,#0x4]=>DAT_200020a4    
ram:000195d0    112a            cmp         param_3,#0x11                           
ram:000195d2    21d0            beq         LAB_00019618                            
ram:000195d4    122a            cmp         param_3,#0x12                           
ram:000195d6    2dd0            beq         LAB_00019634                            
ram:000195d8    502a            cmp         param_3,#0x50                           
ram:000195da    1cd1            bne         LAB_00019616                            
ram:000195dc    c288            ldrh        param_3,[param_1,#0x6]                  
ram:000195de    801d            adds        param_1,param_1,#0x6                    
ram:000195e0    b242            cmp         param_3,r6                              
ram:000195e2    18d1            bne         LAB_00019616                            
ram:000195e4    028b            ldrh        param_3,[param_1,#0x18]                 
ram:000195e6    022a            cmp         param_3,#0x2                            
ram:000195e8    15d1            bne         LAB_00019616                            
ram:000195ea    c27e            ldrb        param_3,[param_1,#0x1b]                 
ram:000195ec    837e            ldrb        param_4,[param_1,#0x1a]                 
ram:000195ee    1002            lsls        param_1,param_3,#0x8                    
ram:000195f0    1843            orrs        param_1,param_4                         
ram:000195f2    c007            lsls        param_1,param_1,#0x1f                   
ram:000195f4    c00f            lsrs        param_1,param_1,#0x1f                   
ram:000195f6    0cd1            bne         LAB_00019612                            
ram:000195f8    12e0            b           LAB_00019620                            
                            LAB_000195fa:                 ;XREF[1,0]:   000195ca
ram:000195fa    8188            ldrh        param_2,[param_1,#0x4]                  
ram:000195fc    6980            strh        param_2,[r5,#0x2]=>DAT_200020a2         
ram:000195fe    0146            mov         param_2,param_1                         
ram:00019600    1048            ldr         param_1,[DAT_00019644]                  ;= 200020A0h
ram:00019602    0822            movs        param_3,#0x8                            
ram:00019604    1631            adds        param_2,#0x16                           
ram:00019606    1030            adds        param_1,#0x10                           
ram:00019608    fef7d8fd        bl          FUN_000181bc                            ;undefined FUN_000181bc(undefined4 * ...
ram:0001960c    6f70            strb        r7,[r5,#0x1]=>DAT_200020a1              
ram:0001960e    002e            cmp         r6,#0x0                                 
ram:00019610    01d1            bne         LAB_00019616                            
                            LAB_00019612:                 ;XREF[2,0]:   000195f6,00019640
ram:00019612    00f0fffb        bl          FUN_00019e14                            ;undefined FUN_00019e14(void)
                            LAB_00019616:                 ;XREF[6,0]:   000195da,000195e2,000195e8,00019610
                                                          ;             00019628,0001962e
ram:00019616    f8bd            pop         {param_4,r4,r5,r6,r7,pc}                
                            LAB_00019618:                 ;XREF[1,0]:   000195d2
ram:00019618    0020            movs        param_1,#0x0                            
ram:0001961a    c043            mvns        param_1,param_1                         
ram:0001961c    6880            strh        param_1,[r5,#0x2]=>DAT_200020a2         
ram:0001961e    6f70            strb        r7,[r5,#0x1]=>DAT_200020a1              
                            LAB_00019620:                 ;XREF[1,0]:   000195f8
ram:00019620    0846            mov         param_1,param_2                         
ram:00019622    fff7edfd        bl          FUN_00019200                            ;undefined4 FUN_00019200(uint param_1...
ram:00019626    0028            cmp         param_1,#0x0                            
ram:00019628    f5d0            beq         LAB_00019616                            
ram:0001962a    a169            ldr         param_2,[r4,#0x18]=>DAT_200027e8        
ram:0001962c    0029            cmp         param_2,#0x0                            
ram:0001962e    f2d0            beq         LAB_00019616                            
ram:00019630    8847            blx         param_2                                 
ram:00019632    f8bd            pop         {param_4,r4,r5,r6,r7,pc}                
                            LAB_00019634:                 ;XREF[1,0]:   000195d6
ram:00019634    811d            adds        param_2,param_1,#0x6                    
ram:00019636    0348            ldr         param_1,[DAT_00019644]                  ;= 200020A0h
ram:00019638    0822            movs        param_3,#0x8                            
ram:0001963a    1030            adds        param_1,#0x10                           
ram:0001963c    fef7befd        bl          FUN_000181bc                            ;undefined FUN_000181bc(undefined4 * ...
ram:00019640    e7e7            b           LAB_00019612                            
ram:00019642    0000            movs        r0,r0                                   
                            DAT_00019644:                 ;XREF[3,0]:   000195c4,00019600,00019636
ram:00019644    a0200020        undefined4  200020A0h                               
                            DAT_00019648:                 ;XREF[1,0]:   000195be
ram:00019648    d0270020        undefined4  200027D0h                               
                            ;************************************************************************************************
                            ;*                                           FUNCTION                                           *
                            ;************************************************************************************************
                            ;undefined FUN_0001964c(undefined4 param_1, undefined4 param_2, undefined4 param_3, uint param_4)
          ;param_1       undefined4          r0                      
          ;param_2       undefined4          r1                      
          ;param_3       undefined4          r2                      
          ;param_4       uint                r3                      
                                                          ;XREF[1,0]:   0001b648
ram:0001964c    10b5            push        {r4,lr}                                 
ram:0001964e    0248            ldr         param_1,[DAT_00019658]                  ;= 200020A0h
ram:00019650    4068            ldr         param_1,[param_1,#0x4]=>DAT_200020a4    
ram:00019652    fff7d5fd        bl          FUN_00019200                            ;undefined4 FUN_00019200(uint param_1...
ram:00019656    10bd            pop         {r4,pc}                                 
                            DAT_00019658:                 ;XREF[1,0]:   0001964e
ram:00019658    a0200020        undefined4  200020A0h                               
                            ;************************************************************************************************
                            ;*                                           FUNCTION                                           *
                            ;************************************************************************************************
                            ;undefined4 * FUN_0001965c(undefined2 * param_1, int param_2)
          ;param_1       undefined2 *        r0                      
          ;param_2       int                 r1                      
          ;local_10      undefined4         -10                      ;XREF[1,0]:   0001967a
          ;local_1c      undefined4         -1c                      ;XREF[1,0]:   0001967e
          ;local_1e      undefined1         -1e                      ;XREF[1,0]:   0001969e
          ;local_20      undefined2         -20                      ;XREF[1,0]:   00019684
                                                          ;XREF[1,0]:   0001b7e8
ram:0001965c    30b5            push        {r4,r5,lr}                              
ram:0001965e    85b0            sub         sp,#0x14                                
ram:00019660    0d46            mov         r5,param_2                              
ram:00019662    0400            movs        r4,param_1                              
ram:00019664    39d0            beq         LAB_000196da                            
ram:00019666    002d            cmp         r5,#0x0                                 
ram:00019668    37d0            beq         LAB_000196da                            
ram:0001966a    6868            ldr         param_1,[r5,#0x4]                       
ram:0001966c    0028            cmp         param_1,#0x0                            
ram:0001966e    34d0            beq         LAB_000196da                            
ram:00019670    0020            movs        param_1,#0x0                            
ram:00019672    c043            mvns        param_1,param_1                         
ram:00019674    1a4b            ldr         r3,[PTR_DAT_000196e0]                   ;= 0001c298
ram:00019676    2080            strh        param_1,[r4,#0x0]                       
                                                          ; FWD[4,0]:   0001c298,0001c29c,0001c2a0,0001c2a4
ram:00019678    0fcb            ldmia       r3,{param_1,param_2,r2,r3}=>DAT_0001c298;= EABCD123h
                                                                                    ;= 1523785Fh
                                                                                    ;= 1212EFDEh
ram:0001967a    0493            str         r3,[sp,#local_10+0x20]                  
ram:0001967c    01ab            add         r3,sp,#0x4                              
ram:0001967e    07c3            stmia       r3!=>local_1c,{param_1,param_2,r2}      
ram:00019680    1848            ldr         param_1,[DAT_000196e4]                  ;= 00001530h
ram:00019682    6946            mov         param_2,sp                              
ram:00019684    0880            strh        param_1,[param_2,#0x0]=>local_20        
ram:00019686    01a8            add         param_1,sp,#0x4                         
ram:00019688    811e            subs        param_2,param_1,#0x2                    
ram:0001968a    63df            svc         0x63                                    
ram:0001968c    0028            cmp         param_1,#0x0                            
ram:0001968e    22d1            bne         LAB_000196d6                            
ram:00019690    221d            adds        r2,r4,#0x4                              
ram:00019692    6946            mov         param_2,sp                              
ram:00019694    0120            movs        param_1,#0x1                            
ram:00019696    a0df            svc         0xa0                                    
ram:00019698    0028            cmp         param_1,#0x0                            
ram:0001969a    1cd1            bne         LAB_000196d6                            
ram:0001969c    6846            mov         param_1,sp                              
ram:0001969e    8078            ldrb        param_1,[r0,#local_1e+0x20]             
ram:000196a0    a071            strb        param_1,[r4,#0x6]                       
ram:000196a2    2046            mov         param_1,r4                              
ram:000196a4    00f0d8fd        bl          FUN_0001a258                            ;undefined2 FUN_0001a258(int param_1)
ram:000196a8    0028            cmp         param_1,#0x0                            
ram:000196aa    14d1            bne         LAB_000196d6                            
ram:000196ac    2046            mov         param_1,r4                              
ram:000196ae    00f08ffd        bl          FUN_0001a1d0                            ;undefined2 FUN_0001a1d0(int param_1)
ram:000196b2    0028            cmp         param_1,#0x0                            
ram:000196b4    0fd1            bne         LAB_000196d6                            
ram:000196b6    2946            mov         param_2,r5                              
ram:000196b8    2046            mov         param_1,r4                              
ram:000196ba    00f00ffe        bl          FUN_0001a2dc                            ;undefined8 FUN_0001a2dc(int param_1)
ram:000196be    0028            cmp         param_1,#0x0                            
ram:000196c0    09d1            bne         LAB_000196d6                            
ram:000196c2    6868            ldr         param_1,[r5,#0x4]                       
ram:000196c4    a062            str         param_1,[r4,#0x28]                      
ram:000196c6    a868            ldr         param_1,[r5,#0x8]                       
ram:000196c8    0028            cmp         param_1,#0x0                            
ram:000196ca    00d0            beq         LAB_000196ce                            
ram:000196cc    e062            str         param_1,[r4,#0x2c]                      
                            LAB_000196ce:                 ;XREF[1,0]:   000196ca
ram:000196ce    0649            ldr         param_2,[DAT_000196e8]                  ;= 20002080h
ram:000196d0    0120            movs        param_1,#0x1                            
ram:000196d2    0870            strb        param_1,[param_2,#0x0]=>DAT_20002080    
ram:000196d4    0020            movs        param_1,#0x0                            
                            LAB_000196d6:                 ;XREF[6,0]:   0001968e,0001969a,000196aa,000196b4
                                                          ;             000196c0,000196dc
ram:000196d6    05b0            add         sp,#0x14                                
ram:000196d8    30bd            pop         {r4,r5,pc}                              
                            LAB_000196da:                 ;XREF[3,0]:   00019664,00019668,0001966e
ram:000196da    0e20            movs        param_1,#0xe                            
ram:000196dc    fbe7            b           LAB_000196d6                            
ram:000196de    0000            movs        r0,r0                                   
                            PTR_DAT_000196e0:             ;XREF[1,0]:   00019674
ram:000196e0    98c20100        addr        DAT_0001c298                            ;= EABCD123h
                            DAT_000196e4:                 ;XREF[1,0]:   00019680
ram:000196e4    30150000        undefined4  00001530h                               
                            DAT_000196e8:                 ;XREF[1,0]:   000196ce
ram:000196e8    80200020        undefined4  20002080h                               
                            ;************************************************************************************************
                            ;*                                           FUNCTION                                           *
                            ;************************************************************************************************
                            ;undefined FUN_000196ec(ushort * param_1, short * param_2, uint param_3, undefined4 param_4)
          ;param_1       ushort *            r0                      
          ;param_2       short *             r1                      
          ;param_3       uint                r2                      
          ;param_4       undefined4          r3                      
          ;local_10      undefined4         -10                      ;XREF[1,0]:   0001975e
          ;local_14      undefined1         -14                      ;XREF[1,0]:   0001975a
          ;local_18      undefined1         -18                      ;XREF[1,0]:   00019756
                                                          ;XREF[1,0]:   000197ec
ram:000196ec    3eb5            push        {param_2,param_3,param_4,r4,r5,lr}      
ram:000196ee    0028            cmp         param_1,#0x0                            
ram:000196f0    28d0            beq         LAB_00019744                            
ram:000196f2    0029            cmp         param_2,#0x0                            
ram:000196f4    26d0            beq         LAB_00019744                            
ram:000196f6    826a            ldr         param_3,[param_1,#0x28]                 
ram:000196f8    002a            cmp         param_3,#0x0                            
ram:000196fa    23d0            beq         LAB_00019744                            
ram:000196fc    0a88            ldrh        param_3,[param_2,#0x0]                  
ram:000196fe    102a            cmp         param_3,#0x10                           
ram:00019700    21d0            beq         LAB_00019746                            
ram:00019702    112a            cmp         param_3,#0x11                           
ram:00019704    30d0            beq         LAB_00019768                            
ram:00019706    502a            cmp         param_3,#0x50                           
ram:00019708    1fd0            beq         LAB_0001974a                            
ram:0001970a    512a            cmp         param_3,#0x51                           
ram:0001970c    1ad1            bne         LAB_00019744                            
ram:0001970e    0a46            mov         param_3,param_2                         
ram:00019710    0446            mov         r4,param_1                              
ram:00019712    891d            adds        param_2,param_2,#0x6                    
ram:00019714    0878            ldrb        param_1,[param_2,#0x0]                  
ram:00019716    0228            cmp         param_1,#0x2                            
ram:00019718    14d1            bne         LAB_00019744                            
ram:0001971a    4888            ldrh        param_1,[param_2,#0x2]                  
ram:0001971c    238a            ldrh        param_4,[r4,#0x10]                      
ram:0001971e    9842            cmp         param_1,param_4                         
ram:00019720    10d1            bne         LAB_00019744                            
ram:00019722    907a            ldrb        param_1,[param_3,#0xa]                  
ram:00019724    0428            cmp         param_1,#0x4                            
ram:00019726    0dd0            beq         LAB_00019744                            
ram:00019728    0628            cmp         param_1,#0x6                            
ram:0001972a    0bd0            beq         LAB_00019744                            
ram:0001972c    0528            cmp         param_1,#0x5                            
ram:0001972e    09d0            beq         LAB_00019744                            
ram:00019730    2046            mov         param_1,r4                              
ram:00019732    891c            adds        param_2,param_2,#0x2                    
ram:00019734    01f0cefb        bl          FUN_0001aed4                            ;undefined8 FUN_0001aed4(ushort * par...
ram:00019738    0028            cmp         param_1,#0x0                            
ram:0001973a    03d0            beq         LAB_00019744                            
ram:0001973c    e16a            ldr         param_2,[r4,#0x2c]                      
ram:0001973e    0029            cmp         param_2,#0x0                            
ram:00019740    00d0            beq         LAB_00019744                            
ram:00019742    8847            blx         param_2                                 
                            LAB_00019744:                 ;XREF[12,0]:  000196f0,000196f4,000196fa,0001970c
                                                          ;             00019718,00019720,00019726,0001972a
                                                          ;             0001972e,0001973a,00019740,00019750
ram:00019744    3ebd            pop         {param_2,param_3,param_4,r4,r5,pc}      
                            LAB_00019746:                 ;XREF[1,0]:   00019700
ram:00019746    8988            ldrh        param_2,[param_2,#0x4]                  
ram:00019748    10e0            b           LAB_0001976c                            
                            LAB_0001974a:                 ;XREF[1,0]:   00019708
ram:0001974a    cb88            ldrh        param_4,[param_2,#0x6]                  
ram:0001974c    0289            ldrh        param_3,[param_1,#0x8]                  
ram:0001974e    9342            cmp         param_4,param_3                         
ram:00019750    f8d1            bne         LAB_00019744                            
ram:00019752    0822            movs        param_3,#0x8                            
ram:00019754    6b46            mov         param_4,sp                              
ram:00019756    1a70            strb        param_3,[param_4,#0x0]=>local_18        
ram:00019758    8a7f            ldrb        param_3,[param_2,#0x1e]                 
ram:0001975a    1a71            strb        param_3,[r3,#local_14+0x18]             
ram:0001975c    2031            adds        param_2,#0x20                           
ram:0001975e    0291            str         param_2,[sp,#local_10+0x18]             
ram:00019760    826a            ldr         param_3,[param_1,#0x28]                 
ram:00019762    6946            mov         param_2,sp                              
ram:00019764    9047            blx         param_3                                 
ram:00019766    3ebd            pop         {param_2,param_3,param_4,r4,r5,pc}      
                            LAB_00019768:                 ;XREF[1,0]:   00019704
ram:00019768    0021            movs        param_2,#0x0                            
ram:0001976a    c943            mvns        param_2,param_2                         
                            LAB_0001976c:                 ;XREF[1,0]:   00019748
ram:0001976c    0180            strh        param_2,[param_1,#0x0]                  
ram:0001976e    3ebd            pop         {param_2,param_3,param_4,r4,r5,pc}      
                            ;************************************************************************************************
                            ;*                                           FUNCTION                                           *
                            ;************************************************************************************************
                            ;undefined8 FUN_00019770(ushort * param_1, undefined * param_2, char param_3)
          ;param_1       ushort *            r0                      
          ;param_2       undefined *         r1                      
          ;param_3       char                r2                      
          ;local_10      undefined2         -10                      ;XREF[1,0]:   0001979c
          ;local_14      undefined4         -14                      ;XREF[2,0]:   000197a4,000197b2
          ;local_18      undefined4         -18                      ;XREF[2,0]:   000197a2,000197b0
          ;local_1c      undefined4         -1c                      ;XREF[2,0]:   000197a0,000197ac
          ;local_20      undefined4         -20                      ;XREF[2,1]:   0001979e,000197a8,000197aa
                                                          ;XREF[2,0]:   0001a0fc,0001af92
ram:00019770    30b5            push        {r4,r5,lr}                              
ram:00019772    85b0            sub         sp,#0x14                                
ram:00019774    0028            cmp         param_1,#0x0                            
ram:00019776    22d0            beq         LAB_000197be                            
ram:00019778    0388            ldrh        r3,[param_1,#0x0]                       
ram:0001977a    134c            ldr         r4,[DAT_000197c8]                       ;= 0000FFFFh
ram:0001977c    a342            cmp         r3,r4                                   
ram:0001977e    20d0            beq         LAB_000197c2                            
ram:00019780    124b            ldr         r3,[DAT_000197cc]                       ;= 20002080h
ram:00019782    1b78            ldrb        r3,[r3,#0x0]=>DAT_20002080              
ram:00019784    002b            cmp         r3,#0x0                                 
ram:00019786    1cd0            beq         LAB_000197c2                            
ram:00019788    104b            ldr         r3,[DAT_000197cc]                       ;= 20002080h
ram:0001978a    1025            movs        r5,#0x10                                
ram:0001978c    5b1c            adds        r3,r3,#0x1                              
ram:0001978e    1d70            strb        r5,[r3,#0x0]=>DAT_20002081              
ram:00019790    5970            strb        param_2,[r3,#0x1]=>DAT_20002082         
ram:00019792    0024            movs        r4,#0x0                                 
ram:00019794    0125            movs        r5,#0x1                                 
ram:00019796    9a70            strb        param_3,[r3,#0x2]=>DAT_20002083         
ram:00019798    0322            movs        param_3,#0x3                            
ram:0001979a    6946            mov         param_2,sp                              
ram:0001979c    0a82            strh        param_3,[r1,#local_10+0x20]             
ram:0001979e    0094            str         r4,[sp,#0x0]=>local_20                  
ram:000197a0    0194            str         r4,[sp,#local_1c+0x20]                  
ram:000197a2    0294            str         r4,[sp,#local_18+0x20]                  
ram:000197a4    0394            str         r4,[sp,#local_14+0x20]                  
ram:000197a6    028a            ldrh        param_3,[param_1,#0x10]                 
ram:000197a8    0a80            strh        param_3,[param_2,#0x0]=>local_20        
ram:000197aa    8d70            strb        r5,[r1,#local_20+0x22]                  
ram:000197ac    8c80            strh        r4,[r1,#local_1c+0x20]                  
ram:000197ae    04a9            add         param_2,sp,#0x10                        
ram:000197b0    0291            str         param_2,[sp,#local_18+0x20]             
ram:000197b2    0393            str         r3=>DAT_20002081,[sp,#local_14+0x20]    
ram:000197b4    0088            ldrh        param_1,[param_1,#0x0]                  
ram:000197b6    6946            mov         param_2,sp                              
ram:000197b8    a6df            svc         0xa6                                    
                            LAB_000197ba:                 ;XREF[2,0]:   000197c0,000197c4
ram:000197ba    05b0            add         sp,#0x14                                
ram:000197bc    30bd            pop         {r4,r5,pc}                              
                            LAB_000197be:                 ;XREF[1,0]:   00019776
ram:000197be    0e20            movs        param_1,#0xe                            
ram:000197c0    fbe7            b           LAB_000197ba                            
                            LAB_000197c2:                 ;XREF[2,0]:   0001977e,00019786
ram:000197c2    0820            movs        param_1,#0x8                            
ram:000197c4    f9e7            b           LAB_000197ba                            
ram:000197c6    0000            movs        r0,r0                                   
                            DAT_000197c8:                 ;XREF[1,0]:   0001977a
ram:000197c8    ffff0000        undefined4  0000FFFFh                               
                            DAT_000197cc:                 ;XREF[2,0]:   00019780,00019788
ram:000197cc    80200020        undefined4  20002080h                               
                            ;************************************************************************************************
                            ;*                                           FUNCTION                                           *
                            ;************************************************************************************************
                            ;undefined FUN_000197d0(ushort * param_1, undefined4 param_2, uint param_3, uint param_4)
          ;param_1       ushort *            r0                      
          ;param_2       undefined4          r1                      
          ;param_3       uint                r2                      
          ;param_4       uint                r3                      
                                                          ;XREF[0,2]:   0001991e,00019948
ram:000197d0    10b5            push        {r4,lr}                                 
ram:000197d2    0446            mov         r4,param_1                              
ram:000197d4    01f010fb        bl          FUN_0001adf8                            ;undefined FUN_0001adf8(ushort * para...
ram:000197d8    2046            mov         param_1,r4                              
ram:000197da    fff7effe        bl          FUN_000195bc                            ;undefined FUN_000195bc(ushort * para...
ram:000197de    2146            mov         param_2,r4                              
ram:000197e0    0448            ldr         param_1,[DAT_000197f4]                  ;= 200025F8h
ram:000197e2    00f049f8        bl          FUN_00019878                            ;undefined FUN_00019878(int param_1, ...
ram:000197e6    0348            ldr         param_1,[DAT_000197f4]                  ;= 200025F8h
ram:000197e8    2146            mov         param_2,r4                              
ram:000197ea    4430            adds        param_1,#0x44                           
ram:000197ec    fff77eff        bl          FUN_000196ec                            ;undefined FUN_000196ec(ushort * para...
ram:000197f0    10bd            pop         {r4,pc}                                 
ram:000197f2    0000            movs        r0,r0                                   
                            DAT_000197f4:                 ;XREF[2,0]:   000197e0,000197e6
ram:000197f4    f8250020        undefined4  200025F8h                               
                            ;************************************************************************************************
                            ;*                                           FUNCTION                                           *
                            ;************************************************************************************************
                            ;undefined8 FUN_000197f8(ushort * param_1, undefined4 * param_2)
          ;param_1       ushort *            r0                      
          ;param_2       undefined4 *        r1                      
          ;local_e       undefined1          -e                      ;XREF[1,0]:   0001982e
          ;local_10      undefined2         -10                      ;XREF[1,0]:   00019832
          ;local_14      undefined4         -14                      ;XREF[1,0]:   00019816
          ;local_20      undefined4         -20                      ;XREF[1,0]:   0001981a
                                                          ;XREF[1,0]:   0001b7c4
ram:000197f8    30b5            push        {r4,r5,lr}                              
ram:000197fa    0446            mov         r4,param_1                              
ram:000197fc    0020            movs        param_1,#0x0                            
ram:000197fe    85b0            sub         sp,#0x14                                
ram:00019800    c043            mvns        param_1,param_1                         
ram:00019802    a086            strh        param_1,[r4,#0x34]                      
ram:00019804    0868            ldr         param_1,[param_2,#0x0]                  
ram:00019806    a063            str         param_1,[r4,#0x38]                      
ram:00019808    4868            ldr         param_1,[param_2,#0x4]                  
ram:0001980a    e063            str         param_1,[r4,#0x3c]                      
ram:0001980c    8868            ldr         param_1,[param_2,#0x8]                  
ram:0001980e    184b            ldr         r3,[PTR_DAT_00019870]                   ;= 0001c288
ram:00019810    0d46            mov         r5,param_2                              
ram:00019812    2064            str         param_1,[r4,#0x40]                      
                                                          ; FWD[4,0]:   0001c288,0001c28c,0001c290,0001c294
ram:00019814    0fcb            ldmia       r3,{param_1,param_2,r2,r3}=>DAT_0001c288;= EABCD123h
                                                                                    ;= 1523785Fh
                                                                                    ;= 1212EFDEh
ram:00019816    0393            str         r3,[sp,#local_14+0x20]                  
ram:00019818    6b46            mov         r3,sp                                   
ram:0001981a    07c3            stmia       r3!=>local_20,{param_1,param_2,r2}      
ram:0001981c    2146            mov         param_2,r4                              
ram:0001981e    3231            adds        param_2,#0x32                           
ram:00019820    6846            mov         param_1,sp                              
ram:00019822    63df            svc         0x63                                    
ram:00019824    0028            cmp         param_1,#0x0                            
ram:00019826    21d1            bne         LAB_0001986c                            
ram:00019828    3220            movs        param_1,#0x32                           
ram:0001982a    015d            ldrb        param_2,[param_1,r4]                    
ram:0001982c    6846            mov         param_1,sp                              
ram:0001982e    8174            strb        param_2,[r0,#local_e+0x20]              
ram:00019830    1049            ldr         param_2,[DAT_00019874]                  ;= 00001523h
ram:00019832    0182            strh        param_2,[r0,#local_10+0x20]             
ram:00019834    2246            mov         r2,r4                                   
ram:00019836    04a9            add         param_2,sp,#0x10                        
ram:00019838    0120            movs        param_1,#0x1                            
ram:0001983a    a0df            svc         0xa0                                    
ram:0001983c    0028            cmp         param_1,#0x0                            
ram:0001983e    15d1            bne         LAB_0001986c                            
ram:00019840    2946            mov         param_2,r5                              
ram:00019842    2046            mov         param_1,r4                              
ram:00019844    02f002f9        bl          FUN_0001ba4c                            ;undefined8 FUN_0001ba4c(ushort * par...
ram:00019848    0028            cmp         param_1,#0x0                            
ram:0001984a    0fd1            bne         LAB_0001986c                            
ram:0001984c    2946            mov         param_2,r5                              
ram:0001984e    2046            mov         param_1,r4                              
ram:00019850    00f01aff        bl          FUN_0001a688                            ;undefined8 FUN_0001a688(ushort * par...
ram:00019854    0028            cmp         param_1,#0x0                            
ram:00019856    09d1            bne         LAB_0001986c                            
ram:00019858    2946            mov         param_2,r5                              
ram:0001985a    2046            mov         param_1,r4                              
ram:0001985c    02f0eef9        bl          FUN_0001bc3c                            ;undefined8 FUN_0001bc3c(ushort * par...
ram:00019860    0028            cmp         param_1,#0x0                            
ram:00019862    03d1            bne         LAB_0001986c                            
ram:00019864    2946            mov         param_2,r5                              
ram:00019866    2046            mov         param_1,r4                              
ram:00019868    fff7f6fc        bl          FUN_00019258                            ;undefined8 FUN_00019258(ushort * par...
                            LAB_0001986c:                 ;XREF[5,0]:   00019826,0001983e,0001984a,00019856
                                                          ;             00019862
ram:0001986c    05b0            add         sp,#0x14                                
ram:0001986e    30bd            pop         {r4,r5,pc}                              
                            PTR_DAT_00019870:             ;XREF[1,0]:   0001980e
ram:00019870    88c20100        addr        DAT_0001c288                            ;= EABCD123h
                            DAT_00019874:                 ;XREF[1,0]:   00019830
ram:00019874    23150000        undefined4  00001523h                               
                            ;************************************************************************************************
                            ;*                                           FUNCTION                                           *
                            ;************************************************************************************************
                            ;undefined FUN_00019878(int param_1, short * param_2)
          ;param_1       int                 r0                      
          ;param_2       short *             r1                      
                                                          ;XREF[1,0]:   000197e2
ram:00019878    30b4            push        {r4,r5}                                 
ram:0001987a    0a88            ldrh        r2,[param_2,#0x0]                       
ram:0001987c    102a            cmp         r2,#0x10                                
ram:0001987e    11d0            beq         LAB_000198a4                            
ram:00019880    112a            cmp         r2,#0x11                                
ram:00019882    11d0            beq         LAB_000198a8                            
ram:00019884    502a            cmp         r2,#0x50                                
ram:00019886    12d1            bne         LAB_000198ae                            
ram:00019888    cc88            ldrh        r4,[param_2,#0x6]                       
ram:0001988a    458a            ldrh        r5,[param_1,#0x12]                      
ram:0001988c    0a46            mov         r2,param_2                              
ram:0001988e    8b1d            adds        r3,param_2,#0x6                         
ram:00019890    2032            adds        r2,#0x20                                
ram:00019892    ac42            cmp         r4,r5                                   
ram:00019894    0dd1            bne         LAB_000198b2                            
ram:00019896    198b            ldrh        param_2,[r3,#0x18]                      
ram:00019898    0529            cmp         param_2,#0x5                            
ram:0001989a    0ad3            bcc         LAB_000198b2                            
ram:0001989c    856b            ldr         r5,[param_1,#0x38]                      
ram:0001989e    002d            cmp         r5,#0x0                                 
ram:000198a0    10d1            bne         LAB_000198c4                            
ram:000198a2    06e0            b           LAB_000198b2                            
                            LAB_000198a4:                 ;XREF[1,0]:   0001987e
ram:000198a4    8988            ldrh        param_2,[param_2,#0x4]                  
ram:000198a6    01e0            b           LAB_000198ac                            
                            LAB_000198a8:                 ;XREF[1,0]:   00019882
ram:000198a8    0021            movs        param_2,#0x0                            
ram:000198aa    c943            mvns        param_2,param_2                         
                            LAB_000198ac:                 ;XREF[1,0]:   000198a6
ram:000198ac    8186            strh        param_2,[param_1,#0x34]                 
                            LAB_000198ae:                 ;XREF[4,0]:   00019886,000198d2,000198d8,000198de
ram:000198ae    30bc            pop         {r4,r5}                                 
ram:000198b0    7047            bx          lr                                      
                            LAB_000198b2:                 ;XREF[3,0]:   00019894,0001989a,000198a2
ram:000198b2    418c            ldrh        param_2,[param_1,#0x22]                 
ram:000198b4    8c42            cmp         r4,param_2                              
ram:000198b6    0ad1            bne         LAB_000198ce                            
ram:000198b8    198b            ldrh        param_2,[r3,#0x18]                      
ram:000198ba    0529            cmp         param_2,#0x5                            
ram:000198bc    07d3            bcc         LAB_000198ce                            
ram:000198be    c56b            ldr         r5,[param_1,#0x3c]                      
ram:000198c0    002d            cmp         r5,#0x0                                 
ram:000198c2    04d0            beq         LAB_000198ce                            
                            LAB_000198c4:                 ;XREF[1,0]:   000198a0
ram:000198c4    ac46            mov         r12,r5                                  
ram:000198c6    30bc            pop         {r4,r5}                                 
ram:000198c8    c9b2            uxtb        param_2,param_2                         
ram:000198ca    1046            mov         param_1,r2                              
ram:000198cc    6047            bx          r12                                     
                            LAB_000198ce:                 ;XREF[3,0]:   000198b6,000198bc,000198c2
ram:000198ce    418d            ldrh        param_2,[param_1,#0x2a]                 
ram:000198d0    8c42            cmp         r4,param_2                              
ram:000198d2    ecd1            bne         LAB_000198ae                            
ram:000198d4    198b            ldrh        param_2,[r3,#0x18]                      
ram:000198d6    0529            cmp         param_2,#0x5                            
ram:000198d8    e9d3            bcc         LAB_000198ae                            
ram:000198da    036c            ldr         r3,[param_1,#0x40]                      
ram:000198dc    002b            cmp         r3,#0x0                                 
ram:000198de    e6d0            beq         LAB_000198ae                            
ram:000198e0    30bc            pop         {r4,r5}                                 
ram:000198e2    c9b2            uxtb        param_2,param_2                         
ram:000198e4    1046            mov         param_1,r2                              
ram:000198e6    1847            bx          r3                                      
                            ;************************************************************************************************
                            ;*                                           FUNCTION                                           *
                            ;************************************************************************************************
                            ;undefined FUN_000198e8(void)
          ;local_c       undefined4          -c                      ;XREF[1,0]:   00019906
          ;local_10      undefined4         -10                      ;XREF[2,0]:   00019904,0001990c
                                                          ;XREF[1,0]:   0001aa2a
ram:000198e8    1cb5            push        {r2,r3,r4,lr}                           
ram:000198ea    0023            movs        r3,#0x0                                 
ram:000198ec    4822            movs        r2,#0x48                                
ram:000198ee    1549            ldr         r1,[DAT_00019944]                       ;= 200024C4h
ram:000198f0    1320            movs        r0,#0x13                                
ram:000198f2    01f0f3ff        bl          FUN_0001b8dc                            ;undefined8 FUN_0001b8dc(int param_1,...
ram:000198f6    0028            cmp         r0,#0x0                                 
ram:000198f8    03d0            beq         LAB_00019902                            
ram:000198fa    0022            movs        r2,#0x0                                 
ram:000198fc    1146            mov         r1,r2                                   
ram:000198fe    fff7a9f9        bl          FUN_00018c54                            ;undefined FUN_00018c54(void)
                            LAB_00019902:                 ;XREF[1,0]:   000198f8
ram:00019902    0020            movs        r0,#0x0                                 
ram:00019904    0090            str         r0,[sp,#0x0]=>local_10                  
ram:00019906    0190            str         r0,[sp,#local_c+0x10]                   
ram:00019908    0120            movs        r0,#0x1                                 
ram:0001990a    6946            mov         r1,sp                                   
ram:0001990c    0870            strb        r0,[r1,#0x0]=>local_10                  
ram:0001990e    6846            mov         r0,sp                                   
ram:00019910    60df            svc         0x60                                    
ram:00019912    0028            cmp         r0,#0x0                                 
ram:00019914    03d0            beq         LAB_0001991e                            
ram:00019916    0022            movs        r2,#0x0                                 
ram:00019918    1146            mov         r1,r2                                   
ram:0001991a    fff79bf9        bl          FUN_00018c54                            ;undefined FUN_00018c54(void)
                            LAB_0001991e:                 ;XREF[1,0]:   00019914
ram:0001991e    0a48            ldr         r0=>FUN_000197d0+1,[PTR_FUN_000197d0+...;= 000197d1
ram:00019920    01f0d2ff        bl          FUN_0001b8c8                            ;undefined4 FUN_0001b8c8(int param_1)
ram:00019924    0028            cmp         r0,#0x0                                 
ram:00019926    03d0            beq         LAB_00019930                            
ram:00019928    0022            movs        r2,#0x0                                 
ram:0001992a    1146            mov         r1,r2                                   
ram:0001992c    fff792f9        bl          FUN_00018c54                            ;undefined FUN_00018c54(void)
                            LAB_00019930:                 ;XREF[1,0]:   00019926
ram:00019930    0648            ldr         r0=>LAB_0001bc34...,[PTR_LAB_0001bc34...;= 0001bc35
ram:00019932    01f0ebff        bl          FUN_0001b90c                            ;undefined4 FUN_0001b90c(int param_1)
ram:00019936    0028            cmp         r0,#0x0                                 
ram:00019938    03d0            beq         LAB_00019942                            
ram:0001993a    0022            movs        r2,#0x0                                 
ram:0001993c    1146            mov         r1,r2                                   
ram:0001993e    fff789f9        bl          FUN_00018c54                            ;undefined FUN_00018c54(void)
                            LAB_00019942:                 ;XREF[1,0]:   00019938
ram:00019942    1cbd            pop         {r2,r3,r4,pc}                           
                            DAT_00019944:                 ;XREF[1,0]:   000198ee
ram:00019944    c4240020        undefined4  200024C4h                               
                            PTR_FUN_000197d0+1_00019948:  ;XREF[1,0]:   0001991e
ram:00019948    d1970100        addr        FUN_000197d0+1                          
                            PTR_LAB_0001bc34+1+1_0001994c:;XREF[1,0]:   00019930
ram:0001994c    35bc0100        addr        LAB_0001bc34+1+1                        
                            ;************************************************************************************************
                            ;*                                           FUNCTION                                           *
                            ;************************************************************************************************
                            ;undefined FUN_00019950(uint param_1, undefined4 param_2, undefined4 param_3, undefined4 param_4)
          ;param_1       uint                r0                      
          ;param_2       undefined4          r1                      
          ;param_3       undefined4          r2                      
          ;param_4       undefined4          r3                      
          ;local_18      undefined2         -18                      ;XREF[1,0]:   00019958
                                                          ;XREF[1,0]:   0001a110
ram:00019950    f8b5            push        {param_4,r4,r5,r6,r7,lr}                
ram:00019952    0546            mov         r5,param_1                              
ram:00019954    0820            movs        param_1,#0x8                            
ram:00019956    6946            mov         param_2,sp                              
ram:00019958    0880            strh        param_1,[param_2,#0x0]=>local_18        
ram:0001995a    0123            movs        param_4,#0x1                            
ram:0001995c    6a46            mov         param_3,sp                              
ram:0001995e    1d49            ldr         param_2,[DAT_000199d4]                  ;= 2000290Ch
ram:00019960    2846            mov         param_1,r5                              
ram:00019962    aadf            svc         0xaa                                    
ram:00019964    1c48            ldr         param_1,[DAT_000199d8]                  ;= 200020D4h
ram:00019966    0068            ldr         param_1,[param_1,#0x0]=>DAT_200020d4    
ram:00019968    8047            blx         param_1                                 
ram:0001996a    b120            movs        param_1,#0xb1                           
ram:0001996c    44df            svc         0x44                                    
ram:0001996e    0028            cmp         param_1,#0x0                            
ram:00019970    03d0            beq         LAB_0001997a                            
ram:00019972    0022            movs        param_3,#0x0                            
ram:00019974    1146            mov         param_2,param_3                         
ram:00019976    fff76df9        bl          FUN_00018c54                            ;undefined FUN_00018c54(void)
                            LAB_0001997a:                 ;XREF[1,0]:   00019970
ram:0001997a    11df            svc         0x11                                    
ram:0001997c    0028            cmp         param_1,#0x0                            
ram:0001997e    03d0            beq         LAB_00019988                            
ram:00019980    0022            movs        param_3,#0x0                            
ram:00019982    1146            mov         param_2,param_3                         
ram:00019984    fff766f9        bl          FUN_00018c54                            ;undefined FUN_00018c54(void)
                            LAB_00019988:                 ;XREF[1,0]:   0001997e
ram:00019988    144c            ldr         r4,[DAT_000199dc]                       ;= 10001000h
ram:0001998a    6069            ldr         param_1,[r4,#offset DAT_10001014 &0xff] 
ram:0001998c    13df            svc         0x13                                    
ram:0001998e    0028            cmp         param_1,#0x0                            
ram:00019990    03d0            beq         LAB_0001999a                            
ram:00019992    0022            movs        param_3,#0x0                            
ram:00019994    1146            mov         param_2,param_3                         
ram:00019996    fff75df9        bl          FUN_00018c54                            ;undefined FUN_00018c54(void)
                            LAB_0001999a:                 ;XREF[1,0]:   00019990
ram:0001999a    2846            mov         param_1,r5                              
ram:0001999c    00f0bcfb        bl          FUN_0001a118                            ;undefined FUN_0001a118(uint param_1)
ram:000199a0    0121            movs        param_2,#0x1                            
ram:000199a2    0f4a            ldr         param_3,[DAT_000199e0]                  ;= E000E280h
ram:000199a4    8805            lsls        param_1,param_2,#0x16                   
ram:000199a6    1060            str         param_1,[param_3,#0x0]=>DAT_e000e280    
ram:000199a8    0e48            ldr         param_1,[DAT_000199e4]                  ;= E000E100h
ram:000199aa    0268            ldr         param_3,[param_1,#0x0]=>DAT_e000e100    
ram:000199ac    0d4b            ldr         param_4,[DAT_000199e4]                  ;= E000E100h
ram:000199ae    0020            movs        param_1,#0x0                            
ram:000199b0    8033            adds        param_4=>DAT_e000e180,#0x80             
                            LAB_000199b2:                 ;XREF[1,0]:   000199c8
ram:000199b2    0d46            mov         r5,param_2                              
ram:000199b4    8540            lsls        r5,param_1                              
ram:000199b6    1542            tst         r5,param_3                              
ram:000199b8    04d0            beq         LAB_000199c4                            
ram:000199ba    c606            lsls        r6,param_1,#0x1b                        
ram:000199bc    f60e            lsrs        r6,r6,#0x1b                             
ram:000199be    0d46            mov         r5,param_2                              
ram:000199c0    b540            lsls        r5,r6                                   
ram:000199c2    1d60            str         r5,[param_4,#0x0]=>DAT_e000e180         
                            LAB_000199c4:                 ;XREF[1,0]:   000199b8
ram:000199c4    401c            adds        param_1,param_1,#0x1                    
ram:000199c6    2028            cmp         param_1,#0x20                           
ram:000199c8    f3d3            bcc         LAB_000199b2                            
ram:000199ca    6069            ldr         param_1,[r4,#offset DAT_10001014 &0xff] 
ram:000199cc    00f00cf8        bl          FUN_000199e8                            ;undefined FUN_000199e8(undefined4 * ...
ram:000199d0    f8bd            pop         {param_4,r4,r5,r6,r7,pc}                
ram:000199d2    0000            movs        r0,r0                                   
                            DAT_000199d4:                 ;XREF[1,0]:   0001995e
ram:000199d4    0c290020        undefined4  2000290Ch                               
                            DAT_000199d8:                 ;XREF[1,0]:   00019964
ram:000199d8    d4200020        undefined4  200020D4h                               
                            DAT_000199dc:                 ;XREF[1,0]:   00019988
ram:000199dc    00100010        undefined4  10001000h                               
                            DAT_000199e0:                 ;XREF[1,0]:   000199a2
ram:000199e0    80e200e0        undefined4  E000E280h                               
                            DAT_000199e4:                 ;XREF[2,0]:   000199a8,000199ac
ram:000199e4    00e100e0        undefined4  E000E100h                               
                            ;************************************************************************************************
                            ;*                                           FUNCTION                                           *
                            ;************************************************************************************************
                            ;undefined FUN_000199e8(undefined4 * param_1)
          ;param_1       undefined4 *        r0                      
                                                          ;XREF[1,0]:   000199cc
ram:000199e8    10b5            push        {r4,lr}                                 
ram:000199ea    fef793fb        bl          FUN_00018114                            ;undefined FUN_00018114(undefined4 * ...
ram:000199ee    10bd            pop         {r4,pc}                                 
                            ;************************************************************************************************
                            ;*                                           FUNCTION                                           *
                            ;************************************************************************************************
                            ;undefined FUN_000199f0(int param_1, int param_2, undefined4 param_3, uint param_4)
          ;param_1       int                 r0                      
          ;param_2       int                 r1                      
          ;param_3       undefined4          r2                      
          ;param_4       uint                r3                      
ram:000199f0    70b5            push        {r4,r5,r6,lr}                           
ram:000199f2    0025            movs        r5,#0x0                                 
ram:000199f4    144c            ldr         r4,[DAT_00019a48]                       ;= 20002000h
ram:000199f6    0129            cmp         param_2,#0x1                            
ram:000199f8    0fd0            beq         LAB_00019a1a                            
ram:000199fa    0b28            cmp         param_1,#0xb                            
ram:000199fc    0cd1            bne         LAB_00019a18                            
ram:000199fe    a078            ldrb        param_1,[r4,#offset DAT_20002002 &0xff] 
ram:00019a00    0328            cmp         param_1,#0x3                            
ram:00019a02    09d2            bcs         LAB_00019a18                            
ram:00019a04    a570            strb        r5,[r4,#offset DAT_20002002 &0xff]      
ram:00019a06    2069            ldr         param_1,[r4,#offset DAT_20002010 &0xff] 
ram:00019a08    fff7fafb        bl          FUN_00019200                            ;undefined4 FUN_00019200(uint param_1...
                            LAB_00019a0c:                 ;XREF[1,0]:   00019a44
ram:00019a0c    0028            cmp         param_1,#0x0                            
ram:00019a0e    03d0            beq         LAB_00019a18                            
ram:00019a10    0022            movs        param_3,#0x0                            
ram:00019a12    1146            mov         param_2,param_3                         
ram:00019a14    fff71ef9        bl          FUN_00018c54                            ;undefined FUN_00018c54(void)
                            LAB_00019a18:                 ;XREF[4,0]:   000199fc,00019a02,00019a0e,00019a1c
ram:00019a18    70bd            pop         {r4,r5,r6,pc}                           
                            LAB_00019a1a:                 ;XREF[1,0]:   000199f8
ram:00019a1a    0b28            cmp         param_1,#0xb                            
ram:00019a1c    fcd1            bne         LAB_00019a18                            
ram:00019a1e    0b48            ldr         param_1=>DAT_2000268c,[DAT_00019a4c]    ;= 2000268Ch
ram:00019a20    8168            ldr         param_2,[param_1,#0x8]=>DAT_20002694    
ram:00019a22    c907            lsls        param_2,param_2,#0x1f                   
ram:00019a24    04d0            beq         LAB_00019a30                            
ram:00019a26    8168            ldr         param_2,[param_1,#0x8]=>DAT_20002694    
ram:00019a28    0222            movs        param_3,#0x2                            
ram:00019a2a    1143            orrs        param_2,param_3                         
ram:00019a2c    8160            str         param_2,[param_1,#0x8]=>DAT_20002694    
ram:00019a2e    70bd            pop         {r4,r5,r6,pc}                           
                            LAB_00019a30:                 ;XREF[1,0]:   00019a24
ram:00019a30    0220            movs        param_1,#0x2                            
ram:00019a32    01f0f3fe        bl          FUN_0001b81c                            ;undefined4 FUN_0001b81c(int param_1)
ram:00019a36    a570            strb        r5,[r4,#offset DAT_20002002 &0xff]      
ram:00019a38    0121            movs        param_2,#0x1                            
ram:00019a3a    0022            movs        param_3,#0x0                            
ram:00019a3c    c903            lsls        param_2,param_2,#0xf                    
ram:00019a3e    2069            ldr         param_1,[r4,#offset DAT_20002010 &0xff] 
ram:00019a40    fff79cfb        bl          FUN_0001917c                            ;longlong FUN_0001917c(uint param_1, ...
ram:00019a44    e2e7            b           LAB_00019a0c                            
ram:00019a46    0000            movs        r0,r0                                   
                            DAT_00019a48:                 ;XREF[1,0]:   000199f4
ram:00019a48    00200020        undefined4  20002000h                               
                            DAT_00019a4c:                 ;XREF[1,0]:   00019a1e
ram:00019a4c    8c260020        undefined4  2000268Ch                               
                            ;************************************************************************************************
                            ;*                                           FUNCTION                                           *
                            ;************************************************************************************************
                            ;undefined FUN_00019a50(undefined * param_1, int param_2)
          ;param_1       undefined *         r0                      
          ;param_2       int                 r1                      
                                                          ;XREF[1,0]:   0001a0c6
ram:00019a50    0129            cmp         param_2,#0x1                            
ram:00019a52    05d0            beq         LAB_00019a60                            
ram:00019a54    0029            cmp         param_2,#0x0                            
ram:00019a56    08d1            bne         LAB_00019a6a                            
ram:00019a58    0278            ldrb        r2,[param_1,#0x0]                       
ram:00019a5a    4368            ldr         r3,[param_1,#0x4]                       
ram:00019a5c    1046            mov         param_1,r2                              
ram:00019a5e    1847            bx          r3                                      
                            LAB_00019a60:                 ;XREF[1,0]:   00019a52
ram:00019a60    0378            ldrb        r3,[param_1,#0x0]                       
ram:00019a62    4268            ldr         r2,[param_1,#0x4]                       
ram:00019a64    0121            movs        param_2,#0x1                            
ram:00019a66    1846            mov         param_1,r3                              
ram:00019a68    1047            bx          r2                                      
                            LAB_00019a6a:                 ;XREF[1,0]:   00019a56
ram:00019a6a    7047            bx          lr                                      
                            ;************************************************************************************************
                            ;*                                           FUNCTION                                           *
                            ;************************************************************************************************
                            ;undefined4 FUN_00019a6c(void)
                                                          ;XREF[1,0]:   00019e9a
ram:00019a6c    70b5            push        {r4,r5,r6,lr}                           
ram:00019a6e    0420            movs        r0,#0x4                                 
ram:00019a70    01f0acf9        bl          FUN_0001adcc                            ;uint FUN_0001adcc(uint param_1)
ram:00019a74    c4b2            uxtb        r4,r0                                   
ram:00019a76    0520            movs        r0,#0x5                                 
ram:00019a78    01f0a8f9        bl          FUN_0001adcc                            ;uint FUN_0001adcc(uint param_1)
ram:00019a7c    c2b2            uxtb        r2,r0                                   
ram:00019a7e    2248            ldr         r0,[DAT_00019b08]                       ;= 2000201Ch
ram:00019a80    0168            ldr         r1,[r0,#0x0]=>DAT_2000201c              
ram:00019a82    0b07            lsls        r3,r1,#0x1c                             
ram:00019a84    0421            movs        r1,#0x4                                 
ram:00019a86    002b            cmp         r3,#0x0                                 
ram:00019a88    01db            blt         LAB_00019a8e                            
ram:00019a8a    012c            cmp         r4,#0x1                                 
ram:00019a8c    15d0            beq         LAB_00019aba                            
                            LAB_00019a8e:                 ;XREF[1,0]:   00019a88
ram:00019a8e    0368            ldr         r3,[r0,#0x0]=>DAT_2000201c              
ram:00019a90    dd06            lsls        r5,r3,#0x1b                             
ram:00019a92    1e4b            ldr         r3,[DAT_00019b0c]                       ;= 00030000h
ram:00019a94    01d4            bmi         LAB_00019a9a                            
ram:00019a96    012a            cmp         r2,#0x1                                 
ram:00019a98    16d0            beq         LAB_00019ac8                            
                            LAB_00019a9a:                 ;XREF[1,0]:   00019a94
ram:00019a9a    0568            ldr         r5,[r0,#0x0]=>DAT_2000201c              
ram:00019a9c    ed04            lsls        r5,r5,#0x13                             
ram:00019a9e    2d0e            lsrs        r5,r5,#0x18                             
ram:00019aa0    642d            cmp         r5,#0x64                                
ram:00019aa2    2fd3            bcc         LAB_00019b04                            
ram:00019aa4    0568            ldr         r5,[r0,#0x0]=>DAT_2000201c              
ram:00019aa6    2d07            lsls        r5,r5,#0x1c                             
ram:00019aa8    01d5            bpl         LAB_00019aae                            
ram:00019aaa    012c            cmp         r4,#0x1                                 
ram:00019aac    09d0            beq         LAB_00019ac2                            
                            LAB_00019aae:                 ;XREF[1,0]:   00019aa8
ram:00019aae    0468            ldr         r4,[r0,#0x0]=>DAT_2000201c              
ram:00019ab0    e406            lsls        r4,r4,#0x1b                             
ram:00019ab2    18d5            bpl         LAB_00019ae6                            
ram:00019ab4    012a            cmp         r2,#0x1                                 
ram:00019ab6    18d0            beq         LAB_00019aea                            
ram:00019ab8    15e0            b           LAB_00019ae6                            
                            LAB_00019aba:                 ;XREF[1,0]:   00019a8c
ram:00019aba    0268            ldr         r2,[r0,#0x0]=>DAT_2000201c              
ram:00019abc    0823            movs        r3,#0x8                                 
ram:00019abe    1a43            orrs        r2,r3                                   
ram:00019ac0    0260            str         r2,[r0,#0x0]=>DAT_2000201c              
                            LAB_00019ac2:                 ;XREF[1,0]:   00019aac
ram:00019ac2    0268            ldr         r2,[r0,#0x0]=>DAT_2000201c              
ram:00019ac4    0a43            orrs        r2,r1                                   
ram:00019ac6    0de0            b           LAB_00019ae4                            
                            LAB_00019ac8:                 ;XREF[1,0]:   00019a98
ram:00019ac8    0268            ldr         r2,[r0,#0x0]=>DAT_2000201c              
ram:00019aca    0468            ldr         r4,[r0,#0x0]=>DAT_2000201c              
ram:00019acc    9203            lsls        r2,r2,#0xe                              
ram:00019ace    920f            lsrs        r2,r2,#0x1e                             
ram:00019ad0    d243            mvns        r2,r2                                   
ram:00019ad2    9207            lsls        r2,r2,#0x1e                             
ram:00019ad4    920b            lsrs        r2,r2,#0xe                              
ram:00019ad6    9c43            bics        r4,r3                                   
ram:00019ad8    1443            orrs        r4,r2                                   
ram:00019ada    0460            str         r4,[r0,#0x0]=>DAT_2000201c              
ram:00019adc    0268            ldr         r2,[r0,#0x0]=>DAT_2000201c              
ram:00019ade    1023            movs        r3,#0x10                                
ram:00019ae0    1a43            orrs        r2,r3                                   
ram:00019ae2    0be0            b           LAB_00019afc                            
                            LAB_00019ae4:                 ;XREF[2,0]:   00019ac6,00019b02
ram:00019ae4    0260            str         r2,[r0,#0x0]=>DAT_2000201c              
                            LAB_00019ae6:                 ;XREF[2,0]:   00019ab2,00019ab8
ram:00019ae6    0120            movs        r0,#0x1                                 
ram:00019ae8    70bd            pop         {r4,r5,r6,pc}                           
                            LAB_00019aea:                 ;XREF[1,0]:   00019ab6
ram:00019aea    0268            ldr         r2,[r0,#0x0]=>DAT_2000201c              
ram:00019aec    9203            lsls        r2,r2,#0xe                              
ram:00019aee    920f            lsrs        r2,r2,#0x1e                             
ram:00019af0    d243            mvns        r2,r2                                   
ram:00019af2    9207            lsls        r2,r2,#0x1e                             
ram:00019af4    940b            lsrs        r4,r2,#0xe                              
ram:00019af6    0268            ldr         r2,[r0,#0x0]=>DAT_2000201c              
ram:00019af8    9a43            bics        r2,r3                                   
ram:00019afa    2243            orrs        r2,r4                                   
                            LAB_00019afc:                 ;XREF[1,0]:   00019ae2
ram:00019afc    0260            str         r2,[r0,#0x0]=>DAT_2000201c              
ram:00019afe    0268            ldr         r2,[r0,#0x0]=>DAT_2000201c              
ram:00019b00    8a43            bics        r2,r1                                   
ram:00019b02    efe7            b           LAB_00019ae4                            
                            LAB_00019b04:                 ;XREF[1,0]:   00019aa2
ram:00019b04    0020            movs        r0,#0x0                                 
ram:00019b06    70bd            pop         {r4,r5,r6,pc}                           
                            DAT_00019b08:                 ;XREF[1,0]:   00019a7e
ram:00019b08    1c200020        undefined4  2000201Ch                               
                            DAT_00019b0c:                 ;XREF[1,0]:   00019a92
ram:00019b0c    00000300        undefined4  00030000h                               
                            ;************************************************************************************************
                            ;*                                           FUNCTION                                           *
                            ;************************************************************************************************
                            ;undefined4 FUN_00019b10(int param_1, byte * param_2, int param_3)
          ;param_1       int                 r0                      
          ;param_2       byte *              r1                      
          ;param_3       int                 r2                      
ram:00019b10    10b5            push        {r4,lr}                                 
ram:00019b12    0346            mov         r3,param_1                              
ram:00019b14    012a            cmp         param_3,#0x1                            
ram:00019b16    16d1            bne         LAB_00019b46                            
ram:00019b18    0978            ldrb        param_2,[param_2,#0x0]                  
ram:00019b1a    0846            mov         param_1,param_2                         
ram:00019b1c    02f0abfb        bl          FUN_0001c276                            ;undefined4 FUN_0001c276(uint param_1)
ram:00019b20    0028            cmp         param_1,#0x0                            
ram:00019b22    10d0            beq         LAB_00019b46                            
ram:00019b24    4806            lsls        param_1,param_2,#0x19                   
ram:00019b26    000e            lsrs        param_1,param_1,#0x18                   
ram:00019b28    8100            lsls        param_2,param_1,#0x2                    
ram:00019b2a    4118            adds        param_2,param_1,param_2                 
ram:00019b2c    401c            adds        param_1,param_1,#0x1                    
ram:00019b2e    c918            adds        param_2,param_2,r3                      
ram:00019b30    c4b2            uxtb        r4,param_1                              
ram:00019b32    0846            mov         param_1,param_2                         
ram:00019b34    fff734f8        bl          FUN_00018ba0                            ;undefined FUN_00018ba0(int param_1)
ram:00019b38    a000            lsls        param_1,r4,#0x2                         
ram:00019b3a    2018            adds        param_1,r4,param_1                      
ram:00019b3c    c018            adds        param_1,param_1,r3                      
ram:00019b3e    fff72ff8        bl          FUN_00018ba0                            ;undefined FUN_00018ba0(int param_1)
ram:00019b42    0020            movs        param_1,#0x0                            
ram:00019b44    10bd            pop         {r4,pc}                                 
                            LAB_00019b46:                 ;XREF[2,0]:   00019b16,00019b22
ram:00019b46    0220            movs        param_1,#0x2                            
ram:00019b48    10bd            pop         {r4,pc}                                 
ram:00019b4a    0000            movs        r0,r0                                   
                            ;************************************************************************************************
                            ;*                                           FUNCTION                                           *
                            ;************************************************************************************************
                            ;int FUN_00019b4c(void)
                                                          ;XREF[3,0]:   00019c56,00019cc6,0001b450
ram:00019b4c    f8b5            push        {r3,r4,r5,r6,r7,lr}                     
ram:00019b4e    3b49            ldr         r1,[DAT_00019c3c]                       ;= 200027ECh
ram:00019b50    1423            movs        r3,#0x14                                
ram:00019b52    0a78            ldrb        r2,[r1,#0x0]=>DAT_200027ec              
ram:00019b54    0f20            movs        r0,#0xf                                 
ram:00019b56    5a43            muls        r2,r3                                   
ram:00019b58    5418            adds        r4,r2,r1                                
ram:00019b5a    2179            ldrb        r1,[r4,#0x4]                            
ram:00019b5c    2569            ldr         r5,[r4,#0x10]                           
ram:00019b5e    384e            ldr         r6,[DAT_00019c40]                       ;= 200020C8h
ram:00019b60    241d            adds        r4,r4,#0x4                              
ram:00019b62    0229            cmp         r1,#0x2                                 
ram:00019b64    1ad0            beq         LAB_00019b9c                            
ram:00019b66    0429            cmp         r1,#0x4                                 
ram:00019b68    2ed0            beq         LAB_00019bc8                            
ram:00019b6a    0529            cmp         r1,#0x5                                 
ram:00019b6c    64d1            bne         LAB_00019c38                            
ram:00019b6e    01f0fdfa        bl          FUN_0001b16c                            ;uint FUN_0001b16c(void)
ram:00019b72    0146            mov         r1,r0                                   
ram:00019b74    2846            mov         r0,r5                                   
ram:00019b76    fef70bfb        bl          FUN_00018190                            ;int FUN_00018190(uint param_1, uint ...
ram:00019b7a    0646            mov         r6,r0                                   
ram:00019b7c    01f0f6fa        bl          FUN_0001b16c                            ;uint FUN_0001b16c(void)
ram:00019b80    0146            mov         r1,r0                                   
ram:00019b82    a088            ldrh        r0,[r4,#0x4]                            
ram:00019b84    7143            muls        r1,r6                                   
ram:00019b86    4019            adds        r0,r0,r5                                
ram:00019b88    401a            subs        r0,r0,r1                                
ram:00019b8a    8708            lsrs        r7,r0,#0x2                              
ram:00019b8c    01f0eefa        bl          FUN_0001b16c                            ;uint FUN_0001b16c(void)
ram:00019b90    711c            adds        r1,r6,#0x1                              
ram:00019b92    4843            muls        r0,r1                                   
ram:00019b94    a188            ldrh        r1,[r4,#0x4]                            
ram:00019b96    6288            ldrh        r2,[r4,#0x2]                            
ram:00019b98    8918            adds        r1,r1,r2                                
ram:00019b9a    36e0            b           LAB_00019c0a                            
                            LAB_00019b9c:                 ;XREF[1,0]:   00019b64
ram:00019b9c    b088            ldrh        r0,[r6,#0x4]=>DAT_200020cc              
ram:00019b9e    2269            ldr         r2,[r4,#0x10]                           
ram:00019ba0    8002            lsls        r0,r0,#0xa                              
ram:00019ba2    6188            ldrh        r1,[r4,#0x2]                            
ram:00019ba4    1318            adds        r3,r2,r0                                
ram:00019ba6    091a            subs        r1,r1,r0                                
ram:00019ba8    a288            ldrh        r2,[r4,#0x4]                            
ram:00019baa    2818            adds        r0,r5,r0                                
ram:00019bac    1018            adds        r0,r2,r0                                
ram:00019bae    0122            movs        r2,#0x1                                 
ram:00019bb0    9202            lsls        r2,r2,#0xa                              
ram:00019bb2    9142            cmp         r1,r2                                   
ram:00019bb4    03d2            bcs         LAB_00019bbe                            
ram:00019bb6    8a08            lsrs        r2,r1,#0x2                              
ram:00019bb8    1946            mov         r1,r3                                   
ram:00019bba    29df            svc         0x29                                    
ram:00019bbc    37e0            b           LAB_00019c2e                            
                            LAB_00019bbe:                 ;XREF[1,0]:   00019bb4
ram:00019bbe    ff22            movs        r2,#0xff                                
ram:00019bc0    0132            adds        r2,#0x1                                 
ram:00019bc2    1946            mov         r1,r3                                   
ram:00019bc4    29df            svc         0x29                                    
ram:00019bc6    32e0            b           LAB_00019c2e                            
                            LAB_00019bc8:                 ;XREF[1,0]:   00019b68
ram:00019bc8    a268            ldr         r2,[r4,#0x8]                            
ram:00019bca    1c48            ldr         r0,[DAT_00019c3c]                       ;= 200027ECh
ram:00019bcc    1101            lsls        r1,r2,#0x4                              
ram:00019bce    cc30            adds        r0,#0xcc                                
ram:00019bd0    0918            adds        r1,r1,r0                                
ram:00019bd2    0889            ldrh        r0,[r1,#0x8]=>DAT_200028c0              
ram:00019bd4    4b89            ldrh        r3,[r1,#0xa]=>DAT_200028c2              
ram:00019bd6    4968            ldr         r1,[r1,#0x4]                            
ram:00019bd8    a942            cmp         r1,r5                                   
ram:00019bda    03d1            bne         LAB_00019be4                            
ram:00019bdc    6188            ldrh        r1,[r4,#0x2]                            
ram:00019bde    5843            muls        r0,r3                                   
ram:00019be0    8842            cmp         r0,r1                                   
ram:00019be2    1bd0            beq         LAB_00019c1c                            
                            LAB_00019be4:                 ;XREF[1,0]:   00019bda
ram:00019be4    032a            cmp         r2,#0x3                                 
ram:00019be6    19d0            beq         LAB_00019c1c                            
ram:00019be8    01f0c0fa        bl          FUN_0001b16c                            ;uint FUN_0001b16c(void)
ram:00019bec    0146            mov         r1,r0                                   
ram:00019bee    2846            mov         r0,r5                                   
ram:00019bf0    fef7cefa        bl          FUN_00018190                            ;int FUN_00018190(uint param_1, uint ...
ram:00019bf4    0646            mov         r6,r0                                   
ram:00019bf6    01f0b9fa        bl          FUN_0001b16c                            ;uint FUN_0001b16c(void)
ram:00019bfa    7043            muls        r0,r6                                   
ram:00019bfc    281a            subs        r0,r5,r0                                
ram:00019bfe    8708            lsrs        r7,r0,#0x2                              
ram:00019c00    01f0b4fa        bl          FUN_0001b16c                            ;uint FUN_0001b16c(void)
ram:00019c04    711c            adds        r1,r6,#0x1                              
ram:00019c06    4843            muls        r0,r1                                   
ram:00019c08    6188            ldrh        r1,[r4,#0x2]                            
                            LAB_00019c0a:                 ;XREF[1,0]:   00019b9a
ram:00019c0a    3a46            mov         r2,r7                                   
ram:00019c0c    4919            adds        r1,r1,r5                                
ram:00019c0e    401a            subs        r0,r0,r1                                
ram:00019c10    8308            lsrs        r3,r0,#0x2                              
ram:00019c12    3146            mov         r1,r6                                   
ram:00019c14    2046            mov         r0,r4                                   
ram:00019c16    01f083fe        bl          FUN_0001b920                            ;undefined FUN_0001b920(undefined4 pa...
ram:00019c1a    08e0            b           LAB_00019c2e                            
                            LAB_00019c1c:                 ;XREF[2,0]:   00019be2,00019be6
ram:00019c1c    01f0a6fa        bl          FUN_0001b16c                            ;uint FUN_0001b16c(void)
ram:00019c20    0146            mov         r1,r0                                   
ram:00019c22    2846            mov         r0,r5                                   
ram:00019c24    fef7b4fa        bl          FUN_00018190                            ;int FUN_00018190(uint param_1, uint ...
ram:00019c28    b188            ldrh        r1,[r6,#0x4]=>DAT_200020cc              
ram:00019c2a    4018            adds        r0,r0,r1                                
ram:00019c2c    28df            svc         0x28                                    
                            LAB_00019c2e:                 ;XREF[3,0]:   00019bbc,00019bc6,00019c1a
ram:00019c2e    0028            cmp         r0,#0x0                                 
ram:00019c30    02d1            bne         LAB_00019c38                            
ram:00019c32    0249            ldr         r1,[DAT_00019c3c]                       ;= 200027ECh
ram:00019c34    0122            movs        r2,#0x1                                 
ram:00019c36    8a70            strb        r2,[r1,#0x2]=>DAT_200027ee              
                            LAB_00019c38:                 ;XREF[2,0]:   00019b6c,00019c30
ram:00019c38    f8bd            pop         {r3,r4,r5,r6,r7,pc}                     
ram:00019c3a    0000            movs        r0,r0                                   
                            DAT_00019c3c:                 ;XREF[3,0]:   00019b4e,00019bca,00019c32
ram:00019c3c    ec270020        undefined4  200027ECh                               
                            DAT_00019c40:                 ;XREF[1,0]:   00019b5e
ram:00019c40    c8200020        undefined4  200020C8h                               
                            ;************************************************************************************************
                            ;*                                           FUNCTION                                           *
                            ;************************************************************************************************
                            ;int FUN_00019c44(void)
                                                          ;XREF[2,0]:   0001b46a,0001b50e
ram:00019c44    10b5            push        {r4,lr}                                 
ram:00019c46    0849            ldr         r1,[DAT_00019c68]                       ;= 200027ECh
ram:00019c48    0020            movs        r0,#0x0                                 
ram:00019c4a    4a78            ldrb        r2,[r1,#0x1]=>DAT_200027ed              
ram:00019c4c    002a            cmp         r2,#0x0                                 
ram:00019c4e    09d0            beq         LAB_00019c64                            
ram:00019c50    8978            ldrb        r1,[r1,#0x2]=>DAT_200027ee              
ram:00019c52    0029            cmp         r1,#0x0                                 
ram:00019c54    06d1            bne         LAB_00019c64                            
ram:00019c56    fff779ff        bl          FUN_00019b4c                            ;int FUN_00019b4c(void)
ram:00019c5a    0028            cmp         r0,#0x0                                 
ram:00019c5c    02d0            beq         LAB_00019c64                            
ram:00019c5e    1128            cmp         r0,#0x11                                
ram:00019c60    00d1            bne         LAB_00019c64                            
ram:00019c62    0020            movs        r0,#0x0                                 
                            LAB_00019c64:                 ;XREF[4,0]:   00019c4e,00019c54,00019c5c,00019c60
ram:00019c64    10bd            pop         {r4,pc}                                 
ram:00019c66    0000            movs        r0,r0                                   
                            DAT_00019c68:                 ;XREF[1,0]:   00019c46
ram:00019c68    ec270020        undefined4  200027ECh                               
                            ;************************************************************************************************
                            ;*                                           FUNCTION                                           *
                            ;************************************************************************************************
                            ;undefined FUN_00019c6c(int param_1)
          ;param_1       int                 r0                      
                                                          ;XREF[2,0]:   0001b18e,0001b50a
ram:00019c6c    1422            movs        r2,#0x14                                
ram:00019c6e    5043            muls        param_1,r2                              
ram:00019c70    054a            ldr         r2,[DAT_00019c88]                       ;= 200027ECh
ram:00019c72    0021            movs        r1,#0x0                                 
ram:00019c74    8018            adds        param_1,param_1,r2                      
ram:00019c76    0171            strb        r1,[param_1,#0x4]                       
ram:00019c78    c180            strh        r1,[param_1,#0x6]                       
ram:00019c7a    0222            movs        r2,#0x2                                 
ram:00019c7c    0161            str         r1,[param_1,#0x10]                      
ram:00019c7e    c260            str         r2,[param_1,#0xc]                       
ram:00019c80    4161            str         r1,[param_1,#0x14]                      
ram:00019c82    0181            strh        r1,[param_1,#0x8]                       
ram:00019c84    7047            bx          lr                                      
ram:00019c86    0000            movs        r0,r0                                   
                            DAT_00019c88:                 ;XREF[1,0]:   00019c70
ram:00019c88    ec270020        undefined4  200027ECh                               
                            ;************************************************************************************************
                            ;*                                           FUNCTION                                           *
                            ;************************************************************************************************
                            ;int FUN_00019c8c(char param_1, undefined4 * param_2, undefined4 param_3, undefined2 param_4, undefined2 param_5)
          ;param_1       char                r0                      
          ;param_2       undefined4 *        r1                      
          ;param_3       undefined4          r2                      
          ;param_4       undefined2          r3                      
          ;param_5       undefined2           0                      ;XREF[1,0]:   00019c90
                                                          ;XREF[2,0]:   0001b13a,0001b402
ram:00019c8c    f8b5            push        {param_4,r4,r5,r6,r7,lr}                
ram:00019c8e    134c            ldr         r4,[DAT_00019cdc]                       ;= 200027ECh
ram:00019c90    069e            ldr         r6,[sp,#param_5+0x18]                   
ram:00019c92    6578            ldrb        r5,[r4,#0x1]=>DAT_200027ed              
ram:00019c94    0a2d            cmp         r5,#0xa                                 
ram:00019c96    1fd0            beq         LAB_00019cd8                            
ram:00019c98    2778            ldrb        r7,[r4,#0x0]=>DAT_200027ec              
ram:00019c9a    7d19            adds        r5,r7,r5                                
ram:00019c9c    edb2            uxtb        r5,r5                                   
ram:00019c9e    0a2d            cmp         r5,#0xa                                 
ram:00019ca0    01d3            bcc         LAB_00019ca6                            
ram:00019ca2    0a3d            subs        r5,#0xa                                 
ram:00019ca4    edb2            uxtb        r5,r5                                   
                            LAB_00019ca6:                 ;XREF[1,0]:   00019ca0
ram:00019ca6    1427            movs        r7,#0x14                                
ram:00019ca8    7d43            muls        r5,r7                                   
ram:00019caa    2d19            adds        r5,r5,r4                                
ram:00019cac    2871            strb        param_1,[r5,#0x4]                       
ram:00019cae    0020            movs        param_1,#0x0                            
ram:00019cb0    6871            strb        param_1,[r5,#0x5]                       
ram:00019cb2    6a61            str         param_3,[r5,#0x14]                      
ram:00019cb4    03c9            ldmia       param_2,{param_1,param_2}               
ram:00019cb6    2961            str         param_2,[r5,#0x10]                      
ram:00019cb8    e860            str         param_1,[r5,#0xc]                       
ram:00019cba    eb80            strh        param_4,[r5,#0x6]                       
ram:00019cbc    2e81            strh        r6,[r5,#0x8]                            
ram:00019cbe    a178            ldrb        param_2,[r4,#0x2]=>DAT_200027ee         
ram:00019cc0    0020            movs        param_1,#0x0                            
ram:00019cc2    0029            cmp         param_2,#0x0                            
ram:00019cc4    04d1            bne         LAB_00019cd0                            
ram:00019cc6    fff741ff        bl          FUN_00019b4c                            ;int FUN_00019b4c(void)
ram:00019cca    1128            cmp         param_1,#0x11                           
ram:00019ccc    00d1            bne         LAB_00019cd0                            
ram:00019cce    0020            movs        param_1,#0x0                            
                            LAB_00019cd0:                 ;XREF[2,0]:   00019cc4,00019ccc
ram:00019cd0    6178            ldrb        param_2,[r4,#0x1]=>DAT_200027ed         
ram:00019cd2    491c            adds        param_2,param_2,#0x1                    
ram:00019cd4    6170            strb        param_2,[r4,#0x1]=>DAT_200027ed         
ram:00019cd6    f8bd            pop         {param_4,r4,r5,r6,r7,pc}                
                            LAB_00019cd8:                 ;XREF[1,0]:   00019c96
ram:00019cd8    0420            movs        param_1,#0x4                            
ram:00019cda    f8bd            pop         {param_4,r4,r5,r6,r7,pc}                
                            DAT_00019cdc:                 ;XREF[1,0]:   00019c8e
ram:00019cdc    ec270020        undefined4  200027ECh                               
                            ;************************************************************************************************
                            ;*                                           FUNCTION                                           *
                            ;************************************************************************************************
                            ;undefined FUN_00019ce0(void)
                                                          ;XREF[1,0]:   0001875c
ram:00019ce0    f8b5            push        {r3,r4,r5,r6,r7,lr}                     
ram:00019ce2    2248            ldr         r0=>DAT_20002110,[DAT_00019d6c]         ;= 20002110h
ram:00019ce4    0169            ldr         r1,[r0,#0x10]=>DAT_20002120             
ram:00019ce6    4a1c            adds        r2,r1,#0x1                              
ram:00019ce8    3dd0            beq         LAB_00019d66                            
ram:00019cea    2422            movs        r2,#0x24                                
ram:00019cec    5143            muls        r1,r2                                   
ram:00019cee    8268            ldr         r2,[r0,#0x8]=>DAT_20002118              
ram:00019cf0    8918            adds        r1,r1,r2                                
ram:00019cf2    4e68            ldr         r6,[r1,#0x4]                            
ram:00019cf4    1e49            ldr         r1,[DAT_00019d70]                       ;= 40011500h
ram:00019cf6    4c68            ldr         r4,[r1,#offset DAT_40011504 &0xff]      
ram:00019cf8    4769            ldr         r7,[r0,#0x14]=>DAT_20002124             
ram:00019cfa    0079            ldrb        r0,[r0,#0x4]=>DAT_20002114              
ram:00019cfc    e11b            subs        r1,r4,r7                                
ram:00019cfe    0d02            lsls        r5,r1,#0x8                              
ram:00019d00    2d0a            lsrs        r5,r5,#0x8                              
ram:00019d02    ed1c            adds        r5,r5,#0x3                              
ram:00019d04    0028            cmp         r0,#0x0                                 
ram:00019d06    14d1            bne         LAB_00019d32                            
ram:00019d08    0120            movs        r0,#0x1                                 
ram:00019d0a    1a4a            ldr         r2,[DAT_00019d74]                       ;= 40011340h
ram:00019d0c    0004            lsls        r0,r0,#0x10                             
ram:00019d0e    5060            str         r0,[r2,#0x4]=>DAT_40011344              
ram:00019d10    184a            ldr         r2,[DAT_00019d74]                       ;= 40011340h
ram:00019d12    403a            subs        r2,#0x40                                
ram:00019d14    5060            str         r0,[r2,#offset DAT_40011304 &0xff]      
ram:00019d16    1849            ldr         r1,[DAT_00019d78]                       ;= E000E280h
ram:00019d18    4000            lsls        r0,r0,#0x1                              
ram:00019d1a    0860            str         r0,[r1,#0x0]=>DAT_e000e280              
ram:00019d1c    1749            ldr         r1,[DAT_00019d7c]                       ;= E000E100h
ram:00019d1e    0860            str         r0,[r1,#0x0]=>DAT_e000e100              
ram:00019d20    1749            ldr         r1=>DAT_40011000,[DAT_00019d80]         ;= 40011000h
ram:00019d22    0120            movs        r0,#0x1                                 
ram:00019d24    0860            str         r0,[r1,#0x0]=>DAT_40011000              
ram:00019d26    2f20            movs        r0,#0x2f                                
ram:00019d28    fef7e4f9        bl          FUN_000180f4                            ;undefined FUN_000180f4(int param_1)
ram:00019d2c    0f49            ldr         r1,[DAT_00019d6c]                       ;= 20002110h
ram:00019d2e    0120            movs        r0,#0x1                                 
ram:00019d30    0871            strb        r0,[r1,#0x4]=>DAT_20002114              
                            LAB_00019d32:                 ;XREF[1,0]:   00019d06
ram:00019d32    b542            cmp         r5,r6                                   
ram:00019d34    00d2            bcs         LAB_00019d38                            
ram:00019d36    3546            mov         r5,r6                                   
                            LAB_00019d38:                 ;XREF[1,0]:   00019d34
ram:00019d38    e819            adds        r0,r5,r7                                
ram:00019d3a    0002            lsls        r0,r0,#0x8                              
ram:00019d3c    0c49            ldr         r1,[DAT_00019d70]                       ;= 40011500h
ram:00019d3e    000a            lsrs        r0,r0,#0x8                              
ram:00019d40    4031            adds        r1,#0x40                                
ram:00019d42    0860            str         r0,[r1,#0x0]=>DAT_40011540              
ram:00019d44    0a49            ldr         r1,[DAT_00019d70]                       ;= 40011500h
ram:00019d46    4968            ldr         r1,[r1,#offset DAT_40011504 &0xff]      
ram:00019d48    001b            subs        r0,r0,r4                                
ram:00019d4a    091b            subs        r1,r1,r4                                
ram:00019d4c    0902            lsls        r1,r1,#0x8                              
ram:00019d4e    090a            lsrs        r1,r1,#0x8                              
ram:00019d50    0002            lsls        r0,r0,#0x8                              
ram:00019d52    000a            lsrs        r0,r0,#0x8                              
ram:00019d54    c91c            adds        r1,r1,#0x3                              
ram:00019d56    8142            cmp         r1,r0                                   
ram:00019d58    04d9            bls         LAB_00019d64                            
ram:00019d5a    0120            movs        r0,#0x1                                 
ram:00019d5c    0649            ldr         r1,[DAT_00019d78]                       ;= E000E280h
ram:00019d5e    4004            lsls        r0,r0,#0x11                             
ram:00019d60    8039            subs        r1,#0x80                                
ram:00019d62    0860            str         r0,[r1,#0x0]=>DAT_e000e200              
                            LAB_00019d64:                 ;XREF[1,0]:   00019d58
ram:00019d64    f8bd            pop         {r3,r4,r5,r6,r7,pc}                     
                            LAB_00019d66:                 ;XREF[1,0]:   00019ce8
ram:00019d66    01f085fc        bl          FUN_0001b674                            ;undefined FUN_0001b674(void)
ram:00019d6a    f8bd            pop         {r3,r4,r5,r6,r7,pc}                     
                            DAT_00019d6c:                 ;XREF[2,0]:   00019ce2,00019d2c
ram:00019d6c    10210020        undefined4  20002110h                               
                            DAT_00019d70:                 ;XREF[3,0]:   00019cf4,00019d3c,00019d44
ram:00019d70    00150140        undefined4  40011500h                               
                            DAT_00019d74:                 ;XREF[2,0]:   00019d0a,00019d10
ram:00019d74    40130140        undefined4  40011340h                               
                            DAT_00019d78:                 ;XREF[2,0]:   00019d16,00019d5c
ram:00019d78    80e200e0        undefined4  E000E280h                               
                            DAT_00019d7c:                 ;XREF[1,0]:   00019d1c
ram:00019d7c    00e100e0        undefined4  E000E100h                               
                            DAT_00019d80:                 ;XREF[1,0]:   00019d20
ram:00019d80    00100140        undefined4  40011000h                               
                            ;************************************************************************************************
                            ;*                                           FUNCTION                                           *
                            ;************************************************************************************************
                            ;undefined4 FUN_00019d84(ushort * param_1, int param_2, byte * param_3)
          ;param_1       ushort *            r0                      
          ;param_2       int                 r1                      
          ;param_3       byte *              r2                      
                                                          ;XREF[1,0]:   00018a52
ram:00019d84    f8b5            push        {r3,r4,r5,r6,r7,lr}                     
ram:00019d86    0d46            mov         r5,param_2                              
ram:00019d88    1178            ldrb        param_2,[param_3,#0x0]                  
ram:00019d8a    0646            mov         r6,param_1                              
ram:00019d8c    881d            adds        param_1,param_2,#0x6                    
ram:00019d8e    1446            mov         r4,param_3                              
ram:00019d90    1f28            cmp         param_1,#0x1f                           
ram:00019d92    01d9            bls         LAB_00019d98                            
ram:00019d94    0c20            movs        param_1,#0xc                            
                            LAB_00019d96:                 ;XREF[5,0]:   00019d9e,00019dac,00019db2,00019dbc
                                                          ;             00019dca
ram:00019d96    f8bd            pop         {r3,r4,r5,r6,r7,pc}                     
                            LAB_00019d98:                 ;XREF[1,0]:   00019d92
ram:00019d98    3388            ldrh        r3,[r6,#0x0]                            
ram:00019d9a    0720            movs        param_1,#0x7                            
ram:00019d9c    062b            cmp         r3,#0x6                                 
ram:00019d9e    fad3            bcc         LAB_00019d96                            
ram:00019da0    1927            movs        r7,#0x19                                
ram:00019da2    ff01            lsls        r7,r7,#0x7                              
ram:00019da4    bb42            cmp         r3,r7                                   
ram:00019da6    02d9            bls         LAB_00019dae                            
ram:00019da8    164a            ldr         param_3,[DAT_00019e04]                  ;= 0000FFFFh
ram:00019daa    9342            cmp         r3,param_3                              
ram:00019dac    f3d1            bne         LAB_00019d96                            
                            LAB_00019dae:                 ;XREF[1,0]:   00019da6
ram:00019dae    7288            ldrh        param_3,[r6,#0x2]                       
ram:00019db0    062a            cmp         param_3,#0x6                            
ram:00019db2    f0d3            bcc         LAB_00019d96                            
ram:00019db4    ba42            cmp         param_3,r7                              
ram:00019db6    02d9            bls         LAB_00019dbe                            
ram:00019db8    124f            ldr         r7,[DAT_00019e04]                       ;= 0000FFFFh
ram:00019dba    ba42            cmp         param_3,r7                              
ram:00019dbc    ebd1            bne         LAB_00019d96                            
                            LAB_00019dbe:                 ;XREF[1,0]:   00019db6
ram:00019dbe    114f            ldr         r7,[DAT_00019e04]                       ;= 0000FFFFh
ram:00019dc0    bb42            cmp         r3,r7                                   
ram:00019dc2    03d0            beq         LAB_00019dcc                            
ram:00019dc4    ba42            cmp         param_3,r7                              
ram:00019dc6    01d0            beq         LAB_00019dcc                            
ram:00019dc8    9342            cmp         r3,param_3                              
ram:00019dca    e4d8            bhi         LAB_00019d96                            
                            LAB_00019dcc:                 ;XREF[2,0]:   00019dc2,00019dc6
ram:00019dcc    481c            adds        param_1,param_2,#0x1                    
ram:00019dce    0522            movs        param_3,#0x5                            
ram:00019dd0    2070            strb        param_1,[r4,#0x0]                       
ram:00019dd2    6a54            strb        param_3,[r5,param_2]                    
ram:00019dd4    2078            ldrb        param_1,[r4,#0x0]                       
ram:00019dd6    1222            movs        param_3,#0x12                           
ram:00019dd8    411c            adds        param_2,param_1,#0x1                    
ram:00019dda    2170            strb        param_2,[r4,#0x0]                       
ram:00019ddc    2a54            strb        param_3,[r5,param_1]                    
ram:00019dde    2078            ldrb        param_1,[r4,#0x0]                       
ram:00019de0    4119            adds        param_2,param_1,r5                      
ram:00019de2    3088            ldrh        param_1,[r6,#0x0]                       
ram:00019de4    02f035f9        bl          FUN_0001c052                            ;undefined4 FUN_0001c052(undefined4 p...
ram:00019de8    2178            ldrb        param_2,[r4,#0x0]                       
ram:00019dea    4018            adds        param_1,param_1,param_2                 
ram:00019dec    c0b2            uxtb        param_1,param_1                         
ram:00019dee    2070            strb        param_1,[r4,#0x0]                       
ram:00019df0    4119            adds        param_2,param_1,r5                      
ram:00019df2    7088            ldrh        param_1,[r6,#0x2]                       
ram:00019df4    02f02df9        bl          FUN_0001c052                            ;undefined4 FUN_0001c052(undefined4 p...
ram:00019df8    2178            ldrb        param_2,[r4,#0x0]                       
ram:00019dfa    4018            adds        param_1,param_1,param_2                 
ram:00019dfc    2070            strb        param_1,[r4,#0x0]                       
ram:00019dfe    0020            movs        param_1,#0x0                            
ram:00019e00    f8bd            pop         {r3,r4,r5,r6,r7,pc}                     
ram:00019e02    0000            movs        r0,r0                                   
                            DAT_00019e04:                 ;XREF[3,0]:   00019da8,00019db8,00019dbe
ram:00019e04    ffff0000        undefined4  0000FFFFh                               
                            ;************************************************************************************************
                            ;*                                           FUNCTION                                           *
                            ;************************************************************************************************
                            ;undefined LAB_00019e08+1(void)
                                                          ;XREF[0,2]:   0001ab58,0001ac60
ram:00019e08    10b5            push        {r4,lr}                                 
ram:00019e0a    0022            movs        r2,#0x0                                 
ram:00019e0c    1146            mov         r1,r2                                   
ram:00019e0e    fef721ff        bl          FUN_00018c54                            ;undefined FUN_00018c54(void)
ram:00019e12    10bd            pop         {r4,pc}                                 
                            ;************************************************************************************************
                            ;*                                           FUNCTION                                           *
                            ;************************************************************************************************
                            ;undefined FUN_00019e14(void)
          ;local_18      undefined1         -18                      ;XREF[2,0]:   00019e32,00019e46
                                                          ;XREF[1,0]:   00019612
ram:00019e14    f8b5            push        {r3,r4,r5,r6,r7,lr}                     
ram:00019e16    1648            ldr         r0,[DAT_00019e70]                       ;= 200020B0h
ram:00019e18    00f0d6fc        bl          FUN_0001a7c8                            ;undefined4 FUN_0001a7c8(int param_1)
ram:00019e1c    144d            ldr         r5,[DAT_00019e70]                       ;= 200020B0h
ram:00019e1e    0026            movs        r6,#0x0                                 
ram:00019e20    103d            subs        r5,#0x10                                
ram:00019e22    144c            ldr         r4,[DAT_00019e74]                       ;= 200027D0h
ram:00019e24    0028            cmp         r0,#0x0                                 
ram:00019e26    07d0            beq         LAB_00019e38                            
ram:00019e28    6169            ldr         r1,[r4,#0x14]=>DAT_200027e4             
ram:00019e2a    0029            cmp         r1,#0x0                                 
ram:00019e2c    1bd0            beq         LAB_00019e66                            
ram:00019e2e    0120            movs        r0,#0x1                                 
ram:00019e30    6a46            mov         r2,sp                                   
ram:00019e32    1070            strb        r0,[r2,#0x0]=>local_18                  
ram:00019e34    6846            mov         r0,sp                                   
ram:00019e36    15e0            b           LAB_00019e64                            
                            LAB_00019e38:                 ;XREF[1,0]:   00019e26
ram:00019e38    2878            ldrb        r0,[r5,#0x0]=>DAT_200020a0              
ram:00019e3a    0028            cmp         r0,#0x0                                 
ram:00019e3c    05d0            beq         LAB_00019e4a                            
ram:00019e3e    6169            ldr         r1,[r4,#0x14]=>DAT_200027e4             
ram:00019e40    0029            cmp         r1,#0x0                                 
ram:00019e42    10d0            beq         LAB_00019e66                            
ram:00019e44    6846            mov         r0,sp                                   
ram:00019e46    0670            strb        r6,[r0,#0x0]=>local_18                  
ram:00019e48    0ce0            b           LAB_00019e64                            
                            LAB_00019e4a:                 ;XREF[1,0]:   00019e3c
ram:00019e4a    6878            ldrb        r0,[r5,#0x1]=>DAT_200020a1              
ram:00019e4c    0028            cmp         r0,#0x0                                 
ram:00019e4e    0cd0            beq         LAB_00019e6a                            
ram:00019e50    a168            ldr         r1,[r4,#0x8]=>DAT_200027d8              
                            LAB_00019e52:                 ;XREF[1,0]:   00019e6c
ram:00019e52    0022            movs        r2,#0x0                                 
ram:00019e54    6868            ldr         r0,[r5,#0x4]=>DAT_200020a4              
ram:00019e56    fff791f9        bl          FUN_0001917c                            ;longlong FUN_0001917c(uint param_1, ...
ram:00019e5a    0028            cmp         r0,#0x0                                 
ram:00019e5c    03d0            beq         LAB_00019e66                            
ram:00019e5e    a169            ldr         r1,[r4,#0x18]=>DAT_200027e8             
ram:00019e60    0029            cmp         r1,#0x0                                 
ram:00019e62    00d0            beq         LAB_00019e66                            
                            LAB_00019e64:                 ;XREF[2,0]:   00019e36,00019e48
ram:00019e64    8847            blx         r1                                      
                            LAB_00019e66:                 ;XREF[4,0]:   00019e2c,00019e42,00019e5c,00019e62
ram:00019e66    2e70            strb        r6,[r5,#0x0]=>DAT_200020a0              
ram:00019e68    f8bd            pop         {r3,r4,r5,r6,r7,pc}                     
                            LAB_00019e6a:                 ;XREF[1,0]:   00019e4e
ram:00019e6a    6168            ldr         r1,[r4,#0x4]=>DAT_200027d4              
ram:00019e6c    f1e7            b           LAB_00019e52                            
ram:00019e6e    0000            movs        r0,r0                                   
                            DAT_00019e70:                 ;XREF[2,0]:   00019e16,00019e1c
ram:00019e70    b0200020        undefined4  200020B0h                               
                            DAT_00019e74:                 ;XREF[1,0]:   00019e22
ram:00019e74    d0270020        undefined4  200027D0h                               
                            ;************************************************************************************************
                            ;*                                           FUNCTION                                           *
                            ;************************************************************************************************
                            ;undefined FUN_00019e78(void)
                                                          ;XREF[0,2]:   0001bfca,0001c010
ram:00019e78    10b5            push        {r4,lr}                                 
ram:00019e7a    264c            ldr         r4,[DAT_00019f14]                       ;= 2000201Ch
ram:00019e7c    2068            ldr         r0,[r4,#0x0]=>DAT_2000201c              
ram:00019e7e    c004            lsls        r0,r0,#0x13                             
ram:00019e80    000e            lsrs        r0,r0,#0x18                             
ram:00019e82    401c            adds        r0,r0,#0x1                              
ram:00019e84    0006            lsls        r0,r0,#0x18                             
ram:00019e86    c10c            lsrs        r1,r0,#0x13                             
ram:00019e88    2068            ldr         r0,[r4,#0x0]=>DAT_2000201c              
ram:00019e8a    ff22            movs        r2,#0xff                                
ram:00019e8c    5201            lsls        r2,r2,#0x5                              
ram:00019e8e    9043            bics        r0,r2                                   
ram:00019e90    0843            orrs        r0,r1                                   
ram:00019e92    2060            str         r0,[r4,#0x0]=>DAT_2000201c              
ram:00019e94    2068            ldr         r0,[r4,#0x0]=>DAT_2000201c              
ram:00019e96    0004            lsls        r0,r0,#0x10                             
ram:00019e98    0bd4            bmi         LAB_00019eb2                            
ram:00019e9a    fff7e7fd        bl          FUN_00019a6c                            ;undefined4 FUN_00019a6c(void)
ram:00019e9e    0028            cmp         r0,#0x0                                 
ram:00019ea0    06d0            beq         LAB_00019eb0                            
ram:00019ea2    2068            ldr         r0,[r4,#0x0]=>DAT_2000201c              
ram:00019ea4    0121            movs        r1,#0x1                                 
ram:00019ea6    c903            lsls        r1,r1,#0xf                              
ram:00019ea8    0843            orrs        r0,r1                                   
ram:00019eaa    2060            str         r0,[r4,#0x0]=>DAT_2000201c              
ram:00019eac    fef71cfb        bl          FUN_000184e8                            ;undefined FUN_000184e8(void)
                            LAB_00019eb0:                 ;XREF[3,0]:   00019ea0,00019ef4,00019efa
ram:00019eb0    10bd            pop         {r4,pc}                                 
                            LAB_00019eb2:                 ;XREF[1,0]:   00019e98
ram:00019eb2    0420            movs        r0,#0x4                                 
ram:00019eb4    00f08aff        bl          FUN_0001adcc                            ;uint FUN_0001adcc(uint param_1)
ram:00019eb8    c007            lsls        r0,r0,#0x1f                             
ram:00019eba    010f            lsrs        r1,r0,#0x1c                             
ram:00019ebc    2068            ldr         r0,[r4,#0x0]=>DAT_2000201c              
ram:00019ebe    0822            movs        r2,#0x8                                 
ram:00019ec0    9043            bics        r0,r2                                   
ram:00019ec2    0843            orrs        r0,r1                                   
ram:00019ec4    2060            str         r0,[r4,#0x0]=>DAT_2000201c              
ram:00019ec6    0520            movs        r0,#0x5                                 
ram:00019ec8    00f080ff        bl          FUN_0001adcc                            ;uint FUN_0001adcc(uint param_1)
ram:00019ecc    c007            lsls        r0,r0,#0x1f                             
ram:00019ece    c10e            lsrs        r1,r0,#0x1b                             
ram:00019ed0    2068            ldr         r0,[r4,#0x0]=>DAT_2000201c              
ram:00019ed2    1022            movs        r2,#0x10                                
ram:00019ed4    9043            bics        r0,r2                                   
ram:00019ed6    0843            orrs        r0,r1                                   
ram:00019ed8    2060            str         r0,[r4,#0x0]=>DAT_2000201c              
ram:00019eda    2068            ldr         r0,[r4,#0x0]=>DAT_2000201c              
ram:00019edc    c004            lsls        r0,r0,#0x13                             
ram:00019ede    000e            lsrs        r0,r0,#0x18                             
ram:00019ee0    6428            cmp         r0,#0x64                                
ram:00019ee2    0bd2            bcs         LAB_00019efc                            
ram:00019ee4    2068            ldr         r0,[r4,#0x0]=>DAT_2000201c              
ram:00019ee6    0007            lsls        r0,r0,#0x1c                             
ram:00019ee8    02d5            bpl         LAB_00019ef0                            
ram:00019eea    2068            ldr         r0,[r4,#0x0]=>DAT_2000201c              
ram:00019eec    4007            lsls        r0,r0,#0x1d                             
ram:00019eee    05d4            bmi         LAB_00019efc                            
                            LAB_00019ef0:                 ;XREF[1,0]:   00019ee8
ram:00019ef0    2068            ldr         r0,[r4,#0x0]=>DAT_2000201c              
ram:00019ef2    c006            lsls        r0,r0,#0x1b                             
ram:00019ef4    dcd5            bpl         LAB_00019eb0                            
ram:00019ef6    2068            ldr         r0,[r4,#0x0]=>DAT_2000201c              
ram:00019ef8    4007            lsls        r0,r0,#0x1d                             
ram:00019efa    d9d4            bmi         LAB_00019eb0                            
                            LAB_00019efc:                 ;XREF[2,0]:   00019ee2,00019eee
ram:00019efc    fef7f4fa        bl          FUN_000184e8                            ;undefined FUN_000184e8(void)
ram:00019f00    2068            ldr         r0,[r4,#0x0]=>DAT_2000201c              
ram:00019f02    4008            lsrs        r0,r0,#0x1                              
ram:00019f04    4000            lsls        r0,r0,#0x1                              
ram:00019f06    2060            str         r0,[r4,#0x0]=>DAT_2000201c              
ram:00019f08    0248            ldr         r0,[DAT_00019f14]                       ;= 2000201Ch
ram:00019f0a    1c38            subs        r0,#0x1c                                
ram:00019f0c    4069            ldr         r0,[r0,#offset DAT_20002014 &0xff]      
ram:00019f0e    fff777f9        bl          FUN_00019200                            ;undefined4 FUN_00019200(uint param_1...
ram:00019f12    10bd            pop         {r4,pc}                                 
                            DAT_00019f14:                 ;XREF[2,0]:   00019e7a,00019f08
ram:00019f14    1c200020        undefined4  2000201Ch                               
                            ;************************************************************************************************
                            ;*                                           FUNCTION                                           *
                            ;************************************************************************************************
                            ;undefined FUN_00019f18(void)
                                                          ;XREF[2,0]:   00018658,000186a2
ram:00019f18    10b5            push        {r4,lr}                                 
ram:00019f1a    0c49            ldr         r1,[DAT_00019f4c]                       ;= 50000710h
ram:00019f1c    0420            movs        r0,#0x4                                 
ram:00019f1e    0860            str         r0,[r1,#0x0]=>DAT_50000710              
ram:00019f20    091d            adds        r1,r1,#0x4                              
ram:00019f22    0860            str         r0,[r1,#0x0]=>DAT_50000714              
ram:00019f24    0a48            ldr         r0,[DAT_00019f50]                       ;= 2000201Ch
ram:00019f26    0168            ldr         r1,[r0,#0x0]=>DAT_2000201c              
ram:00019f28    ff22            movs        r2,#0xff                                
ram:00019f2a    5201            lsls        r2,r2,#0x5                              
ram:00019f2c    9143            bics        r1,r2                                   
ram:00019f2e    0160            str         r1,[r0,#0x0]=>DAT_2000201c              
ram:00019f30    1c38            subs        r0,#0x1c                                
ram:00019f32    0022            movs        r2,#0x0                                 
ram:00019f34    0749            ldr         r1,[DAT_00019f54]                       ;= 0000028Fh
ram:00019f36    4069            ldr         r0,[r0,#offset DAT_20002014 &0xff]      
ram:00019f38    fff720f9        bl          FUN_0001917c                            ;longlong FUN_0001917c(uint param_1, ...
ram:00019f3c    0028            cmp         r0,#0x0                                 
ram:00019f3e    03d0            beq         LAB_00019f48                            
ram:00019f40    0022            movs        r2,#0x0                                 
ram:00019f42    1146            mov         r1,r2                                   
ram:00019f44    fef786fe        bl          FUN_00018c54                            ;undefined FUN_00018c54(void)
                            LAB_00019f48:                 ;XREF[1,0]:   00019f3e
ram:00019f48    10bd            pop         {r4,pc}                                 
ram:00019f4a    0000            movs        r0,r0                                   
                            DAT_00019f4c:                 ;XREF[1,0]:   00019f1a
ram:00019f4c    10070050        undefined4  50000710h                               
                            DAT_00019f50:                 ;XREF[1,0]:   00019f24
ram:00019f50    1c200020        undefined4  2000201Ch                               
                            DAT_00019f54:                 ;XREF[1,0]:   00019f34
ram:00019f54    8f020000        undefined4  0000028Fh                               
                            ;************************************************************************************************
                            ;*                                           FUNCTION                                           *
                            ;************************************************************************************************
                            ;undefined4 FUN_00019f58(int param_1, byte * param_2, int param_3)
          ;param_1       int                 r0                      
          ;param_2       byte *              r1                      
          ;param_3       int                 r2                      
          ;local_1c      undefined4         -1c                      ;XREF[3,0]:   00019fc0,00019fd4,0001a034
          ;local_2c      undefined4         -2c                      ;XREF[2,0]:   00019f7c,00019ff2
          ;local_30      undefined4         -30                      ;XREF[2,0]:   00019f80,00019ff6
          ;local_38      undefined4         -38                      ;XREF[3,0]:   00019f9e,00019fb8,00019ffa
          ;local_3c      undefined4         -3c                      ;XREF[1,0]:   00019f88
          ;local_40      undefined4         -40                      ;XREF[1,0]:   00019f8a
          ;local_44      undefined4         -44                      ;XREF[4,0]:   00019f72,00019fec,00019ff0,0001a03a
ram:00019f58    f0b5            push        {r4,r5,r6,r7,lr}                        
ram:00019f5a    8db0            sub         sp,#0x34                                
ram:00019f5c    0c46            mov         r4,param_2                              
ram:00019f5e    0646            mov         r6,param_1                              
ram:00019f60    092a            cmp         param_3,#0x9                            
ram:00019f62    41d1            bne         LAB_00019fe8                            
ram:00019f64    2578            ldrb        r5,[r4,#0x0]                            
ram:00019f66    2846            mov         param_1,r5                              
ram:00019f68    02f085f9        bl          FUN_0001c276                            ;undefined4 FUN_0001c276(uint param_1)
ram:00019f6c    0028            cmp         param_1,#0x0                            
ram:00019f6e    3bd0            beq         LAB_00019fe8                            
ram:00019f70    6800            lsls        param_1,r5,#0x1                         
ram:00019f72    0190            str         param_1,[sp,#local_44+0x48]             
ram:00019f74    c0b2            uxtb        param_1,param_1                         
ram:00019f76    8100            lsls        param_2,param_1,#0x2                    
ram:00019f78    4018            adds        param_1,param_1,param_2                 
ram:00019f7a    8119            adds        param_2,param_1,r6                      
ram:00019f7c    0790            str         param_1,[sp,#local_2c+0x48]             
ram:00019f7e    0522            movs        param_3,#0x5                            
ram:00019f80    0691            str         param_2,[sp,#local_30+0x48]             
ram:00019f82    02a8            add         param_1,sp,#0x8                         
ram:00019f84    fef71af9        bl          FUN_000181bc                            ;undefined FUN_000181bc(undefined4 * ...
ram:00019f88    0399            ldr         param_2,[sp,#local_3c+0x48]             
ram:00019f8a    0298            ldr         param_1,[sp,#local_40+0x48]             
ram:00019f8c    02f056f9        bl          FUN_0001c23c                            ;undefined4 FUN_0001c23c(uint param_1)
ram:00019f90    0028            cmp         param_1,#0x0                            
ram:00019f92    02d0            beq         LAB_00019f9a                            
ram:00019f94    0320            movs        param_1,#0x3                            
                            LAB_00019f96:                 ;XREF[2,0]:   00019fea,0001a086
ram:00019f96    0db0            add         sp,#0x34                                
ram:00019f98    f0bd            pop         {r4,r5,r6,r7,pc}                        
                            LAB_00019f9a:                 ;XREF[1,0]:   00019f92
ram:00019f9a    6178            ldrb        param_2,[r4,#0x1]                       
ram:00019f9c    a078            ldrb        param_1,[r4,#0x2]                       
ram:00019f9e    0490            str         param_1,[sp,#local_38+0x48]             
ram:00019fa0    6079            ldrb        param_1,[r4,#0x5]                       
ram:00019fa2    e778            ldrb        r7,[r4,#0x3]                            
ram:00019fa4    8646            mov         lr,param_1                              
ram:00019fa6    a079            ldrb        param_1,[r4,#0x6]                       
ram:00019fa8    2279            ldrb        param_3,[r4,#0x4]                       
ram:00019faa    e379            ldrb        r3,[r4,#0x7]                            
ram:00019fac    8446            mov         r12,param_1                             
ram:00019fae    247a            ldrb        r4,[r4,#0x8]                            
ram:00019fb0    7806            lsls        param_1,r7,#0x19                        
ram:00019fb2    19d0            beq         LAB_00019fe8                            
ram:00019fb4    1829            cmp         param_2,#0x18                           
ram:00019fb6    17d2            bcs         LAB_00019fe8                            
ram:00019fb8    0498            ldr         param_1,[sp,#local_38+0x48]             
ram:00019fba    3c28            cmp         param_1,#0x3c                           
ram:00019fbc    14d2            bcs         LAB_00019fe8                            
ram:00019fbe    0120            movs        param_1,#0x1                            
ram:00019fc0    0b90            str         param_1,[sp,#local_1c+0x48]             
ram:00019fc2    5806            lsls        param_1,r3,#0x19                        
ram:00019fc4    08d0            beq         LAB_00019fd8                            
ram:00019fc6    7046            mov         param_1,lr                              
ram:00019fc8    1828            cmp         param_1,#0x18                           
ram:00019fca    05d2            bcs         LAB_00019fd8                            
ram:00019fcc    6046            mov         param_1,r12                             
ram:00019fce    3c28            cmp         param_1,#0x3c                           
ram:00019fd0    02d2            bcs         LAB_00019fd8                            
ram:00019fd2    0220            movs        param_1,#0x2                            
ram:00019fd4    0b90            str         param_1,[sp,#local_1c+0x48]             
ram:00019fd6    09e0            b           LAB_00019fec                            
                            LAB_00019fd8:                 ;XREF[3,0]:   00019fc4,00019fca,00019fd0
ram:00019fd8    ff2b            cmp         r3,#0xff                                
ram:00019fda    07d0            beq         LAB_00019fec                            
ram:00019fdc    7046            mov         param_1,lr                              
ram:00019fde    ff28            cmp         param_1,#0xff                           
ram:00019fe0    04d0            beq         LAB_00019fec                            
ram:00019fe2    6046            mov         param_1,r12                             
ram:00019fe4    ff28            cmp         param_1,#0xff                           
ram:00019fe6    01d0            beq         LAB_00019fec                            
                            LAB_00019fe8:                 ;XREF[5,0]:   00019f62,00019f6e,00019fb2,00019fb6
                                                          ;             00019fbc
ram:00019fe8    0220            movs        param_1,#0x2                            
ram:00019fea    d4e7            b           LAB_00019f96                            
                            LAB_00019fec:                 ;XREF[4,0]:   00019fd6,00019fda,00019fe0,00019fe6
ram:00019fec    0198            ldr         param_1,[sp,#local_44+0x48]             
ram:00019fee    c0b2            uxtb        param_1,param_1                         
ram:00019ff0    0190            str         param_1,[sp,#local_44+0x48]             
ram:00019ff2    0798            ldr         param_1,[sp,#local_2c+0x48]             
ram:00019ff4    3554            strb        r5,[r6,param_1]                         
ram:00019ff6    0698            ldr         param_1,[sp,#local_30+0x48]             
ram:00019ff8    8170            strb        param_2,[param_1,#0x2]                  
ram:00019ffa    0499            ldr         param_2,[sp,#local_38+0x48]             
ram:00019ffc    c170            strb        param_2,[param_1,#0x3]                  
ram:00019ffe    7906            lsls        param_2,r7,#0x19                        
ram:0001a000    490e            lsrs        param_2,param_2,#0x19                   
ram:0001a002    4170            strb        param_2,[param_1,#0x1]                  
ram:0001a004    0179            ldrb        param_2,[param_1,#0x4]                  
ram:0001a006    f727            movs        r7,#0xf7                                
ram:0001a008    3940            ands        param_2,r7                              
ram:0001a00a    1707            lsls        r7,param_3,#0x1c                        
ram:0001a00c    ff0f            lsrs        r7,r7,#0x1f                             
ram:0001a00e    ff00            lsls        r7,r7,#0x3                              
ram:0001a010    3943            orrs        param_2,r7                              
ram:0001a012    fd27            movs        r7,#0xfd                                
ram:0001a014    3940            ands        param_2,r7                              
ram:0001a016    5707            lsls        r7,param_3,#0x1d                        
ram:0001a018    ff0f            lsrs        r7,r7,#0x1f                             
ram:0001a01a    7f00            lsls        r7,r7,#0x1                              
ram:0001a01c    3943            orrs        param_2,r7                              
ram:0001a01e    9707            lsls        r7,param_3,#0x1e                        
ram:0001a020    4908            lsrs        param_2,param_2,#0x1                    
ram:0001a022    4900            lsls        param_2,param_2,#0x1                    
ram:0001a024    ff0f            lsrs        r7,r7,#0x1f                             
ram:0001a026    3943            orrs        param_2,r7                              
ram:0001a028    fb27            movs        r7,#0xfb                                
ram:0001a02a    d207            lsls        param_3,param_3,#0x1f                   
ram:0001a02c    3940            ands        param_2,r7                              
ram:0001a02e    520f            lsrs        param_3,param_3,#0x1d                   
ram:0001a030    1143            orrs        param_2,param_3                         
ram:0001a032    0171            strb        param_2,[param_1,#0x4]                  
ram:0001a034    0b98            ldr         param_1,[sp,#local_1c+0x48]             
ram:0001a036    0228            cmp         param_1,#0x2                            
ram:0001a038    24d1            bne         LAB_0001a084                            
ram:0001a03a    0198            ldr         param_1,[sp,#local_44+0x48]             
ram:0001a03c    f722            movs        param_3,#0xf7                           
ram:0001a03e    401c            adds        param_1,param_1,#0x1                    
ram:0001a040    c0b2            uxtb        param_1,param_1                         
ram:0001a042    8100            lsls        param_2,param_1,#0x2                    
ram:0001a044    4018            adds        param_1,param_1,param_2                 
ram:0001a046    3554            strb        r5,[r6,param_1]                         
ram:0001a048    7146            mov         param_2,lr                              
ram:0001a04a    8019            adds        param_1,param_1,r6                      
ram:0001a04c    8170            strb        param_2,[param_1,#0x2]                  
ram:0001a04e    6146            mov         param_2,r12                             
ram:0001a050    c170            strb        param_2,[param_1,#0x3]                  
ram:0001a052    5906            lsls        param_2,r3,#0x19                        
ram:0001a054    490e            lsrs        param_2,param_2,#0x19                   
ram:0001a056    4170            strb        param_2,[param_1,#0x1]                  
ram:0001a058    0179            ldrb        param_2,[param_1,#0x4]                  
ram:0001a05a    1140            ands        param_2,param_3                         
ram:0001a05c    2207            lsls        param_3,r4,#0x1c                        
ram:0001a05e    d20f            lsrs        param_3,param_3,#0x1f                   
ram:0001a060    d200            lsls        param_3,param_3,#0x3                    
ram:0001a062    1143            orrs        param_2,param_3                         
ram:0001a064    fd22            movs        param_3,#0xfd                           
ram:0001a066    1140            ands        param_2,param_3                         
ram:0001a068    6207            lsls        param_3,r4,#0x1d                        
ram:0001a06a    d20f            lsrs        param_3,param_3,#0x1f                   
ram:0001a06c    5200            lsls        param_3,param_3,#0x1                    
ram:0001a06e    1143            orrs        param_2,param_3                         
ram:0001a070    4908            lsrs        param_2,param_2,#0x1                    
ram:0001a072    a207            lsls        param_3,r4,#0x1e                        
ram:0001a074    4900            lsls        param_2,param_2,#0x1                    
ram:0001a076    d20f            lsrs        param_3,param_3,#0x1f                   
ram:0001a078    1143            orrs        param_2,param_3                         
ram:0001a07a    e207            lsls        param_3,r4,#0x1f                        
ram:0001a07c    3940            ands        param_2,r7                              
ram:0001a07e    520f            lsrs        param_3,param_3,#0x1d                   
ram:0001a080    1143            orrs        param_2,param_3                         
ram:0001a082    0171            strb        param_2,[param_1,#0x4]                  
                            LAB_0001a084:                 ;XREF[1,0]:   0001a038
ram:0001a084    0020            movs        param_1,#0x0                            
ram:0001a086    86e7            b           LAB_00019f96                            
                            ;************************************************************************************************
                            ;*                                           FUNCTION                                           *
                            ;************************************************************************************************
                            ;undefined LAB_0001a088+1(void)
                                                          ;XREF[0,2]:   00018c38,00018c50
ram:0001a088    f8b5            push        {r3,r4,r5,r6,r7,lr}                     
ram:0001a08a    184d            ldr         r5,[DAT_0001a0ec]                       ;= 200020DCh
ram:0001a08c    6946            mov         r1,sp                                   
ram:0001a08e    6878            ldrb        r0,[r5,#0x1]=>DAT_200020dd              
ram:0001a090    fef720fe        bl          FUN_00018cd4                            ;undefined4 FUN_00018cd4(uint param_1...
ram:0001a094    0028            cmp         r0,#0x0                                 
ram:0001a096    1dd1            bne         LAB_0001a0d4                            
ram:0001a098    2f46            mov         r7,r5                                   
ram:0001a09a    0024            movs        r4,#0x0                                 
ram:0001a09c    1037            adds        r7,#0x10                                
ram:0001a09e    0126            movs        r6,#0x1                                 
ram:0001a0a0    15e0            b           LAB_0001a0ce                            
                            LAB_0001a0a2:                 ;XREF[1,0]:   0001a0d2
ram:0001a0a2    6968            ldr         r1,[r5,#0x4]=>DAT_200020e0              
ram:0001a0a4    e000            lsls        r0,r4,#0x3                              
ram:0001a0a6    4018            adds        r0,r0,r1                                
ram:0001a0a8    0378            ldrb        r3,[r0,#0x0]                            
ram:0001a0aa    3146            mov         r1,r6                                   
ram:0001a0ac    3a68            ldr         r2,[r7,#0x0]=>DAT_200020ec              
ram:0001a0ae    9940            lsls        r1,r3                                   
ram:0001a0b0    0a42            tst         r2,r1                                   
ram:0001a0b2    10d0            beq         LAB_0001a0d6                            
ram:0001a0b4    4268            ldr         r2,[r0,#0x4]                            
ram:0001a0b6    002a            cmp         r2,#0x0                                 
ram:0001a0b8    0dd0            beq         LAB_0001a0d6                            
ram:0001a0ba    4178            ldrb        r1,[r0,#0x1]                            
ram:0001a0bc    0129            cmp         r1,#0x1                                 
ram:0001a0be    01d1            bne         LAB_0001a0c4                            
                            LAB_0001a0c0:                 ;XREF[1,0]:   0001a0e8
ram:0001a0c0    0021            movs        r1,#0x0                                 
ram:0001a0c2    00e0            b           LAB_0001a0c6                            
                            LAB_0001a0c4:                 ;XREF[2,0]:   0001a0be,0001a0e6
ram:0001a0c4    0121            movs        r1,#0x1                                 
                            LAB_0001a0c6:                 ;XREF[1,0]:   0001a0c2
ram:0001a0c6    fff7c3fc        bl          FUN_00019a50                            ;undefined FUN_00019a50(undefined * p...
                            LAB_0001a0ca:                 ;XREF[2,0]:   0001a0da,0001a0e0
ram:0001a0ca    641c            adds        r4,r4,#0x1                              
ram:0001a0cc    e4b2            uxtb        r4,r4                                   
                            LAB_0001a0ce:                 ;XREF[1,0]:   0001a0a0
ram:0001a0ce    2878            ldrb        r0,[r5,#0x0]=>DAT_200020dc              
ram:0001a0d0    8442            cmp         r4,r0                                   
ram:0001a0d2    e6d3            bcc         LAB_0001a0a2                            
                            LAB_0001a0d4:                 ;XREF[1,0]:   0001a096
ram:0001a0d4    f8bd            pop         {r3,r4,r5,r6,r7,pc}                     
                            LAB_0001a0d6:                 ;XREF[2,0]:   0001a0b2,0001a0b8
ram:0001a0d6    7a68            ldr         r2,[r7,#0x4]=>DAT_200020f0              
ram:0001a0d8    0a42            tst         r2,r1                                   
ram:0001a0da    f6d0            beq         LAB_0001a0ca                            
ram:0001a0dc    4168            ldr         r1,[r0,#0x4]                            
ram:0001a0de    0029            cmp         r1,#0x0                                 
ram:0001a0e0    f3d0            beq         LAB_0001a0ca                            
ram:0001a0e2    4178            ldrb        r1,[r0,#0x1]                            
ram:0001a0e4    0129            cmp         r1,#0x1                                 
ram:0001a0e6    edd0            beq         LAB_0001a0c4                            
ram:0001a0e8    eae7            b           LAB_0001a0c0                            
ram:0001a0ea    0000            movs        r0,r0                                   
                            DAT_0001a0ec:                 ;XREF[1,0]:   0001a08a
ram:0001a0ec    dc200020        undefined4  200020DCh                               
                            ;************************************************************************************************
                            ;*                                           FUNCTION                                           *
                            ;************************************************************************************************
                            ;undefined LAB_0001a0f0+1(ushort * param_1, char * param_2, undefined4 param_3, undefined4 param_4)
          ;param_1       ushort *            r0                      
          ;param_2       char *              r1                      
          ;param_3       undefined4          r2                      
          ;param_4       undefined4          r3                      
                                                          ;XREF[0,2]:   0001b7dc,0001b814
ram:0001a0f0    10b5            push        {r4,lr}                                 
ram:0001a0f2    0978            ldrb        param_2,[param_2,#0x0]                  
ram:0001a0f4    0029            cmp         param_2,#0x0                            
ram:0001a0f6    0ad0            beq         LAB_0001a10e                            
ram:0001a0f8    0322            movs        param_3,#0x3                            
ram:0001a0fa    0121            movs        param_2,#0x1                            
ram:0001a0fc    fff738fb        bl          FUN_00019770                            ;undefined8 FUN_00019770(ushort * par...
ram:0001a100    0028            cmp         param_1,#0x0                            
ram:0001a102    03d0            beq         LAB_0001a10c                            
ram:0001a104    0022            movs        param_3,#0x0                            
ram:0001a106    1146            mov         param_2,param_3                         
ram:0001a108    fef7a4fd        bl          FUN_00018c54                            ;undefined FUN_00018c54(void)
                            LAB_0001a10c:                 ;XREF[1,0]:   0001a102
ram:0001a10c    10bd            pop         {r4,pc}                                 
                            LAB_0001a10e:                 ;XREF[1,0]:   0001a0f6
ram:0001a10e    0088            ldrh        param_1,[param_1,#0x0]                  
ram:0001a110    fff71efc        bl          FUN_00019950                            ;undefined FUN_00019950(uint param_1,...
ram:0001a114    10bd            pop         {r4,pc}                                 
ram:0001a116    0000            movs        r0,r0                                   
                            ;************************************************************************************************
                            ;*                                           FUNCTION                                           *
                            ;************************************************************************************************
                            ;undefined FUN_0001a118(uint param_1)
          ;param_1       uint                r0                      
          ;local_c       undefined4          -c                      ;XREF[1,0]:   0001a1aa
          ;local_10      undefined4         -10                      ;XREF[1,0]:   0001a1a6
          ;local_1c      undefined4         -1c                      ;XREF[2,0]:   0001a15e,0001a170
          ;local_2c      undefined4         -2c                      ;XREF[2,0]:   0001a17c,0001a184
          ;local_30      undefined4         -30                      ;XREF[2,0]:   0001a11e,0001a1a2
                                                          ;XREF[1,0]:   0001999c
ram:0001a118    00b5            push        {lr}                                    
ram:0001a11a    8bb0            sub         sp,#0x2c                                
ram:0001a11c    0021            movs        r1,#0x0                                 
ram:0001a11e    0091            str         r1,[sp,#0x0]=>local_30                  
ram:0001a120    2549            ldr         r1,[DAT_0001a1b8]                       ;= 200020D8h
ram:0001a122    00f07ff9        bl          FUN_0001a424                            ;int FUN_0001a424(uint param_1, char ...
ram:0001a126    0028            cmp         param_1,#0x0                            
ram:0001a128    17d1            bne         LAB_0001a15a                            
ram:0001a12a    01a9            add         r1,sp,#0x4                              
ram:0001a12c    2248            ldr         param_1,[DAT_0001a1b8]                  ;= 200020D8h
ram:0001a12e    00f021f9        bl          FUN_0001a374                            ;int FUN_0001a374(char * param_1, int...
ram:0001a132    0028            cmp         param_1,#0x0                            
ram:0001a134    13d0            beq         LAB_0001a15e                            
ram:0001a136    2149            ldr         r1,[DAT_0001a1bc]                       ;= 200028D8h
ram:0001a138    1f48            ldr         param_1,[DAT_0001a1b8]                  ;= 200020D8h
ram:0001a13a    00f097f9        bl          FUN_0001a46c                            ;int FUN_0001a46c(char * param_1, und...
ram:0001a13e    0028            cmp         param_1,#0x0                            
ram:0001a140    03d0            beq         LAB_0001a14a                            
ram:0001a142    0022            movs        r2,#0x0                                 
ram:0001a144    1146            mov         r1,r2                                   
ram:0001a146    fef785fd        bl          FUN_00018c54                            ;undefined FUN_00018c54(void)
                            LAB_0001a14a:                 ;XREF[1,0]:   0001a140
ram:0001a14a    1c48            ldr         param_1,[DAT_0001a1bc]                  ;= 200028D8h
ram:0001a14c    00df            svc         0x0                                     
                            LAB_0001a14e:                 ;XREF[1,0]:   0001a1b4
ram:0001a14e    0028            cmp         param_1,#0x0                            
ram:0001a150    03d0            beq         LAB_0001a15a                            
ram:0001a152    0022            movs        r2,#0x0                                 
ram:0001a154    1146            mov         r1,r2                                   
ram:0001a156    fef77dfd        bl          FUN_00018c54                            ;undefined FUN_00018c54(void)
                            LAB_0001a15a:                 ;XREF[2,0]:   0001a128,0001a150
ram:0001a15a    0bb0            add         sp,#0x2c                                
ram:0001a15c    00bd            pop         {pc}                                    
                            LAB_0001a15e:                 ;XREF[1,0]:   0001a134
ram:0001a15e    0599            ldr         r1,[sp,#local_1c+0x30]                  
ram:0001a160    0722            movs        r2,#0x7                                 
ram:0001a162    1648            ldr         param_1,[DAT_0001a1bc]                  ;= 200028D8h
ram:0001a164    1031            adds        r1,#0x10                                
ram:0001a166    fef729f8        bl          FUN_000181bc                            ;undefined FUN_000181bc(undefined4 * ...
ram:0001a16a    1448            ldr         param_1,[DAT_0001a1bc]                  ;= 200028D8h
ram:0001a16c    1022            movs        r2,#0x10                                
ram:0001a16e    c01d            adds        param_1,param_1,#0x7                    
ram:0001a170    0599            ldr         r1,[sp,#local_1c+0x30]                  
ram:0001a172    fef723f8        bl          FUN_000181bc                            ;undefined FUN_000181bc(undefined4 * ...
ram:0001a176    1148            ldr         param_1,[DAT_0001a1bc]                  ;= 200028D8h
ram:0001a178    1122            movs        r2,#0x11                                
ram:0001a17a    1830            adds        param_1,#0x18                           
ram:0001a17c    0199            ldr         r1,[sp,#local_2c+0x30]                  
ram:0001a17e    fef71df8        bl          FUN_000181bc                            ;undefined FUN_000181bc(undefined4 * ...
ram:0001a182    0e48            ldr         param_1,[DAT_0001a1bc]                  ;= 200028D8h
ram:0001a184    0199            ldr         r1,[sp,#local_2c+0x30]                  
ram:0001a186    0a22            movs        r2,#0xa                                 
ram:0001a188    2a30            adds        param_1,#0x2a                           
ram:0001a18a    1231            adds        r1,#0x12                                
ram:0001a18c    fef716f8        bl          FUN_000181bc                            ;undefined FUN_000181bc(undefined4 * ...
ram:0001a190    0a48            ldr         param_1,[DAT_0001a1bc]                  ;= 200028D8h
ram:0001a192    00df            svc         0x0                                     
ram:0001a194    0028            cmp         param_1,#0x0                            
ram:0001a196    03d0            beq         LAB_0001a1a0                            
ram:0001a198    0022            movs        r2,#0x0                                 
ram:0001a19a    1146            mov         r1,r2                                   
ram:0001a19c    fef75afd        bl          FUN_00018c54                            ;undefined FUN_00018c54(void)
                            LAB_0001a1a0:                 ;XREF[1,0]:   0001a196
ram:0001a1a0    0120            movs        param_1,#0x1                            
ram:0001a1a2    0090            str         param_1,[sp,#0x0]=>local_30             
ram:0001a1a4    0420            movs        param_1,#0x4                            
ram:0001a1a6    0890            str         param_1,[sp,#local_10+0x30]             
ram:0001a1a8    6846            mov         param_1,sp                              
ram:0001a1aa    0990            str         param_1,[sp,#local_c+0x30]              
ram:0001a1ac    07a9            add         r1,sp,#0x1c                             
ram:0001a1ae    0248            ldr         param_1,[DAT_0001a1b8]                  ;= 200020D8h
ram:0001a1b0    00f0dcf8        bl          FUN_0001a36c                            ;undefined4 FUN_0001a36c(void)
ram:0001a1b4    cbe7            b           LAB_0001a14e                            
ram:0001a1b6    0000            movs        r0,r0                                   
                            DAT_0001a1b8:                 ;XREF[4,0]:   0001a120,0001a12c,0001a138,0001a1ae
ram:0001a1b8    d8200020        undefined4  200020D8h                               
                            DAT_0001a1bc:                 ;XREF[7,0]:   0001a136,0001a14a,0001a162,0001a16a
                                                          ;             0001a176,0001a182,0001a190
ram:0001a1bc    d8280020        undefined4  200028D8h                               
ram:0001a1c0    70              ??          70h    p                                
ram:0001a1c1    47              ??          47h    G                                
ram:0001a1c2    00              ??          00h                                     
ram:0001a1c3    00              ??          00h                                     
                            ;************************************************************************************************
                            ;*                                           FUNCTION                                           *
                            ;************************************************************************************************
                            ;undefined FUN_0001a1c4(undefined4 param_1)
          ;param_1       undefined4          r0                      
                                                          ;XREF[1,0]:   0001b7fa
ram:0001a1c4    0149            ldr         r1,[DAT_0001a1cc]                       ;= 200020D4h
ram:0001a1c6    0860            str         param_1,[r1,#0x0]=>DAT_200020d4         
ram:0001a1c8    7047            bx          lr                                      
ram:0001a1ca    0000            movs        r0,r0                                   
                            DAT_0001a1cc:                 ;XREF[1,0]:   0001a1c4
ram:0001a1cc    d4200020        undefined4  200020D4h                               
                            ;************************************************************************************************
                            ;*                                           FUNCTION                                           *
                            ;************************************************************************************************
                            ;undefined2 FUN_0001a1d0(int param_1)
          ;param_1       int                 r0                      
          ;local_14      undefined4         -14                      ;XREF[1,0]:   0001a244
          ;local_18      undefined2         -18                      ;XREF[1,0]:   0001a242
          ;local_1a      undefined2         -1a                      ;XREF[1,0]:   0001a240
          ;local_1c      undefined2         -1c                      ;XREF[1,0]:   0001a23c
          ;local_20      undefined4         -20                      ;XREF[1,0]:   0001a238
          ;local_24      undefined4         -24                      ;XREF[1,0]:   0001a234
          ;local_26      undefined1         -26                      ;XREF[1,0]:   0001a1fe
          ;local_28      undefined2         -28                      ;XREF[1,0]:   0001a204
          ;local_2c      undefined4         -2c                      ;XREF[2,3]:   0001a20a,0001a20e,0001a212,0001a214,0001a228
          ;local_30      undefined4         -30                      ;XREF[1,0]:   0001a1f8
          ;local_34      undefined4         -34                      ;XREF[1,0]:   0001a1f6
          ;local_38      undefined4         -38                      ;XREF[1,0]:   0001a1f4
          ;local_3c      undefined4         -3c                      ;XREF[1,0]:   0001a1f2
          ;local_44      undefined4         -44                      ;XREF[1,0]:   0001a1f0
          ;local_48      undefined1         -48                      ;XREF[2,0]:   0001a1e0,0001a1ec
                                                          ;XREF[1,0]:   000196ae
ram:0001a1d0    30b5            push        {r4,r5,lr}                              
ram:0001a1d2    8fb0            sub         sp,#0x3c                                
ram:0001a1d4    0546            mov         r5,param_1                              
ram:0001a1d6    1c21            movs        r1,#0x1c                                
ram:0001a1d8    6846            mov         param_1,sp                              
ram:0001a1da    fef708f8        bl          FUN_000181ee                            ;undefined FUN_000181ee(undefined * p...
ram:0001a1de    6946            mov         r1,sp                                   
ram:0001a1e0    0878            ldrb        param_1,[r1,#0x0]=>local_48             
ram:0001a1e2    0821            movs        r1,#0x8                                 
ram:0001a1e4    0843            orrs        param_1,r1                              
ram:0001a1e6    1022            movs        r2,#0x10                                
ram:0001a1e8    1043            orrs        param_1,r2                              
ram:0001a1ea    6946            mov         r1,sp                                   
ram:0001a1ec    0870            strb        param_1,[r1,#0x0]=>local_48             
ram:0001a1ee    0024            movs        r4,#0x0                                 
ram:0001a1f0    0194            str         r4,[sp,#local_44+0x48]                  
ram:0001a1f2    0394            str         r4,[sp,#local_3c+0x48]                  
ram:0001a1f4    0494            str         r4,[sp,#local_38+0x48]                  
ram:0001a1f6    0594            str         r4,[sp,#local_34+0x48]                  
ram:0001a1f8    0694            str         r4,[sp,#local_30+0x48]                  
ram:0001a1fa    a879            ldrb        param_1,[r5,#0x6]                       
ram:0001a1fc    08a9            add         r1,sp,#0x20                             
ram:0001a1fe    8870            strb        param_1,[r1,#local_26+0x28]             
ram:0001a200    1448            ldr         param_1,[DAT_0001a254]                  ;= 00001531h
ram:0001a202    6946            mov         r1,sp                                   
ram:0001a204    0884            strh        param_1,[r1,#local_28+0x48]             
ram:0001a206    601c            adds        param_1,r4,#0x1                         
ram:0001a208    0007            lsls        param_1,param_1,#0x1c                   
ram:0001a20a    0794            str         r4,[sp,#local_2c+0x48]                  
ram:0001a20c    000f            lsrs        param_1,param_1,#0x1c                   
ram:0001a20e    0c77            strb        r4,[r1,#local_2c+0x48]                  
ram:0001a210    1030            adds        param_1,#0x10                           
ram:0001a212    4877            strb        param_1,[r1,#local_2c+0x49]             
ram:0001a214    887f            ldrb        param_1,[r1,#local_2c+0x4a]             
ram:0001a216    f921            movs        r1,#0xf9                                
ram:0001a218    0840            ands        param_1,r1                              
ram:0001a21a    f721            movs        r1,#0xf7                                
ram:0001a21c    801c            adds        param_1,param_1,#0x2                    
ram:0001a21e    0840            ands        param_1,r1                              
ram:0001a220    1043            orrs        param_1,r2                              
ram:0001a222    0121            movs        r1,#0x1                                 
ram:0001a224    0843            orrs        param_1,r1                              
ram:0001a226    6946            mov         r1,sp                                   
ram:0001a228    8877            strb        param_1,[r1,#local_2c+0x4a]             
ram:0001a22a    1421            movs        r1,#0x14                                
ram:0001a22c    09a8            add         param_1,sp,#0x24                        
ram:0001a22e    fdf7deff        bl          FUN_000181ee                            ;undefined FUN_000181ee(undefined * p...
ram:0001a232    08a8            add         param_1,sp,#0x20                        
ram:0001a234    0990            str         param_1,[sp,#local_24+0x48]             
ram:0001a236    07a8            add         param_1,sp,#0x1c                        
ram:0001a238    0a90            str         param_1,[sp,#local_20+0x48]             
ram:0001a23a    6946            mov         r1,sp                                   
ram:0001a23c    8c85            strh        r4,[r1,#local_1c+0x48]                  
ram:0001a23e    1720            movs        param_1,#0x17                           
ram:0001a240    cc85            strh        r4,[r1,#local_1a+0x48]                  
ram:0001a242    0886            strh        param_1,[r1,#local_18+0x48]             
ram:0001a244    0d94            str         r4,[sp,#local_14+0x48]                  
ram:0001a246    2b46            mov         r3,r5                                   
ram:0001a248    a888            ldrh        param_1,[r5,#0x4]                       
ram:0001a24a    1033            adds        r3,#0x10                                
ram:0001a24c    09aa            add         r2,sp,#0x24                             
ram:0001a24e    a2df            svc         0xa2                                    
ram:0001a250    0fb0            add         sp,#0x3c                                
ram:0001a252    30bd            pop         {r4,r5,pc}                              
                            DAT_0001a254:                 ;XREF[1,0]:   0001a200
ram:0001a254    31150000        undefined4  00001531h                               
                            ;************************************************************************************************
                            ;*                                           FUNCTION                                           *
                            ;************************************************************************************************
                            ;undefined2 FUN_0001a258(int param_1)
          ;param_1       int                 r0                      
          ;local_14      undefined4         -14                      ;XREF[1,0]:   0001a2c8
          ;local_18      undefined2         -18                      ;XREF[1,0]:   0001a2c6
          ;local_1a      undefined2         -1a                      ;XREF[1,0]:   0001a2c4
          ;local_1c      undefined2         -1c                      ;XREF[1,0]:   0001a2c0
          ;local_20      undefined4         -20                      ;XREF[1,0]:   0001a2bc
          ;local_24      undefined4         -24                      ;XREF[1,0]:   0001a2b8
          ;local_26      undefined1         -26                      ;XREF[1,0]:   0001a282
          ;local_28      undefined2         -28                      ;XREF[1,0]:   0001a288
          ;local_2c      undefined4         -2c                      ;XREF[2,3]:   0001a28e,0001a292,0001a296,0001a298,0001a2ac
          ;local_30      undefined4         -30                      ;XREF[1,0]:   0001a27c
          ;local_34      undefined4         -34                      ;XREF[1,0]:   0001a27a
          ;local_38      undefined4         -38                      ;XREF[1,0]:   0001a278
          ;local_3c      undefined4         -3c                      ;XREF[1,0]:   0001a276
          ;local_44      undefined4         -44                      ;XREF[1,0]:   0001a274
          ;local_48      undefined1         -48                      ;XREF[2,0]:   0001a268,0001a270
                                                          ;XREF[1,0]:   000196a4
ram:0001a258    30b5            push        {r4,r5,lr}                              
ram:0001a25a    8fb0            sub         sp,#0x3c                                
ram:0001a25c    0546            mov         r5,param_1                              
ram:0001a25e    1c21            movs        r1,#0x1c                                
ram:0001a260    6846            mov         param_1,sp                              
ram:0001a262    fdf7c4ff        bl          FUN_000181ee                            ;undefined FUN_000181ee(undefined * p...
ram:0001a266    6946            mov         r1,sp                                   
ram:0001a268    0878            ldrb        param_1,[r1,#0x0]=>local_48             
ram:0001a26a    0421            movs        r1,#0x4                                 
ram:0001a26c    0843            orrs        param_1,r1                              
ram:0001a26e    6946            mov         r1,sp                                   
ram:0001a270    0870            strb        param_1,[r1,#0x0]=>local_48             
ram:0001a272    0024            movs        r4,#0x0                                 
ram:0001a274    0194            str         r4,[sp,#local_44+0x48]                  
ram:0001a276    0394            str         r4,[sp,#local_3c+0x48]                  
ram:0001a278    0494            str         r4,[sp,#local_38+0x48]                  
ram:0001a27a    0594            str         r4,[sp,#local_34+0x48]                  
ram:0001a27c    0694            str         r4,[sp,#local_30+0x48]                  
ram:0001a27e    a879            ldrb        param_1,[r5,#0x6]                       
ram:0001a280    08a9            add         r1,sp,#0x20                             
ram:0001a282    8870            strb        param_1,[r1,#local_26+0x28]             
ram:0001a284    1448            ldr         param_1,[DAT_0001a2d8]                  ;= 00001532h
ram:0001a286    6946            mov         r1,sp                                   
ram:0001a288    0884            strh        param_1,[r1,#local_28+0x48]             
ram:0001a28a    601c            adds        param_1,r4,#0x1                         
ram:0001a28c    0007            lsls        param_1,param_1,#0x1c                   
ram:0001a28e    0794            str         r4,[sp,#local_2c+0x48]                  
ram:0001a290    000f            lsrs        param_1,param_1,#0x1c                   
ram:0001a292    0c77            strb        r4,[r1,#local_2c+0x48]                  
ram:0001a294    1030            adds        param_1,#0x10                           
ram:0001a296    4877            strb        param_1,[r1,#local_2c+0x49]             
ram:0001a298    8a7f            ldrb        r2,[r1,#local_2c+0x4a]                  
ram:0001a29a    f920            movs        param_1,#0xf9                           
ram:0001a29c    0240            ands        r2,param_1                              
ram:0001a29e    f720            movs        param_1,#0xf7                           
ram:0001a2a0    921c            adds        r2,r2,#0x2                              
ram:0001a2a2    0240            ands        r2,param_1                              
ram:0001a2a4    ef20            movs        param_1,#0xef                           
ram:0001a2a6    0240            ands        r2,param_1                              
ram:0001a2a8    0120            movs        param_1,#0x1                            
ram:0001a2aa    0243            orrs        r2,param_1                              
ram:0001a2ac    8a77            strb        r2,[r1,#local_2c+0x4a]                  
ram:0001a2ae    1421            movs        r1,#0x14                                
ram:0001a2b0    09a8            add         param_1,sp,#0x24                        
ram:0001a2b2    fdf79cff        bl          FUN_000181ee                            ;undefined FUN_000181ee(undefined * p...
ram:0001a2b6    08a8            add         param_1,sp,#0x20                        
ram:0001a2b8    0990            str         param_1,[sp,#local_24+0x48]             
ram:0001a2ba    07a8            add         param_1,sp,#0x1c                        
ram:0001a2bc    0a90            str         param_1,[sp,#local_20+0x48]             
ram:0001a2be    6946            mov         r1,sp                                   
ram:0001a2c0    8c85            strh        r4,[r1,#local_1c+0x48]                  
ram:0001a2c2    1420            movs        param_1,#0x14                           
ram:0001a2c4    cc85            strh        r4,[r1,#local_1a+0x48]                  
ram:0001a2c6    0886            strh        param_1,[r1,#local_18+0x48]             
ram:0001a2c8    0d94            str         r4,[sp,#local_14+0x48]                  
ram:0001a2ca    2b46            mov         r3,r5                                   
ram:0001a2cc    a888            ldrh        param_1,[r5,#0x4]                       
ram:0001a2ce    0833            adds        r3,#0x8                                 
ram:0001a2d0    09aa            add         r2,sp,#0x24                             
ram:0001a2d2    a2df            svc         0xa2                                    
ram:0001a2d4    0fb0            add         sp,#0x3c                                
ram:0001a2d6    30bd            pop         {r4,r5,pc}                              
                            DAT_0001a2d8:                 ;XREF[1,0]:   0001a284
ram:0001a2d8    32150000        undefined4  00001532h                               
                            ;************************************************************************************************
                            ;*                                           FUNCTION                                           *
                            ;************************************************************************************************
                            ;undefined8 FUN_0001a2dc(int param_1)
          ;param_1       int                 r0                      
          ;local_1c      undefined4         -1c                      ;XREF[1,0]:   0001a354
          ;local_20      undefined2         -20                      ;XREF[1,0]:   0001a352
          ;local_22      undefined2         -22                      ;XREF[1,0]:   0001a350
          ;local_24      undefined2         -24                      ;XREF[1,0]:   0001a34e
          ;local_28      undefined4         -28                      ;XREF[1,0]:   0001a34a
          ;local_2c      undefined4         -2c                      ;XREF[1,0]:   0001a346
          ;local_2e      undefined1         -2e                      ;XREF[1,0]:   0001a306
          ;local_30      undefined2         -30                      ;XREF[1,0]:   0001a30c
          ;local_34      undefined4         -34                      ;XREF[2,3]:   0001a318,0001a31a,0001a322,0001a324,0001a33a
          ;local_38      undefined4         -38                      ;XREF[1,0]:   0001a300
          ;local_3c      undefined4         -3c                      ;XREF[1,0]:   0001a2fe
          ;local_40      undefined4         -40                      ;XREF[1,0]:   0001a2fc
          ;local_44      undefined4         -44                      ;XREF[1,0]:   0001a2fa
          ;local_4c      undefined4         -4c                      ;XREF[1,0]:   0001a2f8
          ;local_50      undefined1         -50                      ;XREF[2,0]:   0001a2ee,0001a2f4
                                                          ;XREF[1,0]:   000196ba
ram:0001a2dc    f0b5            push        {r4,r5,r6,r7,lr}                        
ram:0001a2de    8fb0            sub         sp,#0x3c                                
ram:0001a2e0    0f46            mov         r7,r1                                   
ram:0001a2e2    0546            mov         r5,param_1                              
ram:0001a2e4    1c21            movs        r1,#0x1c                                
ram:0001a2e6    6846            mov         param_1,sp                              
ram:0001a2e8    fdf781ff        bl          FUN_000181ee                            ;undefined FUN_000181ee(undefined * p...
ram:0001a2ec    6846            mov         param_1,sp                              
ram:0001a2ee    0178            ldrb        r1,[param_1,#0x0]=>local_50             
ram:0001a2f0    0226            movs        r6,#0x2                                 
ram:0001a2f2    3143            orrs        r1,r6                                   
ram:0001a2f4    0170            strb        r1,[param_1,#0x0]=>local_50             
ram:0001a2f6    0024            movs        r4,#0x0                                 
ram:0001a2f8    0194            str         r4,[sp,#local_4c+0x50]                  
ram:0001a2fa    0394            str         r4,[sp,#local_44+0x50]                  
ram:0001a2fc    0494            str         r4,[sp,#local_40+0x50]                  
ram:0001a2fe    0594            str         r4,[sp,#local_3c+0x50]                  
ram:0001a300    0694            str         r4,[sp,#local_38+0x50]                  
ram:0001a302    a979            ldrb        r1,[r5,#0x6]                            
ram:0001a304    08a8            add         param_1,sp,#0x20                        
ram:0001a306    8170            strb        r1,[r0,#local_2e+0x30]                  
ram:0001a308    1749            ldr         r1,[DAT_0001a368]                       ;= 00001534h
ram:0001a30a    6846            mov         param_1,sp                              
ram:0001a30c    0184            strh        r1,[r0,#local_30+0x50]                  
ram:0001a30e    601c            adds        param_1,r4,#0x1                         
ram:0001a310    0107            lsls        r1,param_1,#0x1c                        
ram:0001a312    090f            lsrs        r1,r1,#0x1c                             
ram:0001a314    6846            mov         param_1,sp                              
ram:0001a316    1031            adds        r1,#0x10                                
ram:0001a318    0794            str         r4,[sp,#local_34+0x50]                  
ram:0001a31a    0177            strb        r1,[r0,#local_34+0x50]                  
ram:0001a31c    0020            movs        param_1,#0x0                            
ram:0001a31e    0146            mov         r1,param_1                              
ram:0001a320    6846            mov         param_1,sp                              
ram:0001a322    4177            strb        r1,[r0,#local_34+0x51]                  
ram:0001a324    817f            ldrb        r1,[r0,#local_34+0x52]                  
ram:0001a326    f920            movs        param_1,#0xf9                           
ram:0001a328    0140            ands        r1,param_1                              
ram:0001a32a    f720            movs        param_1,#0xf7                           
ram:0001a32c    891c            adds        r1,r1,#0x2                              
ram:0001a32e    0140            ands        r1,param_1                              
ram:0001a330    ef20            movs        param_1,#0xef                           
ram:0001a332    0140            ands        r1,param_1                              
ram:0001a334    0120            movs        param_1,#0x1                            
ram:0001a336    0143            orrs        r1,param_1                              
ram:0001a338    6846            mov         param_1,sp                              
ram:0001a33a    8177            strb        r1,[r0,#local_34+0x52]                  
ram:0001a33c    1421            movs        r1,#0x14                                
ram:0001a33e    09a8            add         param_1,sp,#0x24                        
ram:0001a340    fdf755ff        bl          FUN_000181ee                            ;undefined FUN_000181ee(undefined * p...
ram:0001a344    08a8            add         param_1,sp,#0x20                        
ram:0001a346    0990            str         param_1,[sp,#local_2c+0x50]             
ram:0001a348    07a8            add         param_1,sp,#0x1c                        
ram:0001a34a    0a90            str         param_1,[sp,#local_28+0x50]             
ram:0001a34c    6846            mov         param_1,sp                              
ram:0001a34e    8685            strh        r6,[r0,#local_24+0x50]                  
ram:0001a350    c485            strh        r4,[r0,#local_22+0x50]                  
ram:0001a352    0686            strh        r6,[r0,#local_20+0x50]                  
ram:0001a354    0d97            str         r7,[sp,#local_1c+0x50]                  
ram:0001a356    2b46            mov         r3,r5                                   
ram:0001a358    a888            ldrh        param_1,[r5,#0x4]                       
ram:0001a35a    2033            adds        r3,#0x20                                
ram:0001a35c    09aa            add         r2,sp,#0x24                             
ram:0001a35e    6946            mov         r1,sp                                   
ram:0001a360    a2df            svc         0xa2                                    
ram:0001a362    0fb0            add         sp,#0x3c                                
ram:0001a364    f0bd            pop         {r4,r5,r6,r7,pc}                        
ram:0001a366    0000            movs        r0,r0                                   
                            DAT_0001a368:                 ;XREF[1,0]:   0001a308
ram:0001a368    34150000        undefined4  00001534h                               
                            ;************************************************************************************************
                            ;*                                           FUNCTION                                           *
                            ;************************************************************************************************
                            ;undefined4 FUN_0001a36c(void)
                                                          ;XREF[1,0]:   0001a1b0
ram:0001a36c    0048            ldr         r0,[DAT_0001a370]                       ;= 00008091h
ram:0001a36e    7047            bx          lr                                      
                            DAT_0001a370:                 ;XREF[1,0]:   0001a36c
ram:0001a370    91800000        undefined4  00008091h                               
                            ;************************************************************************************************
                            ;*                                           FUNCTION                                           *
                            ;************************************************************************************************
                            ;int FUN_0001a374(char * param_1, int param_2)
          ;param_1       char *              r0                      
          ;param_2       int                 r1                      
                                                          ;XREF[1,0]:   0001a12e
ram:0001a374    f0b5            push        {r4,r5,r6,r7,lr}                        
ram:0001a376    0646            mov         r6,param_1                              
ram:0001a378    2648            ldr         param_1,[DAT_0001a414]                  ;= 20002088h
ram:0001a37a    0c46            mov         r4,param_2                              
ram:0001a37c    0178            ldrb        param_2,[param_1,#0x0]=>DAT_20002088    
ram:0001a37e    2648            ldr         param_1,[DAT_0001a418]                  ;= 00008008h
ram:0001a380    89b0            sub         sp,#0x24                                
ram:0001a382    0029            cmp         param_2,#0x0                            
ram:0001a384    3fd0            beq         LAB_0001a406                            
ram:0001a386    811d            adds        param_2,param_1,#0x6                    
ram:0001a388    002e            cmp         r6,#0x0                                 
ram:0001a38a    3ed0            beq         LAB_0001a40a                            
ram:0001a38c    002c            cmp         r4,#0x0                                 
ram:0001a38e    3cd0            beq         LAB_0001a40a                            
ram:0001a390    3178            ldrb        param_2,[r6,#0x0]                       
ram:0001a392    0029            cmp         param_2,#0x0                            
ram:0001a394    37d1            bne         LAB_0001a406                            
ram:0001a396    2149            ldr         param_2,[DAT_0001a41c]                  ;= 200027ACh
ram:0001a398    0025            movs        r5,#0x0                                 
ram:0001a39a    0968            ldr         param_2,[param_2,#0x0]=>DAT_200027ac    
ram:0001a39c    0029            cmp         param_2,#0x0                            
ram:0001a39e    32d0            beq         LAB_0001a406                            
ram:0001a3a0    b078            ldrb        param_1,[r6,#0x2]                       
ram:0001a3a2    0728            cmp         param_1,#0x7                            
ram:0001a3a4    33d2            bcs         LAB_0001a40e                            
ram:0001a3a6    1c21            movs        param_2,#0x1c                           
ram:0001a3a8    1d4f            ldr         r7,[DAT_0001a420]                       ;= 2000269Ch
ram:0001a3aa    4843            muls        param_1,param_2                         
ram:0001a3ac    c019            adds        param_1,param_1,r7                      
ram:0001a3ae    807e            ldrb        param_1,[param_1,#0x1a]                 
ram:0001a3b0    ff28            cmp         param_1,#0xff                           
ram:0001a3b2    2cd0            beq         LAB_0001a40e                            
ram:0001a3b4    e560            str         r5,[r4,#0xc]                            
ram:0001a3b6    b078            ldrb        param_1,[r6,#0x2]                       
ram:0001a3b8    6561            str         r5,[r4,#0x14]                           
ram:0001a3ba    4843            muls        param_1,param_2                         
ram:0001a3bc    c019            adds        param_1,param_1,r7                      
ram:0001a3be    2061            str         param_1,[r4,#0x10]                      
ram:0001a3c0    1648            ldr         param_1,[DAT_0001a41c]                  ;= 200027ACh
ram:0001a3c2    a560            str         r5,[r4,#0x8]                            
ram:0001a3c4    0c30            adds        param_1,#0xc                            
ram:0001a3c6    6060            str         param_1,[r4,#0x4]                       
ram:0001a3c8    6846            mov         param_1,sp                              
ram:0001a3ca    2060            str         param_1,[r4,#0x0]                       
ram:0001a3cc    1148            ldr         param_1,[DAT_0001a414]                  ;= 20002088h
ram:0001a3ce    b178            ldrb        param_2,[r6,#0x2]                       
ram:0001a3d0    07aa            add         r2,sp,#0x1c                             
ram:0001a3d2    1030            adds        param_1,#0x10                           
ram:0001a3d4    00f050fe        bl          FUN_0001b078                            ;undefined4 FUN_0001b078(uint * param...
ram:0001a3d8    0028            cmp         param_1,#0x0                            
ram:0001a3da    14d1            bne         LAB_0001a406                            
ram:0001a3dc    1c23            movs        r3,#0x1c                                
ram:0001a3de    1a46            mov         r2,r3                                   
ram:0001a3e0    07a9            add         param_2,sp,#0x1c                        
ram:0001a3e2    6846            mov         param_1,sp                              
ram:0001a3e4    00f006ff        bl          FUN_0001b1f4                            ;undefined4 FUN_0001b1f4(undefined4 *...
ram:0001a3e8    0028            cmp         param_1,#0x0                            
ram:0001a3ea    0cd1            bne         LAB_0001a406                            
ram:0001a3ec    e560            str         r5,[r4,#0xc]                            
ram:0001a3ee    b178            ldrb        param_2,[r6,#0x2]                       
ram:0001a3f0    1c22            movs        r2,#0x1c                                
ram:0001a3f2    5143            muls        param_2,r2                              
ram:0001a3f4    c919            adds        param_2,param_2,r7                      
ram:0001a3f6    6561            str         r5,[r4,#0x14]                           
ram:0001a3f8    2161            str         param_2,[r4,#0x10]                      
ram:0001a3fa    0849            ldr         param_2,[DAT_0001a41c]                  ;= 200027ACh
ram:0001a3fc    a560            str         r5,[r4,#0x8]                            
ram:0001a3fe    0c31            adds        param_2,#0xc                            
ram:0001a400    6160            str         param_2,[r4,#0x4]                       
ram:0001a402    6946            mov         param_2,sp                              
ram:0001a404    2160            str         param_2,[r4,#0x0]                       
                            LAB_0001a406:                 ;XREF[7,0]:   0001a384,0001a394,0001a39e,0001a3da
                                                          ;             0001a3ea,0001a40c,0001a412
ram:0001a406    09b0            add         sp,#0x24                                
ram:0001a408    f0bd            pop         {r4,r5,r6,r7,pc}                        
                            LAB_0001a40a:                 ;XREF[2,0]:   0001a38a,0001a38e
ram:0001a40a    0846            mov         param_1,param_2                         
ram:0001a40c    fbe7            b           LAB_0001a406                            
                            LAB_0001a40e:                 ;XREF[2,0]:   0001a3a4,0001a3b2
ram:0001a40e    0248            ldr         param_1,[DAT_0001a418]                  ;= 00008008h
ram:0001a410    0830            adds        param_1,#0x8                            
ram:0001a412    f8e7            b           LAB_0001a406                            
                            DAT_0001a414:                 ;XREF[2,0]:   0001a378,0001a3cc
ram:0001a414    88200020        undefined4  20002088h                               
                            DAT_0001a418:                 ;XREF[2,0]:   0001a37e,0001a40e
ram:0001a418    08800000        undefined4  00008008h                               
                            DAT_0001a41c:                 ;XREF[3,0]:   0001a396,0001a3c0,0001a3fa
ram:0001a41c    ac270020        undefined4  200027ACh                               
                            DAT_0001a420:                 ;XREF[1,0]:   0001a3a8
ram:0001a420    9c260020        undefined4  2000269Ch                               
                            ;************************************************************************************************
                            ;*                                           FUNCTION                                           *
                            ;************************************************************************************************
                            ;int FUN_0001a424(uint param_1, char * param_2)
          ;param_1       uint                r0                      
          ;param_2       char *              r1                      
                                                          ;XREF[1,0]:   0001a122
ram:0001a424    30b5            push        {r4,r5,lr}                              
ram:0001a426    0446            mov         r4,param_1                              
ram:0001a428    0029            cmp         param_2,#0x0                            
ram:0001a42a    03d0            beq         LAB_0001a434                            
ram:0001a42c    0878            ldrb        param_1,[param_2,#0x0]                  
ram:0001a42e    0028            cmp         param_1,#0x0                            
ram:0001a430    14d1            bne         LAB_0001a45c                            
ram:0001a432    01e0            b           LAB_0001a438                            
                            LAB_0001a434:                 ;XREF[1,0]:   0001a42a
ram:0001a434    0b48            ldr         param_1,[DAT_0001a464]                  ;= 0000800Eh
                            LAB_0001a436:                 ;XREF[1,0]:   0001a450
ram:0001a436    30bd            pop         {r4,r5,pc}                              
                            LAB_0001a438:                 ;XREF[1,0]:   0001a432
ram:0001a438    0b48            ldr         param_1,[DAT_0001a468]                  ;= 200027ACh
ram:0001a43a    0023            movs        r3,#0x0                                 
ram:0001a43c    0068            ldr         param_1,[param_1,#0x0]=>DAT_200027ac    
ram:0001a43e    0028            cmp         param_1,#0x0                            
ram:0001a440    0cd0            beq         LAB_0001a45c                            
ram:0001a442    094a            ldr         r2,[DAT_0001a468]                       ;= 200027ACh
ram:0001a444    ff20            movs        param_1,#0xff                           
ram:0001a446    8870            strb        param_1,[param_2,#0x2]                  
ram:0001a448    0c3a            subs        r2,#0xc                                 
ram:0001a44a    1589            ldrh        r5,[r2,#0x8]=>DAT_200027a8              
ram:0001a44c    0520            movs        param_1,#0x5                            
ram:0001a44e    a542            cmp         r5,r4                                   
ram:0001a450    f1d1            bne         LAB_0001a436                            
ram:0001a452    4b70            strb        r3,[param_2,#0x1]                       
ram:0001a454    d07a            ldrb        param_1,[r2,#0xb]=>DAT_200027ab         
ram:0001a456    8870            strb        param_1,[param_2,#0x2]                  
ram:0001a458    0020            movs        param_1,#0x0                            
ram:0001a45a    30bd            pop         {r4,r5,pc}                              
                            LAB_0001a45c:                 ;XREF[2,0]:   0001a430,0001a440
ram:0001a45c    0148            ldr         param_1,[DAT_0001a464]                  ;= 0000800Eh
ram:0001a45e    801f            subs        param_1,param_1,#0x6                    
ram:0001a460    30bd            pop         {r4,r5,pc}                              
ram:0001a462    0000            movs        r0,r0                                   
                            DAT_0001a464:                 ;XREF[2,0]:   0001a434,0001a45c
ram:0001a464    0e800000        undefined4  0000800Eh                               
                            DAT_0001a468:                 ;XREF[2,0]:   0001a438,0001a442
ram:0001a468    ac270020        undefined4  200027ACh                               
                            ;************************************************************************************************
                            ;*                                           FUNCTION                                           *
                            ;************************************************************************************************
                            ;int FUN_0001a46c(char * param_1, undefined4 * param_2)
          ;param_1       char *              r0                      
          ;param_2       undefined4 *        r1                      
                                                          ;XREF[1,0]:   0001a13a
ram:0001a46c    0b46            mov         r3,param_2                              
ram:0001a46e    10b5            push        {r4,lr}                                 
ram:0001a470    1a49            ldr         param_2,[DAT_0001a4dc]                  ;= 20002088h
ram:0001a472    1b4a            ldr         r2,[DAT_0001a4e0]                       ;= 00008008h
ram:0001a474    0978            ldrb        param_2,[param_2,#0x0]=>DAT_20002088    
ram:0001a476    0029            cmp         param_2,#0x0                            
ram:0001a478    20d0            beq         LAB_0001a4bc                            
ram:0001a47a    911d            adds        param_2,r2,#0x6                         
ram:0001a47c    0028            cmp         param_1,#0x0                            
ram:0001a47e    05d0            beq         LAB_0001a48c                            
ram:0001a480    002b            cmp         r3,#0x0                                 
ram:0001a482    03d0            beq         LAB_0001a48c                            
ram:0001a484    0178            ldrb        param_2,[param_1,#0x0]                  
ram:0001a486    0029            cmp         param_2,#0x0                            
ram:0001a488    18d1            bne         LAB_0001a4bc                            
ram:0001a48a    01e0            b           LAB_0001a490                            
                            LAB_0001a48c:                 ;XREF[2,0]:   0001a47e,0001a482
ram:0001a48c    0846            mov         param_1,param_2                         
ram:0001a48e    10bd            pop         {r4,pc}                                 
                            LAB_0001a490:                 ;XREF[1,0]:   0001a48a
ram:0001a490    1449            ldr         param_2,[DAT_0001a4e4]                  ;= 200027ACh
ram:0001a492    0968            ldr         param_2,[param_2,#0x0]=>DAT_200027ac    
ram:0001a494    0029            cmp         param_2,#0x0                            
ram:0001a496    11d0            beq         LAB_0001a4bc                            
ram:0001a498    114a            ldr         r2,[DAT_0001a4e0]                       ;= 00008008h
ram:0001a49a    8178            ldrb        param_2,[param_1,#0x2]                  
ram:0001a49c    d21e            subs        r2,r2,#0x3                              
ram:0001a49e    ff29            cmp         param_2,#0xff                           
ram:0001a4a0    0ed0            beq         LAB_0001a4c0                            
ram:0001a4a2    1c20            movs        param_1,#0x1c                           
ram:0001a4a4    4143            muls        param_2,param_1                         
ram:0001a4a6    1048            ldr         param_1,[DAT_0001a4e8]                  ;= 2000269Ch
ram:0001a4a8    0918            adds        param_2,param_2,param_1                 
ram:0001a4aa    887e            ldrb        param_1,[param_2,#0x1a]                 
ram:0001a4ac    8007            lsls        param_1,param_1,#0x1e                   
ram:0001a4ae    05d4            bmi         LAB_0001a4bc                            
ram:0001a4b0    0722            movs        r2,#0x7                                 
ram:0001a4b2    1846            mov         param_1,r3                              
ram:0001a4b4    1031            adds        param_2,#0x10                           
                            LAB_0001a4b6:                 ;XREF[1,0]:   0001a4da
ram:0001a4b6    fdf781fe        bl          FUN_000181bc                            ;undefined FUN_000181bc(undefined4 * ...
ram:0001a4ba    0022            movs        r2,#0x0                                 
                            LAB_0001a4bc:                 ;XREF[6,0]:   0001a478,0001a488,0001a496,0001a4ae
                                                          ;             0001a4c4,0001a4d4
ram:0001a4bc    1046            mov         param_1,r2                              
ram:0001a4be    10bd            pop         {r4,pc}                                 
                            LAB_0001a4c0:                 ;XREF[1,0]:   0001a4a0
ram:0001a4c0    4078            ldrb        param_1,[param_1,#0x1]                  
ram:0001a4c2    ff28            cmp         param_1,#0xff                           
ram:0001a4c4    fad0            beq         LAB_0001a4bc                            
ram:0001a4c6    0c21            movs        param_2,#0xc                            
ram:0001a4c8    4843            muls        param_1,param_2                         
ram:0001a4ca    0649            ldr         param_2,[DAT_0001a4e4]                  ;= 200027ACh
ram:0001a4cc    0c39            subs        param_2,#0xc                            
ram:0001a4ce    4118            adds        param_2,param_1,param_2                 
ram:0001a4d0    887a            ldrb        param_1,[param_2,#0xa]                  
ram:0001a4d2    8007            lsls        param_1,param_1,#0x1e                   
ram:0001a4d4    f2d5            bpl         LAB_0001a4bc                            
ram:0001a4d6    0722            movs        r2,#0x7                                 
ram:0001a4d8    1846            mov         param_1,r3                              
ram:0001a4da    ece7            b           LAB_0001a4b6                            
                            DAT_0001a4dc:                 ;XREF[1,0]:   0001a470
ram:0001a4dc    88200020        undefined4  20002088h                               
                            DAT_0001a4e0:                 ;XREF[2,0]:   0001a472,0001a498
ram:0001a4e0    08800000        undefined4  00008008h                               
                            DAT_0001a4e4:                 ;XREF[2,0]:   0001a490,0001a4ca
ram:0001a4e4    ac270020        undefined4  200027ACh                               
                            DAT_0001a4e8:                 ;XREF[1,0]:   0001a4a6
ram:0001a4e8    9c260020        undefined4  2000269Ch                               
                            ;************************************************************************************************
                            ;*                                           FUNCTION                                           *
                            ;************************************************************************************************
                            ;undefined4 FUN_0001a4ec(int * param_1)
          ;param_1       int *               r0                      
                                                          ;XREF[1,0]:   0001872a
ram:0001a4ec    10b5            push        {r4,lr}                                 
ram:0001a4ee    0e49            ldr         r1,[DAT_0001a528]                       ;= 20002110h
ram:0001a4f0    0023            movs        r3,#0x0                                 
ram:0001a4f2    8a78            ldrb        r2,[r1,#0x2]=>DAT_20002112              
ram:0001a4f4    cc78            ldrb        r4,[r1,#0x3]=>DAT_20002113              
ram:0001a4f6    a242            cmp         r2,r4                                   
ram:0001a4f8    12d0            beq         LAB_0001a520                            
ram:0001a4fa    521c            adds        r2,r2,#0x1                              
ram:0001a4fc    d2b2            uxtb        r2,r2                                   
ram:0001a4fe    8a70            strb        r2,[r1,#0x2]=>DAT_20002112              
ram:0001a500    022a            cmp         r2,#0x2                                 
ram:0001a502    00d1            bne         LAB_0001a506                            
ram:0001a504    8b70            strb        r3,[r1,#0x2]=>DAT_20002112              
                            LAB_0001a506:                 ;XREF[1,0]:   0001a502
ram:0001a506    8a78            ldrb        r2,[r1,#0x2]=>DAT_20002112              
ram:0001a508    074b            ldr         r3,[DAT_0001a528]                       ;= 20002110h
ram:0001a50a    9200            lsls        r2,r2,#0x2                              
ram:0001a50c    1c33            adds        r3,#0x1c                                
ram:0001a50e    9a58            ldr         r2,[r3,r2]=>DAT_2000212c                
ram:0001a510    0260            str         r2,[param_1,#0x0]                       
ram:0001a512    4869            ldr         param_1,[r1,#0x14]=>DAT_20002124        
ram:0001a514    1018            adds        param_1,r2,param_1                      
ram:0001a516    0002            lsls        param_1,param_1,#0x8                    
ram:0001a518    000a            lsrs        param_1,param_1,#0x8                    
ram:0001a51a    4861            str         param_1,[r1,#0x14]=>DAT_20002124        
ram:0001a51c    0120            movs        param_1,#0x1                            
ram:0001a51e    10bd            pop         {r4,pc}                                 
                            LAB_0001a520:                 ;XREF[1,0]:   0001a4f8
ram:0001a520    0360            str         r3,[param_1,#0x0]                       
ram:0001a522    0020            movs        param_1,#0x0                            
ram:0001a524    10bd            pop         {r4,pc}                                 
ram:0001a526    0000            movs        r0,r0                                   
                            DAT_0001a528:                 ;XREF[2,0]:   0001a4ee,0001a508
ram:0001a528    10210020        undefined4  20002110h                               
                            ;************************************************************************************************
                            ;*                                           FUNCTION                                           *
                            ;************************************************************************************************
                            ;undefined FUN_0001a52c(uint param_1, int param_2, int * param_3)
          ;param_1       uint                r0                      
          ;param_2       int                 r1                      
          ;param_3       int *               r2                      
          ;local_1c      undefined4         -1c                      ;XREF[1,0]:   0001a560
                                                          ;XREF[1,0]:   00018740
ram:0001a52c    f7b5            push        {param_1,param_2,param_3,r4,r5,r6,r7,lr}
ram:0001a52e    144c            ldr         r4,[DAT_0001a580]                       ;= 20002110h
ram:0001a530    0025            movs        r5,#0x0                                 
ram:0001a532    a768            ldr         r7,[r4,#0x8]=>DAT_20002118              
ram:0001a534    2369            ldr         r3,[r4,#0x10]=>DAT_20002120             
ram:0001a536    1ee0            b           LAB_0001a576                            
                            LAB_0001a538:                 ;XREF[1,0]:   0001a578
ram:0001a538    2421            movs        param_2,#0x24                           
ram:0001a53a    5943            muls        param_2,r3                              
ram:0001a53c    c919            adds        param_2,param_2,r7                      
ram:0001a53e    4e68            ldr         r6,[param_2,#0x4]                       
ram:0001a540    8642            cmp         r6,param_1                              
ram:0001a542    02d9            bls         LAB_0001a54a                            
ram:0001a544    301a            subs        param_1,r6,param_1                      
ram:0001a546    4860            str         param_1,[param_2,#0x4]                  
ram:0001a548    17e0            b           LAB_0001a57a                            
                            LAB_0001a54a:                 ;XREF[1,0]:   0001a542
ram:0001a54a    801b            subs        param_1,param_1,r6                      
ram:0001a54c    7519            adds        r5,r6,r5                                
ram:0001a54e    0026            movs        r6,#0x0                                 
ram:0001a550    4e60            str         r6,[param_2,#0x4]                       
ram:0001a552    0e75            strb        r6,[param_2,#0x14]                      
ram:0001a554    0e69            ldr         r6,[param_2,#0x10]                      
ram:0001a556    9c46            mov         r12,r3                                  
ram:0001a558    0b6a            ldr         r3,[param_2,#0x20]                      
ram:0001a55a    b646            mov         lr,r6                                   
ram:0001a55c    002e            cmp         r6,#0x0                                 
ram:0001a55e    0ad0            beq         LAB_0001a576                            
ram:0001a560    019e            ldr         r6,[sp,#local_1c+0x20]                  
ram:0001a562    7619            adds        r6,r6,r5                                
ram:0001a564    3602            lsls        r6,r6,#0x8                              
ram:0001a566    360a            lsrs        r6,r6,#0x8                              
ram:0001a568    8e60            str         r6,[param_2,#0x8]                       
ram:0001a56a    7646            mov         r6,lr                                   
ram:0001a56c    ce60            str         r6,[param_2,#0xc]                       
ram:0001a56e    1668            ldr         r6,[param_3,#0x0]                       
ram:0001a570    0e62            str         r6,[param_2,#0x20]                      
ram:0001a572    6146            mov         param_2,r12                             
ram:0001a574    1160            str         param_2,[param_3,#0x0]                  
                            LAB_0001a576:                 ;XREF[2,0]:   0001a536,0001a55e
ram:0001a576    591c            adds        param_2,r3,#0x1                         
ram:0001a578    ded1            bne         LAB_0001a538                            
                            LAB_0001a57a:                 ;XREF[1,0]:   0001a548
ram:0001a57a    2361            str         r3,[r4,#0x10]=>DAT_20002120             
ram:0001a57c    febd            pop         {param_2,param_3,r3,r4,r5,r6,r7,pc}     
ram:0001a57e    0000            movs        r0,r0                                   
                            DAT_0001a580:                 ;XREF[1,0]:   0001a52e
ram:0001a580    10210020        undefined4  20002110h                               
                            ;************************************************************************************************
                            ;*                                           FUNCTION                                           *
                            ;************************************************************************************************
                            ;undefined FUN_0001a584(int param_1)
          ;param_1       int                 r0                      
                                                          ;XREF[5,0]:   0001933e,00019444,000194f4,000194fc
                                                          ;             0001bdca
ram:0001a584    10b5            push        {r4,lr}                                 
ram:0001a586    0028            cmp         param_1,#0x0                            
ram:0001a588    23d0            beq         LAB_0001a5d2                            
ram:0001a58a    124b            ldr         r3,[DAT_0001a5d4]                       ;= 20002148h
ram:0001a58c    0022            movs        r2,#0x0                                 
ram:0001a58e    001f            subs        param_1,param_1,#0x4                    
ram:0001a590    1968            ldr         r1,[r3,#0x0]=>DAT_20002148              
ram:0001a592    03e0            b           LAB_0001a59c                            
                            LAB_0001a594:                 ;XREF[1,0]:   0001a59e
ram:0001a594    8142            cmp         r1,param_1                              
ram:0001a596    03d8            bhi         LAB_0001a5a0                            
ram:0001a598    0a46            mov         r2,r1                                   
ram:0001a59a    4968            ldr         r1,[r1,#0x4]                            
                            LAB_0001a59c:                 ;XREF[1,0]:   0001a592
ram:0001a59c    0029            cmp         r1,#0x0                                 
ram:0001a59e    f9d1            bne         LAB_0001a594                            
                            LAB_0001a5a0:                 ;XREF[1,0]:   0001a596
ram:0001a5a0    002a            cmp         r2,#0x0                                 
ram:0001a5a2    0ad0            beq         LAB_0001a5ba                            
ram:0001a5a4    1368            ldr         r3,[r2,#0x0]                            
ram:0001a5a6    841a            subs        r4,param_1,r2                           
ram:0001a5a8    9c42            cmp         r4,r3                                   
ram:0001a5aa    04d1            bne         LAB_0001a5b6                            
ram:0001a5ac    0068            ldr         param_1,[param_1,#0x0]                  
ram:0001a5ae    1818            adds        param_1,r3,param_1                      
ram:0001a5b0    1060            str         param_1,[r2,#0x0]                       
ram:0001a5b2    1046            mov         param_1,r2                              
ram:0001a5b4    02e0            b           LAB_0001a5bc                            
                            LAB_0001a5b6:                 ;XREF[1,0]:   0001a5aa
ram:0001a5b6    5060            str         param_1,[r2,#DAT_00000004]              
ram:0001a5b8    00e0            b           LAB_0001a5bc                            
                            LAB_0001a5ba:                 ;XREF[1,0]:   0001a5a2
ram:0001a5ba    1860            str         param_1,[r3,#0x0]=>DAT_20002148         
                            LAB_0001a5bc:                 ;XREF[2,0]:   0001a5b4,0001a5b8
ram:0001a5bc    0029            cmp         r1,#0x0                                 
ram:0001a5be    07d0            beq         LAB_0001a5d0                            
ram:0001a5c0    0268            ldr         r2,[param_1,#0x0]                       
ram:0001a5c2    0b1a            subs        r3,r1,param_1                           
ram:0001a5c4    9342            cmp         r3,r2                                   
ram:0001a5c6    03d1            bne         LAB_0001a5d0                            
ram:0001a5c8    0b68            ldr         r3,[r1,#0x0]                            
ram:0001a5ca    d218            adds        r2,r2,r3                                
ram:0001a5cc    0260            str         r2,[param_1,#0x0]                       
ram:0001a5ce    4968            ldr         r1,[r1,#0x4]                            
                            LAB_0001a5d0:                 ;XREF[2,0]:   0001a5be,0001a5c6
ram:0001a5d0    4160            str         r1,[param_1,#DAT_00000004]              
                            LAB_0001a5d2:                 ;XREF[1,0]:   0001a588
ram:0001a5d2    10bd            pop         {r4,pc}                                 
                            DAT_0001a5d4:                 ;XREF[1,0]:   0001a58a
ram:0001a5d4    48210020        undefined4  20002148h                               
                            ;************************************************************************************************
                            ;*                                           FUNCTION                                           *
                            ;************************************************************************************************
                            ;undefined FUN_0001a5d8(int param_1)
          ;param_1       int                 r0                      
                                                          ;XREF[1,0]:   0001aa0e
ram:0001a5d8    10b5            push        {r4,lr}                                 
ram:0001a5da    0949            ldr         r1,[DAT_0001a600]                       ;= 10000040h
ram:0001a5dc    096a            ldr         r1,[r1,#0x20]=>DAT_10000060             
ram:0001a5de    0918            adds        r1,r1,param_1                           
ram:0001a5e0    4803            lsls        param_1,r1,#0xd                         
ram:0001a5e2    4840            eors        param_1,r1                              
ram:0001a5e4    420c            lsrs        r2,param_1,#0x11                        
ram:0001a5e6    4240            eors        r2,param_1                              
ram:0001a5e8    5301            lsls        r3,r2,#0x5                              
ram:0001a5ea    5340            eors        r3,r2                                   
ram:0001a5ec    054a            ldr         r2,[DAT_0001a604]                       ;= 20002006h
ram:0001a5ee    0020            movs        param_1,#0x0                            
                            LAB_0001a5f0:                 ;XREF[1,0]:   0001a5fc
ram:0001a5f0    c400            lsls        r4,param_1,#0x3                         
ram:0001a5f2    1946            mov         r1,r3                                   
ram:0001a5f4    e140            lsrs        r1,r4                                   
                                                          ; FWD[2,0]:   20002006,20002007
ram:0001a5f6    1154            strb        r1,[r2,param_1]=>DAT_20002006           
ram:0001a5f8    401c            adds        param_1,param_1,#0x1                    
ram:0001a5fa    0428            cmp         param_1,#0x4                            
ram:0001a5fc    f8db            blt         LAB_0001a5f0                            
ram:0001a5fe    10bd            pop         {r4,pc}                                 
                            DAT_0001a600:                 ;XREF[1,0]:   0001a5da
ram:0001a600    40000010        undefined4  10000040h                               
                            DAT_0001a604:                 ;XREF[1,0]:   0001a5ec
ram:0001a604    06200020        undefined4  20002006h                               
                            ;************************************************************************************************
                            ;*                                           FUNCTION                                           *
                            ;************************************************************************************************
                            ;uint FUN_0001a608(void)
                                                          ;XREF[1,0]:   00018aac
ram:0001a608    10b5            push        {r4,lr}                                 
ram:0001a60a    1348            ldr         r0,[DAT_0001a658]                       ;= 2000201Ch
ram:0001a60c    0168            ldr         r1,[r0,#0x0]=>DAT_2000201c              
ram:0001a60e    8907            lsls        r1,r1,#0x1e                             
ram:0001a610    c90f            lsrs        r1,r1,#0x1f                             
ram:0001a612    cb00            lsls        r3,r1,#0x3                              
ram:0001a614    011d            adds        r1,r0,#0x4                              
ram:0001a616    0a68            ldr         r2,[r1,#0x0]=>DAT_20002020              
ram:0001a618    0824            movs        r4,#0x8                                 
ram:0001a61a    a243            bics        r2,r4                                   
ram:0001a61c    1a43            orrs        r2,r3                                   
ram:0001a61e    0a60            str         r2,[r1,#0x0]=>DAT_20002020              
ram:0001a620    0268            ldr         r2,[r0,#0x0]=>DAT_2000201c              
ram:0001a622    0368            ldr         r3,[r0,#0x0]=>DAT_2000201c              
ram:0001a624    5207            lsls        r2,r2,#0x1d                             
ram:0001a626    9b07            lsls        r3,r3,#0x1e                             
ram:0001a628    5a40            eors        r2,r3                                   
ram:0001a62a    0968            ldr         r1,[r1,#0x0]=>DAT_20002020              
ram:0001a62c    d20f            lsrs        r2,r2,#0x1f                             
ram:0001a62e    4907            lsls        r1,r1,#0x1d                             
ram:0001a630    0b0f            lsrs        r3,r1,#0x1c                             
ram:0001a632    0146            mov         r1,r0                                   
ram:0001a634    0d31            adds        r1,#0xd                                 
ram:0001a636    c978            ldrb        r1,[r1,#0x3]=>DAT_2000202c              
ram:0001a638    1343            orrs        r3,r2                                   
ram:0001a63a    c906            lsls        r1,r1,#0x1b                             
ram:0001a63c    c90e            lsrs        r1,r1,#0x1b                             
ram:0001a63e    0e29            cmp         r1,#0xe                                 
ram:0001a640    01d3            bcc         LAB_0001a646                            
ram:0001a642    0121            movs        r1,#0x1                                 
ram:0001a644    00e0            b           LAB_0001a648                            
                            LAB_0001a646:                 ;XREF[1,0]:   0001a640
ram:0001a646    0021            movs        r1,#0x0                                 
                            LAB_0001a648:                 ;XREF[1,0]:   0001a644
ram:0001a648    0901            lsls        r1,r1,#0x4                              
ram:0001a64a    0068            ldr         r0,[r0,#0x0]=>DAT_2000201c              
ram:0001a64c    1943            orrs        r1,r3                                   
ram:0001a64e    8007            lsls        r0,r0,#0x1e                             
ram:0001a650    c00f            lsrs        r0,r0,#0x1f                             
ram:0001a652    4001            lsls        r0,r0,#0x5                              
ram:0001a654    0843            orrs        r0,r1                                   
ram:0001a656    10bd            pop         {r4,pc}                                 
                            DAT_0001a658:                 ;XREF[1,0]:   0001a60a
ram:0001a658    1c200020        undefined4  2000201Ch                               
                            ;************************************************************************************************
                            ;*                                           FUNCTION                                           *
                            ;************************************************************************************************
                            ;int FUN_0001a65c(uint param_1, uint param_2, undefined4 param_3, uint param_4)
          ;param_1       uint                r0                      
          ;param_2       uint                r1                      
          ;param_3       undefined4          r2                      
          ;param_4       uint                r3                      
                                                          ;XREF[0,2]:   00018c28,00018c4c
ram:0001a65c    70b5            push        {r4,r5,r6,lr}                           
ram:0001a65e    094d            ldr         r5,[DAT_0001a684]                       ;= 200020DCh
ram:0001a660    0446            mov         r4,param_1                              
ram:0001a662    0e46            mov         r6,param_2                              
ram:0001a664    e868            ldr         param_1,[r5,#0xc]=>DAT_200020e8         
ram:0001a666    fef7cbfd        bl          FUN_00019200                            ;undefined4 FUN_00019200(uint param_1...
ram:0001a66a    0028            cmp         param_1,#0x0                            
ram:0001a66c    09d1            bne         LAB_0001a682                            
ram:0001a66e    2846            mov         param_1,r5                              
ram:0001a670    1030            adds        param_1,#0x10                           
ram:0001a672    0660            str         r6,[param_1,#0x0]=>DAT_200020ec         
ram:0001a674    4460            str         r4,[param_1,#0x4]=>DAT_200020f0         
ram:0001a676    3443            orrs        r4,r6                                   
ram:0001a678    2246            mov         param_3,r4                              
ram:0001a67a    a968            ldr         param_2,[r5,#0x8]=>DAT_200020e4         
ram:0001a67c    e868            ldr         param_1,[r5,#0xc]=>DAT_200020e8         
ram:0001a67e    fef77dfd        bl          FUN_0001917c                            ;longlong FUN_0001917c(uint param_1, ...
                            LAB_0001a682:                 ;XREF[1,0]:   0001a66c
ram:0001a682    70bd            pop         {r4,r5,r6,pc}                           
                            DAT_0001a684:                 ;XREF[1,0]:   0001a65e
ram:0001a684    dc200020        undefined4  200020DCh                               
                            ;************************************************************************************************
                            ;*                                           FUNCTION                                           *
                            ;************************************************************************************************
                            ;undefined8 FUN_0001a688(ushort * param_1)
          ;param_1       ushort *            r0                      
          ;local_18      undefined4         -18                      ;XREF[1,0]:   0001a72a
          ;local_1c      undefined2         -1c                      ;XREF[1,0]:   0001a726
          ;local_1e      undefined2         -1e                      ;XREF[1,0]:   0001a724
          ;local_20      undefined2         -20                      ;XREF[1,0]:   0001a722
          ;local_24      undefined4         -24                      ;XREF[1,0]:   0001a71c
          ;local_28      undefined4         -28                      ;XREF[1,0]:   0001a718
          ;local_2a      undefined1         -2a                      ;XREF[1,0]:   0001a6de
          ;local_2c      undefined2         -2c                      ;XREF[1,0]:   0001a6e4
          ;local_30      undefined4         -30                      ;XREF[2,3]:   0001a69a,0001a69c,0001a6a6,0001a6a8,0001a6b0
          ;local_34      undefined4         -34                      ;XREF[1,0]:   0001a6d6
          ;local_38      undefined4         -38                      ;XREF[1,0]:   0001a6d0
          ;local_3c      undefined4         -3c                      ;XREF[1,0]:   0001a6d4
          ;local_40      undefined4         -40                      ;XREF[1,0]:   0001a6d2
          ;local_48      undefined4         -48                      ;XREF[1,0]:   0001a6ce
          ;local_4c      undefined1         -4c                      ;XREF[2,0]:   0001a6bc,0001a6ca
          ;local_50      undefined4         -50                      ;XREF[2,3]:   0001a6ee,0001a6f0,0001a6fa,0001a6fc,0001a70c
                                                          ;XREF[1,0]:   00019850
ram:0001a688    70b5            push        {r4,r5,r6,lr}                           
ram:0001a68a    0024            movs        r4,#0x0                                 
ram:0001a68c    0546            mov         r5,param_1                              
ram:0001a68e    601c            adds        param_1,r4,#0x1                         
ram:0001a690    90b0            sub         sp,#0x40                                
ram:0001a692    0007            lsls        param_1,param_1,#0x1c                   
ram:0001a694    000f            lsrs        param_1,param_1,#0x1c                   
ram:0001a696    08a9            add         r1,sp,#0x20                             
ram:0001a698    1030            adds        param_1,#0x10                           
ram:0001a69a    0894            str         r4,[sp,#local_30+0x50]                  
ram:0001a69c    0870            strb        param_1,[r1,#0x0]=>local_30             
ram:0001a69e    601c            adds        param_1,r4,#0x1                         
ram:0001a6a0    0007            lsls        param_1,param_1,#0x1c                   
ram:0001a6a2    000f            lsrs        param_1,param_1,#0x1c                   
ram:0001a6a4    1030            adds        param_1,#0x10                           
ram:0001a6a6    4870            strb        param_1,[r1,#local_30+0x31]             
ram:0001a6a8    8878            ldrb        param_1,[r1,#local_30+0x32]             
ram:0001a6aa    f926            movs        r6,#0xf9                                
ram:0001a6ac    3040            ands        param_1,r6                              
ram:0001a6ae    801c            adds        param_1,param_1,#0x2                    
ram:0001a6b0    8870            strb        param_1,[r1,#local_30+0x32]             
ram:0001a6b2    1c21            movs        r1,#0x1c                                
ram:0001a6b4    01a8            add         param_1,sp,#0x4                         
ram:0001a6b6    fdf79afd        bl          FUN_000181ee                            ;undefined FUN_000181ee(undefined * p...
ram:0001a6ba    6946            mov         r1,sp                                   
ram:0001a6bc    0b79            ldrb        r3,[r1,#local_4c+0x50]                  
ram:0001a6be    0220            movs        param_1,#0x2                            
ram:0001a6c0    0343            orrs        r3,param_1                              
ram:0001a6c2    f720            movs        param_1,#0xf7                           
ram:0001a6c4    0340            ands        r3,param_1                              
ram:0001a6c6    ef22            movs        r2,#0xef                                
ram:0001a6c8    1340            ands        r3,r2                                   
ram:0001a6ca    0b71            strb        r3,[r1,#local_4c+0x50]                  
ram:0001a6cc    08a9            add         r1,sp,#0x20                             
ram:0001a6ce    0294            str         r4,[sp,#local_48+0x50]                  
ram:0001a6d0    0691            str         r1,[sp,#local_38+0x50]                  
ram:0001a6d2    0494            str         r4,[sp,#local_40+0x50]                  
ram:0001a6d4    0594            str         r4,[sp,#local_3c+0x50]                  
ram:0001a6d6    0794            str         r4,[sp,#local_34+0x50]                  
ram:0001a6d8    3221            movs        r1,#0x32                                
ram:0001a6da    4b5d            ldrb        r3,[r1,r5]                              
ram:0001a6dc    08a9            add         r1,sp,#0x20                             
ram:0001a6de    8b71            strb        r3,[r1,#local_2a+0x30]                  
ram:0001a6e0    164b            ldr         r3,[DAT_0001a73c]                       ;= 00001528h
ram:0001a6e2    6946            mov         r1,sp                                   
ram:0001a6e4    8b84            strh        r3,[r1,#local_2c+0x50]                  
ram:0001a6e6    0121            movs        r1,#0x1                                 
ram:0001a6e8    0b46            mov         r3,r1                                   
ram:0001a6ea    6946            mov         r1,sp                                   
ram:0001a6ec    1033            adds        r3,#0x10                                
ram:0001a6ee    0094            str         r4,[sp,#0x0]=>local_50                  
ram:0001a6f0    0b70            strb        r3,[r1,#0x0]=>local_50                  
ram:0001a6f2    0121            movs        r1,#0x1                                 
ram:0001a6f4    0b46            mov         r3,r1                                   
ram:0001a6f6    6946            mov         r1,sp                                   
ram:0001a6f8    1033            adds        r3,#0x10                                
ram:0001a6fa    4b70            strb        r3,[r1,#local_50+0x51]                  
ram:0001a6fc    8978            ldrb        r1,[r1,#local_50+0x52]                  
ram:0001a6fe    3140            ands        r1,r6                                   
ram:0001a700    891c            adds        r1,r1,#0x2                              
ram:0001a702    0140            ands        r1,param_1                              
ram:0001a704    1140            ands        r1,r2                                   
ram:0001a706    4808            lsrs        param_1,r1,#0x1                         
ram:0001a708    4000            lsls        param_1,param_1,#0x1                    
ram:0001a70a    6946            mov         r1,sp                                   
ram:0001a70c    8870            strb        param_1,[r1,#local_50+0x52]             
ram:0001a70e    1421            movs        r1,#0x14                                
ram:0001a710    0aa8            add         param_1,sp,#0x28                        
ram:0001a712    fdf76cfd        bl          FUN_000181ee                            ;undefined FUN_000181ee(undefined * p...
ram:0001a716    09a8            add         param_1,sp,#0x24                        
ram:0001a718    0a90            str         param_1,[sp,#local_28+0x50]             
ram:0001a71a    6846            mov         param_1,sp                              
ram:0001a71c    0b90            str         param_1,[sp,#local_24+0x50]             
ram:0001a71e    0720            movs        param_1,#0x7                            
ram:0001a720    6946            mov         r1,sp                                   
ram:0001a722    0886            strh        param_1,[r1,#local_20+0x50]             
ram:0001a724    4c86            strh        r4,[r1,#local_1e+0x50]                  
ram:0001a726    8886            strh        param_1,[r1,#local_1c+0x50]             
ram:0001a728    05a0            adr         param_1,[s_SMv2.21_0001a740]            ;= "SMv2.21"
ram:0001a72a    0e90            str         param_1=>s_SMv2....,[sp,#local_18+0x50] ;= "SMv2.21"
ram:0001a72c    2b46            mov         r3,r5                                   
ram:0001a72e    2888            ldrh        param_1,[r5,#0x0]                       
ram:0001a730    1a33            adds        r3,#0x1a                                
ram:0001a732    0aaa            add         r2,sp,#0x28                             
ram:0001a734    01a9            add         r1,sp,#0x4                              
ram:0001a736    a2df            svc         0xa2                                    
ram:0001a738    10b0            add         sp,#0x40                                
ram:0001a73a    70bd            pop         {r4,r5,r6,pc}                           
                            DAT_0001a73c:                 ;XREF[1,0]:   0001a6e0
ram:0001a73c    28150000        undefined4  00001528h                               
                            s_SMv2.21_0001a740:           ;XREF[2,0]:   0001a728,0001a72a
ram:0001a740    534d76322...    ds          "SMv2.21"                               
                            ;************************************************************************************************
                            ;*                                           FUNCTION                                           *
                            ;************************************************************************************************
                            ;undefined FUN_0001a748(void)
          ;local_18      undefined4         -18                      ;XREF[2,0]:   0001a78c,0001a798
                                                          ;XREF[1,0]:   00018786
ram:0001a748    f8b5            push        {r3,r4,r5,r6,r7,lr}                     
ram:0001a74a    1e4c            ldr         r4,[DAT_0001a7c4]                       ;= 20002134h
ram:0001a74c    2078            ldrb        r0,[r4,#0x0]=>DAT_20002134              
ram:0001a74e    0028            cmp         r0,#0x0                                 
ram:0001a750    37d0            beq         LAB_0001a7c2                            
ram:0001a752    2069            ldr         r0,[r4,#0x10]=>DAT_20002144             
ram:0001a754    0028            cmp         r0,#0x0                                 
ram:0001a756    07d0            beq         LAB_0001a768                            
ram:0001a758    0026            movs        r6,#0x0                                 
                            LAB_0001a75a:                 ;XREF[1,0]:   0001a76a
ram:0001a75a    e068            ldr         r0,[r4,#0xc]=>DAT_20002140              
ram:0001a75c    0028            cmp         r0,#0x0                                 
ram:0001a75e    05d0            beq         LAB_0001a76c                            
ram:0001a760    0025            movs        r5,#0x0                                 
                            LAB_0001a762:                 ;XREF[2,0]:   0001a76e,0001a7c0
ram:0001a762    002e            cmp         r6,#0x0                                 
ram:0001a764    04d0            beq         LAB_0001a770                            
ram:0001a766    13e0            b           LAB_0001a790                            
                            LAB_0001a768:                 ;XREF[1,0]:   0001a756
ram:0001a768    0126            movs        r6,#0x1                                 
ram:0001a76a    f6e7            b           LAB_0001a75a                            
                            LAB_0001a76c:                 ;XREF[1,0]:   0001a75e
ram:0001a76c    0125            movs        r5,#0x1                                 
ram:0001a76e    f8e7            b           LAB_0001a762                            
                            LAB_0001a770:                 ;XREF[2,0]:   0001a764,0001a7bc
ram:0001a770    6846            mov         r0,sp                                   
ram:0001a772    51df            svc         0x51                                    
ram:0001a774    0528            cmp         r0,#0x5                                 
ram:0001a776    06d0            beq         LAB_0001a786                            
ram:0001a778    0028            cmp         r0,#0x0                                 
ram:0001a77a    06d0            beq         LAB_0001a78a                            
ram:0001a77c    0022            movs        r2,#0x0                                 
ram:0001a77e    1146            mov         r1,r2                                   
ram:0001a780    fef768fa        bl          FUN_00018c54                            ;undefined FUN_00018c54(void)
ram:0001a784    04e0            b           LAB_0001a790                            
                            LAB_0001a786:                 ;XREF[1,0]:   0001a776
ram:0001a786    0126            movs        r6,#0x1                                 
ram:0001a788    02e0            b           LAB_0001a790                            
                            LAB_0001a78a:                 ;XREF[1,0]:   0001a77a
ram:0001a78a    2169            ldr         r1,[r4,#0x10]=>DAT_20002144             
ram:0001a78c    0098            ldr         r0=>local_18,[sp,#0x0]                  
ram:0001a78e    8847            blx         r1                                      
                            LAB_0001a790:                 ;XREF[3,0]:   0001a766,0001a784,0001a788
ram:0001a790    002d            cmp         r5,#0x0                                 
ram:0001a792    12d1            bne         LAB_0001a7ba                            
ram:0001a794    6088            ldrh        r0,[r4,#0x2]=>DAT_20002136              
ram:0001a796    6946            mov         r1,sp                                   
ram:0001a798    0880            strh        r0,[r1,#0x0]=>local_18                  
ram:0001a79a    a068            ldr         r0,[r4,#0x8]=>DAT_2000213c              
ram:0001a79c    61df            svc         0x61                                    
ram:0001a79e    0528            cmp         r0,#0x5                                 
ram:0001a7a0    06d0            beq         LAB_0001a7b0                            
ram:0001a7a2    0028            cmp         r0,#0x0                                 
ram:0001a7a4    06d0            beq         LAB_0001a7b4                            
ram:0001a7a6    0022            movs        r2,#0x0                                 
ram:0001a7a8    1146            mov         r1,r2                                   
ram:0001a7aa    fef753fa        bl          FUN_00018c54                            ;undefined FUN_00018c54(void)
ram:0001a7ae    04e0            b           LAB_0001a7ba                            
                            LAB_0001a7b0:                 ;XREF[1,0]:   0001a7a0
ram:0001a7b0    0125            movs        r5,#0x1                                 
ram:0001a7b2    02e0            b           LAB_0001a7ba                            
                            LAB_0001a7b4:                 ;XREF[1,0]:   0001a7a4
ram:0001a7b4    e168            ldr         r1,[r4,#0xc]=>DAT_20002140              
ram:0001a7b6    a068            ldr         r0,[r4,#0x8]=>DAT_2000213c              
ram:0001a7b8    8847            blx         r1                                      
                            LAB_0001a7ba:                 ;XREF[3,0]:   0001a792,0001a7ae,0001a7b2
ram:0001a7ba    002e            cmp         r6,#0x0                                 
ram:0001a7bc    d8d0            beq         LAB_0001a770                            
ram:0001a7be    002d            cmp         r5,#0x0                                 
ram:0001a7c0    cfd0            beq         LAB_0001a762                            
                            LAB_0001a7c2:                 ;XREF[1,0]:   0001a750
ram:0001a7c2    f8bd            pop         {r3,r4,r5,r6,r7,pc}                     
                            DAT_0001a7c4:                 ;XREF[1,0]:   0001a74a
ram:0001a7c4    34210020        undefined4  20002134h                               
                            ;************************************************************************************************
                            ;*                                           FUNCTION                                           *
                            ;************************************************************************************************
                            ;undefined4 FUN_0001a7c8(int param_1)
          ;param_1       int                 r0                      
                                                          ;XREF[1,0]:   00019e18
ram:0001a7c8    4188            ldrh        r1,[param_1,#0x2]                       
ram:0001a7ca    0548            ldr         param_1,[DAT_0001a7e0]                  ;= 200020A8h
ram:0001a7cc    0288            ldrh        r2,[param_1,#0x0]=>DAT_200020a8         
ram:0001a7ce    9142            cmp         r1,r2                                   
ram:0001a7d0    04d3            bcc         LAB_0001a7dc                            
ram:0001a7d2    4088            ldrh        param_1,[param_1,#0x2]=>DAT_200020aa    
ram:0001a7d4    8142            cmp         r1,param_1                              
ram:0001a7d6    01d8            bhi         LAB_0001a7dc                            
ram:0001a7d8    0120            movs        param_1,#0x1                            
ram:0001a7da    7047            bx          lr                                      
                            LAB_0001a7dc:                 ;XREF[2,0]:   0001a7d0,0001a7d6
ram:0001a7dc    0020            movs        param_1,#0x0                            
ram:0001a7de    7047            bx          lr                                      
                            DAT_0001a7e0:                 ;XREF[1,0]:   0001a7ca
ram:0001a7e0    a8200020        undefined4  200020A8h                               
                            ;************************************************************************************************
                            ;*                                           FUNCTION                                           *
                            ;************************************************************************************************
                            ;undefined4 FUN_0001a7e4(void)
                                                          ;XREF[1,0]:   00018792
ram:0001a7e4    1048            ldr         r0,[DAT_0001a828]                       ;= F0000FC0h
ram:0001a7e6    018c            ldrh        r1,[r0,#0x20]=>DAT_f0000fe0             
ram:0001a7e8    c9b2            uxtb        r1,r1                                   
ram:0001a7ea    0129            cmp         r1,#0x1                                 
ram:0001a7ec    17d1            bne         LAB_0001a81e                            
ram:0001a7ee    818c            ldrh        r1,[r0,#0x24]=>DAT_f0000fe4             
ram:0001a7f0    0907            lsls        r1,r1,#0x1c                             
ram:0001a7f2    14d1            bne         LAB_0001a81e                            
ram:0001a7f4    018d            ldrh        r1,[r0,#0x28]=>DAT_f0000fe8             
ram:0001a7f6    0906            lsls        r1,r1,#0x18                             
ram:0001a7f8    0a0f            lsrs        r2,r1,#0x1c                             
ram:0001a7fa    03d1            bne         LAB_0001a804                            
ram:0001a7fc    828d            ldrh        r2,[r0,#0x2c]=>DAT_f0000fec             
ram:0001a7fe    1206            lsls        r2,r2,#0x18                             
ram:0001a800    120f            lsrs        r2,r2,#0x1c                             
ram:0001a802    0ed0            beq         LAB_0001a822                            
                            LAB_0001a804:                 ;XREF[1,0]:   0001a7fa
ram:0001a804    090f            lsrs        r1,r1,#0x1c                             
ram:0001a806    0129            cmp         r1,#0x1                                 
ram:0001a808    03d1            bne         LAB_0001a812                            
ram:0001a80a    828d            ldrh        r2,[r0,#0x2c]=>DAT_f0000fec             
ram:0001a80c    1206            lsls        r2,r2,#0x18                             
ram:0001a80e    120f            lsrs        r2,r2,#0x1c                             
ram:0001a810    07d0            beq         LAB_0001a822                            
                            LAB_0001a812:                 ;XREF[1,0]:   0001a808
ram:0001a812    0329            cmp         r1,#0x3                                 
ram:0001a814    03d1            bne         LAB_0001a81e                            
ram:0001a816    808d            ldrh        r0,[r0,#0x2c]=>DAT_f0000fec             
ram:0001a818    0006            lsls        r0,r0,#0x18                             
ram:0001a81a    000f            lsrs        r0,r0,#0x1c                             
ram:0001a81c    01d0            beq         LAB_0001a822                            
                            LAB_0001a81e:                 ;XREF[3,0]:   0001a7ec,0001a7f2,0001a814
ram:0001a81e    0020            movs        r0,#0x0                                 
ram:0001a820    7047            bx          lr                                      
                            LAB_0001a822:                 ;XREF[3,0]:   0001a802,0001a810,0001a81c
ram:0001a822    0120            movs        r0,#0x1                                 
ram:0001a824    7047            bx          lr                                      
ram:0001a826    0000            movs        r0,r0                                   
                            DAT_0001a828:                 ;XREF[1,0]:   0001a7e4
ram:0001a828    c00f00f0        undefined4  F0000FC0h                               
                            ;************************************************************************************************
                            ;*                                           FUNCTION                                           *
                            ;************************************************************************************************
                            ;undefined4 FUN_0001a82c(uint param_1)
          ;param_1       uint                r0                      
                                                          ;XREF[7,0]:   0001b100,0001b250,0001b25a,0001b264
                                                          ;             0001b3dc,0001b3e6,0001b3f0
ram:0001a82c    8007            lsls        param_1,param_1,#0x1e                   
ram:0001a82e    01d0            beq         LAB_0001a834                            
ram:0001a830    0020            movs        param_1,#0x0                            
ram:0001a832    7047            bx          lr                                      
                            LAB_0001a834:                 ;XREF[1,0]:   0001a82e
ram:0001a834    0120            movs        param_1,#0x1                            
ram:0001a836    7047            bx          lr                                      
                            ;************************************************************************************************
                            ;*                                           FUNCTION                                           *
                            ;************************************************************************************************
                            ;undefined4 FUN_0001a838(void)
          ;local_18      undefined4         -18                      ;XREF[2,0]:   0001a83e,0001a8ba
                                                          ;XREF[1,0]:   00018730
ram:0001a838    f8b5            push        {r3,r4,r5,r6,r7,lr}                     
ram:0001a83a    2348            ldr         r0,[DAT_0001a8c8]                       ;= 20002110h
ram:0001a83c    0169            ldr         r1,[r0,#0x10]=>DAT_20002120             
ram:0001a83e    0091            str         r1,[sp,#0x0]=>local_18                  
ram:0001a840    4578            ldrb        r5,[r0,#0x1]=>DAT_20002111              
ram:0001a842    33e0            b           LAB_0001a8ac                            
                            LAB_0001a844:                 ;XREF[1,0]:   0001a8b4
ram:0001a844    2048            ldr         r0,[DAT_0001a8c8]                       ;= 20002110h
ram:0001a846    e900            lsls        r1,r5,#0x3                              
ram:0001a848    c068            ldr         r0,[r0,#0xc]=>DAT_2000211c              
ram:0001a84a    0e18            adds        r6,r1,r0                                
ram:0001a84c    3478            ldrb        r4,[r6,#0x0]                            
ram:0001a84e    2ae0            b           LAB_0001a8a6                            
                            LAB_0001a850:                 ;XREF[1,0]:   0001a8aa
ram:0001a850    1820            movs        r0,#0x18                                
ram:0001a852    6043            muls        r0,r4                                   
ram:0001a854    7168            ldr         r1,[r6,#0x4]                            
ram:0001a856    641c            adds        r4,r4,#0x1                              
ram:0001a858    0818            adds        r0,r1,r0                                
ram:0001a85a    b178            ldrb        r1,[r6,#0x2]                            
ram:0001a85c    e4b2            uxtb        r4,r4                                   
ram:0001a85e    a142            cmp         r1,r4                                   
ram:0001a860    00d1            bne         LAB_0001a864                            
ram:0001a862    0024            movs        r4,#0x0                                 
                            LAB_0001a864:                 ;XREF[1,0]:   0001a860
ram:0001a864    0178            ldrb        r1,[r0,#0x0]                            
ram:0001a866    0229            cmp         r1,#0x2                                 
ram:0001a868    02d0            beq         LAB_0001a870                            
ram:0001a86a    0329            cmp         r1,#0x3                                 
ram:0001a86c    1bd1            bne         LAB_0001a8a6                            
ram:0001a86e    13e0            b           LAB_0001a898                            
                            LAB_0001a870:                 ;XREF[1,0]:   0001a868
ram:0001a870    154a            ldr         r2,[DAT_0001a8c8]                       ;= 20002110h
ram:0001a872    4068            ldr         r0,[r0,#0x4]                            
ram:0001a874    2421            movs        r1,#0x24                                
ram:0001a876    9268            ldr         r2,[r2,#0x8]=>DAT_20002118              
ram:0001a878    4143            muls        r1,r0                                   
ram:0001a87a    8f18            adds        r7,r1,r2                                
ram:0001a87c    397d            ldrb        r1,[r7,#0x14]                           
ram:0001a87e    0029            cmp         r1,#0x0                                 
ram:0001a880    11d0            beq         LAB_0001a8a6                            
ram:0001a882    01f003fb        bl          FUN_0001be8c                            ;undefined FUN_0001be8c(int param_1)
ram:0001a886    0020            movs        r0,#0x0                                 
ram:0001a888    3875            strb        r0,[r7,#0x14]                           
ram:0001a88a    0ce0            b           LAB_0001a8a6                            
                            LAB_0001a88c:                 ;XREF[1,0]:   0001a8a2
ram:0001a88c    2427            movs        r7,#0x24                                
ram:0001a88e    7843            muls        r0,r7                                   
ram:0001a890    c018            adds        r0,r0,r3                                
ram:0001a892    0275            strb        r2,[r0,#0x14]                           
ram:0001a894    006a            ldr         r0,[r0,#0x20]                           
ram:0001a896    03e0            b           LAB_0001a8a0                            
                            LAB_0001a898:                 ;XREF[1,0]:   0001a86e
ram:0001a898    0b49            ldr         r1,[DAT_0001a8c8]                       ;= 20002110h
ram:0001a89a    0022            movs        r2,#0x0                                 
ram:0001a89c    8b68            ldr         r3,[r1,#0x8]=>DAT_20002118              
ram:0001a89e    0869            ldr         r0,[r1,#0x10]=>DAT_20002120             
                            LAB_0001a8a0:                 ;XREF[1,0]:   0001a896
ram:0001a8a0    471c            adds        r7,r0,#0x1                              
ram:0001a8a2    f3d1            bne         LAB_0001a88c                            
ram:0001a8a4    0861            str         r0,[r1,#0x10]=>DAT_20002120             
                            LAB_0001a8a6:                 ;XREF[4,0]:   0001a84e,0001a86c,0001a880,0001a88a
ram:0001a8a6    7078            ldrb        r0,[r6,#0x1]                            
ram:0001a8a8    a042            cmp         r0,r4                                   
ram:0001a8aa    d1d1            bne         LAB_0001a850                            
                            LAB_0001a8ac:                 ;XREF[1,0]:   0001a842
ram:0001a8ac    2846            mov         r0,r5                                   
ram:0001a8ae    6d1e            subs        r5,r5,#0x1                              
ram:0001a8b0    edb2            uxtb        r5,r5                                   
ram:0001a8b2    0028            cmp         r0,#0x0                                 
ram:0001a8b4    c6d1            bne         LAB_0001a844                            
ram:0001a8b6    0448            ldr         r0,[DAT_0001a8c8]                       ;= 20002110h
ram:0001a8b8    0169            ldr         r1,[r0,#0x10]=>DAT_20002120             
ram:0001a8ba    0098            ldr         r0,[sp,#0x0]=>local_18                  
ram:0001a8bc    8142            cmp         r1,r0                                   
ram:0001a8be    01d0            beq         LAB_0001a8c4                            
ram:0001a8c0    0120            movs        r0,#0x1                                 
ram:0001a8c2    f8bd            pop         {r3,r4,r5,r6,r7,pc}                     
                            LAB_0001a8c4:                 ;XREF[1,0]:   0001a8be
ram:0001a8c4    0020            movs        r0,#0x0                                 
ram:0001a8c6    f8bd            pop         {r3,r4,r5,r6,r7,pc}                     
                            DAT_0001a8c8:                 ;XREF[5,0]:   0001a83a,0001a844,0001a870,0001a898
                                                          ;             0001a8b6
ram:0001a8c8    10210020        undefined4  20002110h                               
                            ;************************************************************************************************
                            ;*                                           FUNCTION                                           *
                            ;************************************************************************************************
                            ;undefined4 FUN_0001a8cc(int param_1)
          ;param_1       int                 r0                      
          ;local_18      undefined4         -18                      ;XREF[2,0]:   0001a8d6,0001a9a4
                                                          ;XREF[2,0]:   00018746,0001874e
ram:0001a8cc    f8b5            push        {r3,r4,r5,r6,r7,lr}                     
ram:0001a8ce    0446            mov         r4,param_1                              
ram:0001a8d0    3848            ldr         param_1,[DAT_0001a9b4]                  ;= 20002110h
ram:0001a8d2    0027            movs        r7,#0x0                                 
ram:0001a8d4    0169            ldr         r1,[param_1,#0x10]=>DAT_20002120        
ram:0001a8d6    0091            str         r1,[sp,#0x0]=>local_18                  
ram:0001a8d8    4678            ldrb        r6,[param_1,#0x1]=>DAT_20002111         
ram:0001a8da    5ce0            b           LAB_0001a996                            
                            LAB_0001a8dc:                 ;XREF[1,0]:   0001a99e
ram:0001a8dc    3548            ldr         param_1,[DAT_0001a9b4]                  ;= 20002110h
ram:0001a8de    f100            lsls        r1,r6,#0x3                              
ram:0001a8e0    c268            ldr         r2,[param_1,#0xc]=>DAT_2000211c         
ram:0001a8e2    8d18            adds        r5,r1,r2                                
ram:0001a8e4    51e0            b           LAB_0001a98a                            
                            LAB_0001a8e6:                 ;XREF[2,0]:   0001a98c,0001a994
ram:0001a8e6    601c            adds        param_1,r4,#0x1                         
ram:0001a8e8    07d0            beq         LAB_0001a8fa                            
ram:0001a8ea    324a            ldr         r2,[DAT_0001a9b4]                       ;= 20002110h
ram:0001a8ec    2420            movs        param_1,#0x24                           
ram:0001a8ee    9268            ldr         r2,[r2,#0x8]=>DAT_20002118              
ram:0001a8f0    6043            muls        param_1,r4                              
ram:0001a8f2    2146            mov         r1,r4                                   
ram:0001a8f4    8018            adds        param_1,param_1,r2                      
ram:0001a8f6    046a            ldr         r4,[param_1,#0x20]                      
ram:0001a8f8    24e0            b           LAB_0001a944                            
                            LAB_0001a8fa:                 ;XREF[1,0]:   0001a8e8
ram:0001a8fa    2878            ldrb        param_1,[r5,#0x0]                       
ram:0001a8fc    1821            movs        r1,#0x18                                
ram:0001a8fe    4143            muls        r1,param_1                              
ram:0001a900    6a68            ldr         r2,[r5,#0x4]                            
ram:0001a902    401c            adds        param_1,param_1,#0x1                    
ram:0001a904    c0b2            uxtb        param_1,param_1                         
ram:0001a906    5218            adds        r2,r2,r1                                
ram:0001a908    2870            strb        param_1,[r5,#0x0]                       
ram:0001a90a    a978            ldrb        r1,[r5,#0x2]                            
ram:0001a90c    8842            cmp         param_1,r1                              
ram:0001a90e    00d1            bne         LAB_0001a912                            
ram:0001a910    2f70            strb        r7,[r5,#0x0]                            
                            LAB_0001a912:                 ;XREF[1,0]:   0001a90e
ram:0001a912    284b            ldr         r3,[DAT_0001a9b4]                       ;= 20002110h
ram:0001a914    5168            ldr         r1,[r2,#0x4]                            
ram:0001a916    2420            movs        param_1,#0x24                           
ram:0001a918    9b68            ldr         r3,[r3,#0x8]=>DAT_20002118              
ram:0001a91a    4843            muls        param_1,r1                              
ram:0001a91c    c018            adds        param_1,param_1,r3                      
ram:0001a91e    1378            ldrb        r3,[r2,#0x0]                            
ram:0001a920    012b            cmp         r3,#0x1                                 
ram:0001a922    34d1            bne         LAB_0001a98e                            
ram:0001a924    037d            ldrb        r3,[param_1,#0x14]                      
ram:0001a926    002b            cmp         r3,#0x0                                 
ram:0001a928    31d1            bne         LAB_0001a98e                            
ram:0001a92a    9368            ldr         r3,[r2,#0x8]                            
ram:0001a92c    8360            str         r3,[param_1,#0x8]                       
ram:0001a92e    d368            ldr         r3,[r2,#0xc]                            
ram:0001a930    c360            str         r3,[param_1,#0xc]                       
ram:0001a932    1369            ldr         r3,[r2,#0x10]                           
ram:0001a934    0361            str         r3,[param_1,#0x10]                      
ram:0001a936    5269            ldr         r2,[r2,#0x14]                           
ram:0001a938    c261            str         r2,[param_1,#0x1c]                      
ram:0001a93a    1e4a            ldr         r2,[DAT_0001a9b4]                       ;= 20002110h
ram:0001a93c    5279            ldrb        r2,[r2,#0x5]=>DAT_20002115              
ram:0001a93e    002a            cmp         r2,#0x0                                 
ram:0001a940    00d0            beq         LAB_0001a944                            
ram:0001a942    8760            str         r7,[param_1,#0x8]                       
                            LAB_0001a944:                 ;XREF[2,0]:   0001a8f8,0001a940
ram:0001a944    1b4b            ldr         r3,[DAT_0001a9b4]                       ;= 20002110h
ram:0001a946    8268            ldr         r2,[param_1,#0x8]                       
ram:0001a948    5b69            ldr         r3,[r3,#0x14]=>DAT_20002124             
ram:0001a94a    9646            mov         lr,r2                                   
ram:0001a94c    9c46            mov         r12,r3                                  
ram:0001a94e    d31a            subs        r3,r2,r3                                
ram:0001a950    1a02            lsls        r2,r3,#0x8                              
ram:0001a952    194b            ldr         r3,[DAT_0001a9b8]                       ;= 007FFFFFh
ram:0001a954    120a            lsrs        r2,r2,#0x8                              
ram:0001a956    9a42            cmp         r2,r3                                   
ram:0001a958    02d2            bcs         LAB_0001a960                            
ram:0001a95a    c368            ldr         r3,[param_1,#0xc]                       
ram:0001a95c    d218            adds        r2,r2,r3                                
ram:0001a95e    08e0            b           LAB_0001a972                            
                            LAB_0001a960:                 ;XREF[1,0]:   0001a958
ram:0001a960    7246            mov         r2,lr                                   
ram:0001a962    6346            mov         r3,r12                                  
ram:0001a964    9a1a            subs        r2,r3,r2                                
ram:0001a966    1202            lsls        r2,r2,#0x8                              
ram:0001a968    c368            ldr         r3,[param_1,#0xc]                       
ram:0001a96a    120a            lsrs        r2,r2,#0x8                              
ram:0001a96c    9342            cmp         r3,r2                                   
ram:0001a96e    02d9            bls         LAB_0001a976                            
ram:0001a970    9a1a            subs        r2,r3,r2                                
                            LAB_0001a972:                 ;XREF[1,0]:   0001a95e
ram:0001a972    4260            str         r2,[param_1,#0x4]                       
ram:0001a974    00e0            b           LAB_0001a978                            
                            LAB_0001a976:                 ;XREF[1,0]:   0001a96e
ram:0001a976    4760            str         r7,[param_1,#0x4]                       
                            LAB_0001a978:                 ;XREF[1,0]:   0001a974
ram:0001a978    8760            str         r7,[param_1,#0x8]                       
ram:0001a97a    0122            movs        r2,#0x1                                 
ram:0001a97c    c760            str         r7,[param_1,#0xc]                       
ram:0001a97e    0275            strb        r2,[param_1,#0x14]                      
ram:0001a980    921e            subs        r2,r2,#0x2                              
ram:0001a982    0262            str         r2,[param_1,#0x20]                      
ram:0001a984    0846            mov         param_1,r1                              
ram:0001a986    01f04ffa        bl          FUN_0001be28                            ;undefined FUN_0001be28(int param_1)
                            LAB_0001a98a:                 ;XREF[1,0]:   0001a8e4
ram:0001a98a    601c            adds        param_1,r4,#0x1                         
ram:0001a98c    abd1            bne         LAB_0001a8e6                            
                            LAB_0001a98e:                 ;XREF[2,0]:   0001a922,0001a928
ram:0001a98e    2878            ldrb        param_1,[r5,#0x0]                       
ram:0001a990    6978            ldrb        r1,[r5,#0x1]                            
ram:0001a992    8842            cmp         param_1,r1                              
ram:0001a994    a7d1            bne         LAB_0001a8e6                            
                            LAB_0001a996:                 ;XREF[1,0]:   0001a8da
ram:0001a996    3046            mov         param_1,r6                              
ram:0001a998    761e            subs        r6,r6,#0x1                              
ram:0001a99a    f6b2            uxtb        r6,r6                                   
ram:0001a99c    0028            cmp         param_1,#0x0                            
ram:0001a99e    9dd1            bne         LAB_0001a8dc                            
ram:0001a9a0    0448            ldr         param_1,[DAT_0001a9b4]                  ;= 20002110h
ram:0001a9a2    0169            ldr         r1,[param_1,#0x10]=>DAT_20002120        
ram:0001a9a4    0098            ldr         param_1,[sp,#0x0]=>local_18             
ram:0001a9a6    8142            cmp         r1,param_1                              
ram:0001a9a8    01d0            beq         LAB_0001a9ae                            
ram:0001a9aa    0120            movs        param_1,#0x1                            
ram:0001a9ac    f8bd            pop         {r3,r4,r5,r6,r7,pc}                     
                            LAB_0001a9ae:                 ;XREF[1,0]:   0001a9a8
ram:0001a9ae    0020            movs        param_1,#0x0                            
ram:0001a9b0    f8bd            pop         {r3,r4,r5,r6,r7,pc}                     
ram:0001a9b2    0000            movs        r0,r0                                   
                            DAT_0001a9b4:                 ;XREF[7,0]:   0001a8d0,0001a8dc,0001a8ea,0001a912
                                                          ;             0001a93a,0001a944,0001a9a0
ram:0001a9b4    10210020        undefined4  20002110h                               
                            DAT_0001a9b8:                 ;XREF[1,0]:   0001a952
ram:0001a9b8    ffff7f00        undefined4  007FFFFFh                               
                            ;************************************************************************************************
                            ;*                                           FUNCTION                                           *
                            ;************************************************************************************************
                            ;undefined FUN_0001a9bc(void)
ram:0001a9bc    10b5            push        {r4,lr}                                 
ram:0001a9be    0b48            ldr         r0,[DAT_0001a9ec]                       ;= 20002000h
ram:0001a9c0    8178            ldrb        r1,[r0,#offset DAT_20002002 &0xff]      
ram:0001a9c2    491c            adds        r1,r1,#0x1                              
ram:0001a9c4    8170            strb        r1,[r0,#offset DAT_20002002 &0xff]      
ram:0001a9c6    8378            ldrb        r3,[r0,#offset DAT_20002002 &0xff]      
ram:0001a9c8    0146            mov         r1,r0                                   
ram:0001a9ca    4978            ldrb        r1,[r1,#offset DAT_20002001 &0xff]      
ram:0001a9cc    0222            movs        r2,#0x2                                 
ram:0001a9ce    1143            orrs        r1,r2                                   
ram:0001a9d0    032b            cmp         r3,#0x3                                 
ram:0001a9d2    09d0            beq         LAB_0001a9e8                            
ram:0001a9d4    8278            ldrb        r2,[r0,#offset DAT_20002002 &0xff]      
ram:0001a9d6    1e2a            cmp         r2,#0x1e                                
ram:0001a9d8    05d3            bcc         LAB_0001a9e6                            
ram:0001a9da    0022            movs        r2,#0x0                                 
ram:0001a9dc    8270            strb        r2,[r0,#offset DAT_20002002 &0xff]      
ram:0001a9de    4170            strb        r1,[r0,#offset DAT_20002001 &0xff]      
ram:0001a9e0    0069            ldr         r0,[r0,#offset DAT_20002010 &0xff]      
ram:0001a9e2    fef70dfc        bl          FUN_00019200                            ;undefined4 FUN_00019200(uint param_1...
                            LAB_0001a9e6:                 ;XREF[1,0]:   0001a9d8
ram:0001a9e6    10bd            pop         {r4,pc}                                 
                            LAB_0001a9e8:                 ;XREF[1,0]:   0001a9d2
ram:0001a9e8    4170            strb        r1,[r0,#offset DAT_20002001 &0xff]      
ram:0001a9ea    10bd            pop         {r4,pc}                                 
                            DAT_0001a9ec:                 ;XREF[1,0]:   0001a9be
ram:0001a9ec    00200020        undefined4  20002000h                               
                            ;************************************************************************************************
                            ;*                                           FUNCTION                                           *
                            ;************************************************************************************************
                            ;undefined FUN_0001a9f0(void)
          ;local_8       undefined4          -8                      ;XREF[1,0]:   0001ab58
          ;local_c       undefined4          -c                      ;XREF[1,0]:   0001ab54
          ;local_10      undefined1         -10                      ;XREF[1,0]:   0001ab50
          ;local_12      undefined2         -12                      ;XREF[1,0]:   0001ab4e
          ;local_14      undefined1         -14                      ;XREF[1,0]:   0001ab4c
          ;local_18      undefined4         -18                      ;XREF[2,0]:   0001aaa8,0001ab44
          ;local_1c      undefined4         -1c                      ;XREF[4,2]:   0001aa82,0001aac4,0001aace,0001ab3e,0001aa84
                                                                     ;             0001aad2
          ;local_20      undefined4         -20                      ;XREF[4,1]:   0001aa8a,0001aabe,0001aac8,0001ab46,0001aacc
                                                          ;XREF[1,0]:   000180ca
ram:0001a9f0    904c            ldr         r4,[DAT_0001ac34]                       ;= 4000D000h
ram:0001a9f2    88b0            sub         sp,#0x20                                
ram:0001a9f4    0126            movs        r6,#0x1                                 
ram:0001a9f6    2660            str         r6,[r4,#0x0]=>DAT_4000d000              
ram:0001a9f8    c820            movs        r0,#0xc8                                
ram:0001a9fa    00f0d1f9        bl          FUN_0001ada0                            ;undefined FUN_0001ada0(int param_1)
ram:0001a9fe    0027            movs        r7,#0x0                                 
ram:0001aa00    2760            str         r7,[r4,#0x0]=>DAT_4000d000              
ram:0001aa02    6660            str         r6,[r4,#offset DAT_4000d004 &0xff]      
ram:0001aa04    8c4c            ldr         r4,[DAT_0001ac38]                       ;= 20002000h
ram:0001aa06    8d48            ldr         r0,[DAT_0001ac3c]                       ;= 4000D500h
ram:0001aa08    6770            strb        r7,[r4,#offset DAT_20002001 &0xff]      
ram:0001aa0a    8068            ldr         r0,[r0,#offset DAT_4000d508 &0xff]      
ram:0001aa0c    c0b2            uxtb        r0,r0                                   
ram:0001aa0e    fff7e3fd        bl          FUN_0001a5d8                            ;undefined FUN_0001a5d8(int param_1)
ram:0001aa12    01f0b3fa        bl          FUN_0001bf7c                            ;undefined FUN_0001bf7c(void)
ram:0001aa16    8a49            ldr         r1,[DAT_0001ac40]                       ;= 200025BCh
ram:0001aa18    0320            movs        r0,#0x3                                 
ram:0001aa1a    fef729f9        bl          FUN_00018c70                            ;undefined4 FUN_00018c70(int param_1,...
ram:0001aa1e    0028            cmp         r0,#0x0                                 
ram:0001aa20    03d0            beq         LAB_0001aa2a                            
ram:0001aa22    0022            movs        r2,#0x0                                 
ram:0001aa24    1146            mov         r1,r2                                   
ram:0001aa26    fef715f9        bl          FUN_00018c54                            ;undefined FUN_00018c54(void)
                            LAB_0001aa2a:                 ;XREF[1,0]:   0001aa20
ram:0001aa2a    fef75dff        bl          FUN_000198e8                            ;undefined FUN_000198e8(void)
ram:0001aa2e    8248            ldr         r0,[DAT_0001ac38]                       ;= 20002000h
ram:0001aa30    844a            ldr         r2,[DAT_0001ac44]                       ;= 00000333h
ram:0001aa32    0121            movs        r1,#0x1                                 
ram:0001aa34    3430            adds        r0,#0x34                                
ram:0001aa36    fef7d7f8        bl          FUN_00018be8                            ;int FUN_00018be8(int param_1, uint p...
ram:0001aa3a    0028            cmp         r0,#0x0                                 
ram:0001aa3c    03d0            beq         LAB_0001aa46                            
ram:0001aa3e    0022            movs        r2,#0x0                                 
ram:0001aa40    1146            mov         r1,r2                                   
ram:0001aa42    fef707f9        bl          FUN_00018c54                            ;undefined FUN_00018c54(void)
                            LAB_0001aa46:                 ;XREF[1,0]:   0001aa3c
ram:0001aa46    fef7c1f8        bl          FUN_00018bcc                            ;undefined4 FUN_00018bcc(void)
ram:0001aa4a    0028            cmp         r0,#0x0                                 
ram:0001aa4c    03d0            beq         LAB_0001aa56                            
ram:0001aa4e    0022            movs        r2,#0x0                                 
ram:0001aa50    1146            mov         r1,r2                                   
ram:0001aa52    fef7fff8        bl          FUN_00018c54                            ;undefined FUN_00018c54(void)
                            LAB_0001aa56:                 ;XREF[1,0]:   0001aa4c
ram:0001aa56    7a4a            ldr         r2,[DAT_0001ac40]                       ;= 200025BCh
ram:0001aa58    0a21            movs        r1,#0xa                                 
ram:0001aa5a    b03a            subs        r2,#0xb0                                
ram:0001aa5c    0820            movs        r0,#0x8                                 
ram:0001aa5e    fef7d7fa        bl          FUN_00019010                            ;undefined4 FUN_00019010(undefined2 p...
ram:0001aa62    0028            cmp         r0,#0x0                                 
ram:0001aa64    03d0            beq         LAB_0001aa6e                            
ram:0001aa66    0022            movs        r2,#0x0                                 
ram:0001aa68    1146            mov         r1,r2                                   
ram:0001aa6a    fef7f3f8        bl          FUN_00018c54                            ;undefined FUN_00018c54(void)
                            LAB_0001aa6e:                 ;XREF[1,0]:   0001aa64
ram:0001aa6e    00f083fb        bl          FUN_0001b178                            ;undefined FUN_0001b178(void)
ram:0001aa72    0028            cmp         r0,#0x0                                 
ram:0001aa74    03d0            beq         LAB_0001aa7e                            
ram:0001aa76    0022            movs        r2,#0x0                                 
ram:0001aa78    1146            mov         r1,r2                                   
ram:0001aa7a    fef7ebf8        bl          FUN_00018c54                            ;undefined FUN_00018c54(void)
                            LAB_0001aa7e:                 ;XREF[1,0]:   0001aa74
ram:0001aa7e    0821            movs        r1,#0x8                                 
ram:0001aa80    6846            mov         r0,sp                                   
ram:0001aa82    8180            strh        r1,[r0,#local_1c+0x20]                  
ram:0001aa84    c680            strh        r6,[r0,#local_1c+0x22]                  
ram:0001aa86    7048            ldr         r0,[PTR_LAB_0001903c+1+1_0001ac48]      ;= 0001903d
ram:0001aa88    6b49            ldr         r1,[DAT_0001ac38]                       ;= 20002000h
ram:0001aa8a    0090            str         r0=>LAB_0001903c+1+1,[sp,#0x0]=>local_20
ram:0001aa8c    4431            adds        r1,#0x44                                
ram:0001aa8e    6846            mov         r0,sp                                   
ram:0001aa90    00f004fc        bl          FUN_0001b29c                            ;undefined4 FUN_0001b29c(int * param_...
ram:0001aa94    0028            cmp         r0,#0x0                                 
ram:0001aa96    03d0            beq         LAB_0001aaa0                            
ram:0001aa98    0022            movs        r2,#0x0                                 
ram:0001aa9a    1146            mov         r1,r2                                   
ram:0001aa9c    fef7daf8        bl          FUN_00018c54                            ;undefined FUN_00018c54(void)
                            LAB_0001aaa0:                 ;XREF[1,0]:   0001aa96
ram:0001aaa0    fef7a2f9        bl          FUN_00018de8                            ;undefined8 FUN_00018de8(undefined4 p...
ram:0001aaa4    1120            movs        r0,#0x11                                
ram:0001aaa6    6946            mov         r1,sp                                   
ram:0001aaa8    0872            strb        r0,[r1,#local_18+0x20]                  
ram:0001aaaa    0622            movs        r2,#0x6                                 
ram:0001aaac    67a1            adr         r1,[s_beacon_0001ac4c]                  ;= "beacon"
ram:0001aaae    02a8            add         r0,sp,#0x8                              
ram:0001aab0    7cdf            svc         0x7c                                    
ram:0001aab2    0028            cmp         r0,#0x0                                 
ram:0001aab4    03d0            beq         LAB_0001aabe                            
ram:0001aab6    0022            movs        r2,#0x0                                 
ram:0001aab8    1146            mov         r1,r2                                   
ram:0001aaba    fef7cbf8        bl          FUN_00018c54                            ;undefined FUN_00018c54(void)
                            LAB_0001aabe:                 ;XREF[1,0]:   0001aab4
ram:0001aabe    0097            str         r7,[sp,#0x0]=>local_20                  
ram:0001aac0    1025            movs        r5,#0x10                                
ram:0001aac2    6846            mov         r0,sp                                   
ram:0001aac4    0197            str         r7,[sp,#local_1c+0x20]                  
ram:0001aac6    1921            movs        r1,#0x19                                
ram:0001aac8    0580            strh        r5,[r0,#0x0]=>local_20                  
ram:0001aaca    4901            lsls        r1,r1,#0x5                              
ram:0001aacc    4180            strh        r1,[r0,#local_20+0x22]                  
ram:0001aace    8780            strh        r7,[r0,#local_1c+0x20]                  
ram:0001aad0    4910            asrs        r1,r1,#0x1                              
ram:0001aad2    c180            strh        r1,[r0,#local_1c+0x22]                  
ram:0001aad4    7adf            svc         0x7a                                    
ram:0001aad6    0028            cmp         r0,#0x0                                 
ram:0001aad8    03d0            beq         LAB_0001aae2                            
ram:0001aada    0022            movs        r2,#0x0                                 
ram:0001aadc    1146            mov         r1,r2                                   
ram:0001aade    fef7b9f8        bl          FUN_00018c54                            ;undefined FUN_00018c54(void)
                            LAB_0001aae2:                 ;XREF[1,0]:   0001aad8
ram:0001aae2    00f065fe        bl          FUN_0001b7b0                            ;undefined FUN_0001b7b0(void)
ram:0001aae6    07a8            add         r0,sp,#0x1c                             
ram:0001aae8    39df            svc         0x39                                    
ram:0001aaea    5348            ldr         r0,[DAT_0001ac38]                       ;= 20002000h
ram:0001aaec    2030            adds        r0,#0x20                                
ram:0001aaee    0168            ldr         r1,[r0,#0x0]=>DAT_20002020              
ram:0001aaf0    c908            lsrs        r1,r1,#0x3                              
ram:0001aaf2    c900            lsls        r1,r1,#0x3                              
ram:0001aaf4    0160            str         r1,[r0,#0x0]=>DAT_20002020              
ram:0001aaf6    5748            ldr         r0,[DAT_0001ac54]                       ;= 40007300h
ram:0001aaf8    4660            str         r6,[r0,#offset DAT_40007304 &0xff]      
ram:0001aafa    0321            movs        r1,#0x3                                 
ram:0001aafc    0720            movs        r0,#0x7                                 
ram:0001aafe    33df            svc         0x33                                    
ram:0001ab00    0720            movs        r0,#0x7                                 
ram:0001ab02    2edf            svc         0x2e                                    
ram:0001ab04    5448            ldr         r0=>DAT_40007500,[DAT_0001ac58]         ;= 40007500h
ram:0001ab06    4760            str         r7,[r0,#offset DAT_40007504 &0xff]      
ram:0001ab08    4168            ldr         r1,[r0,#offset DAT_40007504 &0xff]      
ram:0001ab0a    1822            movs        r2,#0x18                                
ram:0001ab0c    1143            orrs        r1,r2                                   
ram:0001ab0e    4160            str         r1,[r0,#offset DAT_40007504 &0xff]      
ram:0001ab10    4168            ldr         r1,[r0,#offset DAT_40007504 &0xff]      
ram:0001ab12    4160            str         r1,[r0,#offset DAT_40007504 &0xff]      
ram:0001ab14    fdf708ff        bl          FUN_00018928                            ;undefined FUN_00018928(void)
ram:0001ab18    4748            ldr         r0,[DAT_0001ac38]                       ;= 20002000h
ram:0001ab1a    2930            adds        r0,#0x29                                
ram:0001ab1c    fef739f8        bl          FUN_00018b92                            ;undefined FUN_00018b92(undefined * p...
ram:0001ab20    4748            ldr         r0,[DAT_0001ac40]                       ;= 200025BCh
ram:0001ab22    b030            adds        r0,#0xb0                                
ram:0001ab24    fef746f8        bl          FUN_00018bb4                            ;undefined FUN_00018bb4(int param_1)
ram:0001ab28    0a20            movs        r0,#0xa                                 
ram:0001ab2a    00f039f9        bl          FUN_0001ada0                            ;undefined FUN_0001ada0(int param_1)
ram:0001ab2e    fdf7abff        bl          FUN_00018a88                            ;undefined FUN_00018a88(undefined4 pa...
ram:0001ab32    1c21            movs        r1,#0x1c                                
ram:0001ab34    6846            mov         r0,sp                                   
ram:0001ab36    fdf75afb        bl          FUN_000181ee                            ;undefined FUN_000181ee(undefined * p...
ram:0001ab3a    0520            movs        r0,#0x5                                 
ram:0001ab3c    c003            lsls        r0,r0,#0xf                              
ram:0001ab3e    0190            str         r0,[sp,#local_1c+0x20]                  
ram:0001ab40    0f20            movs        r0,#0xf                                 
ram:0001ab42    0004            lsls        r0,r0,#0x10                             
ram:0001ab44    0290            str         r0,[sp,#local_18+0x20]                  
ram:0001ab46    0097            str         r7,[sp,#0x0]=>local_20                  
ram:0001ab48    0321            movs        r1,#0x3                                 
ram:0001ab4a    6846            mov         r0,sp                                   
ram:0001ab4c    0173            strb        r1,[r0,#local_14+0x20]                  
ram:0001ab4e    c781            strh        r7,[r0,#local_12+0x20]                  
ram:0001ab50    0774            strb        r7,[r0,#local_10+0x20]                  
ram:0001ab52    4248            ldr         r0,[PTR_LAB_0001aeb0+1+1_0001ac5c]      ;= 0001aeb1
ram:0001ab54    0590            str         r0=>LAB_0001aeb0+1+1,[sp,#local_c+0x20] 
ram:0001ab56    4248            ldr         r0,[PTR_LAB_00019e08+1+1_0001ac60]      ;= 00019e09
ram:0001ab58    0690            str         r0=>LAB_00019e08+1+1,[sp,#local_8+0x20] 
ram:0001ab5a    6846            mov         r0,sp                                   
ram:0001ab5c    fef704fd        bl          FUN_00019568                            ;undefined FUN_00019568(undefined4 * ...
ram:0001ab60    0028            cmp         r0,#0x0                                 
ram:0001ab62    03d0            beq         LAB_0001ab6c                            
ram:0001ab64    0022            movs        r2,#0x0                                 
ram:0001ab66    1146            mov         r1,r2                                   
ram:0001ab68    fef774f8        bl          FUN_00018c54                            ;undefined FUN_00018c54(void)
                            LAB_0001ab6c:                 ;XREF[1,0]:   0001ab62
ram:0001ab6c    3249            ldr         r1,[DAT_0001ac38]                       ;= 20002000h
ram:0001ab6e    e322            movs        r2,#0xe3                                
ram:0001ab70    2431            adds        r1,#0x24                                
ram:0001ab72    0878            ldrb        r0,[r1,#0x0]=>DAT_20002024              
ram:0001ab74    3043            orrs        r0,r6                                   
ram:0001ab76    fd26            movs        r6,#0xfd                                
ram:0001ab78    3040            ands        r0,r6                                   
ram:0001ab7a    1040            ands        r0,r2                                   
ram:0001ab7c    df22            movs        r2,#0xdf                                
ram:0001ab7e    0c30            adds        r0,#0xc                                 
ram:0001ab80    1040            ands        r0,r2                                   
ram:0001ab82    0870            strb        r0,[r1,#0x0]=>DAT_20002024              
ram:0001ab84    0720            movs        r0,#0x7                                 
ram:0001ab86    4870            strb        r0,[r1,#0x1]=>DAT_20002025              
ram:0001ab88    8d70            strb        r5,[r1,#0x2]=>DAT_20002026              
ram:0001ab8a    0f21            movs        r1,#0xf                                 
ram:0001ab8c    0022            movs        r2,#0x0                                 
ram:0001ab8e    4904            lsls        r1,r1,#0x11                             
ram:0001ab90    e068            ldr         r0,[r4,#offset DAT_2000200c &0xff]      
ram:0001ab92    fef7f3fa        bl          FUN_0001917c                            ;longlong FUN_0001917c(uint param_1, ...
ram:0001ab96    0028            cmp         r0,#0x0                                 
ram:0001ab98    03d0            beq         LAB_0001aba2                            
ram:0001ab9a    0022            movs        r2,#0x0                                 
ram:0001ab9c    1146            mov         r1,r2                                   
ram:0001ab9e    fef759f8        bl          FUN_00018c54                            ;undefined FUN_00018c54(void)
                            LAB_0001aba2:                 ;XREF[1,0]:   0001ab98
ram:0001aba2    fdf7ddff        bl          FUN_00018b60                            ;undefined FUN_00018b60(void)
ram:0001aba6    244d            ldr         r5,[DAT_0001ac38]                       ;= 20002000h
ram:0001aba8    1c35            adds        r5,#0x1c                                
ram:0001abaa    2868            ldr         r0,[r5,#0x0]=>DAT_2000201c              
ram:0001abac    0121            movs        r1,#0x1                                 
ram:0001abae    8904            lsls        r1,r1,#0x12                             
ram:0001abb0    8843            bics        r0,r1                                   
ram:0001abb2    2860            str         r0,[r5,#0x0]=>DAT_2000201c              
ram:0001abb4    2868            ldr         r0,[r5,#0x0]=>DAT_2000201c              
ram:0001abb6    4008            lsrs        r0,r0,#0x1                              
ram:0001abb8    4000            lsls        r0,r0,#0x1                              
ram:0001abba    2860            str         r0,[r5,#0x0]=>DAT_2000201c              
ram:0001abbc    2048            ldr         r0,[DAT_0001ac40]                       ;= 200025BCh
ram:0001abbe    d030            adds        r0=>DAT_2000268c,#0xd0                  
ram:0001abc0    8268            ldr         r2,[r0,#0x8]=>DAT_20002694              
ram:0001abc2    0221            movs        r1,#0x2                                 
ram:0001abc4    8a43            bics        r2,r1                                   
ram:0001abc6    8260            str         r2,[r0,#0x8]=>DAT_20002694              
ram:0001abc8    0168            ldr         r1,[r0,#0x0]=>DAT_2000268c              
ram:0001abca    4908            lsrs        r1,r1,#0x1                              
ram:0001abcc    4900            lsls        r1,r1,#0x1                              
ram:0001abce    0160            str         r1,[r0,#0x0]=>DAT_2000268c              
ram:0001abd0    8168            ldr         r1,[r0,#0x8]=>DAT_20002694              
ram:0001abd2    4908            lsrs        r1,r1,#0x1                              
ram:0001abd4    4900            lsls        r1,r1,#0x1                              
ram:0001abd6    8160            str         r1,[r0,#0x8]=>DAT_20002694              
ram:0001abd8    4760            str         r7,[r0,#0x4]=>DAT_20002690              
ram:0001abda    fdf7fdfc        bl          FUN_000185d8                            ;undefined FUN_000185d8(void)
                            LAB_0001abde:                 ;XREF[2,0]:   0001ac28,0001ac32
ram:0001abde    6078            ldrb        r0,[r4,#offset DAT_20002001 &0xff]      
ram:0001abe0    0028            cmp         r0,#0x0                                 
ram:0001abe2    1dd0            beq         LAB_0001ac20                            
ram:0001abe4    c107            lsls        r1,r0,#0x1f                             
ram:0001abe6    14d0            beq         LAB_0001ac12                            
ram:0001abe8    4008            lsrs        r0,r0,#0x1                              
ram:0001abea    4000            lsls        r0,r0,#0x1                              
ram:0001abec    6070            strb        r0,[r4,#offset DAT_20002001 &0xff]      
ram:0001abee    2868            ldr         r0,[r5,#0x0]=>DAT_2000201c              
ram:0001abf0    2968            ldr         r1,[r5,#0x0]=>DAT_2000201c              
ram:0001abf2    4004            lsls        r0,r0,#0x11                             
ram:0001abf4    020f            lsrs        r2,r0,#0x1c                             
ram:0001abf6    0420            movs        r0,#0x4                                 
ram:0001abf8    0240            ands        r2,r0                                   
ram:0001abfa    8143            bics        r1,r0                                   
ram:0001abfc    1143            orrs        r1,r2                                   
ram:0001abfe    2960            str         r1,[r5,#0x0]=>DAT_2000201c              
ram:0001ac00    2868            ldr         r0,[r5,#0x0]=>DAT_2000201c              
ram:0001ac02    4007            lsls        r0,r0,#0x1d                             
ram:0001ac04    c00f            lsrs        r0,r0,#0x1f                             
ram:0001ac06    fdf72ffd        bl          FUN_00018668                            ;undefined FUN_00018668(int param_1)
ram:0001ac0a    6078            ldrb        r0,[r4,#offset DAT_20002001 &0xff]      
ram:0001ac0c    0221            movs        r1,#0x2                                 
ram:0001ac0e    0843            orrs        r0,r1                                   
ram:0001ac10    6070            strb        r0,[r4,#offset DAT_20002001 &0xff]      
                            LAB_0001ac12:                 ;XREF[1,0]:   0001abe6
ram:0001ac12    c0b2            uxtb        r0,r0                                   
ram:0001ac14    8107            lsls        r1,r0,#0x1e                             
ram:0001ac16    03d5            bpl         LAB_0001ac20                            
ram:0001ac18    3040            ands        r0,r6                                   
ram:0001ac1a    6070            strb        r0,[r4,#offset DAT_20002001 &0xff]      
ram:0001ac1c    fdf734ff        bl          FUN_00018a88                            ;undefined FUN_00018a88(undefined4 pa...
                            LAB_0001ac20:                 ;XREF[2,0]:   0001abe2,0001ac16
ram:0001ac20    fef7e6f9        bl          FUN_00018ff0                            ;undefined FUN_00018ff0(undefined4 pa...
ram:0001ac24    48df            svc         0x48                                    
ram:0001ac26    0028            cmp         r0,#0x0                                 
ram:0001ac28    d9d0            beq         LAB_0001abde                            
ram:0001ac2a    0022            movs        r2,#0x0                                 
ram:0001ac2c    1146            mov         r1,r2                                   
ram:0001ac2e    fef711f8        bl          FUN_00018c54                            ;undefined FUN_00018c54(void)
ram:0001ac32    d4e7            b           LAB_0001abde                            
                            DAT_0001ac34:                 ;XREF[1,0]:   0001a9f0
ram:0001ac34    00d00040        undefined4  4000D000h                               
                            DAT_0001ac38:                 ;XREF[7,0]:   0001aa04,0001aa2e,0001aa88,0001aaea
                                                          ;             0001ab18,0001ab6c,0001aba6
ram:0001ac38    00200020        undefined4  20002000h                               
                            DAT_0001ac3c:                 ;XREF[1,0]:   0001aa06
ram:0001ac3c    00d50040        undefined4  4000D500h                               
                            DAT_0001ac40:                 ;XREF[4,0]:   0001aa16,0001aa56,0001ab20,0001abbc
ram:0001ac40    bc250020        undefined4  200025BCh                               
                            DAT_0001ac44:                 ;XREF[1,0]:   0001aa30
ram:0001ac44    33030000        undefined4  00000333h                               
                            PTR_LAB_0001903c+1+1_0001ac48:;XREF[1,0]:   0001aa86
ram:0001ac48    3d900100        addr        LAB_0001903c+1+1                        
                            s_beacon_0001ac4c:            ;XREF[1,0]:   0001aaac
ram:0001ac4c    626561636...    ds          "beacon"                                
ram:0001ac53    00              ??          00h                                     
                            DAT_0001ac54:                 ;XREF[1,0]:   0001aaf6
ram:0001ac54    00730040        undefined4  40007300h                               
                            DAT_0001ac58:                 ;XREF[1,0]:   0001ab04
ram:0001ac58    00750040        undefined4  40007500h                               
                            PTR_LAB_0001aeb0+1+1_0001ac5c:;XREF[1,0]:   0001ab52
ram:0001ac5c    b1ae0100        addr        LAB_0001aeb0+1+1                        
                            PTR_LAB_00019e08+1+1_0001ac60:;XREF[1,0]:   0001ab56
ram:0001ac60    099e0100        addr        LAB_00019e08+1+1                        
                            ;************************************************************************************************
                            ;*                                           FUNCTION                                           *
                            ;************************************************************************************************
                            ;uint * FUN_0001ac64(int param_1)
          ;param_1       int                 r0                      
                                                          ;XREF[4,0]:   0001930e,0001940c,0001949c,0001bcfa
ram:0001ac64    f0b5            push        {r4,r5,r6,r7,lr}                        
ram:0001ac66    0b30            adds        param_1,#0xb                            
ram:0001ac68    c108            lsrs        r1,param_1,#0x3                         
ram:0001ac6a    c900            lsls        r1,r1,#0x3                              
ram:0001ac6c    144f            ldr         r7,[DAT_0001acc0]                       ;= 2000214Ch
ram:0001ac6e    0026            movs        r6,#0x0                                 
                            LAB_0001ac70:                 ;XREF[1,0]:   0001acbe
ram:0001ac70    144a            ldr         r2,[DAT_0001acc4]                       ;= 20002148h
ram:0001ac72    0fe0            b           LAB_0001ac94                            
                            LAB_0001ac74:                 ;XREF[1,0]:   0001ac98
ram:0001ac74    0368            ldr         r3,[param_1,#0x0]                       
ram:0001ac76    8b42            cmp         r3,r1                                   
ram:0001ac78    0bd3            bcc         LAB_0001ac92                            
ram:0001ac7a    8b42            cmp         r3,r1                                   
ram:0001ac7c    05d9            bls         LAB_0001ac8a                            
ram:0001ac7e    5c1a            subs        r4,r3,r1                                
ram:0001ac80    4318            adds        r3,param_1,r1                           
ram:0001ac82    4568            ldr         r5,[param_1,#0x4]                       
ram:0001ac84    30c3            stmia       r3!,{r4,r5}                             
ram:0001ac86    083b            subs        r3,#0x8                                 
ram:0001ac88    00e0            b           LAB_0001ac8c                            
                            LAB_0001ac8a:                 ;XREF[1,0]:   0001ac7c
ram:0001ac8a    4368            ldr         r3,[param_1,#0x4]                       
                            LAB_0001ac8c:                 ;XREF[1,0]:   0001ac88
ram:0001ac8c    1360            str         r3,[r2,#0x0]=>DAT_20002148              
ram:0001ac8e    02c0            stmia       param_1!,{r1}                           
ram:0001ac90    04e0            b           LAB_0001ac9c                            
                            LAB_0001ac92:                 ;XREF[1,0]:   0001ac78
ram:0001ac92    021d            adds        r2,param_1,#0x4                         
                            LAB_0001ac94:                 ;XREF[1,0]:   0001ac72
ram:0001ac94    1068            ldr         param_1,[r2,#0x0]=>DAT_20002148         
ram:0001ac96    0028            cmp         param_1,#0x0                            
ram:0001ac98    ecd1            bne         LAB_0001ac74                            
ram:0001ac9a    3046            mov         param_1,r6                              
                            LAB_0001ac9c:                 ;XREF[1,0]:   0001ac90
ram:0001ac9c    0028            cmp         param_1,#0x0                            
ram:0001ac9e    03d1            bne         LAB_0001aca8                            
ram:0001aca0    3868            ldr         param_1,[r7,#0x0]=>DAT_2000214c         
ram:0001aca2    0028            cmp         param_1,#0x0                            
ram:0001aca4    01d0            beq         LAB_0001acaa                            
ram:0001aca6    0020            movs        param_1,#0x0                            
                            LAB_0001aca8:                 ;XREF[1,0]:   0001ac9e
ram:0001aca8    f0bd            pop         {r4,r5,r6,r7,pc}                        
                            LAB_0001acaa:                 ;XREF[1,0]:   0001aca4
ram:0001acaa    064a            ldr         r2,[DAT_0001acc4]                       ;= 20002148h
ram:0001acac    0648            ldr         param_1,[DAT_0001acc8]                  ;= 2000291Ch
ram:0001acae    1060            str         param_1=>DAT_200...,[r2,#0x0]=>DAT_20...
ram:0001acb0    064a            ldr         r2,[DAT_0001accc]                       ;= 20003118h
ram:0001acb2    121a            subs        r2,r2,param_1                           
ram:0001acb4    d208            lsrs        r2,r2,#0x3                              
ram:0001acb6    d200            lsls        r2,r2,#0x3                              
ram:0001acb8    44c0            stmia       param_1!=>DAT_20...,{r2,r6}=>DAT_2000...
ram:0001acba    0120            movs        param_1,#0x1                            
ram:0001acbc    3860            str         param_1,[r7,#0x0]=>DAT_2000214c         
ram:0001acbe    d7e7            b           LAB_0001ac70                            
                            DAT_0001acc0:                 ;XREF[1,0]:   0001ac6c
ram:0001acc0    4c210020        undefined4  2000214Ch                               
                            DAT_0001acc4:                 ;XREF[2,0]:   0001ac70,0001acaa
ram:0001acc4    48210020        undefined4  20002148h                               
                            DAT_0001acc8:                 ;XREF[1,0]:   0001acac
ram:0001acc8    1c290020        undefined4  2000291Ch                               
                            DAT_0001accc:                 ;XREF[1,0]:   0001acb0
ram:0001accc    18310020        undefined4  20003118h                               
                            ;************************************************************************************************
                            ;*                                           FUNCTION                                           *
                            ;************************************************************************************************
                            ;undefined4 FUN_0001acd0(ushort * param_1, int param_2, byte * param_3)
          ;param_1       ushort *            r0                      
          ;param_2       int                 r1                      
          ;param_3       byte *              r2                      
                                                          ;XREF[1,0]:   00018a64
ram:0001acd0    70b5            push        {r4,r5,r6,lr}                           
ram:0001acd2    0546            mov         r5,param_1                              
ram:0001acd4    0079            ldrb        param_1,[param_1,#0x4]                  
ram:0001acd6    0e46            mov         r6,param_2                              
ram:0001acd8    801c            adds        param_1,param_1,#0x2                    
ram:0001acda    1446            mov         r4,param_3                              
ram:0001acdc    c0b2            uxtb        param_1,param_1                         
ram:0001acde    1178            ldrb        param_2,[param_3,#0x0]                  
ram:0001ace0    821c            adds        param_3,param_1,#0x2                    
ram:0001ace2    8a18            adds        param_3,param_2,param_3                 
ram:0001ace4    1f2a            cmp         param_3,#0x1f                           
ram:0001ace6    01d9            bls         LAB_0001acec                            
ram:0001ace8    0c20            movs        param_1,#0xc                            
ram:0001acea    70bd            pop         {r4,r5,r6,pc}                           
                            LAB_0001acec:                 ;XREF[1,0]:   0001ace6
ram:0001acec    0a46            mov         param_3,param_2                         
ram:0001acee    491c            adds        param_2,param_2,#0x1                    
ram:0001acf0    2170            strb        param_2,[r4,#0x0]                       
ram:0001acf2    401c            adds        param_1,param_1,#0x1                    
ram:0001acf4    b054            strb        param_1,[r6,param_3]                    
ram:0001acf6    2078            ldrb        param_1,[r4,#0x0]                       
ram:0001acf8    ff22            movs        param_3,#0xff                           
ram:0001acfa    411c            adds        param_2,param_1,#0x1                    
ram:0001acfc    2170            strb        param_2,[r4,#0x0]                       
ram:0001acfe    3254            strb        param_3,[r6,param_1]                    
ram:0001ad00    2078            ldrb        param_1,[r4,#0x0]                       
ram:0001ad02    8119            adds        param_2,param_1,r6                      
ram:0001ad04    2888            ldrh        param_1,[r5,#0x0]                       
ram:0001ad06    01f0a4f9        bl          FUN_0001c052                            ;undefined4 FUN_0001c052(undefined4 p...
ram:0001ad0a    2178            ldrb        param_2,[r4,#0x0]                       
ram:0001ad0c    4018            adds        param_1,param_1,param_2                 
ram:0001ad0e    c0b2            uxtb        param_1,param_1                         
ram:0001ad10    2070            strb        param_1,[r4,#0x0]                       
ram:0001ad12    aa88            ldrh        param_3,[r5,#0x4]                       
ram:0001ad14    002a            cmp         param_3,#0x0                            
ram:0001ad16    09d0            beq         LAB_0001ad2c                            
ram:0001ad18    a968            ldr         param_2,[r5,#0x8]                       
ram:0001ad1a    0029            cmp         param_2,#0x0                            
ram:0001ad1c    08d0            beq         LAB_0001ad30                            
ram:0001ad1e    8019            adds        param_1,param_1,r6                      
ram:0001ad20    fdf74cfa        bl          FUN_000181bc                            ;undefined FUN_000181bc(undefined4 * ...
ram:0001ad24    2078            ldrb        param_1,[r4,#0x0]                       
ram:0001ad26    2979            ldrb        param_2,[r5,#0x4]                       
ram:0001ad28    4018            adds        param_1,param_1,param_2                 
ram:0001ad2a    2070            strb        param_1,[r4,#0x0]                       
                            LAB_0001ad2c:                 ;XREF[1,0]:   0001ad16
ram:0001ad2c    0020            movs        param_1,#0x0                            
ram:0001ad2e    70bd            pop         {r4,r5,r6,pc}                           
                            LAB_0001ad30:                 ;XREF[1,0]:   0001ad1c
ram:0001ad30    0720            movs        param_1,#0x7                            
ram:0001ad32    70bd            pop         {r4,r5,r6,pc}                           
                            ;************************************************************************************************
                            ;*                                           FUNCTION                                           *
                            ;************************************************************************************************
                            ;int FUN_0001ad34(char * param_1, int param_2, byte * param_3)
          ;param_1       char *              r0                      
          ;param_2       int                 r1                      
          ;param_3       byte *              r2                      
          ;local_18      undefined2         -18                      ;XREF[3,0]:   0001ad5a,0001ad6e,0001ad86
                                                          ;XREF[1,0]:   00018952
ram:0001ad34    f8b5            push        {r3,r4,r5,r6,r7,lr}                     
ram:0001ad36    1478            ldrb        r4,[param_3,#0x0]                       
ram:0001ad38    0746            mov         r7,param_1                              
ram:0001ad3a    a01c            adds        param_1,r4,#0x2                         
ram:0001ad3c    1546            mov         r5,param_3                              
ram:0001ad3e    0e46            mov         r6,param_2                              
ram:0001ad40    1f28            cmp         param_1,#0x1f                           
ram:0001ad42    03d8            bhi         LAB_0001ad4c                            
ram:0001ad44    7878            ldrb        param_1,[r7,#0x1]                       
ram:0001ad46    801c            adds        param_1,param_1,#0x2                    
ram:0001ad48    1f28            cmp         param_1,#0x1f                           
ram:0001ad4a    01d9            bls         LAB_0001ad50                            
                            LAB_0001ad4c:                 ;XREF[1,0]:   0001ad42
ram:0001ad4c    0c20            movs        param_1,#0xc                            
                            LAB_0001ad4e:                 ;XREF[1,0]:   0001ad64
ram:0001ad4e    f8bd            pop         {r3,r4,r5,r6,r7,pc}                     
                            LAB_0001ad50:                 ;XREF[1,0]:   0001ad4a
ram:0001ad50    1d20            movs        param_1,#0x1d                           
ram:0001ad52    001b            subs        param_1,param_1,r4                      
ram:0001ad54    80b2            uxth        param_1,param_1                         
ram:0001ad56    6946            mov         param_2,sp                              
ram:0001ad58    8646            mov         lr,param_1                              
ram:0001ad5a    0880            strh        param_1,[param_2,#0x0]=>local_18        
ram:0001ad5c    3019            adds        param_1,r6,r4                           
ram:0001ad5e    801c            adds        param_1,param_1,#0x2                    
ram:0001ad60    7ddf            svc         0x7d                                    
ram:0001ad62    0028            cmp         param_1,#0x0                            
ram:0001ad64    f3d1            bne         LAB_0001ad4e                            
ram:0001ad66    3878            ldrb        param_1,[r7,#0x0]                       
ram:0001ad68    0228            cmp         param_1,#0x2                            
ram:0001ad6a    05d1            bne         LAB_0001ad78                            
ram:0001ad6c    6846            mov         param_1,sp                              
ram:0001ad6e    0088            ldrh        param_1=>local_18,[param_1,#0x0]        
ram:0001ad70    7045            cmp         param_1,lr                              
ram:0001ad72    01d8            bhi         LAB_0001ad78                            
ram:0001ad74    0921            movs        param_2,#0x9                            
ram:0001ad76    07e0            b           LAB_0001ad88                            
                            LAB_0001ad78:                 ;XREF[2,0]:   0001ad6a,0001ad72
ram:0001ad78    7878            ldrb        param_1,[r7,#0x1]                       
ram:0001ad7a    0821            movs        param_2,#0x8                            
ram:0001ad7c    0028            cmp         param_1,#0x0                            
ram:0001ad7e    01d0            beq         LAB_0001ad84                            
ram:0001ad80    7045            cmp         param_1,lr                              
ram:0001ad82    01d9            bls         LAB_0001ad88                            
                            LAB_0001ad84:                 ;XREF[1,0]:   0001ad7e
ram:0001ad84    6846            mov         param_1,sp                              
ram:0001ad86    0088            ldrh        param_1=>local_18,[param_1,#0x0]        
                            LAB_0001ad88:                 ;XREF[2,0]:   0001ad76,0001ad82
ram:0001ad88    421c            adds        param_3,param_1,#0x1                    
ram:0001ad8a    3255            strb        param_3,[r6,r4]                         
ram:0001ad8c    641c            adds        r4,r4,#0x1                              
ram:0001ad8e    e2b2            uxtb        param_3,r4                              
ram:0001ad90    b154            strb        param_2,[r6,param_3]                    
ram:0001ad92    2978            ldrb        param_2,[r5,#0x0]                       
ram:0001ad94    801c            adds        param_1,param_1,#0x2                    
ram:0001ad96    0818            adds        param_1,param_2,param_1                 
ram:0001ad98    2870            strb        param_1,[r5,#0x0]                       
ram:0001ad9a    0020            movs        param_1,#0x0                            
ram:0001ad9c    f8bd            pop         {r3,r4,r5,r6,r7,pc}                     
ram:0001ad9e    0000            movs        r0,r0                                   
                            ;************************************************************************************************
                            ;*                                           FUNCTION                                           *
                            ;************************************************************************************************
                            ;undefined FUN_0001ada0(int param_1)
          ;param_1       int                 r0                      
          ;local_10      undefined4         -10                      ;XREF[2,0]:   0001ada8,0001adb0
                                                          ;XREF[3,0]:   0001a9fa,0001ab2a,0001b660
ram:0001ada0    31b5            push        {param_1,r4,r5,lr}                      
ram:0001ada2    054c            ldr         r4,[DAT_0001adb8]                       ;= 000003E7h
ram:0001ada4    04e0            b           LAB_0001adb0                            
                            LAB_0001ada6:                 ;XREF[1,0]:   0001adb4
ram:0001ada6    401e            subs        param_1,param_1,#0x1                    
ram:0001ada8    0090            str         param_1,[sp,#0x0]=>local_10             
ram:0001adaa    2046            mov         param_1,r4                              
ram:0001adac    fdf792f9        bl          FUN_000180d4                            ;undefined FUN_000180d4(int param_1)
                            LAB_0001adb0:                 ;XREF[1,0]:   0001ada4
ram:0001adb0    0098            ldr         param_1,[sp,#0x0]=>local_10             
ram:0001adb2    0028            cmp         param_1,#0x0                            
ram:0001adb4    f7d1            bne         LAB_0001ada6                            
ram:0001adb6    38bd            pop         {r3,r4,r5,pc}                           
                            DAT_0001adb8:                 ;XREF[1,0]:   0001ada2
ram:0001adb8    e7030000        undefined4  000003E7h                               
                            ;************************************************************************************************
                            ;*                                           FUNCTION                                           *
                            ;************************************************************************************************
                            ;undefined FUN_0001adbc(uint param_1)
          ;param_1       uint                r0                      
                                                          ;XREF[4,0]:   000184ec,000184f2,000184f8,0001adec
ram:0001adbc    0121            movs        r1,#0x1                                 
ram:0001adbe    8140            lsls        r1,param_1                              
ram:0001adc0    0148            ldr         param_1,[DAT_0001adc8]                  ;= 50000500h
ram:0001adc2    c160            str         r1,[param_1,#offset DAT_5000050c &0xff] 
ram:0001adc4    7047            bx          lr                                      
ram:0001adc6    0000            movs        r0,r0                                   
                            DAT_0001adc8:                 ;XREF[1,0]:   0001adc0
ram:0001adc8    00050050        undefined4  50000500h                               
                            ;************************************************************************************************
                            ;*                                           FUNCTION                                           *
                            ;************************************************************************************************
                            ;uint FUN_0001adcc(uint param_1)
          ;param_1       uint                r0                      
                                                          ;XREF[6,0]:   0001861e,00018630,00019a70,00019a78
                                                          ;             00019eb4,00019ec8
ram:0001adcc    0249            ldr         r1,[DAT_0001add8]                       ;= 50000500h
ram:0001adce    0969            ldr         r1,[r1,#offset DAT_50000510 &0xff]      
ram:0001add0    c140            lsrs        r1,param_1                              
ram:0001add2    c807            lsls        param_1,r1,#0x1f                        
ram:0001add4    c00f            lsrs        param_1,param_1,#0x1f                   
ram:0001add6    7047            bx          lr                                      
                            DAT_0001add8:                 ;XREF[1,0]:   0001adcc
ram:0001add8    00050050        undefined4  50000500h                               
                            ;************************************************************************************************
                            ;*                                           FUNCTION                                           *
                            ;************************************************************************************************
                            ;undefined FUN_0001addc(uint param_1, int param_2)
          ;param_1       uint                r0                      
          ;param_2       int                 r1                      
                                                          ;XREF[2,0]:   000184d8,000184e2
ram:0001addc    10b5            push        {r4,lr}                                 
ram:0001adde    0029            cmp         param_2,#0x0                            
ram:0001ade0    04d0            beq         LAB_0001adec                            
ram:0001ade2    0121            movs        param_2,#0x1                            
ram:0001ade4    8140            lsls        param_2,param_1                         
ram:0001ade6    0348            ldr         param_1,[DAT_0001adf4]                  ;= 50000500h
ram:0001ade8    8160            str         param_2,[param_1,#offset DAT_50000508...
ram:0001adea    10bd            pop         {r4,pc}                                 
                            LAB_0001adec:                 ;XREF[1,0]:   0001ade0
ram:0001adec    fff7e6ff        bl          FUN_0001adbc                            ;undefined FUN_0001adbc(uint param_1)
ram:0001adf0    10bd            pop         {r4,pc}                                 
ram:0001adf2    0000            movs        r0,r0                                   
                            DAT_0001adf4:                 ;XREF[1,0]:   0001ade6
ram:0001adf4    00050050        undefined4  50000500h                               
                            ;************************************************************************************************
                            ;*                                           FUNCTION                                           *
                            ;************************************************************************************************
                            ;undefined FUN_0001adf8(ushort * param_1)
          ;param_1       ushort *            r0                      
                                                          ;XREF[1,0]:   000197d4
ram:0001adf8    70b5            push        {r4,r5,r6,lr}                           
ram:0001adfa    2b4c            ldr         r4,[DAT_0001aea8]                       ;= 20002000h
ram:0001adfc    0188            ldrh        r1,[param_1,#0x0]                       
ram:0001adfe    a588            ldrh        r5,[r4,#offset DAT_20002004 &0xff]      
ram:0001ae00    1429            cmp         r1,#0x14                                
ram:0001ae02    30d0            beq         LAB_0001ae66                            
ram:0001ae04    0ddc            bgt         LAB_0001ae22                            
ram:0001ae06    1029            cmp         r1,#0x10                                
ram:0001ae08    1dd0            beq         LAB_0001ae46                            
ram:0001ae0a    1129            cmp         r1,#0x11                                
ram:0001ae0c    1ed0            beq         LAB_0001ae4c                            
ram:0001ae0e    1329            cmp         r1,#0x13                                
ram:0001ae10    18d1            bne         LAB_0001ae44                            
ram:0001ae12    2346            mov         r3,r4                                   
ram:0001ae14    6433            adds        r3,#0x64                                
ram:0001ae16    1a46            mov         r2,r3                                   
ram:0001ae18    403a            subs        r2,#0x40                                
ram:0001ae1a    0021            movs        r1,#0x0                                 
ram:0001ae1c    2846            mov         param_1,r5                              
ram:0001ae1e    7fdf            svc         0x7f                                    
ram:0001ae20    0ae0            b           LAB_0001ae38                            
                            LAB_0001ae22:                 ;XREF[1,0]:   0001ae04
ram:0001ae22    1729            cmp         r1,#0x17                                
ram:0001ae24    18d0            beq         LAB_0001ae58                            
ram:0001ae26    1929            cmp         r1,#0x19                                
ram:0001ae28    0cd0            beq         LAB_0001ae44                            
ram:0001ae2a    5229            cmp         r1,#0x52                                
ram:0001ae2c    0ad1            bne         LAB_0001ae44                            
ram:0001ae2e    0323            movs        r3,#0x3                                 
ram:0001ae30    0022            movs        r2,#0x0                                 
ram:0001ae32    1146            mov         r1,r2                                   
ram:0001ae34    2846            mov         param_1,r5                              
ram:0001ae36    a9df            svc         0xa9                                    
                            LAB_0001ae38:                 ;XREF[2,0]:   0001ae20,0001aea2
ram:0001ae38    0028            cmp         param_1,#0x0                            
ram:0001ae3a    03d0            beq         LAB_0001ae44                            
ram:0001ae3c    0022            movs        r2,#0x0                                 
ram:0001ae3e    1146            mov         r1,r2                                   
ram:0001ae40    fdf708ff        bl          FUN_00018c54                            ;undefined FUN_00018c54(void)
                            LAB_0001ae44:                 ;XREF[4,0]:   0001ae10,0001ae28,0001ae2c,0001ae3a
ram:0001ae44    70bd            pop         {r4,r5,r6,pc}                           
                            LAB_0001ae46:                 ;XREF[1,0]:   0001ae08
ram:0001ae46    8088            ldrh        param_1,[param_1,#0x4]                  
ram:0001ae48    a080            strh        param_1,[r4,#offset DAT_20002004 &0xff] 
ram:0001ae4a    70bd            pop         {r4,r5,r6,pc}                           
                            LAB_0001ae4c:                 ;XREF[1,0]:   0001ae0c
ram:0001ae4c    0020            movs        param_1,#0x0                            
ram:0001ae4e    c043            mvns        param_1,param_1                         
ram:0001ae50    a080            strh        param_1,[r4,#offset DAT_20002004 &0xff] 
ram:0001ae52    fdf785fe        bl          FUN_00018b60                            ;undefined FUN_00018b60(void)
ram:0001ae56    70bd            pop         {r4,r5,r6,pc}                           
                            LAB_0001ae58:                 ;XREF[1,0]:   0001ae24
ram:0001ae58    811d            adds        r1,param_1,#0x6                         
ram:0001ae5a    1348            ldr         param_1,[DAT_0001aea8]                  ;= 20002000h
ram:0001ae5c    0622            movs        r2,#0x6                                 
ram:0001ae5e    2e30            adds        param_1,#0x2e                           
ram:0001ae60    fdf7acf9        bl          FUN_000181bc                            ;undefined FUN_000181bc(undefined4 * ...
ram:0001ae64    70bd            pop         {r4,r5,r6,pc}                           
                            LAB_0001ae66:                 ;XREF[1,0]:   0001ae02
ram:0001ae66    0a22            movs        r2,#0xa                                 
ram:0001ae68    1049            ldr         r1,[DAT_0001aeac]                       ;= 20002492h
ram:0001ae6a    0e30            adds        param_1,#0xe                            
ram:0001ae6c    fdf7caf9        bl          FUN_00018204                            ;undefined FUN_00018204(int param_1, ...
ram:0001ae70    0028            cmp         param_1,#0x0                            
ram:0001ae72    17d0            beq         LAB_0001aea4                            
ram:0001ae74    0020            movs        param_1,#0x0                            
                            LAB_0001ae76:                 ;XREF[1,0]:   0001aea6
ram:0001ae76    0c49            ldr         r1,[DAT_0001aea8]                       ;= 20002000h
ram:0001ae78    2e31            adds        r1,#0x2e                                
ram:0001ae7a    0b79            ldrb        r3,[r1,#0x4]=>DAT_20002032              
ram:0001ae7c    1946            mov         r1,r3                                   
ram:0001ae7e    0140            ands        r1,param_1                              
ram:0001ae80    01d0            beq         LAB_0001ae86                            
ram:0001ae82    0a49            ldr         r1,[DAT_0001aeac]                       ;= 20002492h
ram:0001ae84    1239            subs        r1,#0x12                                
                            LAB_0001ae86:                 ;XREF[1,0]:   0001ae80
ram:0001ae86    9a07            lsls        r2,r3,#0x1e                             
ram:0001ae88    d20f            lsrs        r2,r2,#0x1f                             
ram:0001ae8a    0240            ands        r2,param_1                              
ram:0001ae8c    01d0            beq         LAB_0001ae92                            
ram:0001ae8e    074a            ldr         r2,[DAT_0001aeac]                       ;= 20002492h
ram:0001ae90    0a32            adds        r2,#0xa                                 
                            LAB_0001ae92:                 ;XREF[1,0]:   0001ae8c
ram:0001ae92    5b07            lsls        r3,r3,#0x1d                             
ram:0001ae94    db0f            lsrs        r3,r3,#0x1f                             
ram:0001ae96    0340            ands        r3,param_1                              
ram:0001ae98    01d0            beq         LAB_0001ae9e                            
ram:0001ae9a    044b            ldr         r3,[DAT_0001aeac]                       ;= 20002492h
ram:0001ae9c    2133            adds        r3,#0x21                                
                            LAB_0001ae9e:                 ;XREF[1,0]:   0001ae98
ram:0001ae9e    a088            ldrh        param_1,[r4,#offset DAT_20002004 &0xff] 
ram:0001aea0    82df            svc         0x82                                    
ram:0001aea2    c9e7            b           LAB_0001ae38                            
                            LAB_0001aea4:                 ;XREF[1,0]:   0001ae72
ram:0001aea4    0120            movs        param_1,#0x1                            
ram:0001aea6    e6e7            b           LAB_0001ae76                            
                            DAT_0001aea8:                 ;XREF[3,0]:   0001adfa,0001ae5a,0001ae76
ram:0001aea8    00200020        undefined4  20002000h                               
                            DAT_0001aeac:                 ;XREF[4,0]:   0001ae68,0001ae82,0001ae8e,0001ae9a
ram:0001aeac    92240020        undefined4  20002492h                               
                            ;************************************************************************************************
                            ;*                                           FUNCTION                                           *
                            ;************************************************************************************************
                            ;undefined LAB_0001aeb0+1(char * param_1)
          ;param_1       char *              r0                      
                                                          ;XREF[0,2]:   0001ab54,0001ac5c
ram:0001aeb0    10b5            push        {r4,lr}                                 
ram:0001aeb2    0078            ldrb        param_1,[param_1,#0x0]                  
ram:0001aeb4    0028            cmp         param_1,#0x0                            
ram:0001aeb6    09d1            bne         LAB_0001aecc                            
ram:0001aeb8    0548            ldr         param_1,[DAT_0001aed0]                  ;= 20002000h
ram:0001aeba    3b21            movs        r1,#0x3b                                
ram:0001aebc    8088            ldrh        param_1,[param_1,#offset DAT_20002004...
ram:0001aebe    76df            svc         0x76                                    
ram:0001aec0    0028            cmp         param_1,#0x0                            
ram:0001aec2    03d0            beq         LAB_0001aecc                            
ram:0001aec4    0022            movs        r2,#0x0                                 
ram:0001aec6    1146            mov         r1,r2                                   
ram:0001aec8    fdf7c4fe        bl          FUN_00018c54                            ;undefined FUN_00018c54(void)
                            LAB_0001aecc:                 ;XREF[2,0]:   0001aeb6,0001aec2
ram:0001aecc    10bd            pop         {r4,pc}                                 
ram:0001aece    0000            movs        r0,r0                                   
                            DAT_0001aed0:                 ;XREF[1,0]:   0001aeb8
ram:0001aed0    00200020        undefined4  20002000h                               
                            ;************************************************************************************************
                            ;*                                           FUNCTION                                           *
                            ;************************************************************************************************
                            ;undefined8 FUN_0001aed4(ushort * param_1, int param_2)
          ;param_1       ushort *            r0                      
          ;param_2       int                 r1                      
          ;local_18      undefined4         -18                      ;XREF[1,0]:   0001aeea
          ;local_1c      undefined4         -1c                      ;XREF[2,1]:   0001aee2,0001aee4,0001aee6
          ;local_20      undefined2         -20                      ;XREF[1,0]:   0001af06
          ;local_30      undefined2         -30                      ;XREF[2,0]:   0001af10,0001af3c
          ;local_34      undefined1         -34                      ;XREF[1,0]:   0001aede
                                                          ;XREF[1,0]:   00019734
ram:0001aed4    f0b5            push        {r4,r5,r6,r7,lr}                        
ram:0001aed6    8bb0            sub         sp,#0x2c                                
ram:0001aed8    0446            mov         r4,param_1                              
ram:0001aeda    0227            movs        r7,#0x2                                 
ram:0001aedc    6846            mov         param_1,sp                              
ram:0001aede    0773            strb        r7,[r0,#local_34+0x40]                  
ram:0001aee0    0026            movs        r6,#0x0                                 
ram:0001aee2    0996            str         r6,[sp,#local_1c+0x40]                  
ram:0001aee4    8784            strh        r7,[r0,#local_1c+0x40]                  
ram:0001aee6    c684            strh        r6,[r0,#local_1c+0x42]                  
ram:0001aee8    08a8            add         param_1,sp,#0x20                        
ram:0001aeea    0a90            str         param_1,[sp,#local_18+0x40]             
ram:0001aeec    0d46            mov         r5,param_2                              
ram:0001aeee    a18a            ldrh        param_2,[r4,#0x14]                      
ram:0001aef0    2088            ldrh        param_1,[r4,#0x0]                       
ram:0001aef2    09aa            add         r2,sp,#0x24                             
ram:0001aef4    a5df            svc         0xa5                                    
ram:0001aef6    0028            cmp         param_1,#0x0                            
ram:0001aef8    04d0            beq         LAB_0001af04                            
ram:0001aefa    e16a            ldr         param_2,[r4,#0x2c]                      
ram:0001aefc    0029            cmp         param_2,#0x0                            
ram:0001aefe    1ad0            beq         LAB_0001af36                            
ram:0001af00    8847            blx         param_2                                 
ram:0001af02    18e0            b           LAB_0001af36                            
                            LAB_0001af04:                 ;XREF[1,0]:   0001aef8
ram:0001af04    6846            mov         param_1,sp                              
ram:0001af06    008c            ldrh        param_1,[r0,#local_20+0x40]             
ram:0001af08    c007            lsls        param_1,param_1,#0x1f                   
ram:0001af0a    c00f            lsrs        param_1,param_1,#0x1f                   
ram:0001af0c    13d0            beq         LAB_0001af36                            
ram:0001af0e    6846            mov         param_1,sp                              
ram:0001af10    0682            strh        r6,[r0,#local_30+0x40]                  
ram:0001af12    2088            ldrh        param_1,[r4,#0x0]                       
ram:0001af14    03a9            add         param_2,sp,#0xc                         
ram:0001af16    a8df            svc         0xa8                                    
ram:0001af18    0028            cmp         param_1,#0x0                            
ram:0001af1a    13d1            bne         LAB_0001af44                            
ram:0001af1c    a97e            ldrb        param_2,[r5,#0x1a]                      
ram:0001af1e    2846            mov         param_1,r5                              
ram:0001af20    1b30            adds        param_1,#0x1b                           
ram:0001af22    0122            movs        r2,#0x1                                 
ram:0001af24    0b00            movs        r3,param_2                              
                                                          ; FWD[2,0]:   000188aa,0001af2a
ram:0001af26    fdf7c0fc        bl          __ARM_common_switch8                    ;undefined __ARM_common_switch8(void)
                                                                                    ;= 09h
                            DAT_0001af2a:                 ;XREF[1,0]:   0001af26
ram:0001af2a    09              undefined1  09h                                     
ram:0001af2b    46              ??          46h    F                                
ram:0001af2c    0f              ??          0Fh                                     
ram:0001af2d    1c              ??          1Ch                                     
ram:0001af2e    22              ??          22h    "                                
ram:0001af2f    27              ??          27h    '                                
ram:0001af30    29              ??          29h    )                                
ram:0001af31    2c              ??          2Ch    ,                                
ram:0001af32    44              ??          44h    D                                
ram:0001af33    2e              ??          2Eh    .                                
ram:0001af34    46              ??          46h    F                                
ram:0001af35    00              ??          00h                                     
                            LAB_0001af36:                 ;XREF[3,0]:   0001aefe,0001af02,0001af0c
ram:0001af36    ff20            movs        param_1,#0xff                           
ram:0001af38    fe30            adds        param_1,#0xfe                           
ram:0001af3a    6946            mov         param_2,sp                              
ram:0001af3c    0882            strh        param_1,[r1,#local_30+0x40]             
ram:0001af3e    2088            ldrh        param_1,[r4,#0x0]                       
ram:0001af40    03a9            add         param_2,sp,#0xc                         
ram:0001af42    a8df            svc         0xa8                                    
                            LAB_0001af44:                 ;XREF[3,0]:   0001af1a,0001af60,0001af96
ram:0001af44    0bb0            add         sp,#0x2c                                
ram:0001af46    f0bd            pop         {r4,r5,r6,r7,pc}                        
ram:0001af48    6b46            mov         r3,sp                                   
ram:0001af4a    1e70            strb        r6,[r3,#0x0]                            
ram:0001af4c    0be0            b           FUN_0001af66                            
                            ;************************************************************************************************
                            ;*                                           FUNCTION                                           *
                            ;************************************************************************************************
                            ;undefined8 FUN_0001af4e(undefined4 param_1, undefined * param_2)
          ;param_1       undefined4          r0                      
          ;param_2       undefined *         r1                      
                                                          ;XREF[1,0]:   0001af6c
ram:0001af4e    0622            movs        r2,#0x6                                 
ram:0001af50    1ee0            b           LAB_0001af90                            
                            ;************************************************************************************************
                            ;*                                           FUNCTION                                           *
                            ;************************************************************************************************
                            ;undefined4 FUN_0001af52(undefined4 param_1, undefined4 param_2, undefined param_3, undefined param_4, undefined param_5, undefined1 param_6, undefined4 param_7)
          ;param_1       undefined4          r0                      
          ;param_2       undefined4          r1                      
          ;param_3       undefined           r2                      
          ;param_4       undefined           r3                      
          ;param_5       undefined            0                      
          ;param_6       undefined1           4                      ;XREF[1,0]:   0001af54
          ;param_7       undefined4           8                      ;XREF[1,0]:   0001af56
                                                          ;XREF[1,0]:   0001af6a
ram:0001af52    6946            mov         param_2,sp                              
ram:0001af54    0a71            strb        param_3,[r1,#param_6]                   
ram:0001af56    0290            str         param_1,[sp,#param_7]                   
ram:0001af58    27e0            b           LAB_0001afaa                            
                            LAB_0001af5a:                 ;XREF[2,0]:   0001af76,0001afac
ram:0001af5a    2046            mov         param_1,r4                              
ram:0001af5c    9047            blx         param_3                                 
ram:0001af5e    0020            movs        param_1,#0x0                            
ram:0001af60    f0e7            b           LAB_0001af44                            
ram:0001af62    6b46            mov         r3,sp                                   
ram:0001af64    1a70            strb        r2,[r3,#0x0]                            
                            ;************************************************************************************************
                            ;*                                           FUNCTION                                           *
                            ;************************************************************************************************
                            ;longlong FUN_0001af66(undefined4 param_1, undefined * param_2)
          ;param_1       undefined4          r0                      
          ;param_2       undefined *         r1                      
                                                          ;XREF[1,0]:   0001af4c
ram:0001af66    2b8b            ldrh        r3,[r5,#0x18]                           
ram:0001af68    022b            cmp         r3,#0x2                                 
ram:0001af6a    f2d2            bcs         FUN_0001af52                            
ram:0001af6c    efe7            b           FUN_0001af4e                            ;undefined8 FUN_0001af4e(undefined4 p...
ram:0001af6e    6846            mov         r0,sp                                   
ram:0001af70    0770            strb        r7,[r0,#0x0]                            
ram:0001af72    6946            mov         r1,sp                                   
ram:0001af74    a26a            ldr         r2,[r4,#0x28]                           
ram:0001af76    f0e7            b           LAB_0001af5a                            
ram:0001af78    0320            movs        r0,#0x3                                 
ram:0001af7a    00e0            b           LAB_0001af7e                            
ram:0001af7c    0420            movs        r0,#0x4                                 
                            LAB_0001af7e:                 ;XREF[3,0]:   0001af7a,0001af84,0001afb4
ram:0001af7e    6946            mov         r1,sp                                   
ram:0001af80    12e0            b           FUN_0001afa8                            
ram:0001af82    0520            movs        r0,#0x5                                 
ram:0001af84    fbe7            b           LAB_0001af7e                            
ram:0001af86    298b            ldrh        r1,[r5,#0x18]                           
ram:0001af88    0329            cmp         r1,#0x3                                 
ram:0001af8a    05d2            bcs         LAB_0001af98                            
ram:0001af8c    0322            movs        r2,#0x3                                 
ram:0001af8e    0821            movs        r1,#0x8                                 
                            LAB_0001af90:                 ;XREF[2,0]:   0001af50,0001afb8
ram:0001af90    2046            mov         param_1,r4                              
ram:0001af92    fef7edfb        bl          FUN_00019770                            ;undefined8 FUN_00019770(ushort * par...
ram:0001af96    d5e7            b           LAB_0001af44                            
                            LAB_0001af98:                 ;XREF[1,0]:   0001af8a
ram:0001af98    4178            ldrb        r1,[r0,#0x1]                            
ram:0001af9a    0278            ldrb        r2,[r0,#0x0]                            
ram:0001af9c    0802            lsls        r0,r1,#0x8                              
ram:0001af9e    1043            orrs        r0,r2                                   
ram:0001afa0    6946            mov         r1,sp                                   
ram:0001afa2    8880            strh        r0,[r1,#0x4]                            
ram:0001afa4    03d0            beq         FUN_0001afae                            
ram:0001afa6    0620            movs        r0,#0x6                                 
                            ;************************************************************************************************
                            ;*                                           FUNCTION                                           *
                            ;************************************************************************************************
                            ;undefined4 FUN_0001afa8(undefined param_1, undefined * param_2)
          ;param_1       undefined           r0                      
          ;param_2       undefined *         r1                      
                                                          ;XREF[2,0]:   0001af80,0001afb0
ram:0001afa8    0870            strb        param_1,[param_2,#0x0]                  
                            LAB_0001afaa:                 ;XREF[1,0]:   0001af58
ram:0001afaa    a26a            ldr         param_3,[r4,#0x28]                      
ram:0001afac    d5e7            b           LAB_0001af5a                            
                            ;************************************************************************************************
                            ;*                                           FUNCTION                                           *
                            ;************************************************************************************************
                            ;undefined4 FUN_0001afae(undefined4 param_1, undefined * param_2)
          ;param_1       undefined4          r0                      
          ;param_2       undefined *         r1                      
                                                          ;XREF[1,0]:   0001afa4
ram:0001afae    0720            movs        param_1,#0x7                            
ram:0001afb0    fae7            b           FUN_0001afa8                            
ram:0001afb2    0920            movs        r0,#0x9                                 
ram:0001afb4    e3e7            b           LAB_0001af7e                            
ram:0001afb6    0322            movs        r2,#0x3                                 
ram:0001afb8    eae7            b           LAB_0001af90                            
ram:0001afba    0000            movs        r0,r0                                   
                            ;************************************************************************************************
                            ;*                                           FUNCTION                                           *
                            ;************************************************************************************************
                            ;undefined FUN_0001afbc(uint param_1)
          ;param_1       uint                r0                      
                                                          ;XREF[1,0]:   00018842
ram:0001afbc    70b5            push        {r4,r5,r6,lr}                           
ram:0001afbe    0224            movs        r4,#0x2                                 
ram:0001afc0    0122            movs        r2,#0x1                                 
ram:0001afc2    1b4d            ldr         r5,[DAT_0001b030]                       ;= 40002500h
ram:0001afc4    1b4e            ldr         r6,[DAT_0001b034]                       ;= 40002000h
ram:0001afc6    1c49            ldr         r1,[DAT_0001b038]                       ;= 200020B8h
ram:0001afc8    0300            movs        r3,param_1                              
                                                          ; FWD[2,0]:   000188aa,0001afce
ram:0001afca    fdf76efc        bl          __ARM_common_switch8                    ;undefined __ARM_common_switch8(void)
                                                                                    ;= 05h
                            DAT_0001afce:                 ;XREF[1,0]:   0001afca
ram:0001afce    05              undefined1  05h                                     
ram:0001afcf    04              ??          04h                                     
ram:0001afd0    0c              ??          0Ch                                     
ram:0001afd1    26              ??          26h    &                                
ram:0001afd2    19              ??          19h                                     
ram:0001afd3    20              ??          20h                                     
ram:0001afd4    0b              ??          0Bh                                     
ram:0001afd5    00              ??          00h                                     
ram:0001afd6    48              ??          48h    H                                
ram:0001afd7    78              ??          78h    x                                
ram:0001afd8    01              ??          01h                                     
ram:0001afd9    28              ??          28h    (                                
ram:0001afda    18              ??          18h                                     
ram:0001afdb    d0              ??          D0h                                     
ram:0001afdc    02              ??          02h                                     
ram:0001afdd    28              ??          28h    (                                
ram:0001afde    01              ??          01h                                     
ram:0001afdf    d1              ??          D1h                                     
ram:0001afe0    03              ??          03h                                     
ram:0001afe1    20              ??          20h                                     
ram:0001afe2    48              ??          48h    H                                
ram:0001afe3    70              ??          70h    p                                
ram:0001afe4    70              ??          70h    p                                
ram:0001afe5    bd              ??          BDh                                     
ram:0001afe6    48              ??          48h    H                                
ram:0001afe7    78              ??          78h    x                                
ram:0001afe8    00              ??          00h                                     
ram:0001afe9    28              ??          28h    (                                
ram:0001afea    02              ??          02h                                     
ram:0001afeb    d0              ??          D0h                                     
ram:0001afec    03              ??          03h                                     
ram:0001afed    28              ??          28h    (                                
ram:0001afee    f9              ??          F9h                                     
ram:0001afef    d1              ??          D1h                                     
ram:0001aff0    04              ??          04h                                     
ram:0001aff1    e0              ??          E0h                                     
ram:0001aff2    04              ??          04h                                     
ram:0001aff3    20              ??          20h                                     
ram:0001aff4    28              ??          28h    (                                
ram:0001aff5    60              ??          60h    `                                
ram:0001aff6    32              ??          32h    2                                
ram:0001aff7    60              ??          60h    `                                
ram:0001aff8    4a              ??          4Ah    J                                
ram:0001aff9    70              ??          70h    p                                
ram:0001affa    70              ??          70h    p                                
ram:0001affb    bd              ??          BDh                                     
ram:0001affc    4c              ??          4Ch    L                                
ram:0001affd    70              ??          70h    p                                
ram:0001affe    70              ??          70h    p                                
ram:0001afff    bd              ??          BDh                                     
ram:0001b000    48              ??          48h    H                                
ram:0001b001    78              ??          78h    x                                
ram:0001b002    01              ??          01h                                     
ram:0001b003    28              ??          28h    (                                
ram:0001b004    06              ??          06h                                     
ram:0001b005    d0              ??          D0h                                     
ram:0001b006    02              ??          02h                                     
ram:0001b007    28              ??          28h    (                                
ram:0001b008    04              ??          04h                                     
ram:0001b009    d0              ??          D0h                                     
ram:0001b00a    03              ??          03h                                     
ram:0001b00b    28              ??          28h    (                                
ram:0001b00c    f7              ??          F7h                                     
ram:0001b00d    d1              ??          D1h                                     
ram:0001b00e    fd              ??          FDh                                     
ram:0001b00f    f7              ??          F7h                                     
ram:0001b010    7b              ??          7Bh    {                                
ram:0001b011    fc              ??          FCh                                     
ram:0001b012    70              ??          70h    p                                
ram:0001b013    bd              ??          BDh                                     
ram:0001b014    fd              ??          FDh                                     
ram:0001b015    f7              ??          F7h                                     
ram:0001b016    66              ??          66h    f                                
ram:0001b017    fc              ??          FCh                                     
ram:0001b018    70              ??          70h    p                                
ram:0001b019    bd              ??          BDh                                     
ram:0001b01a    48              ??          48h    H                                
ram:0001b01b    78              ??          78h    x                                
ram:0001b01c    01              ??          01h                                     
ram:0001b01d    28              ??          28h    (                                
ram:0001b01e    fb              ??          FBh                                     
ram:0001b01f    d1              ??          D1h                                     
ram:0001b020    48              ??          48h    H                                
ram:0001b021    78              ??          78h    x                                
ram:0001b022    02              ??          02h                                     
ram:0001b023    28              ??          28h    (                                
ram:0001b024    00              ??          00h                                     
ram:0001b025    d0              ??          D0h                                     
ram:0001b026    b2              ??          B2h                                     
ram:0001b027    60              ??          60h    `                                
ram:0001b028    88              ??          88h                                     
ram:0001b029    78              ??          78h    x                                
ram:0001b02a    e8              ??          E8h                                     
ram:0001b02b    61              ??          61h    a                                
ram:0001b02c    e6              ??          E6h                                     
ram:0001b02d    e7              ??          E7h                                     
ram:0001b02e    00              ??          00h                                     
ram:0001b02f    00              ??          00h                                     
                            DAT_0001b030:                 ;XREF[1,0]:   0001afc2
ram:0001b030    00250040        undefined4  40002500h                               
                            DAT_0001b034:                 ;XREF[1,0]:   0001afc4
ram:0001b034    00200040        undefined4  40002000h                               
                            DAT_0001b038:                 ;XREF[1,0]:   0001afc6
ram:0001b038    b8200020        undefined4  200020B8h                               
                            ;************************************************************************************************
                            ;*                                           FUNCTION                                           *
                            ;************************************************************************************************
                            ;undefined FUN_0001b03c(int param_1)
          ;param_1       int                 r0                      
                                                          ;XREF[1,0]:   00018dda
ram:0001b03c    f0b5            push        {r4,r5,r6,r7,lr}                        
ram:0001b03e    0c4a            ldr         r2,[DAT_0001b070]                       ;= 200020F4h
ram:0001b040    0021            movs        r1,#0x0                                 
ram:0001b042    5368            ldr         r3,[r2,#0x4]=>DAT_200020f8              
ram:0001b044    1422            movs        r2,#0x14                                
ram:0001b046    5043            muls        param_1,r2                              
ram:0001b048    0124            movs        r4,#0x1                                 
ram:0001b04a    0a4d            ldr         r5,[DAT_0001b074]                       ;= 50000700h
ram:0001b04c    0327            movs        r7,#0x3                                 
ram:0001b04e    3f04            lsls        r7,r7,#0x10                             
                            LAB_0001b050:                 ;XREF[1,0]:   0001b06c
ram:0001b050    1e58            ldr         r6,[r3,param_1]                         
ram:0001b052    2246            mov         r2,r4                                   
ram:0001b054    8a40            lsls        r2,r1                                   
ram:0001b056    1642            tst         r6,r2                                   
ram:0001b058    06d0            beq         LAB_0001b068                            
ram:0001b05a    8a00            lsls        r2,r1,#0x2                              
ram:0001b05c    5219            adds        r2,r2,r5                                
ram:0001b05e    1668            ldr         r6,[r2,#0x0]=>DAT_50000700              
ram:0001b060    be43            bics        r6,r7                                   
ram:0001b062    1660            str         r6,[r2,#0x0]=>DAT_50000700              
ram:0001b064    1668            ldr         r6,[r2,#0x0]=>DAT_50000700              
ram:0001b066    1660            str         r6,[r2,#0x0]=>DAT_50000700              
                            LAB_0001b068:                 ;XREF[1,0]:   0001b058
ram:0001b068    491c            adds        r1,r1,#0x1                              
ram:0001b06a    2029            cmp         r1,#0x20                                
ram:0001b06c    f0d3            bcc         LAB_0001b050                            
ram:0001b06e    f0bd            pop         {r4,r5,r6,r7,pc}                        
                            DAT_0001b070:                 ;XREF[1,0]:   0001b03e
ram:0001b070    f4200020        undefined4  200020F4h                               
                            DAT_0001b074:                 ;XREF[1,0]:   0001b04a
ram:0001b074    00070050        undefined4  50000700h                               
                            ;************************************************************************************************
                            ;*                                           FUNCTION                                           *
                            ;************************************************************************************************
                            ;undefined4 FUN_0001b078(uint * param_1, int param_2, uint * param_3)
          ;param_1       uint *              r0                      
          ;param_2       int                 r1                      
          ;param_3       uint *              r2                      
                                                          ;XREF[3,0]:   00018df0,00019384,0001a3d4
ram:0001b078    70b5            push        {r4,r5,r6,lr}                           
ram:0001b07a    124b            ldr         r3,[DAT_0001b0c4]                       ;= 200020C8h
ram:0001b07c    1b78            ldrb        r3,[r3,#0x0]=>DAT_200020c8              
ram:0001b07e    002b            cmp         r3,#0x0                                 
ram:0001b080    18d0            beq         LAB_0001b0b4                            
ram:0001b082    0028            cmp         param_1,#0x0                            
ram:0001b084    18d0            beq         LAB_0001b0b8                            
ram:0001b086    002a            cmp         param_3,#0x0                            
ram:0001b088    16d0            beq         LAB_0001b0b8                            
ram:0001b08a    0368            ldr         r3,[param_1,#0x0]                       
ram:0001b08c    022b            cmp         r3,#0x2                                 
ram:0001b08e    0fd2            bcs         LAB_0001b0b0                            
ram:0001b090    0d4c            ldr         r4,[DAT_0001b0c8]                       ;= 200028B8h
ram:0001b092    1e01            lsls        r6,r3,#0x4                              
ram:0001b094    a559            ldr         r5,[r4,r6]=>DAT_200028b8                
ram:0001b096    002d            cmp         r5,#0x0                                 
ram:0001b098    0ad0            beq         LAB_0001b0b0                            
ram:0001b09a    4568            ldr         r5,[param_1,#0x4]                       
ram:0001b09c    3019            adds        param_1,r6,r4                           
ram:0001b09e    0489            ldrh        r4,[param_1,#0x8]=>DAT_200028c0         
ram:0001b0a0    6143            muls        param_2,r4                              
ram:0001b0a2    6918            adds        param_2,r5,param_2                      
ram:0001b0a4    4589            ldrh        r5,[param_1,#0xa]=>DAT_200028c2         
ram:0001b0a6    4068            ldr         param_1,[param_1,#0x4]                  
ram:0001b0a8    6543            muls        r5,r4                                   
ram:0001b0aa    2818            adds        param_1,r5,param_1                      
ram:0001b0ac    8842            cmp         param_1,param_2                         
ram:0001b0ae    05d8            bhi         LAB_0001b0bc                            
                            LAB_0001b0b0:                 ;XREF[2,0]:   0001b08e,0001b098
ram:0001b0b0    0720            movs        param_1,#0x7                            
ram:0001b0b2    70bd            pop         {r4,r5,r6,pc}                           
                            LAB_0001b0b4:                 ;XREF[1,0]:   0001b080
ram:0001b0b4    0820            movs        param_1,#0x8                            
ram:0001b0b6    70bd            pop         {r4,r5,r6,pc}                           
                            LAB_0001b0b8:                 ;XREF[2,0]:   0001b084,0001b088
ram:0001b0b8    0e20            movs        param_1,#0xe                            
ram:0001b0ba    70bd            pop         {r4,r5,r6,pc}                           
                            LAB_0001b0bc:                 ;XREF[1,0]:   0001b0ae
ram:0001b0bc    1360            str         r3,[param_3,#0x0]                       
ram:0001b0be    0020            movs        param_1,#0x0                            
ram:0001b0c0    5160            str         param_2,[param_3,#0x4]                  
ram:0001b0c2    70bd            pop         {r4,r5,r6,pc}                           
                            DAT_0001b0c4:                 ;XREF[1,0]:   0001b07a
ram:0001b0c4    c8200020        undefined4  200020C8h                               
                            DAT_0001b0c8:                 ;XREF[1,0]:   0001b090
ram:0001b0c8    b8280020        undefined4  200028B8h                               
                            ;************************************************************************************************
                            ;*                                           FUNCTION                                           *
                            ;************************************************************************************************
                            ;int FUN_0001b0cc(uint * param_1, undefined2 param_2)
          ;param_1       uint *              r0                      
          ;param_2       undefined2          r1                      
          ;local_18      undefined4         -18                      ;XREF[1,0]:   0001b132
                                                          ;XREF[2,0]:   00018e42,0001939a
ram:0001b0cc    f8b5            push        {r3,r4,r5,r6,r7,lr}                     
ram:0001b0ce    0446            mov         r4,param_1                              
ram:0001b0d0    1b48            ldr         param_1,[DAT_0001b140]                  ;= 200020C8h
ram:0001b0d2    0e46            mov         r6,param_2                              
ram:0001b0d4    0078            ldrb        param_1,[param_1,#0x0]=>DAT_200020c8    
ram:0001b0d6    0028            cmp         param_1,#0x0                            
ram:0001b0d8    23d0            beq         LAB_0001b122                            
ram:0001b0da    002c            cmp         r4,#0x0                                 
ram:0001b0dc    23d0            beq         LAB_0001b126                            
ram:0001b0de    2068            ldr         param_1,[r4,#0x0]                       
ram:0001b0e0    0228            cmp         param_1,#0x2                            
ram:0001b0e2    1cd2            bcs         LAB_0001b11e                            
ram:0001b0e4    174d            ldr         r5,[DAT_0001b144]                       ;= 200028B8h
ram:0001b0e6    0001            lsls        param_1,param_1,#0x4                    
ram:0001b0e8    2958            ldr         param_2,[r5,param_1]=>DAT_200028b8      
ram:0001b0ea    0029            cmp         param_2,#0x0                            
ram:0001b0ec    17d0            beq         LAB_0001b11e                            
ram:0001b0ee    4019            adds        param_1,param_1,r5                      
ram:0001b0f0    4189            ldrh        param_2,[param_1,#0xa]=>DAT_200028c2    
ram:0001b0f2    0289            ldrh        r2,[param_1,#0x8]=>DAT_200028c0         
ram:0001b0f4    4068            ldr         param_1,[param_1,#0x4]                  
ram:0001b0f6    5143            muls        param_2,r2                              
ram:0001b0f8    0918            adds        param_2,param_2,param_1                 
ram:0001b0fa    6068            ldr         param_1,[r4,#0x4]                       
ram:0001b0fc    8142            cmp         param_2,param_1                         
ram:0001b0fe    0ed9            bls         LAB_0001b11e                            
ram:0001b100    fff794fb        bl          FUN_0001a82c                            ;undefined4 FUN_0001a82c(uint param_1)
ram:0001b104    0028            cmp         param_1,#0x0                            
ram:0001b106    10d0            beq         LAB_0001b12a                            
ram:0001b108    2168            ldr         param_2,[r4,#0x0]                       
ram:0001b10a    6068            ldr         param_1,[r4,#0x4]                       
ram:0001b10c    0901            lsls        param_2,param_2,#0x4                    
ram:0001b10e    4919            adds        param_2,param_2,r5                      
ram:0001b110    4a68            ldr         r2,[param_2,#0x4]                       
ram:0001b112    0989            ldrh        param_2,[param_2,#0x8]=>DAT_200028c0    
ram:0001b114    801a            subs        param_1,param_1,r2                      
ram:0001b116    fdf73bf8        bl          FUN_00018190                            ;int FUN_00018190(uint param_1, uint ...
ram:0001b11a    0029            cmp         param_2,#0x0                            
ram:0001b11c    07d0            beq         LAB_0001b12e                            
                            LAB_0001b11e:                 ;XREF[3,0]:   0001b0e2,0001b0ec,0001b0fe
ram:0001b11e    0720            movs        param_1,#0x7                            
ram:0001b120    f8bd            pop         {r3,r4,r5,r6,r7,pc}                     
                            LAB_0001b122:                 ;XREF[1,0]:   0001b0d8
ram:0001b122    0820            movs        param_1,#0x8                            
ram:0001b124    f8bd            pop         {r3,r4,r5,r6,r7,pc}                     
                            LAB_0001b126:                 ;XREF[1,0]:   0001b0dc
ram:0001b126    0e20            movs        param_1,#0xe                            
ram:0001b128    f8bd            pop         {r3,r4,r5,r6,r7,pc}                     
                            LAB_0001b12a:                 ;XREF[1,0]:   0001b106
ram:0001b12a    1020            movs        param_1,#0x10                           
ram:0001b12c    f8bd            pop         {r3,r4,r5,r6,r7,pc}                     
                            LAB_0001b12e:                 ;XREF[1,0]:   0001b11c
ram:0001b12e    0020            movs        param_1,#0x0                            
ram:0001b130    0246            mov         r2,param_1                              
ram:0001b132    0090            str         param_1,[sp,#0x0]=>local_18             
ram:0001b134    3346            mov         r3,r6                                   
ram:0001b136    2146            mov         param_2,r4                              
ram:0001b138    0420            movs        param_1,#0x4                            
ram:0001b13a    fef7a7fd        bl          FUN_00019c8c                            ;int FUN_00019c8c(char param_1, undef...
ram:0001b13e    f8bd            pop         {r3,r4,r5,r6,r7,pc}                     
                            DAT_0001b140:                 ;XREF[1,0]:   0001b0d0
ram:0001b140    c8200020        undefined4  200020C8h                               
                            DAT_0001b144:                 ;XREF[1,0]:   0001b0e4
ram:0001b144    b8280020        undefined4  200028B8h                               
                            ;************************************************************************************************
                            ;*                                           FUNCTION                                           *
                            ;************************************************************************************************
                            ;int FUN_0001b148(void)
                                                          ;XREF[7,0]:   0001b19a,0001b1cc,0001b2ce,0001b96a
                                                          ;             0001b9aa,0001b9da,0001ba2c
ram:0001b148    10b5            push        {r4,lr}                                 
ram:0001b14a    0748            ldr         r0,[DAT_0001b168]                       ;= 10001000h
ram:0001b14c    4469            ldr         r4,[r0,#offset DAT_10001014 &0xff]      
ram:0001b14e    601c            adds        r0,r4,#0x1                              
ram:0001b150    06d0            beq         LAB_0001b160                            
ram:0001b152    00f00bf8        bl          FUN_0001b16c                            ;uint FUN_0001b16c(void)
ram:0001b156    0146            mov         r1,r0                                   
ram:0001b158    2046            mov         r0,r4                                   
ram:0001b15a    fdf719f8        bl          FUN_00018190                            ;int FUN_00018190(uint param_1, uint ...
ram:0001b15e    10bd            pop         {r4,pc}                                 
                            LAB_0001b160:                 ;XREF[1,0]:   0001b150
ram:0001b160    0120            movs        r0,#0x1                                 
ram:0001b162    0007            lsls        r0,r0,#0x1c                             
ram:0001b164    4069            ldr         r0,[r0,#offset DAT_10000014 &0xff]      
ram:0001b166    10bd            pop         {r4,pc}                                 
                            DAT_0001b168:                 ;XREF[1,0]:   0001b14a
ram:0001b168    00100010        undefined4  10001000h                               
                            ;************************************************************************************************
                            ;*                                           FUNCTION                                           *
                            ;************************************************************************************************
                            ;uint FUN_0001b16c(void)
                                                          ;XREF[28,0]:  00019b6e,00019b7c,00019b8c,00019be8
                                                          ;             00019bf6,00019c00,00019c1c,0001b152
                                                          ;             0001b1a0,0001b1c6,0001b1d2,0001b2b8
                                                          ;             0001b2d4,0001b2e8,0001b2f8,0001b348
                                                          ;             0001b350,0001b35e,0001b95c,0001b962
                                                          ;             0001b970,0001b9b0,0001b9b6,0001b9e0
                                                          ;             0001b9ee,0001ba08,0001ba26,0001ba32
ram:0001b16c    0120            movs        r0,#0x1                                 
ram:0001b16e    0007            lsls        r0,r0,#0x1c                             
ram:0001b170    0069            ldr         r0,[r0,#offset DAT_10000010 &0xff]      
ram:0001b172    80b2            uxth        r0,r0                                   
ram:0001b174    7047            bx          lr                                      
ram:0001b176    0000            movs        r0,r0                                   
                            ;************************************************************************************************
                            ;*                                           FUNCTION                                           *
                            ;************************************************************************************************
                            ;undefined FUN_0001b178(void)
                                                          ;XREF[1,0]:   0001aa6e
ram:0001b178    f8b5            push        {r3,r4,r5,r6,r7,lr}                     
ram:0001b17a    0024            movs        r4,#0x0                                 
ram:0001b17c    1b4d            ldr         r5,[DAT_0001b1ec]                       ;= 200020C8h
ram:0001b17e    1c4e            ldr         r6,[DAT_0001b1f0]                       ;= 200027ECh
ram:0001b180    ac80            strh        r4,[r5,#0x4]=>DAT_200020cc              
ram:0001b182    6c70            strb        r4,[r5,#0x1]=>DAT_200020c9              
ram:0001b184    3470            strb        r4,[r6,#0x0]=>DAT_200027ec              
ram:0001b186    7470            strb        r4,[r6,#0x1]=>DAT_200027ed              
ram:0001b188    b470            strb        r4,[r6,#0x2]=>DAT_200027ee              
ram:0001b18a    2746            mov         r7,r4                                   
                            LAB_0001b18c:                 ;XREF[1,0]:   0001b196
ram:0001b18c    3846            mov         r0,r7                                   
ram:0001b18e    fef76dfd        bl          FUN_00019c6c                            ;undefined FUN_00019c6c(int param_1)
ram:0001b192    7f1c            adds        r7,r7,#0x1                              
ram:0001b194    0a2f            cmp         r7,#0xa                                 
ram:0001b196    f9d3            bcc         LAB_0001b18c                            
ram:0001b198    6c80            strh        r4,[r5,#0x2]=>DAT_200020ca              
ram:0001b19a    fff7d5ff        bl          FUN_0001b148                            ;int FUN_0001b148(void)
ram:0001b19e    c71e            subs        r7,r0,#0x3                              
ram:0001b1a0    fff7e4ff        bl          FUN_0001b16c                            ;uint FUN_0001b16c(void)
ram:0001b1a4    4743            muls        r7,r0                                   
ram:0001b1a6    1249            ldr         r1,[DAT_0001b1f0]                       ;= 200027ECh
ram:0001b1a8    af60            str         r7,[r5,#0x8]=>DAT_200020d0              
ram:0001b1aa    0020            movs        r0,#0x0                                 
ram:0001b1ac    ac80            strh        r4,[r5,#0x4]=>DAT_200020cc              
ram:0001b1ae    cc31            adds        r1=>DAT_200028b8,#0xcc                  
                            LAB_0001b1b0:                 ;XREF[1,0]:   0001b1c0
ram:0001b1b0    0201            lsls        r2,r0,#0x4                              
                                                          ; FWD[2,0]:   200028b8,200028c8
ram:0001b1b2    8c50            str         r4,[r1,r2]=>DAT_200028b8                
ram:0001b1b4    5218            adds        r2=>DAT_200028b8,r2,r1                  
                                                          ; FWD[2,0]:   200028c0,200028d0
ram:0001b1b6    1481            strh        r4,[r2,#0x8]=>DAT_200028c0              
                                                          ; FWD[2,0]:   200028c4,200028d4
ram:0001b1b8    9481            strh        r4,[r2,#0xc]=>DAT_200028c4              
ram:0001b1ba    401c            adds        r0,r0,#0x1                              
                                                          ; FWD[2,0]:   200028c2,200028d2
ram:0001b1bc    5481            strh        r4,[r2,#0xa]=>DAT_200028c2              
ram:0001b1be    0228            cmp         r0,#0x2                                 
ram:0001b1c0    f6d3            bcc         LAB_0001b1b0                            
ram:0001b1c2    0820            movs        r0,#0x8                                 
ram:0001b1c4    6870            strb        r0,[r5,#0x1]=>DAT_200020c9              
ram:0001b1c6    fff7d1ff        bl          FUN_0001b16c                            ;uint FUN_0001b16c(void)
ram:0001b1ca    0746            mov         r7,r0                                   
ram:0001b1cc    fff7bcff        bl          FUN_0001b148                            ;int FUN_0001b148(void)
ram:0001b1d0    441e            subs        r4,r0,#0x1                              
ram:0001b1d2    fff7cbff        bl          FUN_0001b16c                            ;uint FUN_0001b16c(void)
ram:0001b1d6    6043            muls        r0,r4                                   
ram:0001b1d8    3946            mov         r1,r7                                   
ram:0001b1da    fcf7d9ff        bl          FUN_00018190                            ;int FUN_00018190(uint param_1, uint ...
ram:0001b1de    28df            svc         0x28                                    
ram:0001b1e0    0028            cmp         r0,#0x0                                 
ram:0001b1e2    02d1            bne         LAB_0001b1ea                            
ram:0001b1e4    0121            movs        r1,#0x1                                 
ram:0001b1e6    b170            strb        r1,[r6,#0x2]=>DAT_200027ee              
ram:0001b1e8    2970            strb        r1,[r5,#0x0]=>DAT_200020c8              
                            LAB_0001b1ea:                 ;XREF[1,0]:   0001b1e2
ram:0001b1ea    f8bd            pop         {r3,r4,r5,r6,r7,pc}                     
                            DAT_0001b1ec:                 ;XREF[1,0]:   0001b17c
ram:0001b1ec    c8200020        undefined4  200020C8h                               
                            DAT_0001b1f0:                 ;XREF[2,0]:   0001b17e,0001b1a6
ram:0001b1f0    ec270020        undefined4  200027ECh                               
                            ;************************************************************************************************
                            ;*                                           FUNCTION                                           *
                            ;************************************************************************************************
                            ;undefined4 FUN_0001b1f4(undefined4 * param_1, uint * param_2, uint param_3, uint param_4)
          ;param_1       undefined4 *        r0                      
          ;param_2       uint *              r1                      
          ;param_3       uint                r2                      
          ;param_4       uint                r3                      
          ;local_24      undefined4         -24                      ;XREF[4,0]:   0001b20a,0001b24e,0001b272,0001b286
          ;local_28      undefined4         -28                      ;XREF[1,0]:   0001b278
                                                          ;XREF[2,0]:   00018e08,0001a3e4
ram:0001b1f4    ffb5            push        {param_1,param_2,param_3,param_4,r4,r...
ram:0001b1f6    2748            ldr         param_1,[DAT_0001b294]                  ;= 200020C8h
ram:0001b1f8    81b0            sub         sp,#0x4                                 
ram:0001b1fa    0078            ldrb        param_1,[param_1,#0x0]=>DAT_200020c8    
ram:0001b1fc    1f46            mov         r7,param_4                              
ram:0001b1fe    1646            mov         r6,param_3                              
ram:0001b200    0c46            mov         r4,param_2                              
ram:0001b202    0028            cmp         param_1,#0x0                            
ram:0001b204    1fd0            beq         LAB_0001b246                            
ram:0001b206    002c            cmp         r4,#0x0                                 
ram:0001b208    1fd0            beq         LAB_0001b24a                            
ram:0001b20a    0198            ldr         param_1,[sp,#local_24+0x28]             
ram:0001b20c    0028            cmp         param_1,#0x0                            
ram:0001b20e    1cd0            beq         LAB_0001b24a                            
ram:0001b210    2068            ldr         param_1,[r4,#0x0]                       
ram:0001b212    0228            cmp         param_1,#0x2                            
ram:0001b214    14d2            bcs         LAB_0001b240                            
ram:0001b216    204d            ldr         r5,[DAT_0001b298]                       ;= 200028B8h
ram:0001b218    0001            lsls        param_1,param_1,#0x4                    
ram:0001b21a    2958            ldr         param_2,[r5,param_1]=>DAT_200028b8      
ram:0001b21c    0029            cmp         param_2,#0x0                            
ram:0001b21e    0fd0            beq         LAB_0001b240                            
ram:0001b220    4119            adds        param_2,param_1,r5                      
ram:0001b222    4a89            ldrh        param_3,[param_2,#0xa]=>DAT_200028c2    
ram:0001b224    0889            ldrh        param_1,[param_2,#0x8]=>DAT_200028c0    
ram:0001b226    4968            ldr         param_2,[param_2,#0x4]                  
ram:0001b228    4243            muls        param_3,param_1                         
ram:0001b22a    5118            adds        param_2,param_3,param_2                 
ram:0001b22c    6268            ldr         param_3,[r4,#0x4]                       
ram:0001b22e    9142            cmp         param_2,param_3                         
ram:0001b230    06d9            bls         LAB_0001b240                            
ram:0001b232    002e            cmp         r6,#0x0                                 
ram:0001b234    04d0            beq         LAB_0001b240                            
ram:0001b236    b042            cmp         param_1,r6                              
ram:0001b238    02d3            bcc         LAB_0001b240                            
ram:0001b23a    f119            adds        param_2,r6,r7                           
ram:0001b23c    8142            cmp         param_2,param_1                         
ram:0001b23e    06d9            bls         LAB_0001b24e                            
                            LAB_0001b240:                 ;XREF[5,0]:   0001b214,0001b21e,0001b230,0001b234
                                                          ;             0001b238
ram:0001b240    0720            movs        param_1,#0x7                            
                            LAB_0001b242:                 ;XREF[4,0]:   0001b248,0001b24c,0001b28c,0001b290
ram:0001b242    05b0            add         sp,#0x14                                
ram:0001b244    f0bd            pop         {r4,r5,r6,r7,pc}                        
                            LAB_0001b246:                 ;XREF[1,0]:   0001b204
ram:0001b246    0820            movs        param_1,#0x8                            
ram:0001b248    fbe7            b           LAB_0001b242                            
                            LAB_0001b24a:                 ;XREF[2,0]:   0001b208,0001b20e
ram:0001b24a    0e20            movs        param_1,#0xe                            
ram:0001b24c    f9e7            b           LAB_0001b242                            
                            LAB_0001b24e:                 ;XREF[1,0]:   0001b23e
ram:0001b24e    0198            ldr         param_1,[sp,#local_24+0x28]             
ram:0001b250    fff7ecfa        bl          FUN_0001a82c                            ;undefined4 FUN_0001a82c(uint param_1)
ram:0001b254    0028            cmp         param_1,#0x0                            
ram:0001b256    1ad0            beq         LAB_0001b28e                            
ram:0001b258    3846            mov         param_1,r7                              
ram:0001b25a    fff7e7fa        bl          FUN_0001a82c                            ;undefined4 FUN_0001a82c(uint param_1)
ram:0001b25e    0028            cmp         param_1,#0x0                            
ram:0001b260    15d0            beq         LAB_0001b28e                            
ram:0001b262    6068            ldr         param_1,[r4,#0x4]                       
ram:0001b264    fff7e2fa        bl          FUN_0001a82c                            ;undefined4 FUN_0001a82c(uint param_1)
ram:0001b268    0028            cmp         param_1,#0x0                            
ram:0001b26a    10d0            beq         LAB_0001b28e                            
ram:0001b26c    6068            ldr         param_1,[r4,#0x4]                       
ram:0001b26e    3246            mov         param_3,r6                              
ram:0001b270    c119            adds        param_2,param_1,r7                      
ram:0001b272    0198            ldr         param_1,[sp,#local_24+0x28]             
ram:0001b274    fcf7a2ff        bl          FUN_000181bc                            ;undefined FUN_000181bc(undefined4 * ...
ram:0001b278    0096            str         r6,[sp,#0x0]=>local_28                  
ram:0001b27a    2068            ldr         param_1,[r4,#0x0]                       
ram:0001b27c    0022            movs        param_3,#0x0                            
ram:0001b27e    0001            lsls        param_1,param_1,#0x4                    
ram:0001b280    2d58            ldr         r5=>DAT_200028b8,[r5,param_1]           
ram:0001b282    0321            movs        param_2,#0x3                            
ram:0001b284    2046            mov         param_1,r4                              
ram:0001b286    019b            ldr         param_4,[sp,#local_24+0x28]             
ram:0001b288    a847            blx         r5                                      
ram:0001b28a    0020            movs        param_1,#0x0                            
ram:0001b28c    d9e7            b           LAB_0001b242                            
                            LAB_0001b28e:                 ;XREF[3,0]:   0001b256,0001b260,0001b26a
ram:0001b28e    1020            movs        param_1,#0x10                           
ram:0001b290    d7e7            b           LAB_0001b242                            
ram:0001b292    0000            movs        r0,r0                                   
                            DAT_0001b294:                 ;XREF[1,0]:   0001b1f6
ram:0001b294    c8200020        undefined4  200020C8h                               
                            DAT_0001b298:                 ;XREF[1,0]:   0001b216
ram:0001b298    b8280020        undefined4  200028B8h                               
                            ;************************************************************************************************
                            ;*                                           FUNCTION                                           *
                            ;************************************************************************************************
                            ;undefined4 FUN_0001b29c(int * param_1, uint * param_2)
          ;param_1       int *               r0                      
          ;param_2       uint *              r1                      
                                                          ;XREF[1,0]:   0001aa90
ram:0001b29c    f8b5            push        {r3,r4,r5,r6,r7,lr}                     
ram:0001b29e    374d            ldr         r5,[DAT_0001b37c]                       ;= 200020C8h
ram:0001b2a0    0446            mov         r4,param_1                              
ram:0001b2a2    2878            ldrb        param_1,[r5,#0x0]=>DAT_200020c8         
ram:0001b2a4    0e46            mov         r6,param_2                              
ram:0001b2a6    0028            cmp         param_1,#0x0                            
ram:0001b2a8    2ed0            beq         LAB_0001b308                            
ram:0001b2aa    002c            cmp         r4,#0x0                                 
ram:0001b2ac    2ed0            beq         LAB_0001b30c                            
ram:0001b2ae    002e            cmp         r6,#0x0                                 
ram:0001b2b0    2cd0            beq         LAB_0001b30c                            
ram:0001b2b2    2068            ldr         param_1,[r4,#0x0]                       
ram:0001b2b4    0028            cmp         param_1,#0x0                            
ram:0001b2b6    29d0            beq         LAB_0001b30c                            
ram:0001b2b8    fff758ff        bl          FUN_0001b16c                            ;uint FUN_0001b16c(void)
ram:0001b2bc    0146            mov         param_2,param_1                         
ram:0001b2be    a088            ldrh        param_1,[r4,#0x4]                       
ram:0001b2c0    8142            cmp         param_2,param_1                         
ram:0001b2c2    28d3            bcc         LAB_0001b316                            
ram:0001b2c4    0828            cmp         param_1,#0x8                            
ram:0001b2c6    26d3            bcc         LAB_0001b316                            
ram:0001b2c8    e088            ldrh        param_1,[r4,#0x6]                       
ram:0001b2ca    0028            cmp         param_1,#0x0                            
ram:0001b2cc    23d0            beq         LAB_0001b316                            
ram:0001b2ce    fff73bff        bl          FUN_0001b148                            ;int FUN_0001b148(void)
ram:0001b2d2    471e            subs        r7,param_1,#0x1                         
ram:0001b2d4    fff74aff        bl          FUN_0001b16c                            ;uint FUN_0001b16c(void)
ram:0001b2d8    4743            muls        r7,param_1                              
ram:0001b2da    e088            ldrh        param_1,[r4,#0x6]                       
ram:0001b2dc    a188            ldrh        param_2,[r4,#0x4]                       
ram:0001b2de    4843            muls        param_1,param_2                         
ram:0001b2e0    a968            ldr         param_2,[r5,#0x8]=>DAT_200020d0         
ram:0001b2e2    4018            adds        param_1,param_1,param_2                 
ram:0001b2e4    8742            cmp         r7,param_1                              
ram:0001b2e6    16d3            bcc         LAB_0001b316                            
ram:0001b2e8    fff740ff        bl          FUN_0001b16c                            ;uint FUN_0001b16c(void)
ram:0001b2ec    0146            mov         param_2,param_1                         
ram:0001b2ee    e088            ldrh        param_1,[r4,#0x6]                       
ram:0001b2f0    a288            ldrh        r2,[r4,#0x4]                            
ram:0001b2f2    5043            muls        param_1,r2                              
ram:0001b2f4    8142            cmp         param_2,param_1                         
ram:0001b2f6    0bda            bge         LAB_0001b310                            
ram:0001b2f8    fff738ff        bl          FUN_0001b16c                            ;uint FUN_0001b16c(void)
ram:0001b2fc    a188            ldrh        param_2,[r4,#0x4]                       
ram:0001b2fe    fcf747ff        bl          FUN_00018190                            ;int FUN_00018190(uint param_1, uint ...
ram:0001b302    0029            cmp         param_2,#0x0                            
ram:0001b304    07d1            bne         LAB_0001b316                            
ram:0001b306    03e0            b           LAB_0001b310                            
                            LAB_0001b308:                 ;XREF[1,0]:   0001b2a8
ram:0001b308    0820            movs        param_1,#0x8                            
ram:0001b30a    f8bd            pop         {r3,r4,r5,r6,r7,pc}                     
                            LAB_0001b30c:                 ;XREF[3,0]:   0001b2ac,0001b2b0,0001b2b6
ram:0001b30c    0e20            movs        param_1,#0xe                            
ram:0001b30e    f8bd            pop         {r3,r4,r5,r6,r7,pc}                     
                            LAB_0001b310:                 ;XREF[2,0]:   0001b2f6,0001b306
ram:0001b310    2079            ldrb        param_1,[r4,#0x4]                       
ram:0001b312    8007            lsls        param_1,param_1,#0x1e                   
ram:0001b314    01d0            beq         LAB_0001b31a                            
                            LAB_0001b316:                 ;XREF[5,0]:   0001b2c2,0001b2c6,0001b2cc,0001b2e6
                                                          ;             0001b304
ram:0001b316    0720            movs        param_1,#0x7                            
ram:0001b318    f8bd            pop         {r3,r4,r5,r6,r7,pc}                     
                            LAB_0001b31a:                 ;XREF[1,0]:   0001b314
ram:0001b31a    6888            ldrh        param_1,[r5,#0x2]=>DAT_200020ca         
ram:0001b31c    0228            cmp         param_1,#0x2                            
ram:0001b31e    1bd0            beq         LAB_0001b358                            
ram:0001b320    3060            str         param_1,[r6,#0x0]                       
ram:0001b322    174f            ldr         r7,[DAT_0001b380]                       ;= 200028B8h
ram:0001b324    a968            ldr         param_2,[r5,#0x8]=>DAT_200020d0         
ram:0001b326    0201            lsls        r2,param_1,#0x4                         
ram:0001b328    d019            adds        param_1,r2,r7                           
ram:0001b32a    7160            str         param_2,[r6,#0x4]                       
ram:0001b32c    4160            str         param_2,[param_1,#0x4]                  
ram:0001b32e    2168            ldr         param_2,[r4,#0x0]                       
ram:0001b330    b950            str         param_2,[r7,r2]=>DAT_200028b8           
ram:0001b332    a188            ldrh        param_2,[r4,#0x4]                       
ram:0001b334    0181            strh        param_2,[param_1,#0x8]=>DAT_200028c0    
ram:0001b336    e188            ldrh        param_2,[r4,#0x6]                       
ram:0001b338    4181            strh        param_2,[param_1,#0xa]=>DAT_200028c2    
ram:0001b33a    a088            ldrh        param_1,[r4,#0x4]                       
ram:0001b33c    e188            ldrh        param_2,[r4,#0x6]                       
ram:0001b33e    0026            movs        r6,#0x0                                 
ram:0001b340    4843            muls        param_1,param_2                         
ram:0001b342    0446            mov         r4,param_1                              
                            LAB_0001b344:                 ;XREF[1,0]:   0001b36a
ram:0001b344    761c            adds        r6,r6,#0x1                              
ram:0001b346    b6b2            uxth        r6,r6                                   
ram:0001b348    fff710ff        bl          FUN_0001b16c                            ;uint FUN_0001b16c(void)
ram:0001b34c    a042            cmp         param_1,r4                              
ram:0001b34e    05d2            bcs         LAB_0001b35c                            
ram:0001b350    fff70cff        bl          FUN_0001b16c                            ;uint FUN_0001b16c(void)
ram:0001b354    241a            subs        r4,r4,param_1                           
ram:0001b356    02e0            b           LAB_0001b35e                            
                            LAB_0001b358:                 ;XREF[1,0]:   0001b31e
ram:0001b358    0420            movs        param_1,#0x4                            
ram:0001b35a    f8bd            pop         {r3,r4,r5,r6,r7,pc}                     
                            LAB_0001b35c:                 ;XREF[1,0]:   0001b34e
ram:0001b35c    0024            movs        r4,#0x0                                 
                            LAB_0001b35e:                 ;XREF[1,0]:   0001b356
ram:0001b35e    fff705ff        bl          FUN_0001b16c                            ;uint FUN_0001b16c(void)
ram:0001b362    a968            ldr         param_2,[r5,#0x8]=>DAT_200020d0         
ram:0001b364    4018            adds        param_1,param_1,param_2                 
ram:0001b366    a860            str         param_1,[r5,#0x8]=>DAT_200020d0         
ram:0001b368    002c            cmp         r4,#0x0                                 
ram:0001b36a    ebd1            bne         LAB_0001b344                            
ram:0001b36c    6888            ldrh        param_1,[r5,#0x2]=>DAT_200020ca         
ram:0001b36e    0101            lsls        param_2,param_1,#0x4                    
ram:0001b370    c919            adds        param_2,param_2,r7                      
ram:0001b372    8e81            strh        r6,[param_2,#0xc]=>DAT_200028c4         
ram:0001b374    401c            adds        param_1,param_1,#0x1                    
ram:0001b376    6880            strh        param_1,[r5,#0x2]=>DAT_200020ca         
ram:0001b378    0020            movs        param_1,#0x0                            
ram:0001b37a    f8bd            pop         {r3,r4,r5,r6,r7,pc}                     
                            DAT_0001b37c:                 ;XREF[1,0]:   0001b29e
ram:0001b37c    c8200020        undefined4  200020C8h                               
                            DAT_0001b380:                 ;XREF[1,0]:   0001b322
ram:0001b380    b8280020        undefined4  200028B8h                               
                            ;************************************************************************************************
                            ;*                                           FUNCTION                                           *
                            ;************************************************************************************************
                            ;int FUN_0001b384(uint * param_1, uint param_2, uint param_3, uint param_4)
          ;param_1       uint *              r0                      
          ;param_2       uint                r1                      
          ;param_3       uint                r2                      
          ;param_4       uint                r3                      
          ;local_18      undefined4         -18                      ;XREF[1,0]:   0001b400
                                                          ;XREF[1,0]:   00018e72
ram:0001b384    f8b5            push        {param_4,r4,r5,r6,r7,lr}                
ram:0001b386    0446            mov         r4,param_1                              
ram:0001b388    2048            ldr         param_1,[DAT_0001b40c]                  ;= 200020C8h
ram:0001b38a    1e46            mov         r6,param_4                              
ram:0001b38c    0078            ldrb        param_1,[param_1,#0x0]=>DAT_200020c8    
ram:0001b38e    1546            mov         r5,param_3                              
ram:0001b390    0f46            mov         r7,param_2                              
ram:0001b392    0028            cmp         param_1,#0x0                            
ram:0001b394    1dd0            beq         LAB_0001b3d2                            
ram:0001b396    002f            cmp         r7,#0x0                                 
ram:0001b398    1dd0            beq         LAB_0001b3d6                            
ram:0001b39a    002c            cmp         r4,#0x0                                 
ram:0001b39c    1bd0            beq         LAB_0001b3d6                            
ram:0001b39e    2068            ldr         param_1,[r4,#0x0]                       
ram:0001b3a0    0228            cmp         param_1,#0x2                            
ram:0001b3a2    14d2            bcs         LAB_0001b3ce                            
ram:0001b3a4    0101            lsls        param_2,param_1,#0x4                    
ram:0001b3a6    1a48            ldr         param_1,[DAT_0001b410]                  ;= 200028B8h
ram:0001b3a8    4258            ldr         param_3,[param_1,param_2]=>DAT_200028b8 
ram:0001b3aa    002a            cmp         param_3,#0x0                            
ram:0001b3ac    0fd0            beq         LAB_0001b3ce                            
ram:0001b3ae    0918            adds        param_2,param_2,param_1                 
ram:0001b3b0    4a89            ldrh        param_3,[param_2,#0xa]=>DAT_200028c2    
ram:0001b3b2    0889            ldrh        param_1,[param_2,#0x8]=>DAT_200028c0    
ram:0001b3b4    4968            ldr         param_2,[param_2,#0x4]                  
ram:0001b3b6    4243            muls        param_3,param_1                         
ram:0001b3b8    5118            adds        param_2,param_3,param_2                 
ram:0001b3ba    6268            ldr         param_3,[r4,#0x4]                       
ram:0001b3bc    9142            cmp         param_2,param_3                         
ram:0001b3be    06d9            bls         LAB_0001b3ce                            
ram:0001b3c0    002d            cmp         r5,#0x0                                 
ram:0001b3c2    04d0            beq         LAB_0001b3ce                            
ram:0001b3c4    a842            cmp         param_1,r5                              
ram:0001b3c6    02d3            bcc         LAB_0001b3ce                            
ram:0001b3c8    a919            adds        param_2,r5,r6                           
ram:0001b3ca    8142            cmp         param_2,param_1                         
ram:0001b3cc    05d9            bls         LAB_0001b3da                            
                            LAB_0001b3ce:                 ;XREF[5,0]:   0001b3a2,0001b3ac,0001b3be,0001b3c2
                                                          ;             0001b3c6
ram:0001b3ce    0720            movs        param_1,#0x7                            
ram:0001b3d0    f8bd            pop         {param_4,r4,r5,r6,r7,pc}                
                            LAB_0001b3d2:                 ;XREF[1,0]:   0001b394
ram:0001b3d2    0820            movs        param_1,#0x8                            
ram:0001b3d4    f8bd            pop         {param_4,r4,r5,r6,r7,pc}                
                            LAB_0001b3d6:                 ;XREF[2,0]:   0001b398,0001b39c
ram:0001b3d6    0e20            movs        param_1,#0xe                            
ram:0001b3d8    f8bd            pop         {param_4,r4,r5,r6,r7,pc}                
                            LAB_0001b3da:                 ;XREF[1,0]:   0001b3cc
ram:0001b3da    3846            mov         param_1,r7                              
ram:0001b3dc    fff726fa        bl          FUN_0001a82c                            ;undefined4 FUN_0001a82c(uint param_1)
ram:0001b3e0    0028            cmp         param_1,#0x0                            
ram:0001b3e2    11d0            beq         LAB_0001b408                            
ram:0001b3e4    3046            mov         param_1,r6                              
ram:0001b3e6    fff721fa        bl          FUN_0001a82c                            ;undefined4 FUN_0001a82c(uint param_1)
ram:0001b3ea    0028            cmp         param_1,#0x0                            
ram:0001b3ec    0cd0            beq         LAB_0001b408                            
ram:0001b3ee    6068            ldr         param_1,[r4,#0x4]                       
ram:0001b3f0    fff71cfa        bl          FUN_0001a82c                            ;undefined4 FUN_0001a82c(uint param_1)
ram:0001b3f4    0028            cmp         param_1,#0x0                            
ram:0001b3f6    07d0            beq         LAB_0001b408                            
ram:0001b3f8    2b46            mov         param_4,r5                              
ram:0001b3fa    3a46            mov         param_3,r7                              
ram:0001b3fc    2146            mov         param_2,r4                              
ram:0001b3fe    0220            movs        param_1,#0x2                            
ram:0001b400    0096            str         r6,[sp,#0x0]=>local_18                  
ram:0001b402    fef743fc        bl          FUN_00019c8c                            ;int FUN_00019c8c(char param_1, undef...
ram:0001b406    f8bd            pop         {param_4,r4,r5,r6,r7,pc}                
                            LAB_0001b408:                 ;XREF[3,0]:   0001b3e2,0001b3ec,0001b3f6
ram:0001b408    1020            movs        param_1,#0x10                           
ram:0001b40a    f8bd            pop         {param_4,r4,r5,r6,r7,pc}                
                            DAT_0001b40c:                 ;XREF[1,0]:   0001b388
ram:0001b40c    c8200020        undefined4  200020C8h                               
                            DAT_0001b410:                 ;XREF[1,0]:   0001b3a6
ram:0001b410    b8280020        undefined4  200028B8h                               
                            ;************************************************************************************************
                            ;*                                           FUNCTION                                           *
                            ;************************************************************************************************
                            ;undefined FUN_0001b414(int param_1)
          ;param_1       int                 r0                      
                                                          ;XREF[1,0]:   0001bc36
ram:0001b414    f8b5            push        {r3,r4,r5,r6,r7,lr}                     
ram:0001b416    0746            mov         r7,param_1                              
ram:0001b418    0020            movs        param_1,#0x0                            
ram:0001b41a    464e            ldr         r6,[DAT_0001b534]                       ;= 200027ECh
ram:0001b41c    8646            mov         lr,param_1                              
ram:0001b41e    b078            ldrb        param_1,[r6,#0x2]=>DAT_200027ee         
ram:0001b420    0128            cmp         param_1,#0x1                            
ram:0001b422    1ed1            bne         LAB_0001b462                            
ram:0001b424    0020            movs        param_1,#0x0                            
ram:0001b426    444b            ldr         r3=>DAT_200020c8,[DAT_0001b538]         ;= 200020C8h
ram:0001b428    b070            strb        param_1,[r6,#0x2]=>DAT_200027ee         
ram:0001b42a    5a78            ldrb        r2,[r3,#0x1]=>DAT_200020c9              
ram:0001b42c    082a            cmp         r2,#0x8                                 
ram:0001b42e    19d0            beq         LAB_0001b464                            
ram:0001b430    3446            mov         r4,r6                                   
ram:0001b432    2578            ldrb        r5,[r4,#0x0]=>DAT_200027ec              
ram:0001b434    1421            movs        r1,#0x14                                
ram:0001b436    6943            muls        r1,r5                                   
ram:0001b438    0c19            adds        r4,r1,r4                                
ram:0001b43a    022f            cmp         r7,#0x2                                 
ram:0001b43c    20d0            beq         LAB_0001b480                            
ram:0001b43e    032f            cmp         r7,#0x3                                 
ram:0001b440    0fd1            bne         LAB_0001b462                            
ram:0001b442    6079            ldrb        param_1,[r4,#0x5]                       
ram:0001b444    401c            adds        param_1,param_1,#0x1                    
ram:0001b446    c0b2            uxtb        param_1,param_1                         
ram:0001b448    6071            strb        param_1,[r4,#0x5]                       
ram:0001b44a    241d            adds        r4,r4,#0x4                              
ram:0001b44c    0328            cmp         param_1,#0x3                            
ram:0001b44e    6ad0            beq         LAB_0001b526                            
ram:0001b450    fef77cfb        bl          FUN_00019b4c                            ;int FUN_00019b4c(void)
ram:0001b454    0028            cmp         param_1,#0x0                            
ram:0001b456    04d0            beq         LAB_0001b462                            
ram:0001b458    1128            cmp         param_1,#0x11                           
ram:0001b45a    02d0            beq         LAB_0001b462                            
ram:0001b45c    2146            mov         r1,r4                                   
                            LAB_0001b45e:                 ;XREF[1,0]:   0001b532
ram:0001b45e    fdf713fd        bl          FUN_00018e88                            ;undefined FUN_00018e88(undefined4 pa...
                            LAB_0001b462:                 ;XREF[6,0]:   0001b422,0001b440,0001b456,0001b45a
                                                          ;             0001b470,0001b514
ram:0001b462    f8bd            pop         {r3,r4,r5,r6,r7,pc}                     
                            LAB_0001b464:                 ;XREF[1,0]:   0001b42e
ram:0001b464    022f            cmp         r7,#0x2                                 
ram:0001b466    09d0            beq         LAB_0001b47c                            
ram:0001b468    1870            strb        param_1,[r3,#0x0]=>DAT_200020c8         
                            LAB_0001b46a:                 ;XREF[1,0]:   0001b47e
ram:0001b46a    fef7ebfb        bl          FUN_00019c44                            ;int FUN_00019c44(void)
ram:0001b46e    0028            cmp         param_1,#0x0                            
ram:0001b470    f7d0            beq         LAB_0001b462                            
ram:0001b472    3178            ldrb        r1,[r6,#0x0]=>DAT_200027ec              
ram:0001b474    1422            movs        r2,#0x14                                
ram:0001b476    5143            muls        r1,r2                                   
ram:0001b478    8919            adds        r1,r1,r6                                
ram:0001b47a    59e0            b           LAB_0001b530                            
                            LAB_0001b47c:                 ;XREF[1,0]:   0001b466
ram:0001b47c    5870            strb        param_1,[r3,#0x1]=>DAT_200020c9         
ram:0001b47e    f4e7            b           LAB_0001b46a                            
                            LAB_0001b480:                 ;XREF[1,0]:   0001b43c
ram:0001b480    2d49            ldr         r1,[DAT_0001b538]                       ;= 200020C8h
ram:0001b482    8b88            ldrh        r3,[r1,#0x4]=>DAT_200020cc              
ram:0001b484    5b1c            adds        r3,r3,#0x1                              
ram:0001b486    9eb2            uxth        r6,r3                                   
ram:0001b488    8e80            strh        r6,[r1,#0x4]=>DAT_200020cc              
ram:0001b48a    2379            ldrb        r3,[r4,#0x4]                            
ram:0001b48c    241d            adds        r4,r4,#0x4                              
ram:0001b48e    022b            cmp         r3,#0x2                                 
ram:0001b490    05d1            bne         LAB_0001b49e                            
ram:0001b492    6788            ldrh        r7,[r4,#0x2]                            
ram:0001b494    b102            lsls        r1,r6,#0xa                              
ram:0001b496    b942            cmp         r1,r7                                   
ram:0001b498    01d3            bcc         LAB_0001b49e                            
ram:0001b49a    0121            movs        r1,#0x1                                 
ram:0001b49c    00e0            b           LAB_0001b4a0                            
                            LAB_0001b49e:                 ;XREF[2,0]:   0001b490,0001b498
ram:0001b49e    0021            movs        r1,#0x0                                 
                            LAB_0001b4a0:                 ;XREF[1,0]:   0001b49c
ram:0001b4a0    8c46            mov         r12,r1                                  
ram:0001b4a2    052b            cmp         r3,#0x5                                 
ram:0001b4a4    01d1            bne         LAB_0001b4aa                            
ram:0001b4a6    072a            cmp         r2,#0x7                                 
ram:0001b4a8    03d0            beq         LAB_0001b4b2                            
                            LAB_0001b4aa:                 ;XREF[1,0]:   0001b4a4
ram:0001b4aa    0021            movs        r1,#0x0                                 
                            LAB_0001b4ac:                 ;XREF[1,0]:   0001b4b4
ram:0001b4ac    042b            cmp         r3,#0x4                                 
ram:0001b4ae    02d0            beq         LAB_0001b4b6                            
ram:0001b4b0    03e0            b           LAB_0001b4ba                            
                            LAB_0001b4b2:                 ;XREF[1,0]:   0001b4a8
ram:0001b4b2    0121            movs        r1,#0x1                                 
ram:0001b4b4    fae7            b           LAB_0001b4ac                            
                            LAB_0001b4b6:                 ;XREF[1,0]:   0001b4ae
ram:0001b4b6    072a            cmp         r2,#0x7                                 
ram:0001b4b8    03d0            beq         LAB_0001b4c2                            
                            LAB_0001b4ba:                 ;XREF[1,0]:   0001b4b0
ram:0001b4ba    0027            movs        r7,#0x0                                 
                            LAB_0001b4bc:                 ;XREF[1,0]:   0001b4c4
ram:0001b4bc    042b            cmp         r3,#0x4                                 
ram:0001b4be    02d0            beq         LAB_0001b4c6                            
ram:0001b4c0    07e0            b           LAB_0001b4d2                            
                            LAB_0001b4c2:                 ;XREF[1,0]:   0001b4b8
ram:0001b4c2    0127            movs        r7,#0x1                                 
ram:0001b4c4    fae7            b           LAB_0001b4bc                            
                            LAB_0001b4c6:                 ;XREF[1,0]:   0001b4be
ram:0001b4c6    6488            ldrh        r4,[r4,#0x2]                            
ram:0001b4c8    b302            lsls        r3,r6,#0xa                              
ram:0001b4ca    a342            cmp         r3,r4                                   
ram:0001b4cc    01d3            bcc         LAB_0001b4d2                            
ram:0001b4ce    002a            cmp         r2,#0x0                                 
ram:0001b4d0    27d0            beq         LAB_0001b522                            
                            LAB_0001b4d2:                 ;XREF[2,0]:   0001b4c0,0001b4cc
ram:0001b4d2    0022            movs        r2,#0x0                                 
                            LAB_0001b4d4:                 ;XREF[1,0]:   0001b524
ram:0001b4d4    3943            orrs        r1,r7                                   
ram:0001b4d6    1143            orrs        r1,r2                                   
ram:0001b4d8    6246            mov         r2,r12                                  
ram:0001b4da    1143            orrs        r1,r2                                   
ram:0001b4dc    17d0            beq         LAB_0001b50e                            
ram:0001b4de    164a            ldr         r2=>DAT_200020c8,[DAT_0001b538]         ;= 200020C8h
ram:0001b4e0    1449            ldr         r1,[DAT_0001b534]                       ;= 200027ECh
ram:0001b4e2    5070            strb        param_1,[r2,#0x1]=>DAT_200020c9         
ram:0001b4e4    9080            strh        param_1,[r2,#0x4]=>DAT_200020cc         
ram:0001b4e6    4878            ldrb        param_1,[r1,#0x1]=>DAT_200027ed         
ram:0001b4e8    401e            subs        param_1,param_1,#0x1                    
ram:0001b4ea    4870            strb        param_1,[r1,#0x1]=>DAT_200027ed         
ram:0001b4ec    681c            adds        param_1,r5,#0x1                         
ram:0001b4ee    c0b2            uxtb        param_1,param_1                         
ram:0001b4f0    0870            strb        param_1,[r1,#0x0]=>DAT_200027ec         
ram:0001b4f2    0a28            cmp         param_1,#0xa                            
ram:0001b4f4    01d3            bcc         LAB_0001b4fa                            
ram:0001b4f6    0a38            subs        param_1,#0xa                            
ram:0001b4f8    0870            strb        param_1,[r1,#0x0]=>DAT_200027ec         
                            LAB_0001b4fa:                 ;XREF[1,0]:   0001b4f4
ram:0001b4fa    1420            movs        param_1,#0x14                           
ram:0001b4fc    6843            muls        param_1,r5                              
ram:0001b4fe    4118            adds        r1,param_1,r1                           
ram:0001b500    7046            mov         param_1,lr                              
ram:0001b502    091d            adds        r1,r1,#0x4                              
ram:0001b504    fdf7c0fc        bl          FUN_00018e88                            ;undefined FUN_00018e88(undefined4 pa...
ram:0001b508    2846            mov         param_1,r5                              
ram:0001b50a    fef7affb        bl          FUN_00019c6c                            ;undefined FUN_00019c6c(int param_1)
                            LAB_0001b50e:                 ;XREF[1,0]:   0001b4dc
ram:0001b50e    fef799fb        bl          FUN_00019c44                            ;int FUN_00019c44(void)
ram:0001b512    0028            cmp         param_1,#0x0                            
ram:0001b514    a5d0            beq         LAB_0001b462                            
ram:0001b516    0749            ldr         r1,[DAT_0001b534]                       ;= 200027ECh
ram:0001b518    1423            movs        r3,#0x14                                
ram:0001b51a    0a78            ldrb        r2,[r1,#0x0]=>DAT_200027ec              
ram:0001b51c    5a43            muls        r2,r3                                   
ram:0001b51e    5118            adds        r1,r2,r1                                
ram:0001b520    06e0            b           LAB_0001b530                            
                            LAB_0001b522:                 ;XREF[1,0]:   0001b4d0
ram:0001b522    0122            movs        r2,#0x1                                 
ram:0001b524    d6e7            b           LAB_0001b4d4                            
                            LAB_0001b526:                 ;XREF[1,0]:   0001b44e
ram:0001b526    3078            ldrb        param_1,[r6,#0x0]=>DAT_200027ec         
ram:0001b528    1421            movs        r1,#0x14                                
ram:0001b52a    4843            muls        param_1,r1                              
ram:0001b52c    8119            adds        r1,param_1,r6                           
ram:0001b52e    0d20            movs        param_1,#0xd                            
                            LAB_0001b530:                 ;XREF[2,0]:   0001b47a,0001b520
ram:0001b530    091d            adds        r1,r1,#0x4                              
ram:0001b532    94e7            b           LAB_0001b45e                            
                            DAT_0001b534:                 ;XREF[3,0]:   0001b41a,0001b4e0,0001b516
ram:0001b534    ec270020        undefined4  200027ECh                               
                            DAT_0001b538:                 ;XREF[3,0]:   0001b426,0001b480,0001b4de
ram:0001b538    c8200020        undefined4  200020C8h                               
ram:0001b53c    42              ??          42h    B                                
ram:0001b53d    78              ??          78h    x                                
ram:0001b53e    ca              ??          CAh                                     
ram:0001b53f    70              ??          70h    p                                
ram:0001b540    82              ??          82h                                     
ram:0001b541    78              ??          78h    x                                
ram:0001b542    0a              ??          0Ah                                     
ram:0001b543    71              ??          71h    q                                
ram:0001b544    00              ??          00h                                     
ram:0001b545    78              ??          78h    x                                
ram:0001b546    48              ??          48h    H                                
ram:0001b547    71              ??          71h    q                                
ram:0001b548    00              ??          00h                                     
ram:0001b549    20              ??          20h                                     
ram:0001b54a    70              ??          70h    p                                
ram:0001b54b    47              ??          47h    G                                
                            ;************************************************************************************************
                            ;*                                           FUNCTION                                           *
                            ;************************************************************************************************
                            ;undefined4 FUN_0001b54c(int param_1, byte * param_2, int param_3, int param_4)
          ;param_1       int                 r0                      
          ;param_2       byte *              r1                      
          ;param_3       int                 r2                      
          ;param_4       int                 r3                      
          ;local_24      undefined4         -24                      ;XREF[2,0]:   0001b56a,0001b5c8
          ;local_2c      undefined4         -2c                      ;XREF[2,0]:   0001b578,0001b5d6
          ;local_30      undefined4         -30                      ;XREF[2,0]:   0001b57a,0001b5d8
ram:0001b54c    ffb5            push        {param_1,param_2,param_3,param_4,r4,r...
ram:0001b54e    83b0            sub         sp,#0xc                                 
ram:0001b550    1c46            mov         r4,param_4                              
ram:0001b552    012a            cmp         param_3,#0x1                            
ram:0001b554    1dd1            bne         LAB_0001b592                            
ram:0001b556    0e78            ldrb        r6,[param_2,#0x0]                       
ram:0001b558    3046            mov         param_1,r6                              
ram:0001b55a    00f08cfe        bl          FUN_0001c276                            ;undefined4 FUN_0001c276(uint param_1)
ram:0001b55e    0028            cmp         param_1,#0x0                            
ram:0001b560    17d0            beq         LAB_0001b592                            
ram:0001b562    7006            lsls        param_1,r6,#0x19                        
ram:0001b564    070e            lsrs        r7,param_1,#0x18                        
ram:0001b566    b800            lsls        param_1,r7,#0x2                         
ram:0001b568    3918            adds        param_2,r7,param_1                      
ram:0001b56a    0398            ldr         param_1,[sp,#local_24+0x30]             
ram:0001b56c    0522            movs        param_3,#0x5                            
ram:0001b56e    0d18            adds        r5,param_2,param_1                      
ram:0001b570    2946            mov         param_2,r5                              
ram:0001b572    6846            mov         param_1,sp                              
ram:0001b574    fcf722fe        bl          FUN_000181bc                            ;undefined FUN_000181bc(undefined4 * ...
ram:0001b578    0199            ldr         param_2,[sp,#local_2c+0x30]             
ram:0001b57a    0098            ldr         param_1,[sp,#0x0]=>local_30             
ram:0001b57c    00f05efe        bl          FUN_0001c23c                            ;undefined4 FUN_0001c23c(uint param_1)
ram:0001b580    0100            movs        param_2,param_1                         
ram:0001b582    e670            strb        r6,[r4,#0x3]                            
ram:0001b584    a878            ldrb        param_1,[r5,#0x2]                       
ram:0001b586    2071            strb        param_1,[r4,#0x4]                       
ram:0001b588    e878            ldrb        param_1,[r5,#0x3]                       
ram:0001b58a    6071            strb        param_1,[r4,#0x5]                       
ram:0001b58c    04d0            beq         LAB_0001b598                            
ram:0001b58e    6878            ldrb        param_1,[r5,#0x1]                       
ram:0001b590    03e0            b           LAB_0001b59a                            
                            LAB_0001b592:                 ;XREF[2,0]:   0001b554,0001b560
ram:0001b592    0220            movs        param_1,#0x2                            
                            LAB_0001b594:                 ;XREF[1,0]:   0001b618
ram:0001b594    07b0            add         sp,#0x1c                                
ram:0001b596    f0bd            pop         {r4,r5,r6,r7,pc}                        
                            LAB_0001b598:                 ;XREF[1,0]:   0001b58c
ram:0001b598    ff20            movs        param_1,#0xff                           
                            LAB_0001b59a:                 ;XREF[1,0]:   0001b590
ram:0001b59a    a071            strb        param_1,[r4,#0x6]                       
ram:0001b59c    2879            ldrb        param_1,[r5,#0x4]                       
ram:0001b59e    4207            lsls        param_3,param_1,#0x1d                   
ram:0001b5a0    d30f            lsrs        param_4,param_3,#0x1f                   
ram:0001b5a2    c207            lsls        param_3,param_1,#0x1f                   
ram:0001b5a4    920f            lsrs        param_3,param_3,#0x1e                   
ram:0001b5a6    1a43            orrs        param_3,param_4                         
ram:0001b5a8    8307            lsls        param_4,param_1,#0x1e                   
ram:0001b5aa    db0f            lsrs        param_4,param_4,#0x1f                   
ram:0001b5ac    0007            lsls        param_1,param_1,#0x1c                   
ram:0001b5ae    9b00            lsls        param_4,param_4,#0x2                    
ram:0001b5b0    c00f            lsrs        param_1,param_1,#0x1f                   
ram:0001b5b2    1343            orrs        param_4,param_3                         
ram:0001b5b4    c000            lsls        param_1,param_1,#0x3                    
ram:0001b5b6    1843            orrs        param_1,param_4                         
ram:0001b5b8    0029            cmp         param_2,#0x0                            
ram:0001b5ba    00d1            bne         LAB_0001b5be                            
ram:0001b5bc    ff20            movs        param_1,#0xff                           
                            LAB_0001b5be:                 ;XREF[1,0]:   0001b5ba
ram:0001b5be    e071            strb        param_1,[r4,#0x7]                       
ram:0001b5c0    7f1c            adds        r7,r7,#0x1                              
ram:0001b5c2    f8b2            uxtb        param_1,r7                              
ram:0001b5c4    8100            lsls        param_2,param_1,#0x2                    
ram:0001b5c6    4118            adds        param_2,param_1,param_2                 
ram:0001b5c8    0398            ldr         param_1,[sp,#local_24+0x30]             
ram:0001b5ca    0522            movs        param_3,#0x5                            
ram:0001b5cc    0d18            adds        r5,param_2,param_1                      
ram:0001b5ce    2946            mov         param_2,r5                              
ram:0001b5d0    6846            mov         param_1,sp                              
ram:0001b5d2    fcf7f3fd        bl          FUN_000181bc                            ;undefined FUN_000181bc(undefined4 * ...
ram:0001b5d6    0199            ldr         param_2,[sp,#local_2c+0x30]             
ram:0001b5d8    0098            ldr         param_1,[sp,#0x0]=>local_30             
ram:0001b5da    00f02ffe        bl          FUN_0001c23c                            ;undefined4 FUN_0001c23c(uint param_1)
ram:0001b5de    a978            ldrb        param_2,[r5,#0x2]                       
ram:0001b5e0    2172            strb        param_2,[r4,#0x8]                       
ram:0001b5e2    e978            ldrb        param_2,[r5,#0x3]                       
ram:0001b5e4    6172            strb        param_2,[r4,#0x9]                       
ram:0001b5e6    0028            cmp         param_1,#0x0                            
ram:0001b5e8    01d0            beq         LAB_0001b5ee                            
ram:0001b5ea    6978            ldrb        param_2,[r5,#0x1]                       
ram:0001b5ec    00e0            b           LAB_0001b5f0                            
                            LAB_0001b5ee:                 ;XREF[1,0]:   0001b5e8
ram:0001b5ee    ff21            movs        param_2,#0xff                           
                            LAB_0001b5f0:                 ;XREF[1,0]:   0001b5ec
ram:0001b5f0    a172            strb        param_2,[r4,#0xa]                       
ram:0001b5f2    2979            ldrb        param_2,[r5,#0x4]                       
ram:0001b5f4    4a07            lsls        param_3,param_2,#0x1d                   
ram:0001b5f6    cb07            lsls        param_4,param_2,#0x1f                   
ram:0001b5f8    d20f            lsrs        param_3,param_3,#0x1f                   
ram:0001b5fa    9b0f            lsrs        param_4,param_4,#0x1e                   
ram:0001b5fc    1343            orrs        param_4,param_3                         
ram:0001b5fe    8a07            lsls        param_3,param_2,#0x1e                   
ram:0001b600    d20f            lsrs        param_3,param_3,#0x1f                   
ram:0001b602    0907            lsls        param_2,param_2,#0x1c                   
ram:0001b604    9200            lsls        param_3,param_3,#0x2                    
ram:0001b606    c90f            lsrs        param_2,param_2,#0x1f                   
ram:0001b608    1a43            orrs        param_3,param_4                         
ram:0001b60a    c900            lsls        param_2,param_2,#0x3                    
ram:0001b60c    1143            orrs        param_2,param_3                         
ram:0001b60e    0028            cmp         param_1,#0x0                            
ram:0001b610    00d1            bne         LAB_0001b614                            
ram:0001b612    ff21            movs        param_2,#0xff                           
                            LAB_0001b614:                 ;XREF[1,0]:   0001b610
ram:0001b614    e172            strb        param_2,[r4,#0xb]                       
ram:0001b616    0020            movs        param_1,#0x0                            
ram:0001b618    bce7            b           LAB_0001b594                            
                            ;************************************************************************************************
                            ;*                                           FUNCTION                                           *
                            ;************************************************************************************************
                            ;ulonglong FUN_0001b61a(int param_1, uint param_2, undefined4 param_3, undefined4 param_4)
          ;param_1       int                 r0                      
          ;param_2       uint                r1                      
          ;param_3       undefined4          r2                      
          ;param_4       undefined4          r3                      
ram:0001b61a    10b5            push        {r4,lr}                                 
ram:0001b61c    0c46            mov         r4,param_2                              
ram:0001b61e    00f0fbfc        bl          FUN_0001c018                            ;undefined8 FUN_0001c018(int param_1,...
ram:0001b622    e070            strb        param_1,[r4,#0x3]                       
ram:0001b624    0020            movs        param_1,#0x0                            
ram:0001b626    10bd            pop         {r4,pc}                                 
                            ;************************************************************************************************
                            ;*                                           FUNCTION                                           *
                            ;************************************************************************************************
                            ;undefined FUN_0001b628(undefined4 param_1, undefined4 param_2, undefined4 param_3, uint param_4)
          ;param_1       undefined4          r0                      
          ;param_2       undefined4          r1                      
          ;param_3       undefined4          r2                      
          ;param_4       uint                r3                      
                                                          ;XREF[1,0]:   000193c8
ram:0001b628    10b5            push        {r4,lr}                                 
ram:0001b62a    0f48            ldr         param_1,[DAT_0001b668]                  ;= 20002000h
ram:0001b62c    0f49            ldr         param_2,[DAT_0001b66c]                  ;= 0000FFFFh
ram:0001b62e    8088            ldrh        param_1,[param_1,#offset DAT_20002004...
ram:0001b630    8842            cmp         param_1,param_2                         
ram:0001b632    02d0            beq         LAB_0001b63a                            
ram:0001b634    1321            movs        param_2,#0x13                           
ram:0001b636    76df            svc         0x76                                    
ram:0001b638    00e0            b           LAB_0001b63c                            
                            LAB_0001b63a:                 ;XREF[1,0]:   0001b632
ram:0001b63a    74df            svc         0x74                                    
                            LAB_0001b63c:                 ;XREF[1,0]:   0001b638
ram:0001b63c    0028            cmp         param_1,#0x0                            
ram:0001b63e    03d0            beq         LAB_0001b648                            
ram:0001b640    0022            movs        param_3,#0x0                            
ram:0001b642    1146            mov         param_2,param_3                         
ram:0001b644    fdf706fb        bl          FUN_00018c54                            ;undefined FUN_00018c54(void)
                            LAB_0001b648:                 ;XREF[1,0]:   0001b63e
ram:0001b648    fef700f8        bl          FUN_0001964c                            ;undefined FUN_0001964c(undefined4 pa...
ram:0001b64c    0028            cmp         param_1,#0x0                            
ram:0001b64e    03d0            beq         LAB_0001b658                            
ram:0001b650    0022            movs        param_3,#0x0                            
ram:0001b652    1146            mov         param_2,param_3                         
ram:0001b654    fdf7fefa        bl          FUN_00018c54                            ;undefined FUN_00018c54(void)
                            LAB_0001b658:                 ;XREF[1,0]:   0001b64e
ram:0001b658    0548            ldr         param_1,[DAT_0001b670]                  ;= 40000500h
ram:0001b65a    c069            ldr         param_1,[param_1,#offset DAT_4000051c...
ram:0001b65c    ff20            movs        param_1,#0xff                           
ram:0001b65e    f530            adds        param_1,#0xf5                           
ram:0001b660    fff79efb        bl          FUN_0001ada0                            ;undefined FUN_0001ada0(int param_1)
ram:0001b664    10bd            pop         {r4,pc}                                 
ram:0001b666    0000            movs        r0,r0                                   
                            DAT_0001b668:                 ;XREF[1,0]:   0001b62a
ram:0001b668    00200020        undefined4  20002000h                               
                            DAT_0001b66c:                 ;XREF[1,0]:   0001b62c
ram:0001b66c    ffff0000        undefined4  0000FFFFh                               
                            DAT_0001b670:                 ;XREF[1,0]:   0001b658
ram:0001b670    00050040        undefined4  40000500h                               
                            ;************************************************************************************************
                            ;*                                           FUNCTION                                           *
                            ;************************************************************************************************
                            ;undefined FUN_0001b674(void)
                                                          ;XREF[2,0]:   000190de,00019d66
ram:0001b674    70b5            push        {r4,r5,r6,lr}                           
ram:0001b676    0124            movs        r4,#0x1                                 
ram:0001b678    0b49            ldr         r1,[DAT_0001b6a8]                       ;= E000E180h
ram:0001b67a    6004            lsls        r0,r4,#0x11                             
ram:0001b67c    0860            str         r0,[r1,#0x0]=>DAT_e000e180              
ram:0001b67e    0b49            ldr         r1,[DAT_0001b6ac]                       ;= 40011340h
ram:0001b680    4010            asrs        r0,r0,#0x1                              
ram:0001b682    8860            str         r0,[r1,#0x8]=>DAT_40011348              
ram:0001b684    0949            ldr         r1,[DAT_0001b6ac]                       ;= 40011340h
ram:0001b686    4039            subs        r1,#0x40                                
ram:0001b688    8860            str         r0,[r1,#offset DAT_40011308 &0xff]      
ram:0001b68a    094d            ldr         r5,[DAT_0001b6b0]                       ;= 40011000h
ram:0001b68c    6c60            str         r4,[r5,#offset DAT_40011004 &0xff]      
ram:0001b68e    2f20            movs        r0,#0x2f                                
ram:0001b690    fcf730fd        bl          FUN_000180f4                            ;undefined FUN_000180f4(int param_1)
ram:0001b694    ac60            str         r4,[r5,#offset DAT_40011008 &0xff]      
ram:0001b696    074d            ldr         r5,[DAT_0001b6b4]                       ;= 20002110h
ram:0001b698    0024            movs        r4,#0x0                                 
ram:0001b69a    2f20            movs        r0,#0x2f                                
ram:0001b69c    6c61            str         r4,[r5,#0x14]=>DAT_20002124             
ram:0001b69e    fcf729fd        bl          FUN_000180f4                            ;undefined FUN_000180f4(int param_1)
ram:0001b6a2    2c71            strb        r4,[r5,#0x4]=>DAT_20002114              
ram:0001b6a4    70bd            pop         {r4,r5,r6,pc}                           
ram:0001b6a6    0000            movs        r0,r0                                   
                            DAT_0001b6a8:                 ;XREF[1,0]:   0001b678
ram:0001b6a8    80e100e0        undefined4  E000E180h                               
                            DAT_0001b6ac:                 ;XREF[2,0]:   0001b67e,0001b684
ram:0001b6ac    40130140        undefined4  40011340h                               
                            DAT_0001b6b0:                 ;XREF[1,0]:   0001b68a
ram:0001b6b0    00100140        undefined4  40011000h                               
                            DAT_0001b6b4:                 ;XREF[1,0]:   0001b696
ram:0001b6b4    10210020        undefined4  20002110h                               
                            ;************************************************************************************************
                            ;*                                           FUNCTION                                           *
                            ;************************************************************************************************
                            ;undefined8 FUN_0001b6b8(int param_1, undefined4 param_2, undefined * param_3)
          ;param_1       int                 r0                      
          ;param_2       undefined4          r1                      
          ;param_3       undefined *         r2                      
          ;local_18      undefined2         -18                      ;XREF[1,0]:   0001b6be
          ;local_1c      undefined4         -1c                      ;XREF[1,0]:   0001b6d6
          ;local_20      undefined4         -20                      ;XREF[1,0]:   0001b6d4
          ;local_24      undefined4         -24                      ;XREF[2,0]:   0001b6ca,0001b6ce
          ;local_28      undefined4         -28                      ;XREF[2,1]:   0001b6c6,0001b6d0,0001b6cc
                                                          ;XREF[6,0]:   0001932c,000193b8,00019432,00019478
                                                          ;             0001bb40,0001bdb8
ram:0001b6b8    70b5            push        {r4,r5,r6,lr}                           
ram:0001b6ba    86b0            sub         sp,#0x18                                
ram:0001b6bc    6d46            mov         r5,sp                                   
ram:0001b6be    2b82            strh        r3,[r5,#local_18+0x28]                  
ram:0001b6c0    2023            movs        r3,#0x20                                
ram:0001b6c2    1370            strb        r3,[param_3,#0x0]                       
ram:0001b6c4    0023            movs        r3,#0x0                                 
ram:0001b6c6    0093            str         r3,[sp,#0x0]=>local_28                  
ram:0001b6c8    0126            movs        r6,#0x1                                 
ram:0001b6ca    0193            str         r3,[sp,#local_24+0x28]                  
ram:0001b6cc    ae70            strb        r6,[r5,#local_28+0x2a]                  
ram:0001b6ce    ab80            strh        r3,[r5,#local_24+0x28]                  
ram:0001b6d0    2980            strh        param_2,[r5,#0x0]=>local_28             
ram:0001b6d2    04a9            add         param_2,sp,#0x10                        
ram:0001b6d4    0291            str         param_2,[sp,#local_20+0x28]             
ram:0001b6d6    0392            str         param_3,[sp,#local_1c+0x28]             
ram:0001b6d8    808e            ldrh        param_1,[param_1,#0x34]                 
ram:0001b6da    0449            ldr         param_2,[DAT_0001b6ec]                  ;= 0000FFFFh
ram:0001b6dc    8842            cmp         param_1,param_2                         
ram:0001b6de    02d0            beq         LAB_0001b6e6                            
ram:0001b6e0    2946            mov         param_2,r5                              
ram:0001b6e2    a6df            svc         0xa6                                    
ram:0001b6e4    0446            mov         r4,param_1                              
                            LAB_0001b6e6:                 ;XREF[1,0]:   0001b6de
ram:0001b6e6    2046            mov         param_1,r4                              
ram:0001b6e8    06b0            add         sp,#0x18                                
ram:0001b6ea    70bd            pop         {r4,r5,r6,pc}                           
                            DAT_0001b6ec:                 ;XREF[1,0]:   0001b6da
ram:0001b6ec    ffff0000        undefined4  0000FFFFh                               
                            ;************************************************************************************************
                            ;*                                           FUNCTION                                           *
                            ;************************************************************************************************
                            ;undefined FUN_0001b6f0(int param_1, uint param_2)
          ;param_1       int                 r0                      
          ;param_2       uint                r1                      
                                                          ;XREF[2,0]:   0001853c,00018560
ram:0001b6f0    f0b5            push        {r4,r5,r6,r7,lr}                        
ram:0001b6f2    0022            movs        r2,#0x0                                 
ram:0001b6f4    0123            movs        r3,#0x1                                 
ram:0001b6f6    0326            movs        r6,#0x3                                 
ram:0001b6f8    3604            lsls        r6,r6,#0x10                             
                            LAB_0001b6fa:                 ;XREF[1,0]:   0001b72c
ram:0001b6fa    1f46            mov         r7,r3                                   
ram:0001b6fc    9740            lsls        r7,r2                                   
ram:0001b6fe    3942            tst         param_2,r7                              
ram:0001b700    12d0            beq         LAB_0001b728                            
ram:0001b702    c568            ldr         r5,[param_1,#0xc]                       
ram:0001b704    3d42            tst         r5,r7                                   
ram:0001b706    03d1            bne         LAB_0001b710                            
ram:0001b708    0124            movs        r4,#0x1                                 
ram:0001b70a    6404            lsls        r4,r4,#0x11                             
ram:0001b70c    3d43            orrs        r5,r7                                   
ram:0001b70e    01e0            b           LAB_0001b714                            
                            LAB_0001b710:                 ;XREF[1,0]:   0001b706
ram:0001b710    3446            mov         r4,r6                                   
ram:0001b712    bd43            bics        r5,r7                                   
                            LAB_0001b714:                 ;XREF[1,0]:   0001b70e
ram:0001b714    c560            str         r5,[param_1,#0xc]                       
ram:0001b716    064d            ldr         r5,[DAT_0001b730]                       ;= 50000700h
ram:0001b718    9700            lsls        r7,r2,#0x2                              
ram:0001b71a    7d19            adds        r5,r7,r5                                
ram:0001b71c    2f68            ldr         r7,[r5,#0x0]=>DAT_50000700              
ram:0001b71e    b743            bics        r7,r6                                   
ram:0001b720    2f60            str         r7,[r5,#0x0]=>DAT_50000700              
ram:0001b722    2f68            ldr         r7,[r5,#0x0]=>DAT_50000700              
ram:0001b724    2743            orrs        r7,r4                                   
ram:0001b726    2f60            str         r7,[r5,#0x0]=>DAT_50000700              
                            LAB_0001b728:                 ;XREF[1,0]:   0001b700
ram:0001b728    521c            adds        r2,r2,#0x1                              
ram:0001b72a    202a            cmp         r2,#0x20                                
ram:0001b72c    e5d3            bcc         LAB_0001b6fa                            
ram:0001b72e    f0bd            pop         {r4,r5,r6,r7,pc}                        
                            DAT_0001b730:                 ;XREF[1,0]:   0001b716
ram:0001b730    00070050        undefined4  50000700h                               
                            ;************************************************************************************************
                            ;*                                           FUNCTION                                           *
                            ;************************************************************************************************
                            ;undefined4 FUN_0001b734(int param_1, int param_2, byte * param_3)
          ;param_1       int                 r0                      
          ;param_2       int                 r1                      
          ;param_3       byte *              r2                      
          ;local_20      undefined4         -20                      ;XREF[3,0]:   0001b738,0001b744,0001b74e
          ;local_28      undefined4         -28                      ;XREF[2,0]:   0001b74a,0001b79c
                                                          ;XREF[1,0]:   00018a7a
ram:0001b734    f7b5            push        {param_1,param_2,param_3,r4,r5,r6,r7,lr}
ram:0001b736    82b0            sub         sp,#0x8                                 
ram:0001b738    0298            ldr         param_1,[sp,#local_20+0x28]             
ram:0001b73a    1446            mov         r4,param_3                              
ram:0001b73c    806a            ldr         param_1,[param_1,#0x28]                 
ram:0001b73e    0f46            mov         r7,param_2                              
ram:0001b740    0028            cmp         param_1,#0x0                            
ram:0001b742    33d0            beq         LAB_0001b7ac                            
ram:0001b744    0298            ldr         param_1,[sp,#local_20+0x28]             
ram:0001b746    0025            movs        r5,#0x0                                 
ram:0001b748    2030            adds        param_1,#0x20                           
ram:0001b74a    0090            str         param_1,[sp,#0x0]=>local_28             
ram:0001b74c    28e0            b           LAB_0001b7a0                            
                            LAB_0001b74e:                 ;XREF[1,0]:   0001b7a4
ram:0001b74e    0298            ldr         param_1,[sp,#local_20+0x28]             
ram:0001b750    816a            ldr         param_2,[param_1,#0x28]                 
ram:0001b752    0c20            movs        param_1,#0xc                            
ram:0001b754    6843            muls        param_1,r5                              
ram:0001b756    0e18            adds        r6,param_2,param_1                      
ram:0001b758    2178            ldrb        param_2,[r4,#0x0]                       
ram:0001b75a    3079            ldrb        param_1,[r6,#0x4]                       
ram:0001b75c    4a1c            adds        param_3,param_2,#0x1                    
ram:0001b75e    2270            strb        param_3,[r4,#0x0]                       
ram:0001b760    c01c            adds        param_1,param_1,#0x3                    
ram:0001b762    7854            strb        param_1,[r7,param_2]                    
ram:0001b764    2078            ldrb        param_1,[r4,#0x0]                       
ram:0001b766    1622            movs        param_3,#0x16                           
ram:0001b768    411c            adds        param_2,param_1,#0x1                    
ram:0001b76a    2170            strb        param_2,[r4,#0x0]                       
ram:0001b76c    3a54            strb        param_3,[r7,param_1]                    
ram:0001b76e    2078            ldrb        param_1,[r4,#0x0]                       
ram:0001b770    c119            adds        param_2,param_1,r7                      
ram:0001b772    3088            ldrh        param_1,[r6,#0x0]                       
ram:0001b774    00f06dfc        bl          FUN_0001c052                            ;undefined4 FUN_0001c052(undefined4 p...
ram:0001b778    2178            ldrb        param_2,[r4,#0x0]                       
ram:0001b77a    4018            adds        param_1,param_1,param_2                 
ram:0001b77c    c0b2            uxtb        param_1,param_1                         
ram:0001b77e    2070            strb        param_1,[r4,#0x0]                       
ram:0001b780    b288            ldrh        param_3,[r6,#0x4]                       
ram:0001b782    002a            cmp         param_3,#0x0                            
ram:0001b784    09d0            beq         LAB_0001b79a                            
ram:0001b786    b168            ldr         param_2,[r6,#0x8]                       
ram:0001b788    0029            cmp         param_2,#0x0                            
ram:0001b78a    0fd0            beq         LAB_0001b7ac                            
ram:0001b78c    c019            adds        param_1,param_1,r7                      
ram:0001b78e    fcf715fd        bl          FUN_000181bc                            ;undefined FUN_000181bc(undefined4 * ...
ram:0001b792    2078            ldrb        param_1,[r4,#0x0]                       
ram:0001b794    3179            ldrb        param_2,[r6,#0x4]                       
ram:0001b796    4018            adds        param_1,param_1,param_2                 
ram:0001b798    2070            strb        param_1,[r4,#0x0]                       
                            LAB_0001b79a:                 ;XREF[1,0]:   0001b784
ram:0001b79a    6d1c            adds        r5,r5,#0x1                              
ram:0001b79c    0098            ldr         param_1,[sp,#0x0]=>local_28             
ram:0001b79e    edb2            uxtb        r5,r5                                   
                            LAB_0001b7a0:                 ;XREF[1,0]:   0001b74c
ram:0001b7a0    007b            ldrb        param_1,[param_1,#0xc]                  
ram:0001b7a2    a842            cmp         param_1,r5                              
ram:0001b7a4    d3d8            bhi         LAB_0001b74e                            
ram:0001b7a6    0020            movs        param_1,#0x0                            
                            LAB_0001b7a8:                 ;XREF[1,0]:   0001b7ae
ram:0001b7a8    05b0            add         sp,#0x14                                
ram:0001b7aa    f0bd            pop         {r4,r5,r6,r7,pc}                        
                            LAB_0001b7ac:                 ;XREF[2,0]:   0001b742,0001b78a
ram:0001b7ac    0720            movs        param_1,#0x7                            
ram:0001b7ae    fbe7            b           LAB_0001b7a8                            
                            ;************************************************************************************************
                            ;*                                           FUNCTION                                           *
                            ;************************************************************************************************
                            ;undefined FUN_0001b7b0(void)
          ;local_c       undefined4          -c                      ;XREF[1,0]:   0001b7be
          ;local_10      undefined4         -10                      ;XREF[1,0]:   0001b7ba
          ;local_14      undefined4         -14                      ;XREF[1,0]:   0001b7b6
          ;local_18      undefined4         -18                      ;XREF[1,0]:   0001b7d8
          ;local_1c      undefined4         -1c                      ;XREF[1,0]:   0001b7dc
          ;local_20      undefined4         -20                      ;XREF[2,0]:   0001b7d6,0001b7e2
                                                          ;XREF[1,0]:   0001aae2
ram:0001b7b0    00b5            push        {lr}                                    
ram:0001b7b2    87b0            sub         sp,#0x1c                                
ram:0001b7b4    1348            ldr         r0,[PTR_LAB_0001baf8+1+1_0001b804]      ;= 0001baf9
ram:0001b7b6    0390            str         r0=>LAB_0001baf8+1+1,[sp,#local_14+0x20]
ram:0001b7b8    1348            ldr         r0,[PTR_LAB_0001bce8+1+1_0001b808]      ;= 0001bce9
ram:0001b7ba    0490            str         r0=>LAB_0001bce8+1+1,[sp,#local_10+0x20]
ram:0001b7bc    1348            ldr         r0,[PTR_LAB_00019304+1+1_0001b80c]      ;= 00019305
ram:0001b7be    0590            str         r0=>LAB_00019304+1+1,[sp,#local_c+0x20] 
ram:0001b7c0    03a9            add         r1,sp,#0xc                              
ram:0001b7c2    1348            ldr         r0,[DAT_0001b810]                       ;= 200025F8h
ram:0001b7c4    fef718f8        bl          FUN_000197f8                            ;undefined8 FUN_000197f8(ushort * par...
ram:0001b7c8    0028            cmp         r0,#0x0                                 
ram:0001b7ca    03d0            beq         LAB_0001b7d4                            
ram:0001b7cc    0022            movs        r2,#0x0                                 
ram:0001b7ce    1146            mov         r1,r2                                   
ram:0001b7d0    fdf740fa        bl          FUN_00018c54                            ;undefined FUN_00018c54(void)
                            LAB_0001b7d4:                 ;XREF[1,0]:   0001b7ca
ram:0001b7d4    0020            movs        r0,#0x0                                 
ram:0001b7d6    0090            str         r0,[sp,#0x0]=>local_20                  
ram:0001b7d8    0290            str         r0,[sp,#local_18+0x20]                  
ram:0001b7da    0e48            ldr         r0,[PTR_LAB_0001a0f0+1+1_0001b814]      ;= 0001a0f1
ram:0001b7dc    0190            str         r0=>LAB_0001a0f0+1+1,[sp,#local_1c+0x20]
ram:0001b7de    0120            movs        r0,#0x1                                 
ram:0001b7e0    6946            mov         r1,sp                                   
ram:0001b7e2    0880            strh        r0,[r1,#0x0]=>local_20                  
ram:0001b7e4    0a48            ldr         r0,[DAT_0001b810]                       ;= 200025F8h
ram:0001b7e6    4430            adds        r0,#0x44                                
ram:0001b7e8    fdf738ff        bl          FUN_0001965c                            ;undefined4 * FUN_0001965c(undefined2...
ram:0001b7ec    0028            cmp         r0,#0x0                                 
ram:0001b7ee    03d0            beq         LAB_0001b7f8                            
ram:0001b7f0    0022            movs        r2,#0x0                                 
ram:0001b7f2    1146            mov         r1,r2                                   
ram:0001b7f4    fdf72efa        bl          FUN_00018c54                            ;undefined FUN_00018c54(void)
                            LAB_0001b7f8:                 ;XREF[1,0]:   0001b7ee
ram:0001b7f8    0748            ldr         r0,[DAT_0001b818]                       ;= 0001B629h
ram:0001b7fa    fef7e3fc        bl          FUN_0001a1c4                            ;undefined FUN_0001a1c4(undefined4 pa...
ram:0001b7fe    07b0            add         sp,#0x1c                                
ram:0001b800    00bd            pop         {pc}                                    
ram:0001b802    0000            movs        r0,r0                                   
                            PTR_LAB_0001baf8+1+1_0001b804:;XREF[1,0]:   0001b7b4
ram:0001b804    f9ba0100        addr        LAB_0001baf8+1+1                        
                            PTR_LAB_0001bce8+1+1_0001b808:;XREF[1,0]:   0001b7b8
ram:0001b808    e9bc0100        addr        LAB_0001bce8+1+1                        
                            PTR_LAB_00019304+1+1_0001b80c:;XREF[1,0]:   0001b7bc
ram:0001b80c    05930100        addr        LAB_00019304+1+1                        
                            DAT_0001b810:                 ;XREF[2,0]:   0001b7c2,0001b7e4
ram:0001b810    f8250020        undefined4  200025F8h                               
                            PTR_LAB_0001a0f0+1+1_0001b814:;XREF[1,0]:   0001b7da
ram:0001b814    f1a00100        addr        LAB_0001a0f0+1+1                        
                            DAT_0001b818:                 ;XREF[1,0]:   0001b7f8
ram:0001b818    29b60100        undefined4  0001B629h                               ;?  ->  0001b629
                            ;************************************************************************************************
                            ;*                                           FUNCTION                                           *
                            ;************************************************************************************************
                            ;undefined4 FUN_0001b81c(int param_1)
          ;param_1       int                 r0                      
                                                          ;XREF[3,0]:   00019a32,0001bb58,0001bbf8
ram:0001b81c    30b5            push        {r4,r5,lr}                              
ram:0001b81e    2049            ldr         r1,[DAT_0001b8a0]                       ;= 2000201Ch
ram:0001b820    0a68            ldr         r2,[r1,#0x0]=>DAT_2000201c              
ram:0001b822    d207            lsls        r2,r2,#0x1f                             
ram:0001b824    01d0            beq         LAB_0001b82a                            
ram:0001b826    0320            movs        param_1,#0x3                            
ram:0001b828    30bd            pop         {r4,r5,pc}                              
                            LAB_0001b82a:                 ;XREF[1,0]:   0001b824
ram:0001b82a    1d4a            ldr         r2,[DAT_0001b8a0]                       ;= 2000201Ch
ram:0001b82c    0125            movs        r5,#0x1                                 
ram:0001b82e    1c3a            subs        r2,#0x1c                                
ram:0001b830    5378            ldrb        r3,[r2,#offset DAT_20002001 &0xff]      
ram:0001b832    0324            movs        r4,#0x3                                 
ram:0001b834    6403            lsls        r4,r4,#0xd                              
ram:0001b836    2b43            orrs        r3,r5                                   
ram:0001b838    0028            cmp         param_1,#0x0                            
ram:0001b83a    07d0            beq         LAB_0001b84c                            
ram:0001b83c    0128            cmp         param_1,#0x1                            
ram:0001b83e    0ed0            beq         LAB_0001b85e                            
ram:0001b840    6d03            lsls        r5,r5,#0xd                              
ram:0001b842    0228            cmp         param_1,#0x2                            
ram:0001b844    14d0            beq         LAB_0001b870                            
ram:0001b846    ad28            cmp         param_1,#0xad                           
ram:0001b848    28d1            bne         LAB_0001b89c                            
ram:0001b84a    1de0            b           LAB_0001b888                            
                            LAB_0001b84c:                 ;XREF[1,0]:   0001b83a
ram:0001b84c    0868            ldr         param_1,[r1,#0x0]=>DAT_2000201c         
ram:0001b84e    0d68            ldr         r5,[r1,#0x0]=>DAT_2000201c              
ram:0001b850    8007            lsls        param_1,param_1,#0x1e                   
ram:0001b852    c00f            lsrs        param_1,param_1,#0x1f                   
ram:0001b854    4003            lsls        param_1,param_1,#0xd                    
ram:0001b856    a543            bics        r5,r4                                   
ram:0001b858    0543            orrs        r5,param_1                              
ram:0001b85a    0d60            str         r5,[r1,#0x0]=>DAT_2000201c              
ram:0001b85c    11e0            b           LAB_0001b882                            
                            LAB_0001b85e:                 ;XREF[1,0]:   0001b83e
ram:0001b85e    0868            ldr         param_1,[r1,#0x0]=>DAT_2000201c         
ram:0001b860    8007            lsls        param_1,param_1,#0x1e                   
ram:0001b862    c00f            lsrs        param_1,param_1,#0x1f                   
ram:0001b864    6840            eors        param_1,r5                              
ram:0001b866    4503            lsls        r5,param_1,#0xd                         
ram:0001b868    0868            ldr         param_1,[r1,#0x0]=>DAT_2000201c         
ram:0001b86a    a043            bics        param_1,r4                              
ram:0001b86c    2843            orrs        param_1,r5                              
ram:0001b86e    07e0            b           LAB_0001b880                            
                            LAB_0001b870:                 ;XREF[1,0]:   0001b844
ram:0001b870    0868            ldr         param_1,[r1,#0x0]=>DAT_2000201c         
ram:0001b872    4007            lsls        param_1,param_1,#0x1d                   
ram:0001b874    0868            ldr         param_1,[r1,#0x0]=>DAT_2000201c         
ram:0001b876    02d4            bmi         LAB_0001b87e                            
ram:0001b878    a043            bics        param_1,r4                              
ram:0001b87a    4019            adds        param_1,param_1,r5                      
ram:0001b87c    00e0            b           LAB_0001b880                            
                            LAB_0001b87e:                 ;XREF[1,0]:   0001b876
ram:0001b87e    a043            bics        param_1,r4                              
                            LAB_0001b880:                 ;XREF[2,0]:   0001b86e,0001b87c
ram:0001b880    0860            str         param_1,[r1,#0x0]=>DAT_2000201c         
                            LAB_0001b882:                 ;XREF[1,0]:   0001b85c
ram:0001b882    5370            strb        r3,[r2,#offset DAT_20002001 &0xff]      
ram:0001b884    0020            movs        param_1,#0x0                            
ram:0001b886    30bd            pop         {r4,r5,pc}                              
                            LAB_0001b888:                 ;XREF[1,0]:   0001b84a
ram:0001b888    0868            ldr         param_1,[r1,#0x0]=>DAT_2000201c         
ram:0001b88a    4007            lsls        param_1,param_1,#0x1d                   
ram:0001b88c    0868            ldr         param_1,[r1,#0x0]=>DAT_2000201c         
ram:0001b88e    02d4            bmi         LAB_0001b896                            
ram:0001b890    a043            bics        param_1,r4                              
ram:0001b892    4019            adds        param_1,param_1,r5                      
ram:0001b894    00e0            b           LAB_0001b898                            
                            LAB_0001b896:                 ;XREF[1,0]:   0001b88e
ram:0001b896    a043            bics        param_1,r4                              
                            LAB_0001b898:                 ;XREF[1,0]:   0001b894
ram:0001b898    0860            str         param_1,[r1,#0x0]=>DAT_2000201c         
ram:0001b89a    5370            strb        r3,[r2,#offset DAT_20002001 &0xff]      
                            LAB_0001b89c:                 ;XREF[1,0]:   0001b848
ram:0001b89c    0220            movs        param_1,#0x2                            
ram:0001b89e    30bd            pop         {r4,r5,pc}                              
                            DAT_0001b8a0:                 ;XREF[2,0]:   0001b81e,0001b82a
ram:0001b8a0    1c200020        undefined4  2000201Ch                               
                            ;************************************************************************************************
                            ;*                                           FUNCTION                                           *
                            ;************************************************************************************************
                            ;char FUN_0001b8a4(int param_1, int param_2)
          ;param_1       int                 r0                      
          ;param_2       int                 r1                      
                                                          ;XREF[2,0]:   00018e1c,00018e58
ram:0001b8a4    10b5            push        {r4,lr}                                 
ram:0001b8a6    0023            movs        r3,#0x0                                 
ram:0001b8a8    1a46            mov         r2,r3                                   
ram:0001b8aa    02e0            b           LAB_0001b8b2                            
                            LAB_0001b8ac:                 ;XREF[1,0]:   0001b8b4
ram:0001b8ac    845c            ldrb        r4,[param_1,r2]                         
ram:0001b8ae    e318            adds        r3,r4,r3                                
ram:0001b8b0    521c            adds        r2,r2,#0x1                              
                            LAB_0001b8b2:                 ;XREF[1,0]:   0001b8aa
ram:0001b8b2    8a42            cmp         r2,param_2                              
ram:0001b8b4    fadb            blt         LAB_0001b8ac                            
ram:0001b8b6    d8b2            uxtb        param_1,r3                              
ram:0001b8b8    10bd            pop         {r4,pc}                                 
                            ;************************************************************************************************
                            ;*                                           FUNCTION                                           *
                            ;************************************************************************************************
                            ;undefined8 FUN_0001b8ba(undefined4 param_1, undefined4 param_2, undefined4 param_3)
          ;param_1       undefined4          r0                      
          ;param_2       undefined4          r1                      
          ;param_3       undefined4          r2                      
                                                          ;XREF[0,1]:   0001b908
ram:0001b8ba    10b5            push        {r4,lr}                                 
ram:0001b8bc    0846            mov         param_1,param_2                         
ram:0001b8be    1146            mov         param_2,param_3                         
ram:0001b8c0    c046            mov         r8,r8                                   
ram:0001b8c2    c046            mov         r8,r8                                   
ram:0001b8c4    10bd            pop         {r4,pc}                                 
ram:0001b8c6    0000            movs        r0,r0                                   
                            ;************************************************************************************************
                            ;*                                           FUNCTION                                           *
                            ;************************************************************************************************
                            ;undefined4 FUN_0001b8c8(int param_1)
          ;param_1       int                 r0                      
                                                          ;XREF[1,0]:   00019920
ram:0001b8c8    0028            cmp         param_1,#0x0                            
ram:0001b8ca    03d0            beq         LAB_0001b8d4                            
ram:0001b8cc    0249            ldr         r1,[DAT_0001b8d8]                       ;= 20002134h
ram:0001b8ce    c860            str         param_1,[r1,#0xc]=>DAT_20002140         
ram:0001b8d0    0020            movs        param_1,#0x0                            
ram:0001b8d2    7047            bx          lr                                      
                            LAB_0001b8d4:                 ;XREF[1,0]:   0001b8ca
ram:0001b8d4    0e20            movs        param_1,#0xe                            
ram:0001b8d6    7047            bx          lr                                      
                            DAT_0001b8d8:                 ;XREF[1,0]:   0001b8cc
ram:0001b8d8    34210020        undefined4  20002134h                               
                            ;************************************************************************************************
                            ;*                                           FUNCTION                                           *
                            ;************************************************************************************************
                            ;undefined8 FUN_0001b8dc(int param_1, undefined * param_2, undefined2 param_3, undefined4 param_4)
          ;param_1       int                 r0                      
          ;param_2       undefined *         r1                      
          ;param_3       undefined2          r2                      
          ;param_4       undefined4          r3                      
                                                          ;XREF[1,0]:   000198f2
ram:0001b8dc    70b5            push        {r4,r5,r6,lr}                           
ram:0001b8de    0029            cmp         param_2,#0x0                            
ram:0001b8e0    01d0            beq         LAB_0001b8e6                            
ram:0001b8e2    8c07            lsls        r4,param_2,#0x1e                        
ram:0001b8e4    01d0            beq         LAB_0001b8ea                            
                            LAB_0001b8e6:                 ;XREF[1,0]:   0001b8e0
ram:0001b8e6    0720            movs        param_1,#0x7                            
                            LAB_0001b8e8:                 ;XREF[1,0]:   0001b8fa
ram:0001b8e8    70bd            pop         {r4,r5,r6,pc}                           
                            LAB_0001b8ea:                 ;XREF[1,0]:   0001b8e4
ram:0001b8ea    064c            ldr         r4,[DAT_0001b904]                       ;= 20002134h
ram:0001b8ec    0125            movs        r5,#0x1                                 
ram:0001b8ee    a160            str         param_2,[r4,#0x8]=>DAT_2000213c         
ram:0001b8f0    6280            strh        param_3,[r4,#0x2]=>DAT_20002136         
ram:0001b8f2    0549            ldr         param_2,[PTR_FUN_0001b8ba+1_0001b908]   ;= 0001b8bb
ram:0001b8f4    6360            str         param_4,[r4,#0x4]=>DAT_20002138         
ram:0001b8f6    10df            svc         0x10                                    
ram:0001b8f8    0028            cmp         param_1,#0x0                            
ram:0001b8fa    f5d1            bne         LAB_0001b8e8                            
ram:0001b8fc    2570            strb        r5,[r4,#0x0]=>DAT_20002134              
ram:0001b8fe    1620            movs        param_1,#0x16                           
ram:0001b900    2edf            svc         0x2e                                    
ram:0001b902    70bd            pop         {r4,r5,r6,pc}                           
                            DAT_0001b904:                 ;XREF[1,0]:   0001b8ea
ram:0001b904    34210020        undefined4  20002134h                               
                            PTR_FUN_0001b8ba+1_0001b908:  ;XREF[1,0]:   0001b8f2
ram:0001b908    bbb80100        addr        FUN_0001b8ba+1                          
                            ;************************************************************************************************
                            ;*                                           FUNCTION                                           *
                            ;************************************************************************************************
                            ;undefined4 FUN_0001b90c(int param_1)
          ;param_1       int                 r0                      
                                                          ;XREF[1,0]:   00019932
ram:0001b90c    0028            cmp         param_1,#0x0                            
ram:0001b90e    03d0            beq         LAB_0001b918                            
ram:0001b910    0249            ldr         r1,[DAT_0001b91c]                       ;= 20002134h
ram:0001b912    0861            str         param_1,[r1,#0x10]=>DAT_20002144        
ram:0001b914    0020            movs        param_1,#0x0                            
ram:0001b916    7047            bx          lr                                      
                            LAB_0001b918:                 ;XREF[1,0]:   0001b90e
ram:0001b918    0e20            movs        param_1,#0xe                            
ram:0001b91a    7047            bx          lr                                      
                            DAT_0001b91c:                 ;XREF[1,0]:   0001b910
ram:0001b91c    34210020        undefined4  20002134h                               
                            ;************************************************************************************************
                            ;*                                           FUNCTION                                           *
                            ;************************************************************************************************
                            ;undefined FUN_0001b920(undefined4 param_1, undefined4 param_2, uint param_3, uint param_4)
          ;param_1       undefined4          r0                      
          ;param_2       undefined4          r1                      
          ;param_3       uint                r2                      
          ;param_4       uint                r3                      
          ;local_18      undefined4         -18                      ;XREF[1,0]:   0001b92a
          ;local_1c      undefined4         -1c                      ;XREF[2,0]:   0001b928,0001b940
          ;local_28      undefined4         -28                      ;XREF[1,0]:   0001b946
                                                          ;XREF[1,0]:   00019c16
ram:0001b920    ffb5            push        {param_1,param_2,param_3,param_4,r4,r...
ram:0001b922    81b0            sub         sp,#0x4                                 
ram:0001b924    484c            ldr         r4,[DAT_0001ba48]                       ;= 200020C8h
ram:0001b926    0e46            mov         r6,param_2                              
ram:0001b928    039f            ldr         r7,[sp,#local_1c+0x28]                  
ram:0001b92a    049a            ldr         param_3,[sp,#local_18+0x28]             
ram:0001b92c    0546            mov         r5,param_1                              
ram:0001b92e    6178            ldrb        param_2,[r4,#0x1]=>DAT_200020c9         
ram:0001b930    0320            movs        param_1,#0x3                            
ram:0001b932    1743            orrs        r7,param_3                              
ram:0001b934    0029            cmp         param_2,#0x0                            
ram:0001b936    03d1            bne         LAB_0001b940                            
ram:0001b938    002f            cmp         r7,#0x0                                 
ram:0001b93a    0dd0            beq         LAB_0001b958                            
ram:0001b93c    0121            movs        param_2,#0x1                            
                            LAB_0001b93e:                 ;XREF[1,0]:   0001b95a
ram:0001b93e    6170            strb        param_2,[r4,#0x1]=>DAT_200020c9         
                            LAB_0001b940:                 ;XREF[1,0]:   0001b936
ram:0001b940    039a            ldr         param_3,[sp,#local_1c+0x28]             
ram:0001b942    c9b2            uxtb        param_2,param_2                         
ram:0001b944    9200            lsls        param_3,param_3,#0x2                    
ram:0001b946    0092            str         param_3,[sp,#0x0]=>local_28             
ram:0001b948    0b00            movs        param_4,param_2                         
                                                          ; FWD[4,0]:   000188aa,0001b94e,0001b950,0001b951
ram:0001b94a    fcf7aeff        bl          __ARM_common_switch8                    ;undefined __ARM_common_switch8(void)
                                                                                    ;= 07h
                                                                                    ;= 1Bh
                            DAT_0001b94e:                 ;XREF[1,0]:   0001b94a
ram:0001b94e    07              undefined1  07h                                     
ram:0001b94f    2c              ??          2Ch    ,                                
                            DAT_0001b950:                 ;XREF[1,0]:   0001b94a
ram:0001b950    07              undefined1  07h                                     
                            DAT_0001b951:                 ;XREF[1,0]:   0001b94a
ram:0001b951    1b              undefined1  1Bh                                     
ram:0001b952    2e              ??          2Eh    .                                
ram:0001b953    46              ??          46h    F                                
ram:0001b954    5d              ??          5Dh    ]                                
ram:0001b955    6c              ??          6Ch    l                                
ram:0001b956    2c              ??          2Ch    ,                                
ram:0001b957    00              ??          00h                                     
                            LAB_0001b958:                 ;XREF[1,0]:   0001b93a
ram:0001b958    0221            movs        param_2,#0x2                            
ram:0001b95a    f0e7            b           LAB_0001b93e                            
ram:0001b95c    fff706fc        bl          FUN_0001b16c                            ;uint FUN_0001b16c(void)
ram:0001b960    8708            lsrs        r7,r0,#0x2                              
ram:0001b962    fff703fc        bl          FUN_0001b16c                            ;uint FUN_0001b16c(void)
ram:0001b966    7043            muls        r0,r6                                   
ram:0001b968    0546            mov         r5,r0                                   
ram:0001b96a    fff7edfb        bl          FUN_0001b148                            ;int FUN_0001b148(void)
ram:0001b96e    461e            subs        r6,r0,#0x1                              
ram:0001b970    fff7fcfb        bl          FUN_0001b16c                            ;uint FUN_0001b16c(void)
ram:0001b974    7043            muls        r0,r6                                   
ram:0001b976    3a46            mov         r2,r7                                   
ram:0001b978    2946            mov         r1,r5                                   
ram:0001b97a    29df            svc         0x29                                    
ram:0001b97c    0028            cmp         r0,#0x0                                 
ram:0001b97e    12d1            bne         LAB_0001b9a6                            
ram:0001b980    0221            movs        r1,#0x2                                 
ram:0001b982    0fe0            b           FUN_0001b9a4                            ;undefined FUN_0001b9a4(undefined4 pa...
ram:0001b984    3046            mov         r0,r6                                   
ram:0001b986    28df            svc         0x28                                    
ram:0001b988    0028            cmp         r0,#0x0                                 
ram:0001b98a    0cd1            bne         LAB_0001b9a6                            
ram:0001b98c    0399            ldr         r1,[sp,#0xc]                            
ram:0001b98e    0029            cmp         r1,#0x0                                 
ram:0001b990    01d0            beq         LAB_0001b996                            
ram:0001b992    0321            movs        r1,#0x3                                 
ram:0001b994    06e0            b           FUN_0001b9a4                            ;undefined FUN_0001b9a4(undefined4 pa...
                            LAB_0001b996:                 ;XREF[1,0]:   0001b990
ram:0001b996    0499            ldr         r1,[sp,#0x10]                           
ram:0001b998    0029            cmp         r1,#0x0                                 
ram:0001b99a    17d1            bne         LAB_0001b9cc                            
ram:0001b99c    2978            ldrb        r1,[r5,#0x0]                            
ram:0001b99e    0429            cmp         r1,#0x4                                 
ram:0001b9a0    50d0            beq         LAB_0001ba44                            
ram:0001b9a2    18e0            b           LAB_0001b9d6                            
                            ;************************************************************************************************
                            ;*                                           FUNCTION                                           *
                            ;************************************************************************************************
                            ;undefined FUN_0001b9a4(undefined4 param_1, undefined param_2)
          ;param_1       undefined4          r0                      
          ;param_2       undefined           r1                      
                                                          ;XREF[6,0]:   0001b982,0001b994,0001b9ce,0001b9d8
                                                          ;             0001ba24,0001ba46
ram:0001b9a4    6170            strb        param_2,[r4,#0x1]                       
                            LAB_0001b9a6:                 ;XREF[6,0]:   0001b97e,0001b98a,0001b9c4,0001ba06
                                                          ;             0001ba1c,0001ba42
ram:0001b9a6    05b0            add         sp,#0x14                                
ram:0001b9a8    f0bd            pop         {r4,r5,r6,r7,pc}                        
ram:0001b9aa    fff7cdfb        bl          FUN_0001b148                            ;int FUN_0001b148(void)
ram:0001b9ae    471e            subs        r7,r0,#0x1                              
ram:0001b9b0    fff7dcfb        bl          FUN_0001b16c                            ;uint FUN_0001b16c(void)
ram:0001b9b4    4743            muls        r7,r0                                   
ram:0001b9b6    fff7d9fb        bl          FUN_0001b16c                            ;uint FUN_0001b16c(void)
ram:0001b9ba    7043            muls        r0,r6                                   
ram:0001b9bc    3946            mov         r1,r7                                   
ram:0001b9be    039a            ldr         r2,[sp,#0xc]                            
ram:0001b9c0    29df            svc         0x29                                    
ram:0001b9c2    0028            cmp         r0,#0x0                                 
ram:0001b9c4    efd1            bne         LAB_0001b9a6                            
ram:0001b9c6    0499            ldr         r1,[sp,#0x10]                           
ram:0001b9c8    0029            cmp         r1,#0x0                                 
ram:0001b9ca    01d0            beq         FUN_0001b9d0                            
                            LAB_0001b9cc:                 ;XREF[1,0]:   0001b99a
ram:0001b9cc    0421            movs        r1,#0x4                                 
ram:0001b9ce    e9e7            b           FUN_0001b9a4                            ;undefined FUN_0001b9a4(undefined4 pa...
                            ;************************************************************************************************
                            ;*                                           FUNCTION                                           *
                            ;************************************************************************************************
                            ;undefined FUN_0001b9d0(undefined4 param_1)
          ;param_1       undefined4          r0                      
                                                          ;XREF[2,0]:   0001b9ca,0001ba04
ram:0001b9d0    2978            ldrb        r1,[r5,#0x0]                            
ram:0001b9d2    0429            cmp         r1,#0x4                                 
ram:0001b9d4    25d0            beq         LAB_0001ba22                            
                            LAB_0001b9d6:                 ;XREF[1,0]:   0001b9a2
ram:0001b9d6    0521            movs        r1,#0x5                                 
ram:0001b9d8    e4e7            b           FUN_0001b9a4                            ;undefined FUN_0001b9a4(undefined4 pa...
ram:0001b9da    fff7b5fb        bl          FUN_0001b148                            ;int FUN_0001b148(void)
ram:0001b9de    471e            subs        r7,r0,#0x1                              
ram:0001b9e0    fff7c4fb        bl          FUN_0001b16c                            ;uint FUN_0001b16c(void)
ram:0001b9e4    4743            muls        r7,r0                                   
ram:0001b9e6    6888            ldrh        r0,[r5,#0x2]                            
ram:0001b9e8    3918            adds        r1,r7,r0                                
ram:0001b9ea    0098            ldr         r0,[sp,#0x0]                            
ram:0001b9ec    0f18            adds        r7,r1,r0                                
ram:0001b9ee    fff7bdfb        bl          FUN_0001b16c                            ;uint FUN_0001b16c(void)
ram:0001b9f2    6988            ldrh        r1,[r5,#0x2]                            
ram:0001b9f4    7043            muls        r0,r6                                   
ram:0001b9f6    4118            adds        r1,r0,r1                                
ram:0001b9f8    0098            ldr         r0,[sp,#0x0]                            
ram:0001b9fa    049a            ldr         r2,[sp,#0x10]                           
ram:0001b9fc    0818            adds        r0,r1,r0                                
ram:0001b9fe    3946            mov         r1,r7                                   
ram:0001ba00    29df            svc         0x29                                    
ram:0001ba02    0028            cmp         r0,#0x0                                 
ram:0001ba04    e4d0            beq         FUN_0001b9d0                            
ram:0001ba06    cee7            b           LAB_0001b9a6                            
ram:0001ba08    fff7b0fb        bl          FUN_0001b16c                            ;uint FUN_0001b16c(void)
ram:0001ba0c    0099            ldr         r1,[sp,#0x0]                            
ram:0001ba0e    7043            muls        r0,r6                                   
ram:0001ba10    4018            adds        r0,r0,r1                                
ram:0001ba12    6988            ldrh        r1,[r5,#0x2]                            
ram:0001ba14    8a08            lsrs        r2,r1,#0x2                              
ram:0001ba16    2969            ldr         r1,[r5,#0x10]                           
ram:0001ba18    29df            svc         0x29                                    
ram:0001ba1a    0028            cmp         r0,#0x0                                 
ram:0001ba1c    c3d1            bne         LAB_0001b9a6                            
ram:0001ba1e    002f            cmp         r7,#0x0                                 
ram:0001ba20    10d0            beq         LAB_0001ba44                            
                            LAB_0001ba22:                 ;XREF[1,0]:   0001b9d4
ram:0001ba22    0621            movs        r1,#0x6                                 
ram:0001ba24    bee7            b           FUN_0001b9a4                            ;undefined FUN_0001b9a4(undefined4 pa...
ram:0001ba26    fff7a1fb        bl          FUN_0001b16c                            ;uint FUN_0001b16c(void)
ram:0001ba2a    0646            mov         r6,r0                                   
ram:0001ba2c    fff78cfb        bl          FUN_0001b148                            ;int FUN_0001b148(void)
ram:0001ba30    451e            subs        r5,r0,#0x1                              
ram:0001ba32    fff79bfb        bl          FUN_0001b16c                            ;uint FUN_0001b16c(void)
ram:0001ba36    6843            muls        r0,r5                                   
ram:0001ba38    3146            mov         r1,r6                                   
ram:0001ba3a    fcf7a9fb        bl          FUN_00018190                            ;int FUN_00018190(uint param_1, uint ...
ram:0001ba3e    28df            svc         0x28                                    
ram:0001ba40    0028            cmp         r0,#0x0                                 
ram:0001ba42    b0d1            bne         LAB_0001b9a6                            
                            LAB_0001ba44:                 ;XREF[2,0]:   0001b9a0,0001ba20
ram:0001ba44    0721            movs        r1,#0x7                                 
ram:0001ba46    ade7            b           FUN_0001b9a4                            ;undefined FUN_0001b9a4(undefined4 pa...
                            DAT_0001ba48:                 ;XREF[1,0]:   0001b924
ram:0001ba48    c8200020        undefined4  200020C8h                               
                            ;************************************************************************************************
                            ;*                                           FUNCTION                                           *
                            ;************************************************************************************************
                            ;undefined8 FUN_0001ba4c(ushort * param_1)
          ;param_1       ushort *            r0                      
          ;local_18      undefined4         -18                      ;XREF[1,0]:   0001bae0
          ;local_1c      undefined2         -1c                      ;XREF[1,0]:   0001bade
          ;local_1e      undefined2         -1e                      ;XREF[1,0]:   0001badc
          ;local_20      undefined2         -20                      ;XREF[1,0]:   0001bad8
          ;local_24      undefined4         -24                      ;XREF[1,0]:   0001bad4
          ;local_28      undefined4         -28                      ;XREF[1,0]:   0001bad0
          ;local_2a      undefined1         -2a                      ;XREF[1,0]:   0001baa0
          ;local_2c      undefined2         -2c                      ;XREF[1,0]:   0001baa6
          ;local_30      undefined4         -30                      ;XREF[2,3]:   0001ba5e,0001ba60,0001ba6a,0001ba6c,0001ba74
          ;local_34      undefined4         -34                      ;XREF[1,0]:   0001ba98
          ;local_38      undefined4         -38                      ;XREF[1,0]:   0001ba92
          ;local_3c      undefined4         -3c                      ;XREF[1,0]:   0001ba96
          ;local_40      undefined4         -40                      ;XREF[1,0]:   0001ba94
          ;local_48      undefined4         -48                      ;XREF[1,0]:   0001ba90
          ;local_4c      undefined1         -4c                      ;XREF[2,0]:   0001ba80,0001ba8c
          ;local_50      undefined4         -50                      ;XREF[2,3]:   0001baaa,0001baac,0001baae,0001bab0,0001bac4
                                                          ;XREF[1,0]:   00019844
ram:0001ba4c    70b5            push        {r4,r5,r6,lr}                           
ram:0001ba4e    0024            movs        r4,#0x0                                 
ram:0001ba50    0546            mov         r5,param_1                              
ram:0001ba52    601c            adds        param_1,r4,#0x1                         
ram:0001ba54    90b0            sub         sp,#0x40                                
ram:0001ba56    0007            lsls        param_1,param_1,#0x1c                   
ram:0001ba58    000f            lsrs        param_1,param_1,#0x1c                   
ram:0001ba5a    08a9            add         r1,sp,#0x20                             
ram:0001ba5c    1030            adds        param_1,#0x10                           
ram:0001ba5e    0894            str         r4,[sp,#local_30+0x50]                  
ram:0001ba60    0870            strb        param_1,[r1,#0x0]=>local_30             
ram:0001ba62    601c            adds        param_1,r4,#0x1                         
ram:0001ba64    0007            lsls        param_1,param_1,#0x1c                   
ram:0001ba66    000f            lsrs        param_1,param_1,#0x1c                   
ram:0001ba68    1030            adds        param_1,#0x10                           
ram:0001ba6a    4870            strb        param_1,[r1,#local_30+0x31]             
ram:0001ba6c    8878            ldrb        param_1,[r1,#local_30+0x32]             
ram:0001ba6e    f926            movs        r6,#0xf9                                
ram:0001ba70    3040            ands        param_1,r6                              
ram:0001ba72    801c            adds        param_1,param_1,#0x2                    
ram:0001ba74    8870            strb        param_1,[r1,#local_30+0x32]             
ram:0001ba76    1c21            movs        r1,#0x1c                                
ram:0001ba78    01a8            add         param_1,sp,#0x4                         
ram:0001ba7a    fcf7b8fb        bl          FUN_000181ee                            ;undefined FUN_000181ee(undefined * p...
ram:0001ba7e    6946            mov         r1,sp                                   
ram:0001ba80    0879            ldrb        param_1,[r1,#local_4c+0x50]             
ram:0001ba82    fd21            movs        r1,#0xfd                                
ram:0001ba84    0840            ands        param_1,r1                              
ram:0001ba86    1821            movs        r1,#0x18                                
ram:0001ba88    0843            orrs        param_1,r1                              
ram:0001ba8a    6946            mov         r1,sp                                   
ram:0001ba8c    0871            strb        param_1,[r1,#local_4c+0x50]             
ram:0001ba8e    08a8            add         param_1,sp,#0x20                        
ram:0001ba90    0294            str         r4,[sp,#local_48+0x50]                  
ram:0001ba92    0690            str         param_1,[sp,#local_38+0x50]             
ram:0001ba94    0494            str         r4,[sp,#local_40+0x50]                  
ram:0001ba96    0594            str         r4,[sp,#local_3c+0x50]                  
ram:0001ba98    0794            str         r4,[sp,#local_34+0x50]                  
ram:0001ba9a    3220            movs        param_1,#0x32                           
ram:0001ba9c    405d            ldrb        param_1,[param_1,r5]                    
ram:0001ba9e    08a9            add         r1,sp,#0x20                             
ram:0001baa0    8871            strb        param_1,[r1,#local_2a+0x30]             
ram:0001baa2    1448            ldr         param_1,[DAT_0001baf4]                  ;= 00001526h
ram:0001baa4    6946            mov         r1,sp                                   
ram:0001baa6    8884            strh        param_1,[r1,#local_2c+0x50]             
ram:0001baa8    1120            movs        param_1,#0x11                           
ram:0001baaa    0094            str         r4,[sp,#0x0]=>local_50                  
ram:0001baac    0870            strb        param_1,[r1,#0x0]=>local_50             
ram:0001baae    4870            strb        param_1,[r1,#local_50+0x51]             
ram:0001bab0    8878            ldrb        param_1,[r1,#local_50+0x52]             
ram:0001bab2    f721            movs        r1,#0xf7                                
ram:0001bab4    3040            ands        param_1,r6                              
ram:0001bab6    801c            adds        param_1,param_1,#0x2                    
ram:0001bab8    0840            ands        param_1,r1                              
ram:0001baba    ef21            movs        r1,#0xef                                
ram:0001babc    0840            ands        param_1,r1                              
ram:0001babe    0126            movs        r6,#0x1                                 
ram:0001bac0    3043            orrs        param_1,r6                              
ram:0001bac2    6946            mov         r1,sp                                   
ram:0001bac4    8870            strb        param_1,[r1,#local_50+0x52]             
ram:0001bac6    1421            movs        r1,#0x14                                
ram:0001bac8    0aa8            add         param_1,sp,#0x28                        
ram:0001baca    fcf790fb        bl          FUN_000181ee                            ;undefined FUN_000181ee(undefined * p...
ram:0001bace    09a8            add         param_1,sp,#0x24                        
ram:0001bad0    0a90            str         param_1,[sp,#local_28+0x50]             
ram:0001bad2    6846            mov         param_1,sp                              
ram:0001bad4    0b90            str         param_1,[sp,#local_24+0x50]             
ram:0001bad6    6946            mov         r1,sp                                   
ram:0001bad8    0e86            strh        r6,[r1,#local_20+0x50]                  
ram:0001bada    0620            movs        param_1,#0x6                            
ram:0001badc    4c86            strh        r4,[r1,#local_1e+0x50]                  
ram:0001bade    8886            strh        param_1,[r1,#local_1c+0x50]             
ram:0001bae0    0e94            str         r4,[sp,#local_18+0x50]                  
ram:0001bae2    2b46            mov         r3,r5                                   
ram:0001bae4    2888            ldrh        param_1,[r5,#0x0]                       
ram:0001bae6    1233            adds        r3,#0x12                                
ram:0001bae8    0aaa            add         r2,sp,#0x28                             
ram:0001baea    01a9            add         r1,sp,#0x4                              
ram:0001baec    a2df            svc         0xa2                                    
ram:0001baee    10b0            add         sp,#0x40                                
ram:0001baf0    70bd            pop         {r4,r5,r6,pc}                           
ram:0001baf2    0000            movs        r0,r0                                   
                            DAT_0001baf4:                 ;XREF[1,0]:   0001baa2
ram:0001baf4    26150000        undefined4  00001526h                               
                            ;************************************************************************************************
                            ;*                                           FUNCTION                                           *
                            ;************************************************************************************************
                            ;undefined LAB_0001baf8+1(undefined4 * param_1, uint param_2, undefined4 param_3, undefined4 param_4)
          ;param_1       undefined4 *        r0                      
          ;param_2       uint                r1                      
          ;param_3       undefined4          r2                      
          ;param_4       undefined4          r3                      
          ;local_1d      undefined1         -1d                      ;XREF[1,0]:   0001bba6
          ;local_1e      undefined1         -1e                      ;XREF[1,0]:   0001bb36
          ;local_1f      undefined1         -1f                      ;XREF[1,0]:   0001bb34
                                                          ;XREF[0,2]:   0001b7b6,0001b804
ram:0001baf8    feb5            push        {param_2,param_3,param_4,r4,r5,r6,r7,lr}
ram:0001bafa    0f46            mov         r7,param_2                              
ram:0001bafc    0546            mov         r5,param_1                              
ram:0001bafe    0679            ldrb        r6,[param_1,#0x4]                       
ram:0001bb00    0146            mov         param_2,param_1                         
ram:0001bb02    0024            movs        r4,#0x0                                 
ram:0001bb04    0422            movs        param_3,#0x4                            
ram:0001bb06    01a8            add         param_1,sp,#0x4                         
ram:0001bb08    fcf758fb        bl          FUN_000181bc                            ;undefined FUN_000181bc(undefined4 * ...
ram:0001bb0c    3946            mov         param_2,r7                              
ram:0001bb0e    2846            mov         param_1,r5                              
ram:0001bb10    fdf7c0fc        bl          FUN_00019494                            ;undefined4 FUN_00019494(int param_1,...
ram:0001bb14    0006            lsls        param_1,param_1,#0x18                   
ram:0001bb16    000e            lsrs        param_1,param_1,#0x18                   
ram:0001bb18    0bd1            bne         LAB_0001bb32                            
ram:0001bb1a    7f1f            subs        r7,r7,#0x5                              
ram:0001bb1c    fab2            uxtb        param_3,r7                              
ram:0001bb1e    012e            cmp         r6,#0x1                                 
ram:0001bb20    17d0            beq         LAB_0001bb52                            
ram:0001bb22    2249            ldr         param_2,[DAT_0001bbac]                  ;= 2000201Ch
ram:0001bb24    022e            cmp         r6,#0x2                                 
ram:0001bb26    1dd0            beq         LAB_0001bb64                            
ram:0001bb28    032e            cmp         r6,#0x3                                 
ram:0001bb2a    23d0            beq         LAB_0001bb74                            
ram:0001bb2c    042e            cmp         r6,#0x4                                 
ram:0001bb2e    35d0            beq         LAB_0001bb9c                            
ram:0001bb30    0120            movs        param_1,#0x1                            
                            LAB_0001bb32:                 ;XREF[5,0]:   0001bb18,0001bb5e,0001bb62,0001bb9a
                                                          ;             0001bba8
ram:0001bb32    6946            mov         param_2,sp                              
ram:0001bb34    4e70            strb        r6,[r1,#local_1f+0x20]                  
ram:0001bb36    8870            strb        param_1,[r1,#local_1e+0x20]             
ram:0001bb38    1d48            ldr         param_1,[DAT_0001bbb0]                  ;= 200025F8h
ram:0001bb3a    e31c            adds        param_4,r4,#0x3                         
ram:0001bb3c    418a            ldrh        param_2,[param_1,#0x12]=>DAT_2000260a   
ram:0001bb3e    6a46            mov         param_3,sp                              
ram:0001bb40    fff7bafd        bl          FUN_0001b6b8                            ;undefined8 FUN_0001b6b8(int param_1,...
ram:0001bb44    0028            cmp         param_1,#0x0                            
ram:0001bb46    03d0            beq         LAB_0001bb50                            
ram:0001bb48    0022            movs        param_3,#0x0                            
ram:0001bb4a    1146            mov         param_2,param_3                         
ram:0001bb4c    fdf782f8        bl          FUN_00018c54                            ;undefined FUN_00018c54(void)
                            LAB_0001bb50:                 ;XREF[1,0]:   0001bb46
ram:0001bb50    febd            pop         {param_2,param_3,param_4,r4,r5,r6,r7,pc}
                            LAB_0001bb52:                 ;XREF[1,0]:   0001bb20
ram:0001bb52    012a            cmp         param_3,#0x1                            
ram:0001bb54    04d1            bne         LAB_0001bb60                            
ram:0001bb56    6879            ldrb        param_1,[r5,#0x5]                       
ram:0001bb58    fff760fe        bl          FUN_0001b81c                            ;undefined4 FUN_0001b81c(int param_1)
ram:0001bb5c    c0b2            uxtb        param_1,param_1                         
ram:0001bb5e    e8e7            b           LAB_0001bb32                            
                            LAB_0001bb60:                 ;XREF[3,0]:   0001bb54,0001bb76,0001bb80
ram:0001bb60    0220            movs        param_1,#0x2                            
ram:0001bb62    e6e7            b           LAB_0001bb32                            
                            LAB_0001bb64:                 ;XREF[1,0]:   0001bb26
ram:0001bb64    0a68            ldr         param_3,[param_2,#0x0]=>DAT_2000201c    
ram:0001bb66    0124            movs        r4,#0x1                                 
ram:0001bb68    0968            ldr         param_2,[param_2,#0x0]=>DAT_2000201c    
ram:0001bb6a    5207            lsls        param_3,param_3,#0x1d                   
ram:0001bb6c    8907            lsls        param_2,param_2,#0x1e                   
ram:0001bb6e    4a40            eors        param_3,param_2                         
ram:0001bb70    d10f            lsrs        param_2,param_3,#0x1f                   
ram:0001bb72    17e0            b           LAB_0001bba4                            
                            LAB_0001bb74:                 ;XREF[1,0]:   0001bb2a
ram:0001bb74    012a            cmp         param_3,#0x1                            
ram:0001bb76    f3d1            bne         LAB_0001bb60                            
ram:0001bb78    6a79            ldrb        param_3,[r5,#0x5]                       
ram:0001bb7a    002a            cmp         param_3,#0x0                            
ram:0001bb7c    01d0            beq         LAB_0001bb82                            
ram:0001bb7e    012a            cmp         param_3,#0x1                            
ram:0001bb80    eed1            bne         LAB_0001bb60                            
                            LAB_0001bb82:                 ;XREF[1,0]:   0001bb7c
ram:0001bb82    0d68            ldr         r5,[param_2,#0x0]=>DAT_2000201c         
ram:0001bb84    0223            movs        param_4,#0x2                            
ram:0001bb86    d207            lsls        param_3,param_3,#0x1f                   
ram:0001bb88    9d43            bics        r5,param_4                              
ram:0001bb8a    920f            lsrs        param_3,param_3,#0x1e                   
ram:0001bb8c    1543            orrs        r5,param_3                              
ram:0001bb8e    0d60            str         r5,[param_2,#0x0]=>DAT_2000201c         
ram:0001bb90    0649            ldr         param_2,[DAT_0001bbac]                  ;= 2000201Ch
ram:0001bb92    1c39            subs        param_2,#0x1c                           
ram:0001bb94    4a78            ldrb        param_3,[param_2,#offset DAT_20002001...
ram:0001bb96    1a43            orrs        param_3,param_4                         
ram:0001bb98    4a70            strb        param_3,[param_2,#offset DAT_20002001...
ram:0001bb9a    cae7            b           LAB_0001bb32                            
                            LAB_0001bb9c:                 ;XREF[1,0]:   0001bb2e
ram:0001bb9c    0968            ldr         param_2,[param_2,#0x0]=>DAT_2000201c    
ram:0001bb9e    0124            movs        r4,#0x1                                 
ram:0001bba0    8907            lsls        param_2,param_2,#0x1e                   
ram:0001bba2    c90f            lsrs        param_2,param_2,#0x1f                   
                            LAB_0001bba4:                 ;XREF[1,0]:   0001bb72
ram:0001bba4    6a46            mov         param_3,sp                              
ram:0001bba6    d170            strb        param_2,[r2,#local_1d+0x20]             
ram:0001bba8    c3e7            b           LAB_0001bb32                            
ram:0001bbaa    0000            movs        r0,r0                                   
                            DAT_0001bbac:                 ;XREF[2,0]:   0001bb22,0001bb90
ram:0001bbac    1c200020        undefined4  2000201Ch                               
                            DAT_0001bbb0:                 ;XREF[1,0]:   0001bb38
ram:0001bbb0    f8250020        undefined4  200025F8h                               
                            ;************************************************************************************************
                            ;*                                           FUNCTION                                           *
                            ;************************************************************************************************
                            ;undefined LAB_0001bbb4+1(undefined4 param_1, undefined4 param_2, uint param_3, undefined4 param_4)
          ;param_1       undefined4          r0                      
          ;param_2       undefined4          r1                      
          ;param_3       uint                r2                      
          ;param_4       undefined4          r3                      
          ;local_14      undefined4         -14                      ;XREF[1,0]:   0001bbe6
          ;local_18      undefined4         -18                      ;XREF[1,0]:   0001bbe8
                                                          ;XREF[0,2]:   0001bf9a,0001c004
ram:0001bbb4    7cb5            push        {param_3,param_4,r4,r5,r6,lr}           
ram:0001bbb6    134d            ldr         r5,[DAT_0001bc04]                       ;= 20002029h
ram:0001bbb8    6c78            ldrb        r4,[r5,#0x1]=>DAT_2000202a              
ram:0001bbba    2846            mov         param_1,r5                              
ram:0001bbbc    00f04efa        bl          FUN_0001c05c                            ;undefined FUN_0001c05c(byte * param_1)
ram:0001bbc0    6878            ldrb        param_1,[r5,#0x1]=>DAT_2000202a         
ram:0001bbc2    a042            cmp         param_1,r4                              
ram:0001bbc4    01d0            beq         LAB_0001bbca                            
ram:0001bbc6    fcf7affe        bl          FUN_00018928                            ;undefined FUN_00018928(void)
                            LAB_0001bbca:                 ;XREF[1,0]:   0001bbc4
ram:0001bbca    0f4e            ldr         r6,[DAT_0001bc08]                       ;= 2000266Ch
ram:0001bbcc    0024            movs        r4,#0x0                                 
                            LAB_0001bbce:                 ;XREF[1,0]:   0001bc00
ram:0001bbce    a000            lsls        param_1,r4,#0x2                         
ram:0001bbd0    2018            adds        param_1,r4,param_1                      
ram:0001bbd2    8519            adds        r5,param_1,r6                           
                                                          ; FWD[2,0]:   20002670,20002675
ram:0001bbd4    2879            ldrb        param_1,[r5,#0x4]=>DAT_20002670         
ram:0001bbd6    4007            lsls        param_1,param_1,#0x1d                   
ram:0001bbd8    10d5            bpl         LAB_0001bbfc                            
ram:0001bbda    0522            movs        param_3,#0x5                            
ram:0001bbdc    0949            ldr         param_2,[DAT_0001bc04]                  ;= 20002029h
ram:0001bbde    6846            mov         param_1,sp                              
ram:0001bbe0    fcf7ecfa        bl          FUN_000181bc                            ;undefined FUN_000181bc(undefined4 * ...
ram:0001bbe4    2a46            mov         param_3,r5                              
ram:0001bbe6    0199            ldr         param_2,[sp,#local_14+0x18]             
ram:0001bbe8    0098            ldr         param_1,[sp,#0x0]=>local_18             
ram:0001bbea    00f0f7f8        bl          FUN_0001bddc                            ;longlong FUN_0001bddc(uint param_1, ...
ram:0001bbee    0028            cmp         param_1,#0x0                            
ram:0001bbf0    04d0            beq         LAB_0001bbfc                            
ram:0001bbf2    2879            ldrb        param_1,[r5,#0x4]=>DAT_20002670         
ram:0001bbf4    c007            lsls        param_1,param_1,#0x1f                   
ram:0001bbf6    c00f            lsrs        param_1,param_1,#0x1f                   
ram:0001bbf8    fff710fe        bl          FUN_0001b81c                            ;undefined4 FUN_0001b81c(int param_1)
                            LAB_0001bbfc:                 ;XREF[2,0]:   0001bbd8,0001bbf0
ram:0001bbfc    641c            adds        r4,r4,#0x1                              
ram:0001bbfe    062c            cmp         r4,#0x6                                 
ram:0001bc00    e5db            blt         LAB_0001bbce                            
ram:0001bc02    7cbd            pop         {param_3,param_4,r4,r5,r6,pc}           
                            DAT_0001bc04:                 ;XREF[2,0]:   0001bbb6,0001bbdc
ram:0001bc04    29200020        undefined4  20002029h                               
                            DAT_0001bc08:                 ;XREF[1,0]:   0001bbca
ram:0001bc08    6c260020        undefined4  2000266Ch                               
ram:0001bc0c    03              ??          03h                                     
ram:0001bc0d    2a              ??          2Ah    *                                
ram:0001bc0e    0f              ??          0Fh                                     
ram:0001bc0f    d1              ??          D1h                                     
ram:0001bc10    0b              ??          0Bh                                     
ram:0001bc11    78              ??          78h    x                                
ram:0001bc12    4a              ??          4Ah    J                                
ram:0001bc13    78              ??          78h    x                                
ram:0001bc14    89              ??          89h                                     
ram:0001bc15    78              ??          78h    x                                
ram:0001bc16    07              ??          07h                                     
ram:0001bc17    29              ??          29h    )                                
ram:0001bc18    0a              ??          0Ah                                     
ram:0001bc19    d2              ??          D2h                                     
ram:0001bc1a    18              ??          18h                                     
ram:0001bc1b    2b              ??          2Bh    +                                
ram:0001bc1c    08              ??          08h                                     
ram:0001bc1d    d2              ??          D2h                                     
ram:0001bc1e    3c              ??          3Ch    <                                
ram:0001bc1f    2a              ??          2Ah    *                                
ram:0001bc20    06              ??          06h                                     
ram:0001bc21    d2              ??          D2h                                     
ram:0001bc22    01              ??          01h                                     
ram:0001bc23    70              ??          70h    p                                
ram:0001bc24    43              ??          43h    C                                
ram:0001bc25    70              ??          70h    p                                
ram:0001bc26    82              ??          82h                                     
ram:0001bc27    70              ??          70h    p                                
ram:0001bc28    00              ??          00h                                     
ram:0001bc29    21              ??          21h    !                                
ram:0001bc2a    c1              ??          C1h                                     
ram:0001bc2b    70              ??          70h    p                                
ram:0001bc2c    08              ??          08h                                     
ram:0001bc2d    46              ??          46h    F                                
ram:0001bc2e    70              ??          70h    p                                
ram:0001bc2f    47              ??          47h    G                                
ram:0001bc30    02              ??          02h                                     
ram:0001bc31    20              ??          20h                                     
ram:0001bc32    70              ??          70h    p                                
ram:0001bc33    47              ??          47h    G                                
                            ;************************************************************************************************
                            ;*                                           FUNCTION                                           *
                            ;************************************************************************************************
                            ;undefined LAB_0001bc34+1(int param_1)
          ;param_1       int                 r0                      
                                                          ;XREF[0,2]:   00019930,0001994c
ram:0001bc34    10b5            push        {r4,lr}                                 
ram:0001bc36    fff7edfb        bl          FUN_0001b414                            ;undefined FUN_0001b414(int param_1)
ram:0001bc3a    10bd            pop         {r4,pc}                                 
                            ;************************************************************************************************
                            ;*                                           FUNCTION                                           *
                            ;************************************************************************************************
                            ;undefined8 FUN_0001bc3c(ushort * param_1)
          ;param_1       ushort *            r0                      
          ;local_18      undefined4         -18                      ;XREF[1,0]:   0001bcd0
          ;local_1c      undefined2         -1c                      ;XREF[1,0]:   0001bcce
          ;local_1e      undefined2         -1e                      ;XREF[1,0]:   0001bccc
          ;local_20      undefined2         -20                      ;XREF[1,0]:   0001bcc8
          ;local_24      undefined4         -24                      ;XREF[1,0]:   0001bcc4
          ;local_28      undefined4         -28                      ;XREF[1,0]:   0001bcc0
          ;local_2a      undefined1         -2a                      ;XREF[1,0]:   0001bc90
          ;local_2c      undefined2         -2c                      ;XREF[1,0]:   0001bc96
          ;local_30      undefined4         -30                      ;XREF[2,3]:   0001bc4e,0001bc50,0001bc5a,0001bc5c,0001bc64
          ;local_34      undefined4         -34                      ;XREF[1,0]:   0001bc88
          ;local_38      undefined4         -38                      ;XREF[1,0]:   0001bc82
          ;local_3c      undefined4         -3c                      ;XREF[1,0]:   0001bc86
          ;local_40      undefined4         -40                      ;XREF[1,0]:   0001bc84
          ;local_48      undefined4         -48                      ;XREF[1,0]:   0001bc80
          ;local_4c      undefined1         -4c                      ;XREF[2,0]:   0001bc70,0001bc7c
          ;local_50      undefined4         -50                      ;XREF[2,3]:   0001bc9a,0001bc9c,0001bc9e,0001bca0,0001bcb4
                                                          ;XREF[1,0]:   0001985c
ram:0001bc3c    70b5            push        {r4,r5,r6,lr}                           
ram:0001bc3e    0024            movs        r4,#0x0                                 
ram:0001bc40    0546            mov         r5,param_1                              
ram:0001bc42    601c            adds        param_1,r4,#0x1                         
ram:0001bc44    90b0            sub         sp,#0x40                                
ram:0001bc46    0007            lsls        param_1,param_1,#0x1c                   
ram:0001bc48    000f            lsrs        param_1,param_1,#0x1c                   
ram:0001bc4a    08a9            add         r1,sp,#0x20                             
ram:0001bc4c    1030            adds        param_1,#0x10                           
ram:0001bc4e    0894            str         r4,[sp,#local_30+0x50]                  
ram:0001bc50    0870            strb        param_1,[r1,#0x0]=>local_30             
ram:0001bc52    601c            adds        param_1,r4,#0x1                         
ram:0001bc54    0007            lsls        param_1,param_1,#0x1c                   
ram:0001bc56    000f            lsrs        param_1,param_1,#0x1c                   
ram:0001bc58    1030            adds        param_1,#0x10                           
ram:0001bc5a    4870            strb        param_1,[r1,#local_30+0x31]             
ram:0001bc5c    8878            ldrb        param_1,[r1,#local_30+0x32]             
ram:0001bc5e    f926            movs        r6,#0xf9                                
ram:0001bc60    3040            ands        param_1,r6                              
ram:0001bc62    801c            adds        param_1,param_1,#0x2                    
ram:0001bc64    8870            strb        param_1,[r1,#local_30+0x32]             
ram:0001bc66    1c21            movs        r1,#0x1c                                
ram:0001bc68    01a8            add         param_1,sp,#0x4                         
ram:0001bc6a    fcf7c0fa        bl          FUN_000181ee                            ;undefined FUN_000181ee(undefined * p...
ram:0001bc6e    6946            mov         r1,sp                                   
ram:0001bc70    0879            ldrb        param_1,[r1,#local_4c+0x50]             
ram:0001bc72    fd21            movs        r1,#0xfd                                
ram:0001bc74    0840            ands        param_1,r1                              
ram:0001bc76    1821            movs        r1,#0x18                                
ram:0001bc78    0843            orrs        param_1,r1                              
ram:0001bc7a    6946            mov         r1,sp                                   
ram:0001bc7c    0871            strb        param_1,[r1,#local_4c+0x50]             
ram:0001bc7e    08a8            add         param_1,sp,#0x20                        
ram:0001bc80    0294            str         r4,[sp,#local_48+0x50]                  
ram:0001bc82    0690            str         param_1,[sp,#local_38+0x50]             
ram:0001bc84    0494            str         r4,[sp,#local_40+0x50]                  
ram:0001bc86    0594            str         r4,[sp,#local_3c+0x50]                  
ram:0001bc88    0794            str         r4,[sp,#local_34+0x50]                  
ram:0001bc8a    3220            movs        param_1,#0x32                           
ram:0001bc8c    405d            ldrb        param_1,[param_1,r5]                    
ram:0001bc8e    08a9            add         r1,sp,#0x20                             
ram:0001bc90    8871            strb        param_1,[r1,#local_2a+0x30]             
ram:0001bc92    1448            ldr         param_1,[DAT_0001bce4]                  ;= 00001527h
ram:0001bc94    6946            mov         r1,sp                                   
ram:0001bc96    8884            strh        param_1,[r1,#local_2c+0x50]             
ram:0001bc98    1120            movs        param_1,#0x11                           
ram:0001bc9a    0094            str         r4,[sp,#0x0]=>local_50                  
ram:0001bc9c    0870            strb        param_1,[r1,#0x0]=>local_50             
ram:0001bc9e    4870            strb        param_1,[r1,#local_50+0x51]             
ram:0001bca0    8878            ldrb        param_1,[r1,#local_50+0x52]             
ram:0001bca2    f721            movs        r1,#0xf7                                
ram:0001bca4    3040            ands        param_1,r6                              
ram:0001bca6    801c            adds        param_1,param_1,#0x2                    
ram:0001bca8    0840            ands        param_1,r1                              
ram:0001bcaa    ef21            movs        r1,#0xef                                
ram:0001bcac    0840            ands        param_1,r1                              
ram:0001bcae    0126            movs        r6,#0x1                                 
ram:0001bcb0    3043            orrs        param_1,r6                              
ram:0001bcb2    6946            mov         r1,sp                                   
ram:0001bcb4    8870            strb        param_1,[r1,#local_50+0x52]             
ram:0001bcb6    1421            movs        r1,#0x14                                
ram:0001bcb8    0aa8            add         param_1,sp,#0x28                        
ram:0001bcba    fcf798fa        bl          FUN_000181ee                            ;undefined FUN_000181ee(undefined * p...
ram:0001bcbe    09a8            add         param_1,sp,#0x24                        
ram:0001bcc0    0a90            str         param_1,[sp,#local_28+0x50]             
ram:0001bcc2    6846            mov         param_1,sp                              
ram:0001bcc4    0b90            str         param_1,[sp,#local_24+0x50]             
ram:0001bcc6    6946            mov         r1,sp                                   
ram:0001bcc8    0e86            strh        r6,[r1,#local_20+0x50]                  
ram:0001bcca    7002            lsls        param_1,r6,#0x9                         
ram:0001bccc    4c86            strh        r4,[r1,#local_1e+0x50]                  
ram:0001bcce    8886            strh        param_1,[r1,#local_1c+0x50]             
ram:0001bcd0    0e94            str         r4,[sp,#local_18+0x50]                  
ram:0001bcd2    2b46            mov         r3,r5                                   
ram:0001bcd4    2888            ldrh        param_1,[r5,#0x0]                       
ram:0001bcd6    2233            adds        r3,#0x22                                
ram:0001bcd8    0aaa            add         r2,sp,#0x28                             
ram:0001bcda    01a9            add         r1,sp,#0x4                              
ram:0001bcdc    a2df            svc         0xa2                                    
ram:0001bcde    10b0            add         sp,#0x40                                
ram:0001bce0    70bd            pop         {r4,r5,r6,pc}                           
ram:0001bce2    0000            movs        r0,r0                                   
                            DAT_0001bce4:                 ;XREF[1,0]:   0001bc92
ram:0001bce4    27150000        undefined4  00001527h                               
                            ;************************************************************************************************
                            ;*                                           FUNCTION                                           *
                            ;************************************************************************************************
                            ;undefined LAB_0001bce8+1(undefined4 * param_1, uint param_2)
          ;param_1       undefined4 *        r0                      
          ;param_2       uint                r1                      
          ;local_18      undefined4         -18                      ;XREF[2,0]:   0001bcf0,0001bd18
          ;local_3e      undefined1         -3e                      ;XREF[1,0]:   0001bdac
          ;local_3f      undefined1         -3f                      ;XREF[1,0]:   0001bdaa
          ;local_44      undefined4         -44                      ;XREF[2,0]:   0001bcfe,0001bdc8
                                                          ;XREF[0,2]:   0001b7ba,0001b808
ram:0001bce8    f3b5            push        {param_1,param_2,r4,r5,r6,r7,lr}        
ram:0001bcea    8bb0            sub         sp,#0x2c                                
ram:0001bcec    0746            mov         r7,param_1                              
ram:0001bcee    0679            ldrb        r6,[param_1,#0x4]                       
ram:0001bcf0    0c98            ldr         param_1,[sp,#local_18+0x48]             
ram:0001bcf2    0024            movs        r4,#0x0                                 
ram:0001bcf4    401f            subs        param_1,param_1,#0x5                    
ram:0001bcf6    c5b2            uxtb        r5,param_1                              
ram:0001bcf8    2846            mov         param_1,r5                              
ram:0001bcfa    fef7b3ff        bl          FUN_0001ac64                            ;uint * FUN_0001ac64(int param_1)
ram:0001bcfe    0190            str         param_1,[sp,#local_44+0x48]             
ram:0001bd00    002d            cmp         r5,#0x0                                 
ram:0001bd02    03d0            beq         LAB_0001bd0c                            
ram:0001bd04    2a46            mov         r2,r5                                   
ram:0001bd06    791d            adds        param_2,r7,#0x5                         
ram:0001bd08    fcf758fa        bl          FUN_000181bc                            ;undefined FUN_000181bc(undefined4 * ...
                            LAB_0001bd0c:                 ;XREF[1,0]:   0001bd02
ram:0001bd0c    0422            movs        r2,#0x4                                 
ram:0001bd0e    3946            mov         param_2,r7                              
ram:0001bd10    09a8            add         param_1,sp,#0x24                        
ram:0001bd12    fcf753fa        bl          FUN_000181bc                            ;undefined FUN_000181bc(undefined4 * ...
ram:0001bd16    3846            mov         param_1,r7                              
ram:0001bd18    0c99            ldr         param_2,[sp,#local_18+0x48]             
ram:0001bd1a    fdf7bbfb        bl          FUN_00019494                            ;undefined4 FUN_00019494(int param_1,...
ram:0001bd1e    0006            lsls        param_1,param_1,#0x18                   
ram:0001bd20    000e            lsrs        param_1,param_1,#0x18                   
ram:0001bd22    41d1            bne         LAB_0001bda8                            
ram:0001bd24    2b4f            ldr         r7,[DAT_0001bdd4]                       ;= 20002000h
ram:0001bd26    3300            movs        r3,r6                                   
                                                          ; FWD[2,0]:   000188aa,0001bd2c
ram:0001bd28    fcf7bffd        bl          __ARM_common_switch8                    ;undefined __ARM_common_switch8(void)
                                                                                    ;= 07h
                            DAT_0001bd2c:                 ;XREF[1,0]:   0001bd28
ram:0001bd2c    07              undefined1  07h                                     
ram:0001bd2d    3d              ??          3Dh    =                                
ram:0001bd2e    05              ??          05h                                     
ram:0001bd2f    11              ??          11h                                     
ram:0001bd30    1b              ??          1Bh                                     
ram:0001bd31    24              ??          24h    $                                
ram:0001bd32    2a              ??          2Ah    *                                
ram:0001bd33    35              ??          35h    5                                
ram:0001bd34    3d              ??          3Dh    =                                
ram:0001bd35    00              ??          00h                                     
ram:0001bd36    27              ??          27h    '                                
ram:0001bd37    48              ??          48h    H                                
ram:0001bd38    2a              ??          2Ah    *                                
ram:0001bd39    46              ??          46h    F                                
ram:0001bd3a    29              ??          29h    )                                
ram:0001bd3b    30              ??          30h    0                                
ram:0001bd3c    01              ??          01h                                     
ram:0001bd3d    99              ??          99h                                     
ram:0001bd3e    ff              ??          FFh                                     
ram:0001bd3f    f7              ??          F7h                                     
ram:0001bd40    65              ??          65h    e                                
ram:0001bd41    ff              ??          FFh                                     
ram:0001bd42    13              ??          13h                                     
ram:0001bd43    e0              ??          E0h                                     
ram:0001bd44    79              ??          79h    y                                
ram:0001bd45    78              ??          78h    x                                
ram:0001bd46    02              ??          02h                                     
ram:0001bd47    22              ??          22h    "                                
ram:0001bd48    11              ??          11h                                     
ram:0001bd49    43              ??          43h    C                                
ram:0001bd4a    79              ??          79h    y                                
ram:0001bd4b    70              ??          70h    p                                
ram:0001bd4c    2c              ??          2Ch    ,                                
ram:0001bd4d    e0              ??          E0h                                     
ram:0001bd4e    21              ??          21h    !                                
ram:0001bd4f    48              ??          48h    H                                
ram:0001bd50    02              ??          02h                                     
ram:0001bd51    a9              ??          A9h                                     
ram:0001bd52    29              ??          29h    )                                
ram:0001bd53    30              ??          30h    0                                
ram:0001bd54    ff              ??          FFh                                     
ram:0001bd55    f7              ??          F7h                                     
ram:0001bd56    f2              ??          F2h                                     
ram:0001bd57    fb              ??          FBh                                     
ram:0001bd58    00              ??          00h                                     
ram:0001bd59    06              ??          06h                                     
ram:0001bd5a    00              ??          00h                                     
ram:0001bd5b    0e              ??          0Eh                                     
ram:0001bd5c    24              ??          24h    $                                
ram:0001bd5d    d1              ??          D1h                                     
ram:0001bd5e    03              ??          03h                                     
ram:0001bd5f    24              ??          24h    $                                
ram:0001bd60    22              ??          22h    "                                
ram:0001bd61    e0              ??          E0h                                     
ram:0001bd62    2a              ??          2Ah    *                                
ram:0001bd63    46              ??          46h    F                                
ram:0001bd64    1c              ??          1Ch                                     
ram:0001bd65    48              ??          48h    H                                
ram:0001bd66    01              ??          01h                                     
ram:0001bd67    99              ??          99h                                     
ram:0001bd68    fe              ??          FEh                                     
ram:0001bd69    f7              ??          F7h                                     
ram:0001bd6a    f6              ??          F6h                                     
ram:0001bd6b    f8              ??          F8h                                     
ram:0001bd6c    00              ??          00h                                     
ram:0001bd6d    06              ??          06h                                     
ram:0001bd6e    00              ??          00h                                     
ram:0001bd6f    0e              ??          0Eh                                     
ram:0001bd70    e8              ??          E8h                                     
ram:0001bd71    d0              ??          D0h                                     
ram:0001bd72    19              ??          19h                                     
ram:0001bd73    e0              ??          E0h                                     
ram:0001bd74    2a              ??          2Ah    *                                
ram:0001bd75    46              ??          46h    F                                
ram:0001bd76    18              ??          18h                                     
ram:0001bd77    48              ??          48h    H                                
ram:0001bd78    01              ??          01h                                     
ram:0001bd79    99              ??          99h                                     
ram:0001bd7a    fd              ??          FDh                                     
ram:0001bd7b    f7              ??          F7h                                     
ram:0001bd7c    c9              ??          C9h                                     
ram:0001bd7d    fe              ??          FEh                                     
ram:0001bd7e    f5              ??          F5h                                     
ram:0001bd7f    e7              ??          E7h                                     
ram:0001bd80    02              ??          02h                                     
ram:0001bd81    ab              ??          ABh                                     
ram:0001bd82    2a              ??          2Ah    *                                
ram:0001bd83    46              ??          46h    F                                
ram:0001bd84    14              ??          14h                                     
ram:0001bd85    48              ??          48h    H                                
ram:0001bd86    01              ??          01h                                     
ram:0001bd87    99              ??          99h                                     
ram:0001bd88    ff              ??          FFh                                     
ram:0001bd89    f7              ??          F7h                                     
ram:0001bd8a    e0              ??          E0h                                     
ram:0001bd8b    fb              ??          FBh                                     
ram:0001bd8c    00              ??          00h                                     
ram:0001bd8d    06              ??          06h                                     
ram:0001bd8e    00              ??          00h                                     
ram:0001bd8f    0e              ??          0Eh                                     
ram:0001bd90    0a              ??          0Ah                                     
ram:0001bd91    d1              ??          D1h                                     
ram:0001bd92    09              ??          09h                                     
ram:0001bd93    24              ??          24h    $                                
ram:0001bd94    08              ??          08h                                     
ram:0001bd95    e0              ??          E0h                                     
ram:0001bd96    02              ??          02h                                     
ram:0001bd97    a9              ??          A9h                                     
ram:0001bd98    0f              ??          0Fh                                     
ram:0001bd99    48              ??          48h    H                                
ram:0001bd9a    ff              ??          FFh                                     
ram:0001bd9b    f7              ??          F7h                                     
ram:0001bd9c    3e              ??          3Eh    >                                
ram:0001bd9d    fc              ??          FCh                                     
ram:0001bd9e    00              ??          00h                                     
ram:0001bd9f    28              ??          28h    (                                
ram:0001bda0    02              ??          02h                                     
ram:0001bda1    d1              ??          D1h                                     
ram:0001bda2    01              ??          01h                                     
ram:0001bda3    24              ??          24h    $                                
ram:0001bda4    00              ??          00h                                     
ram:0001bda5    e0              ??          E0h                                     
ram:0001bda6    01              ??          01h                                     
ram:0001bda7    20              ??          20h                                     
                            LAB_0001bda8:                 ;XREF[1,0]:   0001bd22
ram:0001bda8    6946            mov         param_2,sp                              
ram:0001bdaa    4e72            strb        r6,[r1,#local_3f+0x48]                  
ram:0001bdac    8872            strb        param_1,[r1,#local_3e+0x48]             
ram:0001bdae    0a48            ldr         param_1,[DAT_0001bdd8]                  ;= 2000266Ch
ram:0001bdb0    e31c            adds        r3,r4,#0x3                              
ram:0001bdb2    7438            subs        param_1,#0x74                           
ram:0001bdb4    418c            ldrh        param_2,[param_1,#0x22]=>DAT_2000261a   
ram:0001bdb6    02aa            add         r2,sp,#0x8                              
ram:0001bdb8    fff77efc        bl          FUN_0001b6b8                            ;undefined8 FUN_0001b6b8(int param_1,...
ram:0001bdbc    0028            cmp         param_1,#0x0                            
ram:0001bdbe    03d0            beq         LAB_0001bdc8                            
ram:0001bdc0    0022            movs        r2,#0x0                                 
ram:0001bdc2    1146            mov         param_2,r2                              
ram:0001bdc4    fcf746ff        bl          FUN_00018c54                            ;undefined FUN_00018c54(void)
                            LAB_0001bdc8:                 ;XREF[1,0]:   0001bdbe
ram:0001bdc8    0198            ldr         param_1,[sp,#local_44+0x48]             
ram:0001bdca    fef7dbfb        bl          FUN_0001a584                            ;undefined FUN_0001a584(int param_1)
ram:0001bdce    0db0            add         sp,#0x34                                
ram:0001bdd0    f0bd            pop         {r4,r5,r6,r7,pc}                        
ram:0001bdd2    0000            movs        r0,r0                                   
                            DAT_0001bdd4:                 ;XREF[1,0]:   0001bd24
ram:0001bdd4    00200020        undefined4  20002000h                               
                            DAT_0001bdd8:                 ;XREF[1,0]:   0001bdae
ram:0001bdd8    6c260020        undefined4  2000266Ch                               
                            ;************************************************************************************************
                            ;*                                           FUNCTION                                           *
                            ;************************************************************************************************
                            ;longlong FUN_0001bddc(uint param_1, undefined4 param_2, int param_3)
          ;param_1       uint                r0                      
          ;param_2       undefined4          r1                      
          ;param_3       int                 r2                      
          ;local_e       undefined1          -e                      ;XREF[1,0]:   0001bdf8
          ;local_f       undefined1          -f                      ;XREF[1,0]:   0001bdee
          ;local_10      undefined1         -10                      ;XREF[1,0]:   0001bde0
                                                          ;XREF[1,0]:   0001bbea
ram:0001bddc    07b5            push        {param_1,param_2,param_3,lr}            
ram:0001bdde    6946            mov         param_2,sp                              
ram:0001bde0    0b78            ldrb        r3,[param_2,#0x0]=>local_10             
ram:0001bde2    5078            ldrb        param_1,[param_3,#0x1]                  
ram:0001bde4    0121            movs        param_2,#0x1                            
ram:0001bde6    9940            lsls        param_2,r3                              
ram:0001bde8    0842            tst         param_1,param_2                         
ram:0001bdea    13d0            beq         LAB_0001be14                            
ram:0001bdec    6846            mov         param_1,sp                              
ram:0001bdee    4078            ldrb        param_1,[r0,#local_f+0x10]              
ram:0001bdf0    9178            ldrb        param_2,[param_3,#0x2]                  
ram:0001bdf2    8842            cmp         param_1,param_2                         
ram:0001bdf4    0ed1            bne         LAB_0001be14                            
ram:0001bdf6    6846            mov         param_1,sp                              
ram:0001bdf8    8078            ldrb        param_1,[r0,#local_e+0x10]              
ram:0001bdfa    d178            ldrb        param_2,[param_3,#0x3]                  
ram:0001bdfc    8842            cmp         param_1,param_2                         
ram:0001bdfe    09d1            bne         LAB_0001be14                            
ram:0001be00    1079            ldrb        param_1,[param_3,#0x4]                  
ram:0001be02    4107            lsls        param_2,param_1,#0x1d                   
ram:0001be04    06d5            bpl         LAB_0001be14                            
ram:0001be06    8107            lsls        param_2,param_1,#0x1e                   
ram:0001be08    02d4            bmi         LAB_0001be10                            
ram:0001be0a    fb21            movs        param_2,#0xfb                           
ram:0001be0c    0840            ands        param_1,param_2                         
ram:0001be0e    1071            strb        param_1,[param_3,#0x4]                  
                            LAB_0001be10:                 ;XREF[1,0]:   0001be08
ram:0001be10    0120            movs        param_1,#0x1                            
ram:0001be12    0ebd            pop         {param_2,param_3,r3,pc}                 
                            LAB_0001be14:                 ;XREF[4,0]:   0001bdea,0001bdf4,0001bdfe,0001be04
ram:0001be14    0020            movs        param_1,#0x0                            
ram:0001be16    0ebd            pop         {param_2,param_3,r3,pc}                 
                            ;************************************************************************************************
                            ;*                                           FUNCTION                                           *
                            ;************************************************************************************************
                            ;undefined FUN_0001be18(void)
                                                          ;XREF[3,0]:   000191e6,00019246,0001bf6e
ram:0001be18    0120            movs        r0,#0x1                                 
ram:0001be1a    0249            ldr         r1,[DAT_0001be24]                       ;= E000E200h
ram:0001be1c    0005            lsls        r0,r0,#0x14                             
ram:0001be1e    0860            str         r0,[r1,#0x0]=>DAT_e000e200              
ram:0001be20    7047            bx          lr                                      
ram:0001be22    0000            movs        r0,r0                                   
                            DAT_0001be24:                 ;XREF[1,0]:   0001be1a
ram:0001be24    00e200e0        undefined4  E000E200h                               
                            ;************************************************************************************************
                            ;*                                           FUNCTION                                           *
                            ;************************************************************************************************
                            ;undefined FUN_0001be28(int param_1)
          ;param_1       int                 r0                      
                                                          ;XREF[1,0]:   0001a986
ram:0001be28    f0b5            push        {r4,r5,r6,r7,lr}                        
ram:0001be2a    174f            ldr         r7,[DAT_0001be88]                       ;= 20002110h
ram:0001be2c    2421            movs        r1,#0x24                                
ram:0001be2e    bc68            ldr         r4,[r7,#0x8]=>DAT_20002118              
ram:0001be30    4143            muls        r1,param_1                              
ram:0001be32    0d19            adds        r5,r1,r4                                
ram:0001be34    3969            ldr         r1,[r7,#0x10]=>DAT_20002120             
ram:0001be36    4a1c            adds        r2,r1,#0x1                              
ram:0001be38    09d0            beq         LAB_0001be4e                            
ram:0001be3a    2422            movs        r2,#0x24                                
ram:0001be3c    4a43            muls        r2,r1                                   
ram:0001be3e    1619            adds        r6,r2,r4                                
ram:0001be40    6b68            ldr         r3,[r5,#0x4]                            
ram:0001be42    7268            ldr         r2,[r6,#0x4]                            
ram:0001be44    9342            cmp         r3,r2                                   
ram:0001be46    04d8            bhi         LAB_0001be52                            
ram:0001be48    d21a            subs        r2,r2,r3                                
ram:0001be4a    7260            str         r2,[r6,#0x4]                            
ram:0001be4c    2962            str         r1,[r5,#0x20]                           
                            LAB_0001be4e:                 ;XREF[1,0]:   0001be38
ram:0001be4e    3861            str         param_1,[r7,#0x10]=>DAT_20002120        
ram:0001be50    f0bd            pop         {r4,r5,r6,r7,pc}                        
                            LAB_0001be52:                 ;XREF[1,0]:   0001be46
ram:0001be52    0a46            mov         r2,r1                                   
ram:0001be54    02e0            b           LAB_0001be5c                            
                            LAB_0001be56:                 ;XREF[1,0]:   0001be6a
ram:0001be56    0a46            mov         r2,r1                                   
ram:0001be58    396a            ldr         r1,[r7,#0x20]                           
ram:0001be5a    9b1b            subs        r3,r3,r6                                
                            LAB_0001be5c:                 ;XREF[1,0]:   0001be54
ram:0001be5c    4e1c            adds        r6,r1,#0x1                              
ram:0001be5e    0bd0            beq         LAB_0001be78                            
ram:0001be60    2426            movs        r6,#0x24                                
ram:0001be62    4e43            muls        r6,r1                                   
ram:0001be64    3719            adds        r7,r6,r4                                
ram:0001be66    7e68            ldr         r6,[r7,#0x4]                            
ram:0001be68    9e42            cmp         r6,r3                                   
ram:0001be6a    f4d3            bcc         LAB_0001be56                            
ram:0001be6c    2426            movs        r6,#0x24                                
ram:0001be6e    4e43            muls        r6,r1                                   
ram:0001be70    3619            adds        r6,r6,r4                                
ram:0001be72    7768            ldr         r7,[r6,#0x4]                            
ram:0001be74    ff1a            subs        r7,r7,r3                                
ram:0001be76    7760            str         r7,[r6,#0x4]                            
                            LAB_0001be78:                 ;XREF[1,0]:   0001be5e
ram:0001be78    6b60            str         r3,[r5,#0x4]                            
ram:0001be7a    2962            str         r1,[r5,#0x20]                           
ram:0001be7c    2421            movs        r1,#0x24                                
ram:0001be7e    4a43            muls        r2,r1                                   
ram:0001be80    1119            adds        r1,r2,r4                                
ram:0001be82    0862            str         param_1,[r1,#0x20]                      
ram:0001be84    f0bd            pop         {r4,r5,r6,r7,pc}                        
ram:0001be86    0000            movs        r0,r0                                   
                            DAT_0001be88:                 ;XREF[1,0]:   0001be2a
ram:0001be88    10210020        undefined4  20002110h                               
                            ;************************************************************************************************
                            ;*                                           FUNCTION                                           *
                            ;************************************************************************************************
                            ;undefined FUN_0001be8c(int param_1)
          ;param_1       int                 r0                      
                                                          ;XREF[1,0]:   0001a882
ram:0001be8c    70b5            push        {r4,r5,r6,lr}                           
ram:0001be8e    194c            ldr         r4,[DAT_0001bef4]                       ;= 20002110h
ram:0001be90    2269            ldr         r2,[r4,#0x10]=>DAT_20002120             
ram:0001be92    a568            ldr         r5,[r4,#0x8]=>DAT_20002118              
ram:0001be94    1346            mov         r3,r2                                   
ram:0001be96    1146            mov         r1,r2                                   
ram:0001be98    06e0            b           LAB_0001bea8                            
                            LAB_0001be9a:                 ;XREF[1,0]:   0001beaa
ram:0001be9a    8142            cmp         r1,param_1                              
ram:0001be9c    07d0            beq         LAB_0001beae                            
ram:0001be9e    0a46            mov         r2,r1                                   
ram:0001bea0    2426            movs        r6,#0x24                                
ram:0001bea2    7143            muls        r1,r6                                   
ram:0001bea4    4919            adds        r1,r1,r5                                
ram:0001bea6    096a            ldr         r1,[r1,#0x20]                           
                            LAB_0001bea8:                 ;XREF[1,0]:   0001be98
ram:0001bea8    4e1c            adds        r6,r1,#0x1                              
ram:0001beaa    f6d1            bne         LAB_0001be9a                            
                            LAB_0001beac:                 ;XREF[2,0]:   0001beb0,0001bee4
ram:0001beac    70bd            pop         {r4,r5,r6,pc}                           
                            LAB_0001beae:                 ;XREF[1,0]:   0001be9c
ram:0001beae    002e            cmp         r6,#0x0                                 
ram:0001beb0    fcd0            beq         LAB_0001beac                            
ram:0001beb2    8a42            cmp         r2,r1                                   
ram:0001beb4    0cd1            bne         LAB_0001bed0                            
ram:0001beb6    2420            movs        param_1,#0x24                           
ram:0001beb8    4343            muls        r3,param_1                              
ram:0001beba    5819            adds        param_1,r3,r5                           
ram:0001bebc    006a            ldr         param_1,[param_1,#0x20]                 
ram:0001bebe    2061            str         param_1,[r4,#0x10]=>DAT_20002120        
ram:0001bec0    401c            adds        param_1,param_1,#0x1                    
ram:0001bec2    05d1            bne         LAB_0001bed0                            
ram:0001bec4    0c4b            ldr         r3,[DAT_0001bef8]                       ;= 40011000h
ram:0001bec6    0120            movs        param_1,#0x1                            
ram:0001bec8    9860            str         param_1,[r3,#offset DAT_40011008 &0xff] 
ram:0001beca    0023            movs        r3,#0x0                                 
ram:0001becc    6361            str         r3,[r4,#0x14]=>DAT_20002124             
ram:0001bece    6071            strb        param_1,[r4,#0x5]=>DAT_20002115         
                            LAB_0001bed0:                 ;XREF[2,0]:   0001beb4,0001bec2
ram:0001bed0    2420            movs        param_1,#0x24                           
ram:0001bed2    4143            muls        r1,param_1                              
ram:0001bed4    4819            adds        param_1,r1,r5                           
ram:0001bed6    2423            movs        r3,#0x24                                
ram:0001bed8    4168            ldr         r1,[param_1,#0x4]                       
ram:0001beda    5a43            muls        r2,r3                                   
ram:0001bedc    006a            ldr         param_1,[param_1,#0x20]                 
ram:0001bede    5219            adds        r2,r2,r5                                
ram:0001bee0    1062            str         param_1,[r2,#0x20]                      
ram:0001bee2    421c            adds        r2,param_1,#0x1                         
ram:0001bee4    e2d0            beq         LAB_0001beac                            
ram:0001bee6    2422            movs        r2,#0x24                                
ram:0001bee8    5043            muls        param_1,r2                              
ram:0001beea    4019            adds        param_1,param_1,r5                      
ram:0001beec    4268            ldr         r2,[param_1,#0x4]                       
ram:0001beee    5118            adds        r1,r2,r1                                
ram:0001bef0    4160            str         r1,[param_1,#0x4]                       
ram:0001bef2    70bd            pop         {r4,r5,r6,pc}                           
                            DAT_0001bef4:                 ;XREF[1,0]:   0001be8e
ram:0001bef4    10210020        undefined4  20002110h                               
                            DAT_0001bef8:                 ;XREF[1,0]:   0001bec4
ram:0001bef8    00100140        undefined4  40011000h                               
                            ;************************************************************************************************
                            ;*                                           FUNCTION                                           *
                            ;************************************************************************************************
                            ;undefined FUN_0001befc(void)
                                                          ;XREF[1,0]:   0001870e
ram:0001befc    f8b5            push        {r3,r4,r5,r6,r7,lr}                     
ram:0001befe    1d4c            ldr         r4,[DAT_0001bf74]                       ;= 20002110h
ram:0001bf00    2569            ldr         r5,[r4,#0x10]=>DAT_20002120             
ram:0001bf02    681c            adds        r0,r5,#0x1                              
ram:0001bf04    35d0            beq         LAB_0001bf72                            
ram:0001bf06    1c48            ldr         r0,[DAT_0001bf78]                       ;= 40011500h
ram:0001bf08    0026            movs        r6,#0x0                                 
ram:0001bf0a    4068            ldr         r0,[r0,#offset DAT_40011504 &0xff]      
ram:0001bf0c    6169            ldr         r1,[r4,#0x14]=>DAT_20002124             
ram:0001bf0e    401a            subs        r0,r0,r1                                
ram:0001bf10    0702            lsls        r7,r0,#0x8                              
ram:0001bf12    3f0a            lsrs        r7,r7,#0x8                              
ram:0001bf14    19e0            b           LAB_0001bf4a                            
                            LAB_0001bf16:                 ;XREF[1,0]:   0001bf4c
ram:0001bf16    2420            movs        r0,#0x24                                
ram:0001bf18    4543            muls        r5,r0                                   
ram:0001bf1a    a068            ldr         r0,[r4,#0x8]=>DAT_20002118              
ram:0001bf1c    2a18            adds        r2,r5,r0                                
ram:0001bf1e    5068            ldr         r0,[r2,#0x4]                            
ram:0001bf20    b842            cmp         r0,r7                                   
ram:0001bf22    14d8            bhi         LAB_0001bf4e                            
ram:0001bf24    a369            ldr         r3,[r4,#0x18]=>DAT_20002128             
ram:0001bf26    3f1a            subs        r7,r7,r0                                
ram:0001bf28    8619            adds        r6,r0,r6                                
ram:0001bf2a    156a            ldr         r5,[r2,#0x20]                           
ram:0001bf2c    002b            cmp         r3,#0x0                                 
ram:0001bf2e    09d0            beq         LAB_0001bf44                            
ram:0001bf30    d169            ldr         r1,[r2,#0x1c]                           
ram:0001bf32    9069            ldr         r0,[r2,#0x18]                           
ram:0001bf34    9847            blx         r3                                      
ram:0001bf36    0028            cmp         r0,#0x0                                 
ram:0001bf38    07d0            beq         LAB_0001bf4a                            
ram:0001bf3a    0022            movs        r2,#0x0                                 
ram:0001bf3c    1146            mov         r1,r2                                   
ram:0001bf3e    fcf789fe        bl          FUN_00018c54                            ;undefined FUN_00018c54(void)
ram:0001bf42    02e0            b           LAB_0001bf4a                            
                            LAB_0001bf44:                 ;XREF[1,0]:   0001bf2e
ram:0001bf44    9169            ldr         r1,[r2,#0x18]                           
ram:0001bf46    d069            ldr         r0,[r2,#0x1c]                           
ram:0001bf48    8847            blx         r1                                      
                            LAB_0001bf4a:                 ;XREF[3,0]:   0001bf14,0001bf38,0001bf42
ram:0001bf4a    681c            adds        r0,r5,#0x1                              
ram:0001bf4c    e3d1            bne         LAB_0001bf16                            
                            LAB_0001bf4e:                 ;XREF[1,0]:   0001bf22
ram:0001bf4e    a178            ldrb        r1,[r4,#0x2]=>DAT_20002112              
ram:0001bf50    e078            ldrb        r0,[r4,#0x3]=>DAT_20002113              
ram:0001bf52    8142            cmp         r1,r0                                   
ram:0001bf54    06d1            bne         LAB_0001bf64                            
ram:0001bf56    401c            adds        r0,r0,#0x1                              
ram:0001bf58    c0b2            uxtb        r0,r0                                   
ram:0001bf5a    e070            strb        r0,[r4,#0x3]=>DAT_20002113              
ram:0001bf5c    0228            cmp         r0,#0x2                                 
ram:0001bf5e    01d1            bne         LAB_0001bf64                            
ram:0001bf60    0020            movs        r0,#0x0                                 
ram:0001bf62    e070            strb        r0,[r4,#0x3]=>DAT_20002113              
                            LAB_0001bf64:                 ;XREF[2,0]:   0001bf54,0001bf5e
ram:0001bf64    0349            ldr         r1,[DAT_0001bf74]                       ;= 20002110h
ram:0001bf66    0006            lsls        r0,r0,#0x18                             
ram:0001bf68    800d            lsrs        r0,r0,#0x16                             
ram:0001bf6a    1c31            adds        r1=>DAT_2000212c,#0x1c                  
ram:0001bf6c    0e50            str         r6,[r1,r0]=>DAT_2000212c                
ram:0001bf6e    fff753ff        bl          FUN_0001be18                            ;undefined FUN_0001be18(void)
                            LAB_0001bf72:                 ;XREF[1,0]:   0001bf04
ram:0001bf72    f8bd            pop         {r3,r4,r5,r6,r7,pc}                     
                            DAT_0001bf74:                 ;XREF[2,0]:   0001befe,0001bf64
ram:0001bf74    10210020        undefined4  20002110h                               
                            DAT_0001bf78:                 ;XREF[1,0]:   0001bf06
ram:0001bf78    00150140        undefined4  40011500h                               
                            ;************************************************************************************************
                            ;*                                           FUNCTION                                           *
                            ;************************************************************************************************
                            ;undefined FUN_0001bf7c(void)
          ;local_8       undefined4          -8                      ;XREF[1,0]:   0001bf80
                                                          ;XREF[1,0]:   0001aa12
ram:0001bf7c    08b5            push        {r3,lr}                                 
ram:0001bf7e    1f48            ldr         r0,[PTR_LAB_000190b0+1+1_0001bffc]      ;= 000190b1
ram:0001bf80    0090            str         r0=>LAB_000190b0+1+1,[sp,#0x0]=>local_8 
ram:0001bf82    1f4b            ldr         r3,[DAT_0001c000]                       ;= 20002150h
ram:0001bf84    0522            movs        r2,#0x5                                 
ram:0001bf86    0921            movs        r1,#0x9                                 
ram:0001bf88    0020            movs        r0,#0x0                                 
ram:0001bf8a    fdf79df8        bl          FUN_000190c8                            ;undefined4 FUN_000190c8(undefined4 p...
ram:0001bf8e    0028            cmp         r0,#0x0                                 
ram:0001bf90    03d0            beq         LAB_0001bf9a                            
ram:0001bf92    0022            movs        r2,#0x0                                 
ram:0001bf94    1146            mov         r1,r2                                   
ram:0001bf96    fcf75dfe        bl          FUN_00018c54                            ;undefined FUN_00018c54(void)
                            LAB_0001bf9a:                 ;XREF[1,0]:   0001bf90
ram:0001bf9a    1a4a            ldr         r2=>LAB_0001bbb4...,[PTR_LAB_0001bbb4...;= 0001bbb5
ram:0001bf9c    0121            movs        r1,#0x1                                 
ram:0001bf9e    1a48            ldr         r0=>DAT_2000200c,[DAT_0001c008]         ;= 2000200Ch
ram:0001bfa0    fdf752f8        bl          FUN_00019048                            ;undefined4 FUN_00019048(int * param_...
ram:0001bfa4    0028            cmp         r0,#0x0                                 
ram:0001bfa6    03d0            beq         LAB_0001bfb0                            
ram:0001bfa8    0022            movs        r2,#0x0                                 
ram:0001bfaa    1146            mov         r1,r2                                   
ram:0001bfac    fcf752fe        bl          FUN_00018c54                            ;undefined FUN_00018c54(void)
                            LAB_0001bfb0:                 ;XREF[1,0]:   0001bfa6
ram:0001bfb0    1548            ldr         r0,[DAT_0001c008]                       ;= 2000200Ch
ram:0001bfb2    164a            ldr         r2,[DAT_0001c00c]                       ;= 0001A9BDh
ram:0001bfb4    0121            movs        r1,#0x1                                 
ram:0001bfb6    001d            adds        r0=>DAT_20002010,r0,#0x4                
ram:0001bfb8    fdf746f8        bl          FUN_00019048                            ;undefined4 FUN_00019048(int * param_...
ram:0001bfbc    0028            cmp         r0,#0x0                                 
ram:0001bfbe    03d0            beq         LAB_0001bfc8                            
ram:0001bfc0    0022            movs        r2,#0x0                                 
ram:0001bfc2    1146            mov         r1,r2                                   
ram:0001bfc4    fcf746fe        bl          FUN_00018c54                            ;undefined FUN_00018c54(void)
                            LAB_0001bfc8:                 ;XREF[1,0]:   0001bfbe
ram:0001bfc8    0f48            ldr         r0,[DAT_0001c008]                       ;= 2000200Ch
ram:0001bfca    114a            ldr         r2=>FUN_00019e78+1,[PTR_FUN_00019e78+...;= 00019e79
ram:0001bfcc    0121            movs        r1,#0x1                                 
ram:0001bfce    0830            adds        r0=>DAT_20002014,#0x8                   
ram:0001bfd0    fdf73af8        bl          FUN_00019048                            ;undefined4 FUN_00019048(int * param_...
ram:0001bfd4    0028            cmp         r0,#0x0                                 
ram:0001bfd6    03d0            beq         LAB_0001bfe0                            
ram:0001bfd8    0022            movs        r2,#0x0                                 
ram:0001bfda    1146            mov         r1,r2                                   
ram:0001bfdc    fcf73afe        bl          FUN_00018c54                            ;undefined FUN_00018c54(void)
                            LAB_0001bfe0:                 ;XREF[1,0]:   0001bfd6
ram:0001bfe0    0948            ldr         r0,[DAT_0001c008]                       ;= 2000200Ch
ram:0001bfe2    0c4a            ldr         r2=>LAB_000193d8...,[PTR_LAB_000193d8...;= 000193d9
ram:0001bfe4    0121            movs        r1,#0x1                                 
ram:0001bfe6    0c30            adds        r0=>DAT_20002018,#0xc                   
ram:0001bfe8    fdf72ef8        bl          FUN_00019048                            ;undefined4 FUN_00019048(int * param_...
ram:0001bfec    0028            cmp         r0,#0x0                                 
ram:0001bfee    03d0            beq         LAB_0001bff8                            
ram:0001bff0    0022            movs        r2,#0x0                                 
ram:0001bff2    1146            mov         r1,r2                                   
ram:0001bff4    fcf72efe        bl          FUN_00018c54                            ;undefined FUN_00018c54(void)
                            LAB_0001bff8:                 ;XREF[1,0]:   0001bfee
ram:0001bff8    08bd            pop         {r3,pc}                                 
ram:0001bffa    0000            movs        r0,r0                                   
                            PTR_LAB_000190b0+1+1_0001bffc:;XREF[1,0]:   0001bf7e
ram:0001bffc    b1900100        addr        LAB_000190b0+1+1                        
                            DAT_0001c000:                 ;XREF[1,0]:   0001bf82
ram:0001c000    50210020        undefined4  20002150h                               
                            PTR_LAB_0001bbb4+1+1_0001c004:;XREF[1,0]:   0001bf9a
ram:0001c004    b5bb0100        addr        LAB_0001bbb4+1+1                        
                            DAT_0001c008:                 ;XREF[4,0]:   0001bf9e,0001bfb0,0001bfc8,0001bfe0
ram:0001c008    0c200020        undefined4  2000200Ch                               
                            DAT_0001c00c:                 ;XREF[1,0]:   0001bfb2
ram:0001c00c    bda90100        undefined4  0001A9BDh                               ;?  ->  0001a9bd
                            PTR_FUN_00019e78+1_0001c010:  ;XREF[1,0]:   0001bfca
ram:0001c010    799e0100        addr        FUN_00019e78+1                          
                            PTR_LAB_000193d8+1+1_0001c014:;XREF[1,0]:   0001bfe2
ram:0001c014    d9930100        addr        LAB_000193d8+1+1                        
                            ;************************************************************************************************
                            ;*                                           FUNCTION                                           *
                            ;************************************************************************************************
                            ;undefined8 FUN_0001c018(int param_1, uint param_2, undefined4 param_3, undefined4 param_4)
          ;param_1       int                 r0                      
          ;param_2       uint                r1                      
          ;param_3       undefined4          r2                      
          ;param_4       undefined4          r3                      
          ;local_1c      undefined4         -1c                      ;XREF[1,0]:   0001c034
          ;local_20      undefined4         -20                      ;XREF[1,0]:   0001c036
                                                          ;XREF[2,0]:   00018ab6,0001b61e
ram:0001c018    feb5            push        {param_2,param_3,param_4,r4,r5,r6,r7,lr}
ram:0001c01a    0025            movs        r5,#0x0                                 
ram:0001c01c    0746            mov         r7,param_1                              
ram:0001c01e    2c46            mov         r4,r5                                   
ram:0001c020    0126            movs        r6,#0x1                                 
                            LAB_0001c022:                 ;XREF[1,0]:   0001c04c
ram:0001c022    6006            lsls        param_1,r4,#0x19                        
ram:0001c024    000e            lsrs        param_1,param_1,#0x18                   
ram:0001c026    8100            lsls        param_2,param_1,#0x2                    
ram:0001c028    4018            adds        param_1,param_1,param_2                 
ram:0001c02a    c119            adds        param_2,param_1,r7                      
ram:0001c02c    0522            movs        param_3,#0x5                            
ram:0001c02e    6846            mov         param_1,sp                              
ram:0001c030    fcf7c4f8        bl          FUN_000181bc                            ;undefined FUN_000181bc(undefined4 * ...
ram:0001c034    0199            ldr         param_2,[sp,#local_1c+0x20]             
ram:0001c036    0098            ldr         param_1,[sp,#0x0]=>local_20             
ram:0001c038    00f000f9        bl          FUN_0001c23c                            ;undefined4 FUN_0001c23c(uint param_1)
ram:0001c03c    0028            cmp         param_1,#0x0                            
ram:0001c03e    03d0            beq         LAB_0001c048                            
ram:0001c040    3046            mov         param_1,r6                              
ram:0001c042    a040            lsls        param_1,r4                              
ram:0001c044    2843            orrs        param_1,r5                              
ram:0001c046    c5b2            uxtb        r5,param_1                              
                            LAB_0001c048:                 ;XREF[1,0]:   0001c03e
ram:0001c048    641c            adds        r4,r4,#0x1                              
ram:0001c04a    032c            cmp         r4,#0x3                                 
ram:0001c04c    e9db            blt         LAB_0001c022                            
ram:0001c04e    2846            mov         param_1,r5                              
ram:0001c050    febd            pop         {param_2,param_3,param_4,r4,r5,r6,r7,pc}
                            ;************************************************************************************************
                            ;*                                           FUNCTION                                           *
                            ;************************************************************************************************
                            ;undefined4 FUN_0001c052(undefined4 param_1, undefined * param_2)
          ;param_1       undefined4          r0                      
          ;param_2       undefined *         r1                      
                                                          ;XREF[5,0]:   00018994,00019de4,00019df4,0001ad06
                                                          ;             0001b774
ram:0001c052    0870            strb        param_1,[param_2,#0x0]                  
ram:0001c054    000a            lsrs        param_1,param_1,#0x8                    
ram:0001c056    4870            strb        param_1,[param_2,#0x1]                  
ram:0001c058    0220            movs        param_1,#0x2                            
ram:0001c05a    7047            bx          lr                                      
                            ;************************************************************************************************
                            ;*                                           FUNCTION                                           *
                            ;************************************************************************************************
                            ;undefined FUN_0001c05c(byte * param_1)
          ;param_1       byte *              r0                      
                                                          ;XREF[1,0]:   0001bbbc
ram:0001c05c    8178            ldrb        r1,[param_1,#0x2]                       
ram:0001c05e    491c            adds        r1,r1,#0x1                              
ram:0001c060    c9b2            uxtb        r1,r1                                   
ram:0001c062    8170            strb        r1,[param_1,#0x2]                       
ram:0001c064    3c29            cmp         r1,#0x3c                                
ram:0001c066    16d3            bcc         LAB_0001c096                            
ram:0001c068    0021            movs        r1,#0x0                                 
ram:0001c06a    8170            strb        r1,[param_1,#0x2]                       
ram:0001c06c    4278            ldrb        r2,[param_1,#0x1]                       
ram:0001c06e    521c            adds        r2,r2,#0x1                              
ram:0001c070    d2b2            uxtb        r2,r2                                   
ram:0001c072    4270            strb        r2,[param_1,#0x1]                       
ram:0001c074    182a            cmp         r2,#0x18                                
ram:0001c076    0ed3            bcc         LAB_0001c096                            
ram:0001c078    4170            strb        r1,[param_1,#0x1]                       
ram:0001c07a    0278            ldrb        r2,[param_1,#0x0]                       
ram:0001c07c    521c            adds        r2,r2,#0x1                              
ram:0001c07e    d2b2            uxtb        r2,r2                                   
ram:0001c080    0270            strb        r2,[param_1,#0x0]                       
ram:0001c082    072a            cmp         r2,#0x7                                 
ram:0001c084    00d3            bcc         LAB_0001c088                            
ram:0001c086    0170            strb        r1,[param_1,#0x0]                       
                            LAB_0001c088:                 ;XREF[1,0]:   0001c084
ram:0001c088    c178            ldrb        r1,[param_1,#0x3]                       
ram:0001c08a    c906            lsls        r1,r1,#0x1b                             
ram:0001c08c    c90e            lsrs        r1,r1,#0x1b                             
ram:0001c08e    0e29            cmp         r1,#0xe                                 
ram:0001c090    01d2            bcs         LAB_0001c096                            
ram:0001c092    491c            adds        r1,r1,#0x1                              
ram:0001c094    c170            strb        r1,[param_1,#0x3]                       
                            LAB_0001c096:                 ;XREF[3,0]:   0001c066,0001c076,0001c090
ram:0001c096    7047            bx          lr                                      
                            ;************************************************************************************************
                            ;*                                           FUNCTION                                           *
                            ;************************************************************************************************
                            ;undefined FUN_0001c098(void)
          ;local_10      undefined1         -10                      ;XREF[1,0]:   0001c0e8
                                                          ;XREF[0,2]:   000195a4,000195b8
ram:0001c098    38b5            push        {r3,r4,r5,lr}                           
ram:0001c09a    1549            ldr         r1,[DAT_0001c0f0]                       ;= 200020A0h
ram:0001c09c    154a            ldr         r2,[DAT_0001c0f4]                       ;= 0000FFFFh
ram:0001c09e    4888            ldrh        r0,[r1,#0x2]=>DAT_200020a2              
ram:0001c0a0    9042            cmp         r0,r2                                   
ram:0001c0a2    0fd0            beq         LAB_0001c0c4                            
ram:0001c0a4    4a78            ldrb        r2,[r1,#0x1]=>DAT_200020a1              
ram:0001c0a6    144c            ldr         r4,[DAT_0001c0f8]                       ;= 200027D0h
ram:0001c0a8    521c            adds        r2,r2,#0x1                              
ram:0001c0aa    d2b2            uxtb        r2,r2                                   
ram:0001c0ac    4a70            strb        r2,[r1,#0x1]=>DAT_200020a1              
ram:0001c0ae    237b            ldrb        r3,[r4,#0xc]=>DAT_200027dc              
ram:0001c0b0    9342            cmp         r3,r2                                   
ram:0001c0b2    08d3            bcc         LAB_0001c0c6                            
ram:0001c0b4    0831            adds        r1,#0x8                                 
ram:0001c0b6    75df            svc         0x75                                    
ram:0001c0b8    0028            cmp         r0,#0x0                                 
ram:0001c0ba    03d0            beq         LAB_0001c0c4                            
ram:0001c0bc    a169            ldr         r1,[r4,#0x18]=>DAT_200027e8             
ram:0001c0be    0029            cmp         r1,#0x0                                 
ram:0001c0c0    00d0            beq         LAB_0001c0c4                            
ram:0001c0c2    8847            blx         r1                                      
                            LAB_0001c0c4:                 ;XREF[4,0]:   0001c0a2,0001c0ba,0001c0c0,0001c0e4
ram:0001c0c4    38bd            pop         {r3,r4,r5,pc}                           
                            LAB_0001c0c6:                 ;XREF[1,0]:   0001c0b2
ram:0001c0c6    0025            movs        r5,#0x0                                 
ram:0001c0c8    4d70            strb        r5,[r1,#0x1]=>DAT_200020a1              
ram:0001c0ca    217c            ldrb        r1,[r4,#0x10]=>DAT_200027e0             
ram:0001c0cc    0029            cmp         r1,#0x0                                 
ram:0001c0ce    07d0            beq         LAB_0001c0e0                            
ram:0001c0d0    3b21            movs        r1,#0x3b                                
ram:0001c0d2    76df            svc         0x76                                    
ram:0001c0d4    0028            cmp         r0,#0x0                                 
ram:0001c0d6    03d0            beq         LAB_0001c0e0                            
ram:0001c0d8    a169            ldr         r1,[r4,#0x18]=>DAT_200027e8             
ram:0001c0da    0029            cmp         r1,#0x0                                 
ram:0001c0dc    00d0            beq         LAB_0001c0e0                            
ram:0001c0de    8847            blx         r1                                      
                            LAB_0001c0e0:                 ;XREF[3,0]:   0001c0ce,0001c0d6,0001c0dc
ram:0001c0e0    6169            ldr         r1,[r4,#0x14]=>DAT_200027e4             
ram:0001c0e2    0029            cmp         r1,#0x0                                 
ram:0001c0e4    eed0            beq         LAB_0001c0c4                            
ram:0001c0e6    6846            mov         r0,sp                                   
ram:0001c0e8    0570            strb        r5,[r0,#0x0]=>local_10                  
ram:0001c0ea    8847            blx         r1                                      
ram:0001c0ec    38bd            pop         {r3,r4,r5,pc}                           
ram:0001c0ee    0000            movs        r0,r0                                   
                            DAT_0001c0f0:                 ;XREF[1,0]:   0001c09a
ram:0001c0f0    a0200020        undefined4  200020A0h                               
                            DAT_0001c0f4:                 ;XREF[1,0]:   0001c09c
ram:0001c0f4    ffff0000        undefined4  0000FFFFh                               
                            DAT_0001c0f8:                 ;XREF[1,0]:   0001c0a6
ram:0001c0f8    d0270020        undefined4  200027D0h                               
                            ;************************************************************************************************
                            ;*                                           FUNCTION                                           *
                            ;************************************************************************************************
                            ;undefined4 FUN_0001c0fc(void)
                                                          ;XREF[2,0]:   000191b4,00019224
ram:0001c0fc    1249            ldr         r1,[DAT_0001c148]                       ;= E000ED00h
ram:0001c0fe    4868            ldr         r0,[r1,#offset DAT_e000ed04 &0xff]      
ram:0001c100    c005            lsls        r0,r0,#0x17                             
ram:0001c102    c00d            lsrs        r0,r0,#0x17                             
ram:0001c104    19d0            beq         LAB_0001c13a                            
ram:0001c106    1038            subs        r0,#0x10                                
ram:0001c108    40b2            sxtb        r0,r0                                   
ram:0001c10a    0028            cmp         r0,#0x0                                 
ram:0001c10c    07da            bge         LAB_0001c11e                            
ram:0001c10e    0207            lsls        r2,r0,#0x1c                             
ram:0001c110    120f            lsrs        r2,r2,#0x1c                             
ram:0001c112    083a            subs        r2,#0x8                                 
ram:0001c114    9208            lsrs        r2,r2,#0x2                              
ram:0001c116    9200            lsls        r2,r2,#0x2                              
ram:0001c118    5118            adds        r1,r2,r1                                
ram:0001c11a    c969            ldr         r1,[r1,#0x1c]                           
ram:0001c11c    04e0            b           LAB_0001c128                            
                            LAB_0001c11e:                 ;XREF[1,0]:   0001c10c
ram:0001c11e    8108            lsrs        r1,r0,#0x2                              
ram:0001c120    0a4a            ldr         r2,[DAT_0001c14c]                       ;= E000E400h
ram:0001c122    8900            lsls        r1,r1,#0x2                              
ram:0001c124    8918            adds        r1,r1,r2                                
ram:0001c126    0968            ldr         r1,[r1,#0x0]                            
                            LAB_0001c128:                 ;XREF[1,0]:   0001c11c
ram:0001c128    8007            lsls        r0,r0,#0x1e                             
ram:0001c12a    c00e            lsrs        r0,r0,#0x1b                             
ram:0001c12c    c140            lsrs        r1,r0                                   
ram:0001c12e    0806            lsls        r0,r1,#0x18                             
ram:0001c130    800f            lsrs        r0,r0,#0x1e                             
ram:0001c132    0128            cmp         r0,#0x1                                 
ram:0001c134    03d0            beq         LAB_0001c13e                            
ram:0001c136    0328            cmp         r0,#0x3                                 
ram:0001c138    03d0            beq         LAB_0001c142                            
                            LAB_0001c13a:                 ;XREF[1,0]:   0001c104
ram:0001c13a    0220            movs        r0,#0x2                                 
ram:0001c13c    7047            bx          lr                                      
                            LAB_0001c13e:                 ;XREF[1,0]:   0001c134
ram:0001c13e    0020            movs        r0,#0x0                                 
ram:0001c140    7047            bx          lr                                      
                            LAB_0001c142:                 ;XREF[1,0]:   0001c138
ram:0001c142    0120            movs        r0,#0x1                                 
ram:0001c144    7047            bx          lr                                      
ram:0001c146    0000            movs        r0,r0                                   
                            DAT_0001c148:                 ;XREF[1,0]:   0001c0fc
ram:0001c148    00ed00e0        undefined4  E000ED00h                               
                            DAT_0001c14c:                 ;XREF[1,0]:   0001c120
ram:0001c14c    00e400e0        undefined4  E000E400h                               
                            ;************************************************************************************************
                            ;*                                           FUNCTION                                           *
                            ;************************************************************************************************
                            ;int FUN_0001c150(byte * param_1, uint * param_2)
          ;param_1       byte *              r0                      
          ;param_2       uint *              r1                      
                                                          ;XREF[2,0]:   000191c4,00019230
ram:0001c150    4278            ldrb        r2,[param_1,#0x1]                       
ram:0001c152    8378            ldrb        r3,[param_1,#0x2]                       
ram:0001c154    521c            adds        r2,r2,#0x1                              
ram:0001c156    9342            cmp         r3,r2                                   
ram:0001c158    00d1            bne         LAB_0001c15c                            
ram:0001c15a    0022            movs        r2,#0x0                                 
                            LAB_0001c15c:                 ;XREF[1,0]:   0001c158
ram:0001c15c    0378            ldrb        r3,[param_1,#0x0]                       
ram:0001c15e    9342            cmp         r3,r2                                   
ram:0001c160    01d1            bne         LAB_0001c166                            
ram:0001c162    0020            movs        param_1,#0x0                            
ram:0001c164    7047            bx          lr                                      
                            LAB_0001c166:                 ;XREF[1,0]:   0001c160
ram:0001c166    0a60            str         r2,[param_2,#0x0]                       
ram:0001c168    4168            ldr         param_2,[param_1,#0x4]                  
ram:0001c16a    4078            ldrb        param_1,[param_1,#0x1]                  
ram:0001c16c    1822            movs        r2,#0x18                                
ram:0001c16e    5043            muls        param_1,r2                              
ram:0001c170    0818            adds        param_1,param_2,param_1                 
ram:0001c172    7047            bx          lr                                      
                            ;************************************************************************************************
                            ;*                                           FUNCTION                                           *
                            ;************************************************************************************************
                            ;undefined8 FUN_0001c174(ushort * param_1, undefined * param_2, undefined * param_3, undefined * param_4, byte * param_5)
          ;param_1       ushort *            r0                      
          ;param_2       undefined *         r1                      
          ;param_3       undefined *         r2                      
          ;param_4       undefined *         r3                      
          ;param_5       byte *               0                      ;XREF[1,0]:   0001c178
          ;local_18      undefined4         -18                      ;XREF[2,0]:   0001c180,0001c192
                                                          ;XREF[3,0]:   00018a0c,00018a26,00018a40
ram:0001c174    f8b5            push        {param_4,r4,r5,r6,r7,lr}                
ram:0001c176    1546            mov         r5,param_3                              
ram:0001c178    069c            ldr         r4,[sp,#param_5+0x18]                   
ram:0001c17a    1e46            mov         r6,param_4                              
ram:0001c17c    0746            mov         r7,param_1                              
ram:0001c17e    0222            movs        param_3,#0x2                            
ram:0001c180    0094            str         r4,[sp,#0x0]=>local_18                  
ram:0001c182    00f00af8        bl          FUN_0001c19a                            ;undefined8 FUN_0001c19a(ushort * par...
ram:0001c186    0028            cmp         param_1,#0x0                            
ram:0001c188    06d1            bne         LAB_0001c198                            
ram:0001c18a    3346            mov         param_4,r6                              
ram:0001c18c    1022            movs        param_3,#0x10                           
ram:0001c18e    2946            mov         param_2,r5                              
ram:0001c190    3846            mov         param_1,r7                              
ram:0001c192    0094            str         r4,[sp,#0x0]=>local_18                  
ram:0001c194    00f001f8        bl          FUN_0001c19a                            ;undefined8 FUN_0001c19a(ushort * par...
                            LAB_0001c198:                 ;XREF[1,0]:   0001c188
ram:0001c198    f8bd            pop         {param_4,r4,r5,r6,r7,pc}                
                            ;************************************************************************************************
                            ;*                                           FUNCTION                                           *
                            ;************************************************************************************************
                            ;undefined8 FUN_0001c19a(ushort * param_1, undefined * param_2, uint param_3, undefined * param_4, byte * param_5)
          ;param_1       ushort *            r0                      
          ;param_2       undefined *         r1                      
          ;param_3       uint                r2                      
          ;param_4       undefined *         r3                      
          ;param_5       byte *               0                      ;XREF[1,0]:   0001c1a2
          ;local_18      undefined4         -18                      ;XREF[3,0]:   0001c1fa,0001c208,0001c230
          ;local_1c      undefined4         -1c                      ;XREF[1,0]:   0001c1cc
          ;local_20      undefined4         -20                      ;XREF[1,0]:   0001c1fc
          ;local_2a      undefined2         -2a                      ;XREF[1,0]:   0001c1ba
          ;local_2c      undefined2         -2c                      ;XREF[1,0]:   0001c1b6
          ;local_30      undefined1         -30                      ;XREF[2,0]:   0001c1ca,0001c21a
                                                          ;XREF[2,0]:   0001c182,0001c194
ram:0001c19a    ffb5            push        {param_1,param_2,param_3,param_4,r4,r...
ram:0001c19c    83b0            sub         sp,#0xc                                 
ram:0001c19e    0746            mov         r7,param_1                              
ram:0001c1a0    0020            movs        param_1,#0x0                            
ram:0001c1a2    0c9c            ldr         r4,[sp,#param_5+0x30]                   
ram:0001c1a4    8646            mov         lr,param_1                              
ram:0001c1a6    2678            ldrb        r6,[r4,#0x0]                            
ram:0001c1a8    0546            mov         r5,param_1                              
ram:0001c1aa    3ae0            b           LAB_0001c222                            
                            LAB_0001c1ac:                 ;XREF[1,0]:   0001c226
ram:0001c1ac    7868            ldr         param_1,[r7,#0x4]                       
ram:0001c1ae    a900            lsls        param_2,r5,#0x2                         
ram:0001c1b0    4118            adds        param_2,param_1,param_2                 
ram:0001c1b2    0a88            ldrh        param_3,[param_2,#0x0]                  
ram:0001c1b4    6846            mov         param_1,sp                              
ram:0001c1b6    8280            strh        param_3,[r0,#local_2c+0x30]             
ram:0001c1b8    4988            ldrh        param_2,[param_2,#0x2]                  
ram:0001c1ba    c180            strh        param_2,[r0,#local_2a+0x30]             
ram:0001c1bc    0022            movs        param_3,#0x0                            
ram:0001c1be    6946            mov         param_2,sp                              
ram:0001c1c0    01a8            add         param_1,sp,#0x4                         
ram:0001c1c2    65df            svc         0x65                                    
ram:0001c1c4    0028            cmp         param_1,#0x0                            
ram:0001c1c6    10d1            bne         LAB_0001c1ea                            
ram:0001c1c8    6846            mov         param_1,sp                              
ram:0001c1ca    0178            ldrb        param_2=>local_30,[param_1,#0x0]        
ram:0001c1cc    0598            ldr         param_1,[sp,#local_1c+0x30]             
ram:0001c1ce    8142            cmp         param_2,param_1                         
ram:0001c1d0    26d1            bne         LAB_0001c220                            
ram:0001c1d2    7046            mov         param_1,lr                              
ram:0001c1d4    0028            cmp         param_1,#0x0                            
ram:0001c1d6    01d0            beq         LAB_0001c1dc                            
ram:0001c1d8    0022            movs        param_3,#0x0                            
ram:0001c1da    00e0            b           LAB_0001c1de                            
                            LAB_0001c1dc:                 ;XREF[1,0]:   0001c1d6
ram:0001c1dc    0222            movs        param_3,#0x2                            
                            LAB_0001c1de:                 ;XREF[1,0]:   0001c1da
ram:0001c1de    2078            ldrb        param_1,[r4,#0x0]                       
ram:0001c1e0    8918            adds        param_2,param_2,param_3                 
ram:0001c1e2    4118            adds        param_2,param_1,param_2                 
ram:0001c1e4    1f29            cmp         param_2,#0x1f                           
ram:0001c1e6    02d9            bls         LAB_0001c1ee                            
ram:0001c1e8    0c20            movs        param_1,#0xc                            
                            LAB_0001c1ea:                 ;XREF[3,0]:   0001c1c6,0001c214,0001c23a
ram:0001c1ea    07b0            add         sp,#0x1c                                
ram:0001c1ec    f0bd            pop         {r4,r5,r6,r7,pc}                        
                            LAB_0001c1ee:                 ;XREF[1,0]:   0001c1e6
ram:0001c1ee    7146            mov         param_2,lr                              
ram:0001c1f0    0029            cmp         param_2,#0x0                            
ram:0001c1f2    08d1            bne         LAB_0001c206                            
ram:0001c1f4    401c            adds        param_1,param_1,#0x1                    
ram:0001c1f6    c0b2            uxtb        param_1,param_1                         
ram:0001c1f8    411c            adds        param_2,param_1,#0x1                    
ram:0001c1fa    069b            ldr         param_4,[sp,#local_18+0x30]             
ram:0001c1fc    049a            ldr         param_3,[sp,#local_20+0x30]             
ram:0001c1fe    2170            strb        param_2,[r4,#0x0]                       
ram:0001c200    1a54            strb        param_3,[param_4,param_1]               
ram:0001c202    0120            movs        param_1,#0x1                            
ram:0001c204    8646            mov         lr,param_1                              
                            LAB_0001c206:                 ;XREF[1,0]:   0001c1f2
ram:0001c206    2178            ldrb        param_2,[r4,#0x0]                       
ram:0001c208    0698            ldr         param_1,[sp,#local_18+0x30]             
ram:0001c20a    0a18            adds        param_3,param_2,param_1                 
ram:0001c20c    6946            mov         param_2,sp                              
ram:0001c20e    01a8            add         param_1,sp,#0x4                         
ram:0001c210    65df            svc         0x65                                    
ram:0001c212    0028            cmp         param_1,#0x0                            
ram:0001c214    e9d1            bne         LAB_0001c1ea                            
ram:0001c216    6946            mov         param_2,sp                              
ram:0001c218    2078            ldrb        param_1,[r4,#0x0]                       
ram:0001c21a    0978            ldrb        param_2=>local_30,[param_2,#0x0]        
ram:0001c21c    4018            adds        param_1,param_1,param_2                 
ram:0001c21e    2070            strb        param_1,[r4,#0x0]                       
                            LAB_0001c220:                 ;XREF[1,0]:   0001c1d0
ram:0001c220    6d1c            adds        r5,r5,#0x1                              
                            LAB_0001c222:                 ;XREF[1,0]:   0001c1aa
ram:0001c222    3888            ldrh        param_1,[r7,#0x0]                       
ram:0001c224    a842            cmp         param_1,r5                              
ram:0001c226    c1dc            bgt         LAB_0001c1ac                            
ram:0001c228    7046            mov         param_1,lr                              
ram:0001c22a    0028            cmp         param_1,#0x0                            
ram:0001c22c    04d0            beq         LAB_0001c238                            
ram:0001c22e    2078            ldrb        param_1,[r4,#0x0]                       
ram:0001c230    0699            ldr         param_2,[sp,#local_18+0x30]             
ram:0001c232    801b            subs        param_1,param_1,r6                      
ram:0001c234    401e            subs        param_1,param_1,#0x1                    
ram:0001c236    8855            strb        param_1,[param_2,r6]                    
                            LAB_0001c238:                 ;XREF[1,0]:   0001c22c
ram:0001c238    0020            movs        param_1,#0x0                            
ram:0001c23a    d6e7            b           LAB_0001c1ea                            
                            ;************************************************************************************************
                            ;*                                           FUNCTION                                           *
                            ;************************************************************************************************
                            ;undefined4 FUN_0001c23c(uint param_1)
          ;param_1       uint                r0                      
          ;local_9       undefined1          -9                      ;XREF[1,0]:   0001c260
          ;local_a       undefined1          -a                      ;XREF[1,0]:   0001c258
          ;local_b       undefined1          -b                      ;XREF[1,0]:   0001c24c
          ;local_c       undefined1          -c                      ;XREF[1,0]:   0001c240
                                                          ;XREF[4,0]:   00019f8c,0001b57c,0001b5da,0001c038
ram:0001c23c    03b5            push        {param_1,r1,lr}                         
ram:0001c23e    6846            mov         param_1,sp                              
ram:0001c240    0078            ldrb        param_1=>local_c,[param_1,#0x0]         
ram:0001c242    00f018f8        bl          FUN_0001c276                            ;undefined4 FUN_0001c276(uint param_1)
ram:0001c246    0028            cmp         param_1,#0x0                            
ram:0001c248    0dd0            beq         LAB_0001c266                            
ram:0001c24a    6846            mov         param_1,sp                              
ram:0001c24c    4078            ldrb        param_1,[r0,#local_b+0xc]               
ram:0001c24e    00f00ef8        bl          FUN_0001c26e                            ;int FUN_0001c26e(int param_1)
ram:0001c252    0028            cmp         param_1,#0x0                            
ram:0001c254    07d0            beq         LAB_0001c266                            
ram:0001c256    6846            mov         param_1,sp                              
ram:0001c258    8078            ldrb        param_1,[r0,#local_a+0xc]               
ram:0001c25a    1828            cmp         param_1,#0x18                           
ram:0001c25c    03d2            bcs         LAB_0001c266                            
ram:0001c25e    6846            mov         param_1,sp                              
ram:0001c260    c078            ldrb        param_1,[r0,#local_9+0xc]               
ram:0001c262    3c28            cmp         param_1,#0x3c                           
ram:0001c264    01d3            bcc         LAB_0001c26a                            
                            LAB_0001c266:                 ;XREF[3,0]:   0001c248,0001c254,0001c25c
ram:0001c266    0020            movs        param_1,#0x0                            
ram:0001c268    0cbd            pop         {r2,r3,pc}                              
                            LAB_0001c26a:                 ;XREF[1,0]:   0001c264
ram:0001c26a    0120            movs        param_1,#0x1                            
ram:0001c26c    0cbd            pop         {r2,r3,pc}                              
                            ;************************************************************************************************
                            ;*                                           FUNCTION                                           *
                            ;************************************************************************************************
                            ;int FUN_0001c26e(int param_1)
          ;param_1       int                 r0                      
                                                          ;XREF[1,0]:   0001c24e
ram:0001c26e    4006            lsls        param_1,param_1,#0x19                   
ram:0001c270    00d0            beq         LAB_0001c274                            
ram:0001c272    0120            movs        param_1,#0x1                            
                            LAB_0001c274:                 ;XREF[1,0]:   0001c270
ram:0001c274    7047            bx          lr                                      
                            ;************************************************************************************************
                            ;*                                           FUNCTION                                           *
                            ;************************************************************************************************
                            ;undefined4 FUN_0001c276(uint param_1)
          ;param_1       uint                r0                      
                                                          ;XREF[4,0]:   00019b1c,00019f68,0001b55a,0001c242
ram:0001c276    0328            cmp         param_1,#0x3                            
ram:0001c278    01d2            bcs         LAB_0001c27e                            
ram:0001c27a    0120            movs        param_1,#0x1                            
ram:0001c27c    7047            bx          lr                                      
                            LAB_0001c27e:                 ;XREF[1,0]:   0001c278
ram:0001c27e    0020            movs        param_1,#0x0                            
ram:0001c280    7047            bx          lr                                      
ram:0001c282    0000            movs        r0,r0                                   
                            DAT_0001c284:                 ;XREF[2,0]:   00018b00,00018b58
ram:0001c284    23150000        undefined4  00001523h                               
                            DAT_0001c288:                 ;XREF[2,0]:   00019814,00019870
ram:0001c288    23d1bcea        undefined4  EABCD123h                               
                            DAT_0001c28c:                 ;XREF[1,0]:   00019814
ram:0001c28c    5f782315        undefined4  1523785Fh                               
                            DAT_0001c290:                 ;XREF[1,0]:   00019814
ram:0001c290    deef1212        undefined4  1212EFDEh                               
                            DAT_0001c294:                 ;XREF[1,0]:   00019814
ram:0001c294    00000000        undefined4  00000000h                               
                            DAT_0001c298:                 ;XREF[2,0]:   00019678,000196e0
ram:0001c298    23d1bcea        undefined4  EABCD123h                               
                            DAT_0001c29c:                 ;XREF[1,0]:   00019678
ram:0001c29c    5f782315        undefined4  1523785Fh                               
                            DAT_0001c2a0:                 ;XREF[1,0]:   00019678
ram:0001c2a0    deef1212        undefined4  1212EFDEh                               
                            DAT_0001c2a4:                 ;XREF[1,0]:   00019678
ram:0001c2a4    00000000        undefined4  00000000h                               
                            PTR_DAT_0001c2a8:             ;XREF[2,0]:   00018342,0001835c
ram:0001c2a8    c8c20100        addr        DAT_0001c2c8                            ;= 51h    Q
                            DAT_0001c2ac:                 ;XREF[1,0]:   00018342
ram:0001c2ac    00200020        undefined4  20002000h                               
                            DAT_0001c2b0:                 ;XREF[1,0]:   00018342
ram:0001c2b0    50010000        undefined4  00000150h                               
                            PTR_FUN_0001c2b4:             ;XREF[1,0]:   00018340
ram:0001c2b4    9e830100        addr        FUN_0001839e                            
ram:0001c2b8    0c              ??          0Ch                                     
ram:0001c2b9    c3              ??          C3h                                     
ram:0001c2ba    01              ??          01h                                     
ram:0001c2bb    00              ??          00h                                     
ram:0001c2bc    50              ??          50h    P                                
ram:0001c2bd    21              ??          21h    !                                
ram:0001c2be    00              ??          00h                                     
ram:0001c2bf    20              ??          20h                                     
ram:0001c2c0    c8              ??          C8h                                     
ram:0001c2c1    17              ??          17h                                     
ram:0001c2c2    00              ??          00h                                     
ram:0001c2c3    00              ??          00h                                     
ram:0001c2c4    d4              ??          D4h                                     ;?  ->  000188d4
ram:0001c2c5    88              ??          88h                                     
ram:0001c2c6    01              ??          01h                                     
ram:0001c2c7    00              ??          00h                                     
                            DAT_0001c2c8:                 ;XREF[3,0]:   00018342,00018358,0001c2a8
ram:0001c2c8    51              ??          51h    Q                                
ram:0001c2c9    03              ??          03h                                     
ram:0001c2ca    2f              ??          2Fh    /                                
ram:0001c2cb    ff              ??          FFh                                     
ram:0001c2cc    ff              ??          FFh                                     
ram:0001c2cd    08              ??          08h                                     
ram:0001c2ce    12              ??          12h                                     
ram:0001c2cf    0b              ??          0Bh                                     
ram:0001c2d0    01              ??          01h                                     
ram:0001c2d1    01              ??          01h                                     
ram:0001c2d2    00              ??          00h                                     
ram:0001c2d3    f1              ??          F1h                                     
ram:0001c2d4    99              ??          99h                                     
ram:0001c2d5    01              ??          01h                                     
ram:0001c2d6    e0              ??          E0h                                     
ram:0001c2d7    25              ??          25h    %                                
ram:0001c2d8    02              ??          02h                                     
ram:0001c2d9    15              ??          15h                                     
ram:0001c2da    01              ??          01h                                     
ram:0001c2db    12              ??          12h                                     
ram:0001c2dc    23              ??          23h    #                                
ram:0001c2dd    34              ??          34h    4                                
ram:0001c2de    45              ??          45h    E                                
ram:0001c2df    56              ??          56h    V                                
ram:0001c2e0    67              ??          67h    g                                
ram:0001c2e1    78              ??          78h    x                                
ram:0001c2e2    89              ??          89h                                     
ram:0001c2e3    9a              ??          9Ah                                     
ram:0001c2e4    ab              ??          ABh                                     
ram:0001c2e5    bc              ??          BCh                                     
ram:0001c2e6    cd              ??          CDh                                     
ram:0001c2e7    de              ??          DEh                                     
ram:0001c2e8    ef              ??          EFh                                     
ram:0001c2e9    f0              ??          F0h                                     
ram:0001c2ea    01              ??          01h                                     
ram:0001c2eb    02              ??          02h                                     
ram:0001c2ec    03              ??          03h                                     
ram:0001c2ed    04              ??          04h                                     
ram:0001c2ee    c3              ??          C3h                                     
ram:0001c2ef    00              ??          00h                                     
ram:0001c2f0    80              ??          80h                                     
ram:0001c2f1    24              ??          24h    $                                
ram:0001c2f2    00              ??          00h                                     
ram:0001c2f3    20              ??          20h                                     
ram:0001c2f4    9c              ??          9Ch                                     
ram:0001c2f5    24              ??          24h    $                                
ram:0001c2f6    00              ??          00h                                     
ram:0001c2f7    20              ??          20h                                     
ram:0001c2f8    b3              ??          B3h                                     
ram:0001c2f9    24              ??          24h    $                                
ram:0001c2fa    00              ??          00h                                     
ram:0001c2fb    20              ??          20h                                     
ram:0001c2fc    03              ??          03h                                     
ram:0001c2fd    3a              ??          3Ah    :                                
ram:0001c2fe    24              ??          24h    $                                
ram:0001c2ff    f4              ??          F4h                                     
ram:0001c300    42              ??          42h    B                                
ram:0001c301    01              ??          01h                                     
ram:0001c302    03              ??          03h                                     
ram:0001c303    17              ??          17h                                     
ram:0001c304    ff              ??          FFh                                     
ram:0001c305    ff              ??          FFh                                     
ram:0001c306    04              ??          04h                                     
ram:0001c307    7a              ??          7Ah    z                                
ram:0001c308    c1              ??          C1h                                     ;?  ->  0001a1c1
ram:0001c309    a1              ??          A1h                                     
ram:0001c30a    01              ??          01h                                     
ram:0001c30b    00              ??          00h                                     
