                            MasterStackPointer:           
ram:00018000    20390020        addr        DAT_20003920                            
                            Reset:                        ;XREF[1,0]:   Entry Point
ram:00018004    59810100        addr        FUNC_Reset_00018158+1                   
                            NMI:                          ;XREF[1,0]:   Entry Point
ram:00018008    73810100        addr        FUNC_NMI_00018172+1                     
                            HardFault:                    ;XREF[1,0]:   Entry Point
ram:0001800c    75810100        addr        FUNC_HardFault_00018174+1               
                            MemManage:                    ;XREF[1,0]:   Entry Point
ram:00018010    00000000        addr        00000000                                
                            BusFault:                     ;XREF[1,0]:   Entry Point
ram:00018014    00000000        addr        00000000                                
                            UsageFault:                   ;XREF[1,0]:   Entry Point
ram:00018018    00000000        addr        00000000                                
                            Reserved1:                    ;XREF[1,0]:   Entry Point
ram:0001801c    00000000        addr        00000000                                
                            Reserved2:                    ;XREF[1,0]:   Entry Point
ram:00018020    00000000        addr        00000000                                
                            Reserved3:                    ;XREF[1,0]:   Entry Point
ram:00018024    00000000        addr        00000000                                
                            Reserved5:                    ;XREF[1,0]:   Entry Point
                            Reserved6:                    
                            Reserved4:                    
ram:00018028    00000000        addr        00000000                                
                            SVCall:                       ;XREF[1,0]:   Entry Point
ram:0001802c    77810100        addr        FUNC_SVCall_00018176+1                  
ram:00018030    00000000        addr        00000000                                
ram:00018034    00000000        addr        00000000                                
                            PendSV:                       ;XREF[1,0]:   Entry Point
ram:00018038    79810100        addr        FUNC_PendSV_00018178+1                  
                            SysTick:                      ;XREF[1,0]:   Entry Point
ram:0001803c    7b810100        addr        FUNC_SysTick_0001817a+1                 
                            IRQ:                          ;XREF[1,0]:   Entry Point
ram:00018040    7d810100        addr        FUNC_IRQ_0001817c+1                     
ram:00018044    7d810100        addr        FUNC_IRQ_0001817c+1                     
ram:00018048    15880100        addr        FUNC_VT_00018814+1                      
ram:0001804c    7d810100        addr        FUNC_IRQ_0001817c+1                     
ram:00018050    7d810100        addr        FUNC_IRQ_0001817c+1                     
ram:00018054    00000000        addr        00000000                                
ram:00018058    0d850100        addr        FUNC_VT_0001850c+1                      
ram:0001805c    e5830100        addr        FUNC_VT_000183e4+1                      
ram:00018060    7d810100        addr        FUNC_IRQ_0001817c+1                     
ram:00018064    f5870100        addr        FUNC_VT_000187f4+1                      
ram:00018068    7d810100        addr        FUNC_IRQ_0001817c+1                     
ram:0001806c    7d810100        addr        FUNC_IRQ_0001817c+1                     
ram:00018070    7d810100        addr        FUNC_IRQ_0001817c+1                     
ram:00018074    7d810100        addr        FUNC_IRQ_0001817c+1                     
ram:00018078    7d810100        addr        FUNC_IRQ_0001817c+1                     
ram:0001807c    7d810100        addr        FUNC_IRQ_0001817c+1                     
ram:00018080    8d880100        addr        FUNC_VT_0001888c+1                      
ram:00018084    09870100        addr        FUNC_VT_00018708+1                      
ram:00018088    7d810100        addr        FUNC_IRQ_0001817c+1                     
ram:0001808c    7d810100        addr        FUNC_IRQ_0001817c+1                     
ram:00018090    29870100        addr        FUNC_VT_00018728+1                      
ram:00018094    7d810100        addr        FUNC_IRQ_0001817c+1                     
ram:00018098    7d870100        addr        FUNC_VT_0001877c+1                      
ram:0001809c    7d810100        addr        FUNC_IRQ_0001817c+1                     
ram:000180a0    7d810100        addr        FUNC_IRQ_0001817c+1                     
ram:000180a4    7d810100        addr        FUNC_IRQ_0001817c+1                     
ram:000180a8    00000000        addr        00000000                                
ram:000180ac    00000000        addr        00000000                                
ram:000180b0    00000000        addr        00000000                                
ram:000180b4    00000000        addr        00000000                                
ram:000180b8    00000000        addr        00000000                                
ram:000180bc    00              ??          00h                                     
ram:000180bd    00              ??          00h                                     
ram:000180be    00              ??          00h                                     
ram:000180bf    00              ??          00h                                     
                            ;************************************************************************************************
                            ;*                                           FUNCTION                                           *
                            ;************************************************************************************************
                            ;undefined LAB_000180c0+1(undefined4 param_1, undefined4 param_2, undefined * param_3, uint param_4)
          ;param_1       undefined4          r0                      
          ;param_2       undefined4          r1                      
          ;param_3       undefined *         r2                      
          ;param_4       uint                r3                      
                                                          ;XREF[1,1]:   00018170,0001818c
ram:000180c0    0348            ldr         param_1=>DAT_20003920,[DAT_000180d0]    ;= 20003920h
ram:000180c2    8546            mov         sp,param_1                              
ram:000180c4    00f03ef9        bl          FUN_00018344                            ;longlong FUN_00018344(undefined4 par...
                            ;************************************************************************************************
                            ;*                                           FUNCTION                                           *
                            ;************************************************************************************************
                            ;undefined thunk_FUN_0001aa90(void)
                                                          ;XREF[1,0]:   0001835c
ram:000180c8    0048            ldr         r0,[DAT_000180cc]                       ;= 0001AA91h
ram:000180ca    0047            bx          r0=>FUN_0001aa90                        ;undefined FUN_0001aa90(void)
                            DAT_000180cc:                 ;XREF[1,0]:   000180c8
ram:000180cc    91aa0100        undefined4  0001AA91h                               ;?  ->  0001aa91
                            DAT_000180d0:                 ;XREF[1,0]:   000180c0
ram:000180d0    20390020        undefined4  20003920h                               
                            ;************************************************************************************************
                            ;*                                           FUNCTION                                           *
                            ;************************************************************************************************
                            ;undefined FUN_000180d4(int param_1)
          ;param_1       int                 r0                      
                                                          ;XREF[2,0]:   000180ee,0001aeac
ram:000180d4    401e            subs        param_1,param_1,#0x1                    
ram:000180d6    00bf            nop                                                  
ram:000180d8    00bf            nop                                                  
ram:000180da    00bf            nop                                                  
ram:000180dc    00bf            nop                                                  
ram:000180de    00bf            nop                                                  
ram:000180e0    00bf            nop                                                  
ram:000180e2    00bf            nop                                                  
ram:000180e4    00bf            nop                                                  
ram:000180e6    00bf            nop                                                  
ram:000180e8    00bf            nop                                                  
ram:000180ea    00bf            nop                                                  
ram:000180ec    00bf            nop                                                  
ram:000180ee    f1d1            bne         FUN_000180d4                            
ram:000180f0    7047            bx          lr                                      
ram:000180f2    0000            movs        r0,r0                                   
                            ;************************************************************************************************
                            ;*                                           FUNCTION                                           *
                            ;************************************************************************************************
                            ;undefined FUN_000180f4(int param_1)
          ;param_1       int                 r0                      
                                                          ;XREF[4,0]:   0001810e,00019db4,0001b950,0001b95e
ram:000180f4    401e            subs        param_1,param_1,#0x1                    
ram:000180f6    00bf            nop                                                  
ram:000180f8    00bf            nop                                                  
ram:000180fa    00bf            nop                                                  
ram:000180fc    00bf            nop                                                  
ram:000180fe    00bf            nop                                                  
ram:00018100    00bf            nop                                                  
ram:00018102    00bf            nop                                                  
ram:00018104    00bf            nop                                                  
ram:00018106    00bf            nop                                                  
ram:00018108    00bf            nop                                                  
ram:0001810a    00bf            nop                                                  
ram:0001810c    00bf            nop                                                  
ram:0001810e    f1d1            bne         FUN_000180f4                            
ram:00018110    7047            bx          lr                                      
ram:00018112    0000            movs        r0,r0                                   
                            ;************************************************************************************************
                            ;*                                           FUNCTION                                           *
                            ;************************************************************************************************
                            ;undefined FUN_00018114(undefined4 * param_1)
          ;param_1       undefined4 *        r0                      
                                                          ;XREF[1,0]:   00019a76
ram:00018114    0568            ldr         r5,[param_1,#0x0]                       
ram:00018116    85f30888        msr         msp,r5                                  
ram:0001811a    4668            ldr         r6,[param_1,#0x4]                       
ram:0001811c    0a4a            ldr         r2,[DAT_00018148]                       
ram:0001811e    eff30583        mrs         r3,ipsr                                 
ram:00018122    9a42            cmp         r2,r3                                   
ram:00018124    3046            mov         param_1,r6                              
ram:00018126    02d1            bne         LAB_0001812e                            
ram:00018128    084c            ldr         r4,[DAT_0001814c]                       ;= FFFFFFFFh
ram:0001812a    a646            mov         lr,r4                                   
ram:0001812c    3047            bx          r6                                      
                            LAB_0001812e:                 ;XREF[1,0]:   00018126
ram:0001812e    074c            ldr         r4,[DAT_0001814c]                       ;= FFFFFFFFh
ram:00018130    064d            ldr         r5,[DAT_0001814c]                       ;= FFFFFFFFh
ram:00018132    0646            mov         r6,param_1                              
ram:00018134    064f            ldr         r7,[DAT_00018150]                       ;= 21000000h
ram:00018136    f0b4            push        {r4,r5,r6,r7}                           
ram:00018138    034c            ldr         r4,[DAT_00018148]                       
ram:0001813a    034d            ldr         r5,[DAT_00018148]                       
ram:0001813c    024e            ldr         r6,[DAT_00018148]                       
ram:0001813e    024f            ldr         r7,[DAT_00018148]                       
ram:00018140    f0b4            push        {r4,r5,r6,r7}                           
ram:00018142    0448            ldr         param_1,[DAT_00018154]                  ;= FFFFFFF9h
ram:00018144    0047            bx          param_1=>LAB_fffffff8                   
ram:00018146    0000            movs        r0,r0                                   
                            DAT_00018148:                 ;XREF[5,0]:   0001811c,00018138,0001813a,0001813c
                                                          ;             0001813e
ram:00018148    00000000        undefined4  00000000h                               
                            DAT_0001814c:                 ;XREF[3,0]:   00018128,0001812e,00018130
ram:0001814c    ffffffff        undefined4  FFFFFFFFh                               
                            DAT_00018150:                 ;XREF[1,0]:   00018134
ram:00018150    00000021        undefined4  21000000h                               
                            DAT_00018154:                 ;XREF[1,0]:   00018142
ram:00018154    f9ffffff        undefined4  FFFFFFF9h                               
                            ;************************************************************************************************
                            ;*                                           FUNCTION                                           *
                            ;************************************************************************************************
                            ;undefined FUNC_Reset_00018158(void)
                                                          ;XREF[0,1]:   00018004
ram:00018158    0321            movs        r1,#0x3                                 
ram:0001815a    0948            ldr         r0,[DAT_00018180]                       ;= 40000524h
ram:0001815c    0268            ldr         r2,[r0,#0x0]=>DAT_40000524              
ram:0001815e    0a43            orrs        r2,r1                                   
ram:00018160    0260            str         r2,[r0,#0x0]=>DAT_40000524              
ram:00018162    0848            ldr         r0,[DAT_00018184]                       ;= 40000554h
ram:00018164    0268            ldr         r2,[r0,#0x0]=>DAT_40000554              
ram:00018166    0a43            orrs        r2,r1                                   
ram:00018168    0260            str         r2,[r0,#0x0]=>DAT_40000554              
ram:0001816a    0748            ldr         r0,[PTR_FUN_000187a0+1_00018188]        ;= 000187a1
ram:0001816c    8047            blx         r0=>FUN_000187a0                        ;undefined FUN_000187a0(void)
ram:0001816e    0748            ldr         r0,[PTR_LAB_000180c0+1+1_0001818c]      ;= 000180c1
ram:00018170    0047            bx          r0=>LAB_000180c0+1                      ;undefined LAB_000180c0+1(undefined4 ...
                            ;************************************************************************************************
                            ;*                                           FUNCTION                                           *
                            ;************************************************************************************************
                            ;undefined FUNC_NMI_00018172(void)
                                                          ;XREF[1,1]:   00018172,00018008
ram:00018172    fee7            b           FUNC_NMI_00018172                       
                            ;************************************************************************************************
                            ;*                                           FUNCTION                                           *
                            ;************************************************************************************************
                            ;undefined FUNC_HardFault_00018174(void)
                                                          ;XREF[1,1]:   00018174,0001800c
ram:00018174    fee7            b           FUNC_HardFault_00018174                 
                            ;************************************************************************************************
                            ;*                                           FUNCTION                                           *
                            ;************************************************************************************************
                            ;undefined FUNC_SVCall_00018176(void)
                                                          ;XREF[1,1]:   00018176,0001802c
ram:00018176    fee7            b           FUNC_SVCall_00018176                    
                            ;************************************************************************************************
                            ;*                                           FUNCTION                                           *
                            ;************************************************************************************************
                            ;undefined FUNC_PendSV_00018178(void)
                                                          ;XREF[1,1]:   00018178,00018038
ram:00018178    fee7            b           FUNC_PendSV_00018178                    
                            ;************************************************************************************************
                            ;*                                           FUNCTION                                           *
                            ;************************************************************************************************
                            ;undefined FUNC_SysTick_0001817a(void)
                                                          ;XREF[1,1]:   0001817a,0001803c
ram:0001817a    fee7            b           FUNC_SysTick_0001817a                   
                            ;************************************************************************************************
                            ;*                                           FUNCTION                                           *
                            ;************************************************************************************************
                            ;undefined FUNC_IRQ_0001817c(void)
                                                          ;XREF[1,17]:  0001817c,00018040,00018044,0001804c
                                                          ;             00018050,00018060,00018068,0001806c
                                                          ;             00018070,00018074,00018078,0001807c
                                                          ;             00018088,0001808c,00018094,0001809c
                                                          ;             000180a0,000180a4
ram:0001817c    fee7            b           FUNC_IRQ_0001817c                       
ram:0001817e    0000            movs        r0,r0                                   
                            DAT_00018180:                 ;XREF[1,0]:   0001815a
ram:00018180    24050040        undefined4  40000524h                               
                            DAT_00018184:                 ;XREF[1,0]:   00018162
ram:00018184    54050040        undefined4  40000554h                               
                            PTR_FUN_000187a0+1_00018188:  ;XREF[1,0]:   0001816a
ram:00018188    a1870100        addr        FUN_000187a0+1                          
                            PTR_LAB_000180c0+1+1_0001818c:;XREF[1,0]:   0001816e
ram:0001818c    c1800100        addr        LAB_000180c0+1+1                        
                            ;************************************************************************************************
                            ;*                                           FUNCTION                                           *
                            ;************************************************************************************************
                            ;int FUN_00018190(uint param_1, uint param_2)
          ;param_1       uint                r0                      
          ;param_2       uint                r1                      
                                                          ;XREF[9,0]:   00019c02,00019c7c,00019cb0,0001b02a
                                                          ;             0001b3d6,0001b41a,0001b49a,0001b5be
                                                          ;             0001bcfa
ram:00018190    30b5            push        {r4,r5,lr}                              
ram:00018192    0b46            mov         r3,param_2                              
ram:00018194    0146            mov         param_2,param_1                         
ram:00018196    0020            movs        param_1,#0x0                            
ram:00018198    2022            movs        r2,#0x20                                
ram:0001819a    0124            movs        r4,#0x1                                 
ram:0001819c    09e0            b           LAB_000181b2                            
                            LAB_0001819e:                 ;XREF[1,0]:   000181b8
ram:0001819e    0d46            mov         r5,param_2                              
ram:000181a0    d540            lsrs        r5,r2                                   
ram:000181a2    9d42            cmp         r5,r3                                   
ram:000181a4    05d3            bcc         LAB_000181b2                            
ram:000181a6    1d46            mov         r5,r3                                   
ram:000181a8    9540            lsls        r5,r2                                   
ram:000181aa    491b            subs        param_2,param_2,r5                      
ram:000181ac    2546            mov         r5,r4                                   
ram:000181ae    9540            lsls        r5,r2                                   
ram:000181b0    4019            adds        param_1,param_1,r5                      
                            LAB_000181b2:                 ;XREF[2,0]:   0001819c,000181a4
ram:000181b2    1546            mov         r5,r2                                   
ram:000181b4    521e            subs        r2,r2,#0x1                              
ram:000181b6    002d            cmp         r5,#0x0                                 
ram:000181b8    f1dc            bgt         LAB_0001819e                            
ram:000181ba    30bd            pop         {r4,r5,pc}                              
                            ;************************************************************************************************
                            ;*                                           FUNCTION                                           *
                            ;************************************************************************************************
                            ;undefined FUN_000181bc(undefined4 * param_1, undefined4 * param_2, uint param_3)
          ;param_1       undefined4 *        r0                      
          ;param_2       undefined4 *        r1                      
          ;param_3       uint                r2                      
                                                          ;XREF[24,0]:  00019028,0001952c,00019536,000195f2
                                                          ;             00019606,00019688,000196bc,0001a00c
                                                          ;             0001a1ee,0001a1fa,0001a206,0001a214
                                                          ;             0001a53e,0001ae20,0001b10c,0001b534
                                                          ;             0001b834,0001b892,0001ba4e,0001bdc8
                                                          ;             0001bea0,0001bfc8,0001bfd2,0001c30c
ram:000181bc    0346            mov         r3,param_1                              
ram:000181be    0b43            orrs        r3,param_2                              
ram:000181c0    9b07            lsls        r3,r3,#0x1e                             
ram:000181c2    03d0            beq         LAB_000181cc                            
ram:000181c4    09e0            b           LAB_000181da                            
                            LAB_000181c6:                 ;XREF[1,0]:   000181ce
ram:000181c6    08c9            ldmia       param_2!,{r3}                           
ram:000181c8    121f            subs        param_3,param_3,#0x4                    
ram:000181ca    08c0            stmia       param_1!,{r3}                           
                            LAB_000181cc:                 ;XREF[1,0]:   000181c2
ram:000181cc    042a            cmp         param_3,#0x4                            
ram:000181ce    fad2            bcs         LAB_000181c6                            
ram:000181d0    03e0            b           LAB_000181da                            
                            LAB_000181d2:                 ;XREF[1,0]:   000181dc
ram:000181d2    0b78            ldrb        r3,[param_2,#0x0]                       
ram:000181d4    0370            strb        r3,[param_1,#0x0]                       
ram:000181d6    401c            adds        param_1,param_1,#0x1                    
ram:000181d8    491c            adds        param_2,param_2,#0x1                    
                            LAB_000181da:                 ;XREF[2,0]:   000181c4,000181d0
ram:000181da    521e            subs        param_3,param_3,#0x1                    
ram:000181dc    f9d2            bcs         LAB_000181d2                            
ram:000181de    7047            bx          lr                                      
                            ;************************************************************************************************
                            ;*                                           FUNCTION                                           *
                            ;************************************************************************************************
                            ;undefined FUN_000181e0(undefined * param_1, int param_2, undefined param_3)
          ;param_1       undefined *         r0                      
          ;param_2       int                 r1                      
          ;param_3       undefined           r2                      
                                                          ;XREF[2,0]:   000181f0,000181fc
ram:000181e0    d2b2            uxtb        param_3,param_3                         
ram:000181e2    01e0            b           LAB_000181e8                            
                            LAB_000181e4:                 ;XREF[1,0]:   000181ea
ram:000181e4    0270            strb        param_3,[param_1,#0x0]                  
ram:000181e6    401c            adds        param_1,param_1,#0x1                    
                            LAB_000181e8:                 ;XREF[1,0]:   000181e2
ram:000181e8    491e            subs        param_2,param_2,#0x1                    
ram:000181ea    fbd2            bcs         LAB_000181e4                            
ram:000181ec    7047            bx          lr                                      
                            ;************************************************************************************************
                            ;*                                           FUNCTION                                           *
                            ;************************************************************************************************
                            ;undefined FUN_000181ee(undefined * param_1, int param_2)
          ;param_1       undefined *         r0                      
          ;param_2       int                 r1                      
                                                          ;XREF[19,0]:  00018b22,00018b56,00018ba0,00018cc8
                                                          ;             000192f6,00019346,0001a262,0001a2b6
                                                          ;             0001a2ea,0001a33a,0001a370,0001a3c8
                                                          ;             0001a74e,0001a7aa,0001abe8,0001bd3a
                                                          ;             0001bd8a,0001bf2a,0001bf7a
ram:000181ee    0022            movs        r2,#0x0                                 
ram:000181f0    f6e7            b           FUN_000181e0                            ;undefined FUN_000181e0(undefined * p...
                            ;************************************************************************************************
                            ;*                                           FUNCTION                                           *
                            ;************************************************************************************************
                            ;undefined * FUN_000181f2(undefined * param_1, undefined param_2, int param_3)
          ;param_1       undefined *         r0                      
          ;param_2       undefined           r1                      
          ;param_3       int                 r2                      
ram:000181f2    10b5            push        {r4,lr}                                 
ram:000181f4    1346            mov         r3,param_3                              
ram:000181f6    0a46            mov         param_3,param_2                         
ram:000181f8    0446            mov         r4,param_1                              
ram:000181fa    1946            mov         param_2,r3                              
ram:000181fc    fff7f0ff        bl          FUN_000181e0                            ;undefined FUN_000181e0(undefined * p...
ram:00018200    2046            mov         param_1,r4                              
ram:00018202    10bd            pop         {r4,pc}                                 
                            ;************************************************************************************************
                            ;*                                           FUNCTION                                           *
                            ;************************************************************************************************
                            ;int FUN_00018204(char * param_1)
          ;param_1       char *              r0                      
                                                          ;XREF[2,0]:   0001a7b8,0001a7c4
ram:00018204    421c            adds        r2,param_1,#0x1                         
                            LAB_00018206:                 ;XREF[1,0]:   0001820c
ram:00018206    0178            ldrb        r1,[param_1,#0x0]                       
ram:00018208    401c            adds        param_1,param_1,#0x1                    
ram:0001820a    0029            cmp         r1,#0x0                                 
ram:0001820c    fbd1            bne         LAB_00018206                            
ram:0001820e    801a            subs        param_1,param_1,r2                      
ram:00018210    7047            bx          lr                                      
                            ;************************************************************************************************
                            ;*                                           FUNCTION                                           *
                            ;************************************************************************************************
                            ;undefined FUN_00018212(int param_1, int param_2, uint param_3)
          ;param_1       int                 r0                      
          ;param_2       int                 r1                      
          ;param_3       uint                r2                      
                                                          ;XREF[1,0]:   0001b118
ram:00018212    30b5            push        {r4,r5,lr}                              
ram:00018214    0446            mov         r4,param_1                              
ram:00018216    0020            movs        param_1,#0x0                            
ram:00018218    0346            mov         r3,param_1                              
ram:0001821a    00e0            b           LAB_0001821e                            
                            LAB_0001821c:                 ;XREF[1,0]:   00018228
ram:0001821c    5b1c            adds        r3,r3,#0x1                              
                            LAB_0001821e:                 ;XREF[1,0]:   0001821a
ram:0001821e    9342            cmp         r3,param_3                              
ram:00018220    03d2            bcs         LAB_0001822a                            
ram:00018222    e05c            ldrb        param_1,[r4,r3]                         
ram:00018224    cd5c            ldrb        r5,[param_2,r3]                         
ram:00018226    401b            subs        param_1,param_1,r5                      
ram:00018228    f8d0            beq         LAB_0001821c                            
                            LAB_0001822a:                 ;XREF[1,0]:   00018220
ram:0001822a    30bd            pop         {r4,r5,pc}                              
                            ;************************************************************************************************
                            ;*                                           FUNCTION                                           *
                            ;************************************************************************************************
                            ;uint FUN_0001822c(int param_1, undefined4 param_2, uint param_3)
          ;param_1       int                 r0                      
          ;param_2       undefined4          r1                      
          ;param_3       uint                r2                      
                                                          ;XREF[1,0]:   00019560
ram:0001822c    0321            movs        param_2,#0x3                            
ram:0001822e    001d            adds        param_1,param_1,#0x4                    
                            LAB_00018230:                 ;XREF[1,0]:   0001823a
ram:00018230    401e            subs        param_1,param_1,#0x1                    
ram:00018232    0378            ldrb        r3,[param_1,#0x0]                       
ram:00018234    1202            lsls        param_3,param_3,#0x8                    
ram:00018236    1a43            orrs        param_3,r3                              
ram:00018238    491e            subs        param_2,param_2,#0x1                    
ram:0001823a    f9d5            bpl         LAB_00018230                            
ram:0001823c    1046            mov         param_1,param_3                         
ram:0001823e    7047            bx          lr                                      
                            ;************************************************************************************************
                            ;*                                           FUNCTION                                           *
                            ;************************************************************************************************
                            ;ulonglong FUN_00018240(uint param_1)
          ;param_1       uint                r0                      
          ;local_8       undefined4          -8                      ;XREF[1,0]:   00018244
          ;local_c       undefined4          -c                      ;XREF[1,0]:   0001824e
          ;local_10      undefined4         -10                      ;XREF[1,0]:   00018248
                                                          ;XREF[1,0]:   00018402
ram:00018240    0eb5            push        {r1,r2,r3,lr}                           
ram:00018242    0549            ldr         r1,[DAT_00018258]                       ;= 00000433h
ram:00018244    0291            str         r1,[sp,#local_8+0x10]                   
ram:00018246    0021            movs        r1,#0x0                                 
ram:00018248    0091            str         r1,[sp,#0x0]=>local_10                  
ram:0001824a    0a46            mov         r2,r1                                   
ram:0001824c    0b46            mov         r3,r1                                   
ram:0001824e    0191            str         r1,[sp,#local_c+0x10]                   
ram:00018250    00f025f8        bl          FUN_0001829e                            ;ulonglong FUN_0001829e(uint param_1,...
ram:00018254    03b0            add         sp,#0xc                                 
ram:00018256    00bd            pop         {pc}                                    
                            DAT_00018258:                 ;XREF[1,0]:   00018242
ram:00018258    33040000        undefined4  00000433h                               
                            ;************************************************************************************************
                            ;*                                           FUNCTION                                           *
                            ;************************************************************************************************
                            ;int FUN_0001825c(int param_1, int param_2)
          ;param_1       int                 r0                      
          ;param_2       int                 r1                      
                                                          ;XREF[6,0]:   0001840e,00018428,00018440,00018458
                                                          ;             00018470,0001848a
ram:0001825c    10b5            push        {r4,lr}                                 
ram:0001825e    0029            cmp         param_2,#0x0                            
ram:00018260    04db            blt         LAB_0001826c                            
ram:00018262    0124            movs        r4,#0x1                                 
ram:00018264    e407            lsls        r4,r4,#0x1f                             
ram:00018266    4042            rsbs        param_1,param_1                         
ram:00018268    8c41            sbcs        r4,param_2                              
ram:0001826a    2146            mov         param_2,r4                              
                            LAB_0001826c:                 ;XREF[1,0]:   00018260
ram:0001826c    002b            cmp         r3,#0x0                                 
ram:0001826e    04db            blt         LAB_0001827a                            
ram:00018270    1c46            mov         r4,r3                                   
ram:00018272    0123            movs        r3,#0x1                                 
ram:00018274    db07            lsls        r3,r3,#0x1f                             
ram:00018276    5242            rsbs        r2,r2                                   
ram:00018278    a341            sbcs        r3,r4                                   
                            LAB_0001827a:                 ;XREF[1,0]:   0001826e
ram:0001827a    9942            cmp         param_2,r3                              
ram:0001827c    00d1            bne         LAB_00018280                            
ram:0001827e    9042            cmp         param_1,r2                              
                            LAB_00018280:                 ;XREF[1,0]:   0001827c
ram:00018280    10bd            pop         {r4,pc}                                 
ram:00018282    0000            movs        r0,r0                                   
                            ;************************************************************************************************
                            ;*                                           FUNCTION                                           *
                            ;************************************************************************************************
                            ;undefined8 FUN_00018284(uint param_1, int param_2, uint param_3, int param_4)
          ;param_1       uint                r0                      
          ;param_2       int                 r1                      
          ;param_3       uint                r2                      
          ;param_4       int                 r3                      
                                                          ;XREF[1,0]:   0001833c
ram:00018284    10b5            push        {r4,lr}                                 
ram:00018286    002b            cmp         param_4,#0x0                            
ram:00018288    08da            bge         LAB_0001829c                            
ram:0001828a    0024            movs        r4,#0x0                                 
ram:0001828c    401c            adds        param_1,param_1,#0x1                    
ram:0001828e    6141            adcs        param_2,r4                              
ram:00018290    9218            adds        param_3,param_3,param_3                 
ram:00018292    5b41            adcs        param_4,param_4                         
ram:00018294    1a43            orrs        param_3,param_4                         
ram:00018296    01d1            bne         LAB_0001829c                            
ram:00018298    4008            lsrs        param_1,param_1,#0x1                    
ram:0001829a    4000            lsls        param_1,param_1,#0x1                    
                            LAB_0001829c:                 ;XREF[2,0]:   00018288,00018296
ram:0001829c    10bd            pop         {r4,pc}                                 
                            ;************************************************************************************************
                            ;*                                           FUNCTION                                           *
                            ;************************************************************************************************
                            ;ulonglong FUN_0001829e(uint param_1, uint param_2, uint param_3, uint param_4, uint param_5, int param_6, int param_7)
          ;param_1       uint                r0                      
          ;param_2       uint                r1                      
          ;param_3       uint                r2                      
          ;param_4       uint                r3                      
          ;param_5       uint                 0                      ;XREF[1,0]:   00018334
          ;param_6       int                  4                      ;XREF[1,0]:   00018336
          ;param_7       int                  8                      ;XREF[1,0]:   00018314
          ;local_1c      undefined4         -1c                      ;XREF[3,0]:   000182c6,000182e2,000182ee
          ;local_20      undefined4         -20                      ;XREF[2,0]:   000182c4,000182f0
          ;local_30      undefined4         -30                      ;XREF[4,0]:   000182ba,000182da,000182ec,00018312
                                                          ;XREF[1,0]:   00018250
ram:0001829e    f0b5            push        {r4,r5,r6,r7,lr}                        
ram:000182a0    1fb4            push        {param_1,param_2,param_3,param_4,r4}    
ram:000182a2    82b0            sub         sp,#0x8                                 
ram:000182a4    0546            mov         r5,param_1                              
ram:000182a6    0c00            movs        r4,param_2                              
ram:000182a8    03d0            beq         LAB_000182b2                            
ram:000182aa    0846            mov         param_1,param_2                         
ram:000182ac    00f002fb        bl          FUN_000188b4                            ;int FUN_000188b4(uint param_1)
ram:000182b0    02e0            b           LAB_000182b8                            
                            LAB_000182b2:                 ;XREF[1,0]:   000182a8
ram:000182b2    00f0fffa        bl          FUN_000188b4                            ;int FUN_000188b4(uint param_1)
ram:000182b6    2030            adds        param_1,#0x20                           
                            LAB_000182b8:                 ;XREF[1,0]:   000182b0
ram:000182b8    0246            mov         param_3,param_1                         
ram:000182ba    0090            str         param_1,[sp,#0x0]=>local_30             
ram:000182bc    2146            mov         param_2,r4                              
ram:000182be    2846            mov         param_1,r5                              
ram:000182c0    00f052f8        bl          FUN_00018368                            ;longlong FUN_00018368(uint param_1, ...
ram:000182c4    049b            ldr         param_4,[sp,#local_20+0x30]             
ram:000182c6    059a            ldr         param_3,[sp,#local_1c+0x30]             
ram:000182c8    0446            mov         r4,param_1                              
ram:000182ca    0f46            mov         r7,param_2                              
ram:000182cc    1843            orrs        param_1,param_4                         
ram:000182ce    1143            orrs        param_2,param_3                         
ram:000182d0    0843            orrs        param_1,param_2                         
ram:000182d2    14d0            beq         LAB_000182fe                            
ram:000182d4    1846            mov         param_1,param_4                         
ram:000182d6    1043            orrs        param_1,param_3                         
ram:000182d8    1bd0            beq         LAB_00018312                            
ram:000182da    0098            ldr         param_1,[sp,#0x0]=>local_30             
ram:000182dc    4021            movs        param_2,#0x40                           
ram:000182de    0a1a            subs        param_3,param_2,param_1                 
ram:000182e0    1846            mov         param_1,param_4                         
ram:000182e2    0599            ldr         param_2,[sp,#local_1c+0x30]             
ram:000182e4    00f050f8        bl          FUN_00018388                            ;ulonglong FUN_00018388(uint param_1,...
ram:000182e8    0546            mov         r5,param_1                              
ram:000182ea    0e46            mov         r6,param_2                              
ram:000182ec    009a            ldr         param_3,[sp,#0x0]=>local_30             
ram:000182ee    0599            ldr         param_2,[sp,#local_1c+0x30]             
ram:000182f0    0498            ldr         param_1,[sp,#local_20+0x30]             
ram:000182f2    00f039f8        bl          FUN_00018368                            ;longlong FUN_00018368(uint param_1, ...
ram:000182f6    0843            orrs        param_1,param_2                         
ram:000182f8    05d0            beq         LAB_00018306                            
ram:000182fa    0120            movs        param_1,#0x1                            
ram:000182fc    04e0            b           LAB_00018308                            
                            LAB_000182fe:                 ;XREF[1,0]:   000182d2
ram:000182fe    2046            mov         param_1,r4                              
ram:00018300    3946            mov         param_2,r7                              
                            LAB_00018302:                 ;XREF[2,0]:   0001832c,00018340
ram:00018302    07b0            add         sp,#0x1c                                
ram:00018304    f0bd            pop         {r4,r5,r6,r7,pc}                        
                            LAB_00018306:                 ;XREF[1,0]:   000182f8
ram:00018306    0020            movs        param_1,#0x0                            
                            LAB_00018308:                 ;XREF[1,0]:   000182fc
ram:00018308    c117            asrs        param_2,param_1,#0x1f                   
ram:0001830a    0543            orrs        r5,param_1                              
ram:0001830c    0e43            orrs        r6,param_2                              
ram:0001830e    2c43            orrs        r4,r5                                   
ram:00018310    3743            orrs        r7,r6                                   
                            LAB_00018312:                 ;XREF[1,0]:   000182d8
ram:00018312    0099            ldr         param_2,[sp,#0x0]=>local_30             
ram:00018314    0e98            ldr         param_1,[sp,#param_7+0x30]              
ram:00018316    6305            lsls        param_4,r4,#0x15                        
ram:00018318    401a            subs        param_1,param_1,param_2                 
ram:0001831a    7905            lsls        param_2,r7,#0x15                        
ram:0001831c    e40a            lsrs        r4,r4,#0xb                              
ram:0001831e    0022            movs        param_3,#0x0                            
ram:00018320    0c43            orrs        r4,param_2                              
ram:00018322    fd0a            lsrs        r5,r7,#0xb                              
ram:00018324    0a30            adds        param_1,#0xa                            
ram:00018326    02d5            bpl         LAB_0001832e                            
ram:00018328    0020            movs        param_1,#0x0                            
ram:0001832a    0146            mov         param_2,param_1                         
ram:0001832c    e9e7            b           LAB_00018302                            
                            LAB_0001832e:                 ;XREF[1,0]:   00018326
ram:0001832e    0105            lsls        param_2,param_1,#0x14                   
ram:00018330    1019            adds        param_1,param_3,r4                      
ram:00018332    6941            adcs        param_2,r5                              
ram:00018334    0c9c            ldr         r4,[sp,#param_5+0x30]                   
ram:00018336    0d9d            ldr         r5,[sp,#param_6+0x30]                   
ram:00018338    0019            adds        param_1,param_1,r4                      
ram:0001833a    6941            adcs        param_2,r5                              
ram:0001833c    fff7a2ff        bl          FUN_00018284                            ;undefined8 FUN_00018284(uint param_1...
ram:00018340    dfe7            b           LAB_00018302                            
ram:00018342    0000            movs        r0,r0                                   
                            ;************************************************************************************************
                            ;*                                           FUNCTION                                           *
                            ;************************************************************************************************
                            ;longlong FUN_00018344(undefined4 param_1, undefined4 param_2, undefined * param_3, uint param_4)
          ;param_1       undefined4          r0                      
          ;param_2       undefined4          r1                      
          ;param_3       undefined *         r2                      
          ;param_4       uint                r3                      
                                                          ;XREF[1,0]:   000180c4
ram:00018344    064c            ldr         r4,[LAB_00018360]                       
ram:00018346    0125            movs        r5,#0x1                                 
ram:00018348    064e            ldr         r6,[LAB_00018364]                       
ram:0001834a    05e0            b           LAB_00018358                            
                            LAB_0001834c:                 ;XREF[1,0]:   0001835a
ram:0001834c    e368            ldr         param_4,[r4,#0xc]=>->FUN_000183aa       ;= 000183aa
                                                          ; FWD[5,0]:   0001c5a8,0001c5ac,0001c5b0,0001c5c8
                                                          ;             20002000
ram:0001834e    07cc            ldmia       r4!,{param_1,param_2,param_3}=>PTR_DA...;= 0001c5c8
                                                                                    ;= 20002000h
                                                                                    ;= 0000015Ch
                                                                                    ;= 71h    q
ram:00018350    2b43            orrs        param_4,r5                              
ram:00018352    0c3c            subs        r4,#0xc                                 
ram:00018354    9847            blx         param_4=>FUN_000183aa                   ;undefined4 FUN_000183aa(byte * param...
ram:00018356    1034            adds        r4,#0x10                                
                            LAB_00018358:                 ;XREF[1,0]:   0001834a
ram:00018358    b442            cmp         r4,r6                                   
ram:0001835a    f7d3            bcc         LAB_0001834c                            
ram:0001835c    fff7b4fe        bl          thunk_FUN_0001aa90                      ;undefined thunk_FUN_0001aa90(void)
                            LAB_00018360:                 ;XREF[1,0]:   00018344
                                                          ; FWD[2,0]:   00000005,00000009
ram:00018360    a8c5            stmia       r5,{param_4,r5,r7}=>DAT_00000005        
ram:00018362    0100            movs        param_2,param_1                         
                            LAB_00018364:                 ;XREF[1,0]:   00018348
                                                          ; FWD[3,0]:   00000005,00000009,0001c5c8
ram:00018364    c8c5            stmia       r5!,{param_4,r6,r7}=>DAT_00000005       ;= 71h    q
ram:00018366    0100            movs        param_2,param_1                         
                            ;************************************************************************************************
                            ;*                                           FUNCTION                                           *
                            ;************************************************************************************************
                            ;longlong FUN_00018368(uint param_1, int param_2, uint param_3)
          ;param_1       uint                r0                      
          ;param_2       int                 r1                      
          ;param_3       uint                r2                      
                                                          ;XREF[2,0]:   000182c0,000182f2
ram:00018368    10b5            push        {r4,lr}=>PTR_DAT_0001c5a8               ;= 0001c5c8
ram:0001836a    202a            cmp         param_3,#0x20                           
ram:0001836c    04db            blt         LAB_00018378                            
ram:0001836e    0146            mov         param_2,param_1                         
ram:00018370    203a            subs        param_3,#0x20                           
ram:00018372    9140            lsls        param_2,param_3                         
ram:00018374    0020            movs        param_1,#0x0                            
ram:00018376    10bd            pop         {r4,pc}                                 
                            LAB_00018378:                 ;XREF[1,0]:   0001836c
ram:00018378    9140            lsls        param_2,param_3                         
ram:0001837a    2023            movs        r3,#0x20                                
ram:0001837c    9c1a            subs        r4,r3,param_3                           
ram:0001837e    0346            mov         r3,param_1                              
ram:00018380    e340            lsrs        r3,r4                                   
ram:00018382    1943            orrs        param_2,r3                              
ram:00018384    9040            lsls        param_1,param_3                         
ram:00018386    10bd            pop         {r4,pc}                                 
                            ;************************************************************************************************
                            ;*                                           FUNCTION                                           *
                            ;************************************************************************************************
                            ;ulonglong FUN_00018388(uint param_1, uint param_2, uint param_3)
          ;param_1       uint                r0                      
          ;param_2       uint                r1                      
          ;param_3       uint                r2                      
                                                          ;XREF[1,0]:   000182e4
ram:00018388    10b5            push        {r4,lr}                                 
ram:0001838a    202a            cmp         param_3,#0x20                           
ram:0001838c    04db            blt         LAB_00018398                            
ram:0001838e    0846            mov         param_1,param_2                         
ram:00018390    203a            subs        param_3,#0x20                           
ram:00018392    d040            lsrs        param_1,param_3                         
ram:00018394    0021            movs        param_2,#0x0                            
ram:00018396    10bd            pop         {r4,pc}                                 
                            LAB_00018398:                 ;XREF[1,0]:   0001838c
ram:00018398    0b46            mov         r3,param_2                              
ram:0001839a    d340            lsrs        r3,param_3                              
ram:0001839c    d040            lsrs        param_1,param_3                         
ram:0001839e    2024            movs        r4,#0x20                                
ram:000183a0    a21a            subs        param_3,r4,param_3                      
ram:000183a2    9140            lsls        param_2,param_3                         
ram:000183a4    0843            orrs        param_1,param_2                         
ram:000183a6    1946            mov         param_2,r3                              
ram:000183a8    10bd            pop         {r4,pc}                                 
                            ;************************************************************************************************
                            ;*                                           FUNCTION                                           *
                            ;************************************************************************************************
                            ;undefined4 FUN_000183aa(byte * param_1, byte * param_2, int param_3)
          ;param_1       byte *              r0                      
          ;param_2       byte *              r1                      
          ;param_3       int                 r2                      
                                                          ;XREF[2,0]:   00018354,0001c5b4
ram:000183aa    30b5            push        {r4,r5,lr}                              
ram:000183ac    8c18            adds        r4,param_2,param_3                      
                            LAB_000183ae:                 ;XREF[1,0]:   000183de
ram:000183ae    0278            ldrb        param_3,[param_1,#0x0]                  
ram:000183b0    401c            adds        param_1,param_1,#0x1                    
ram:000183b2    1307            lsls        r3,param_3,#0x1c                        
ram:000183b4    1b0f            lsrs        r3,r3,#0x1c                             
ram:000183b6    01d1            bne         LAB_000183bc                            
ram:000183b8    0378            ldrb        r3,[param_1,#0x0]                       
ram:000183ba    401c            adds        param_1,param_1,#0x1                    
                            LAB_000183bc:                 ;XREF[1,0]:   000183b6
ram:000183bc    1209            lsrs        param_3,param_3,#0x4                    
ram:000183be    06d1            bne         LAB_000183ce                            
ram:000183c0    0278            ldrb        param_3,[param_1,#0x0]                  
ram:000183c2    401c            adds        param_1,param_1,#0x1                    
ram:000183c4    03e0            b           LAB_000183ce                            
                            LAB_000183c6:                 ;XREF[1,0]:   000183d0
ram:000183c6    0578            ldrb        r5,[param_1,#0x0]                       
ram:000183c8    0d70            strb        r5,[param_2,#0x0]                       
ram:000183ca    401c            adds        param_1,param_1,#0x1                    
ram:000183cc    491c            adds        param_2,param_2,#0x1                    
                            LAB_000183ce:                 ;XREF[2,0]:   000183be,000183c4
ram:000183ce    5b1e            subs        r3,r3,#0x1                              
ram:000183d0    f9d1            bne         LAB_000183c6                            
ram:000183d2    01e0            b           LAB_000183d8                            
                            LAB_000183d4:                 ;XREF[1,0]:   000183da
ram:000183d4    0b70            strb        r3,[param_2,#0x0]                       
ram:000183d6    491c            adds        param_2,param_2,#0x1                    
                            LAB_000183d8:                 ;XREF[1,0]:   000183d2
ram:000183d8    521e            subs        param_3,param_3,#0x1                    
ram:000183da    fbd1            bne         LAB_000183d4                            
ram:000183dc    a142            cmp         param_2,r4                              
ram:000183de    e6d3            bcc         LAB_000183ae                            
ram:000183e0    0020            movs        param_1,#0x0                            
ram:000183e2    30bd            pop         {r4,r5,pc}                              
                            ;************************************************************************************************
                            ;*                                           FUNCTION                                           *
                            ;************************************************************************************************
                            ;undefined FUNC_VT_000183e4(void)
          ;local_1c      undefined4         -1c                      ;XREF[6,0]:   0001840a,00018424,0001843c,00018454,0001846c
                                                                     ;             00018486
          ;local_20      undefined4         -20                      ;XREF[6,0]:   0001840c,00018426,0001843e,00018456,0001846e
                                                                     ;             00018488
                                                          ;XREF[0,1]:   0001805c
ram:000183e4    feb5            push        {r1,r2,r3,r4,r5,r6,r7,lr}               
ram:000183e6    3148            ldr         r0,[DAT_000184ac]                       ;= 40007100h
ram:000183e8    0025            movs        r5,#0x0                                 
ram:000183ea    0560            str         r5,[r0,#0x0]=>DAT_40007100              
ram:000183ec    304e            ldr         r6,[DAT_000184b0]                       ;= 40007500h
ram:000183ee    b068            ldr         r0,[r6,#offset DAT_40007508 &0xff]      
ram:000183f0    304c            ldr         r4,[DAT_000184b4]                       ;= 20002024h
ram:000183f2    80b2            uxth        r0,r0                                   
ram:000183f4    304f            ldr         r7,[DAT_000184b8]                       ;= 55555556h
ram:000183f6    d428            cmp         r0,#0xd4                                
ram:000183f8    03d3            bcc         LAB_00018402                            
ram:000183fa    2068            ldr         r0,[r4,#0x0]=>DAT_20002024              
ram:000183fc    0721            movs        r1,#0x7                                 
ram:000183fe    0843            orrs        r0,r1                                   
ram:00018400    4de0            b           LAB_0001849e                            
                            LAB_00018402:                 ;XREF[1,0]:   000183f8
ram:00018402    fff71dff        bl          FUN_00018240                            ;ulonglong FUN_00018240(uint param_1)
ram:00018406    3a46            mov         r2,r7                                   
ram:00018408    2c4b            ldr         r3,[DAT_000184bc]                       ;= 40692555h
ram:0001840a    0191            str         r1,[sp,#local_1c+0x20]                  
ram:0001840c    0090            str         r0,[sp,#0x0]=>local_20                  
ram:0001840e    fff725ff        bl          FUN_0001825c                            ;int FUN_0001825c(int param_1, int pa...
ram:00018412    04d8            bhi         LAB_0001841e                            
ram:00018414    2068            ldr         r0,[r4,#0x0]=>DAT_20002024              
ram:00018416    c008            lsrs        r0,r0,#0x3                              
ram:00018418    c000            lsls        r0,r0,#0x3                              
ram:0001841a    801d            adds        r0,r0,#0x6                              
ram:0001841c    3fe0            b           LAB_0001849e                            
                            LAB_0001841e:                 ;XREF[1,0]:   00018412
ram:0001841e    264a            ldr         r2,[DAT_000184b8]                       ;= 55555556h
ram:00018420    274b            ldr         r3,[DAT_000184c0]                       ;= 4067BAAAh
ram:00018422    5242            rsbs        r2,r2                                   
ram:00018424    0199            ldr         r1,[sp,#local_1c+0x20]                  
ram:00018426    0098            ldr         r0,[sp,#0x0]=>local_20                  
ram:00018428    fff718ff        bl          FUN_0001825c                            ;int FUN_0001825c(int param_1, int pa...
ram:0001842c    04d8            bhi         LAB_00018438                            
ram:0001842e    2068            ldr         r0,[r4,#0x0]=>DAT_20002024              
ram:00018430    c008            lsrs        r0,r0,#0x3                              
ram:00018432    c000            lsls        r0,r0,#0x3                              
ram:00018434    401d            adds        r0,r0,#0x5                              
ram:00018436    32e0            b           LAB_0001849e                            
                            LAB_00018438:                 ;XREF[1,0]:   0001842c
ram:00018438    0022            movs        r2,#0x0                                 
ram:0001843a    224b            ldr         r3,[DAT_000184c4]                       ;= 40665000h
ram:0001843c    0199            ldr         r1,[sp,#local_1c+0x20]                  
ram:0001843e    0098            ldr         r0,[sp,#0x0]=>local_20                  
ram:00018440    fff70cff        bl          FUN_0001825c                            ;int FUN_0001825c(int param_1, int pa...
ram:00018444    04d8            bhi         LAB_00018450                            
ram:00018446    2068            ldr         r0,[r4,#0x0]=>DAT_20002024              
ram:00018448    c008            lsrs        r0,r0,#0x3                              
ram:0001844a    c000            lsls        r0,r0,#0x3                              
ram:0001844c    001d            adds        r0,r0,#0x4                              
ram:0001844e    26e0            b           LAB_0001849e                            
                            LAB_00018450:                 ;XREF[1,0]:   00018444
ram:00018450    3a46            mov         r2,r7                                   
ram:00018452    1d4b            ldr         r3,[DAT_000184c8]                       ;= 4064E555h
ram:00018454    0199            ldr         r1,[sp,#local_1c+0x20]                  
ram:00018456    0098            ldr         r0,[sp,#0x0]=>local_20                  
ram:00018458    fff700ff        bl          FUN_0001825c                            ;int FUN_0001825c(int param_1, int pa...
ram:0001845c    04d8            bhi         LAB_00018468                            
ram:0001845e    2068            ldr         r0,[r4,#0x0]=>DAT_20002024              
ram:00018460    c008            lsrs        r0,r0,#0x3                              
ram:00018462    c000            lsls        r0,r0,#0x3                              
ram:00018464    c01c            adds        r0,r0,#0x3                              
ram:00018466    1ae0            b           LAB_0001849e                            
                            LAB_00018468:                 ;XREF[1,0]:   0001845c
ram:00018468    0022            movs        r2,#0x0                                 
ram:0001846a    184b            ldr         r3,[DAT_000184cc]                       ;= 40643000h
ram:0001846c    0199            ldr         r1,[sp,#local_1c+0x20]                  
ram:0001846e    0098            ldr         r0,[sp,#0x0]=>local_20                  
ram:00018470    fff7f4fe        bl          FUN_0001825c                            ;int FUN_0001825c(int param_1, int pa...
ram:00018474    04d8            bhi         LAB_00018480                            
ram:00018476    2068            ldr         r0,[r4,#0x0]=>DAT_20002024              
ram:00018478    c008            lsrs        r0,r0,#0x3                              
ram:0001847a    c000            lsls        r0,r0,#0x3                              
ram:0001847c    801c            adds        r0,r0,#0x2                              
ram:0001847e    0ee0            b           LAB_0001849e                            
                            LAB_00018480:                 ;XREF[1,0]:   00018474
ram:00018480    0d4a            ldr         r2,[DAT_000184b8]                       ;= 55555556h
ram:00018482    134b            ldr         r3,[DAT_000184d0]                       ;= 4063D555h
ram:00018484    521e            subs        r2,r2,#0x1                              
ram:00018486    0199            ldr         r1,[sp,#local_1c+0x20]                  
ram:00018488    0098            ldr         r0,[sp,#0x0]=>local_20                  
ram:0001848a    fff7e7fe        bl          FUN_0001825c                            ;int FUN_0001825c(int param_1, int pa...
ram:0001848e    2068            ldr         r0,[r4,#0x0]=>DAT_20002024              
ram:00018490    03d8            bhi         LAB_0001849a                            
ram:00018492    c008            lsrs        r0,r0,#0x3                              
ram:00018494    c000            lsls        r0,r0,#0x3                              
ram:00018496    401c            adds        r0,r0,#0x1                              
ram:00018498    01e0            b           LAB_0001849e                            
                            LAB_0001849a:                 ;XREF[1,0]:   00018490
ram:0001849a    c008            lsrs        r0,r0,#0x3                              
ram:0001849c    c000            lsls        r0,r0,#0x3                              
                            LAB_0001849e:                 ;XREF[7,0]:   00018400,0001841c,00018436,0001844e
                                                          ;             00018466,0001847e,00018498
ram:0001849e    2060            str         r0,[r4,#0x0]=>DAT_20002024              
ram:000184a0    0c49            ldr         r1,[DAT_000184d4]                       ;= 40007000h
ram:000184a2    0120            movs        r0,#0x1                                 
ram:000184a4    4860            str         r0,[r1,#offset DAT_40007004 &0xff]      
ram:000184a6    4adf            svc         0x4a                                    
ram:000184a8    3560            str         r5,[r6,#0x0]=>DAT_40007500              
ram:000184aa    febd            pop         {r1,r2,r3,r4,r5,r6,r7,pc}               
                            DAT_000184ac:                 ;XREF[1,0]:   000183e6
ram:000184ac    00710040        undefined4  40007100h                               
                            DAT_000184b0:                 ;XREF[1,0]:   000183ec
ram:000184b0    00750040        undefined4  40007500h                               
                            DAT_000184b4:                 ;XREF[1,0]:   000183f0
ram:000184b4    24200020        undefined4  20002024h                               
                            DAT_000184b8:                 ;XREF[3,0]:   000183f4,0001841e,00018480
ram:000184b8    56555555        undefined4  55555556h                               
                            DAT_000184bc:                 ;XREF[1,0]:   00018408
ram:000184bc    55256940        undefined4  40692555h                               
                            DAT_000184c0:                 ;XREF[1,0]:   00018420
ram:000184c0    aaba6740        undefined4  4067BAAAh                               
                            DAT_000184c4:                 ;XREF[1,0]:   0001843a
ram:000184c4    00506640        undefined4  40665000h                               
                            DAT_000184c8:                 ;XREF[1,0]:   00018452
ram:000184c8    55e56440        undefined4  4064E555h                               
                            DAT_000184cc:                 ;XREF[1,0]:   0001846a
ram:000184cc    00306440        undefined4  40643000h                               
                            DAT_000184d0:                 ;XREF[1,0]:   00018482
ram:000184d0    55d56340        undefined4  4063D555h                               
                            DAT_000184d4:                 ;XREF[1,0]:   000184a0
ram:000184d4    00700040        undefined4  40007000h                               
                            ;************************************************************************************************
                            ;*                                           FUNCTION                                           *
                            ;************************************************************************************************
                            ;undefined FUN_000184d8(uint param_1)
          ;param_1       uint                r0                      
                                                          ;XREF[2,0]:   0001866a,000186ae
ram:000184d8    10b5            push        {r4,lr}                                 
ram:000184da    0446            mov         r4,param_1                              
ram:000184dc    0146            mov         r1,param_1                              
ram:000184de    0220            movs        param_1,#0x2                            
ram:000184e0    0140            ands        r1,param_1                              
ram:000184e2    0920            movs        param_1,#0x9                            
ram:000184e4    02f0d0fd        bl          FUN_0001b088                            ;undefined FUN_0001b088(uint param_1,...
ram:000184e8    e107            lsls        r1,r4,#0x1f                             
ram:000184ea    c90f            lsrs        r1,r1,#0x1f                             
ram:000184ec    0a20            movs        param_1,#0xa                            
ram:000184ee    02f0cbfd        bl          FUN_0001b088                            ;undefined FUN_0001b088(uint param_1,...
ram:000184f2    10bd            pop         {r4,pc}                                 
                            ;************************************************************************************************
                            ;*                                           FUNCTION                                           *
                            ;************************************************************************************************
                            ;undefined FUN_000184f4(void)
                                                          ;XREF[2,0]:   00019f38,00019f88
ram:000184f4    10b5            push        {r4,lr}                                 
ram:000184f6    0820            movs        r0,#0x8                                 
ram:000184f8    02f0b6fd        bl          FUN_0001b068                            ;undefined FUN_0001b068(uint param_1)
ram:000184fc    0920            movs        r0,#0x9                                 
ram:000184fe    02f0b3fd        bl          FUN_0001b068                            ;undefined FUN_0001b068(uint param_1)
ram:00018502    0a20            movs        r0,#0xa                                 
ram:00018504    02f0b0fd        bl          FUN_0001b068                            ;undefined FUN_0001b068(uint param_1)
ram:00018508    10bd            pop         {r4,pc}                                 
ram:0001850a    0000            movs        r0,r0                                   
                            ;************************************************************************************************
                            ;*                                           FUNCTION                                           *
                            ;************************************************************************************************
                            ;undefined FUNC_VT_0001850c(void)
          ;local_1c      undefined4         -1c                      ;XREF[3,0]:   00018536,0001857a,0001858e
          ;local_20      undefined4         -20                      ;XREF[3,0]:   00018544,00018586,00018590
          ;local_24      undefined4         -24                      ;XREF[2,0]:   0001855c,00018570
          ;local_28      undefined4         -28                      ;XREF[6,0]:   00018534,00018568,00018572,0001857c,00018584
                                                                     ;             0001859a
                                                          ;XREF[0,1]:   00018058
ram:0001850c    f0b5            push        {r4,r5,r6,r7,lr}                        
ram:0001850e    2a48            ldr         r0,[DAT_000185b8]                       ;= 50000500h
ram:00018510    85b0            sub         sp,#0x14                                
ram:00018512    0469            ldr         r4,[r0,#offset DAT_50000510 &0xff]      
ram:00018514    2948            ldr         r0,[DAT_000185bc]                       ;= 40006140h
ram:00018516    0021            movs        r1,#0x0                                 
ram:00018518    c163            str         r1,[r0,#0x3c]=>DAT_4000617c             
ram:0001851a    0e46            mov         r6,r1                                   
ram:0001851c    284f            ldr         r7,[DAT_000185c0]                       ;= 200020F8h
ram:0001851e    45e0            b           LAB_000185ac                            
                            LAB_00018520:                 ;XREF[1,0]:   000185b0
ram:00018520    1420            movs        r0,#0x14                                
ram:00018522    7968            ldr         r1,[r7,#0x4]=>DAT_200020fc              
ram:00018524    7043            muls        r0,r6                                   
ram:00018526    4518            adds        r5,r0,r1                                
ram:00018528    0120            movs        r0,#0x1                                 
ram:0001852a    b968            ldr         r1,[r7,#0x8]=>DAT_20002100              
ram:0001852c    b040            lsls        r0,r6                                   
ram:0001852e    0842            tst         r0,r1                                   
ram:00018530    3ad0            beq         LAB_000185a8                            
ram:00018532    0020            movs        r0,#0x0                                 
ram:00018534    0090            str         r0,[sp,#0x0]=>local_28                  
ram:00018536    0390            str         r0,[sp,#local_1c+0x28]                  
ram:00018538    e868            ldr         r0,[r5,#0xc]                            
ram:0001853a    2968            ldr         r1,[r5,#0x0]                            
ram:0001853c    c043            mvns        r0,r0                                   
ram:0001853e    6040            eors        r0,r4                                   
ram:00018540    0840            ands        r0,r1                                   
ram:00018542    0146            mov         r1,r0                                   
ram:00018544    0290            str         r0,[sp,#local_20+0x28]                  
ram:00018546    2846            mov         r0,r5                                   
ram:00018548    03f032fa        bl          FUN_0001b9b0                            ;undefined FUN_0001b9b0(int param_1, ...
ram:0001854c    1a48            ldr         r0,[DAT_000185b8]                       ;= 50000500h
ram:0001854e    0069            ldr         r0,[r0,#offset DAT_50000510 &0xff]      
ram:00018550    2968            ldr         r1,[r5,#0x0]                            
ram:00018552    6040            eors        r0,r4                                   
ram:00018554    0840            ands        r0,r1                                   
ram:00018556    16d0            beq         LAB_00018586                            
ram:00018558    2246            mov         r2,r4                                   
ram:0001855a    4240            eors        r2,r0                                   
ram:0001855c    0192            str         r2,[sp,#local_24+0x28]                  
ram:0001855e    e868            ldr         r0,[r5,#0xc]                            
ram:00018560    c043            mvns        r0,r0                                   
ram:00018562    5040            eors        r0,r2                                   
ram:00018564    0840            ands        r0,r1                                   
ram:00018566    0146            mov         r1,r0                                   
ram:00018568    0090            str         r0,[sp,#0x0]=>local_28                  
ram:0001856a    2846            mov         r0,r5                                   
ram:0001856c    03f020fa        bl          FUN_0001b9b0                            ;undefined FUN_0001b9b0(int param_1, ...
ram:00018570    019a            ldr         r2,[sp,#local_24+0x28]                  
ram:00018572    0098            ldr         r0,[sp,#0x0]=>local_28                  
ram:00018574    a968            ldr         r1,[r5,#0x8]                            
ram:00018576    9043            bics        r0,r2                                   
ram:00018578    0140            ands        r1,r0                                   
ram:0001857a    0391            str         r1,[sp,#local_1c+0x28]                  
ram:0001857c    0098            ldr         r0,[sp,#0x0]=>local_28                  
ram:0001857e    6968            ldr         r1,[r5,#0x4]                            
ram:00018580    0240            ands        r2,r0                                   
ram:00018582    1140            ands        r1,r2                                   
ram:00018584    0091            str         r1,[sp,#0x0]=>local_28                  
                            LAB_00018586:                 ;XREF[1,0]:   00018556
ram:00018586    0298            ldr         r0,[sp,#local_20+0x28]                  
ram:00018588    a968            ldr         r1,[r5,#0x8]                            
ram:0001858a    a043            bics        r0,r4                                   
ram:0001858c    0140            ands        r1,r0                                   
ram:0001858e    0398            ldr         r0,[sp,#local_1c+0x28]                  
ram:00018590    029a            ldr         r2,[sp,#local_20+0x28]                  
ram:00018592    0143            orrs        r1,r0                                   
ram:00018594    6868            ldr         r0,[r5,#0x4]                            
ram:00018596    2240            ands        r2,r4                                   
ram:00018598    1040            ands        r0,r2                                   
ram:0001859a    009a            ldr         r2,[sp,#0x0]=>local_28                  
ram:0001859c    1043            orrs        r0,r2                                   
ram:0001859e    0246            mov         r2,r0                                   
ram:000185a0    0a43            orrs        r2,r1                                   
ram:000185a2    01d0            beq         LAB_000185a8                            
ram:000185a4    2a69            ldr         r2,[r5,#0x10]                           
ram:000185a6    9047            blx         r2                                      
                            LAB_000185a8:                 ;XREF[2,0]:   00018530,000185a2
ram:000185a8    761c            adds        r6,r6,#0x1                              
ram:000185aa    f6b2            uxtb        r6,r6                                   
                            LAB_000185ac:                 ;XREF[1,0]:   0001851e
ram:000185ac    7878            ldrb        r0,[r7,#0x1]=>DAT_200020f9              
ram:000185ae    8642            cmp         r6,r0                                   
ram:000185b0    b6d3            bcc         LAB_00018520                            
ram:000185b2    05b0            add         sp,#0x14                                
ram:000185b4    f0bd            pop         {r4,r5,r6,r7,pc}                        
ram:000185b6    0000            movs        r0,r0                                   
                            DAT_000185b8:                 ;XREF[2,0]:   0001850e,0001854c
ram:000185b8    00050050        undefined4  50000500h                               
                            DAT_000185bc:                 ;XREF[1,0]:   00018514
ram:000185bc    40610040        undefined4  40006140h                               
                            DAT_000185c0:                 ;XREF[1,0]:   0001851c
ram:000185c0    f8200020        undefined4  200020F8h                               
                            ;************************************************************************************************
                            ;*                                           FUNCTION                                           *
                            ;************************************************************************************************
                            ;undefined FUN_000185c4(void)
                                                          ;XREF[2,0]:   000185f6,000186a8
ram:000185c4    10b5            push        {r4,lr}                                 
ram:000185c6    0820            movs        r0,#0x8                                 
ram:000185c8    02f046fd        bl          FUN_0001b058                            ;undefined FUN_0001b058(int param_1)
ram:000185cc    0920            movs        r0,#0x9                                 
ram:000185ce    02f043fd        bl          FUN_0001b058                            ;undefined FUN_0001b058(int param_1)
ram:000185d2    0a20            movs        r0,#0xa                                 
ram:000185d4    02f040fd        bl          FUN_0001b058                            ;undefined FUN_0001b058(int param_1)
ram:000185d8    ff20            movs        r0,#0xff                                
ram:000185da    0249            ldr         r1,[DAT_000185e4]                       ;= 50000500h
ram:000185dc    0130            adds        r0,#0x1                                 
ram:000185de    8860            str         r0,[r1,#offset DAT_50000508 &0xff]      
ram:000185e0    10bd            pop         {r4,pc}                                 
ram:000185e2    0000            movs        r0,r0                                   
                            DAT_000185e4:                 ;XREF[1,0]:   000185da
ram:000185e4    00050050        undefined4  50000500h                               
                            ;************************************************************************************************
                            ;*                                           FUNCTION                                           *
                            ;************************************************************************************************
                            ;undefined FUN_000185e8(void)
                                                          ;XREF[1,0]:   0001acce
ram:000185e8    70b5            push        {r4,r5,r6,lr}                           
ram:000185ea    2248            ldr         r0,[DAT_00018674]                       ;= 20002024h
ram:000185ec    0068            ldr         r0,[r0,#0x0]=>DAT_20002024              
ram:000185ee    4007            lsls        r0,r0,#0x1d                             
ram:000185f0    400f            lsrs        r0,r0,#0x1d                             
ram:000185f2    0128            cmp         r0,#0x1                                 
ram:000185f4    3dd9            bls         LAB_00018672                            
ram:000185f6    fff7e5ff        bl          FUN_000185c4                            ;undefined FUN_000185c4(void)
ram:000185fa    1e4c            ldr         r4,[DAT_00018674]                       ;= 20002024h
ram:000185fc    241f            subs        r4,r4,#0x4                              
ram:000185fe    2068            ldr         r0,[r4,#0x0]=>DAT_20002020              
ram:00018600    0121            movs        r1,#0x1                                 
ram:00018602    c903            lsls        r1,r1,#0xf                              
ram:00018604    8843            bics        r0,r1                                   
ram:00018606    2060            str         r0,[r4,#0x0]=>DAT_20002020              
ram:00018608    2068            ldr         r0,[r4,#0x0]=>DAT_20002020              
ram:0001860a    ff21            movs        r1,#0xff                                
ram:0001860c    4901            lsls        r1,r1,#0x5                              
ram:0001860e    8843            bics        r0,r1                                   
ram:00018610    2060            str         r0,[r4,#0x0]=>DAT_20002020              
ram:00018612    0121            movs        r1,#0x1                                 
ram:00018614    0420            movs        r0,#0x4                                 
ram:00018616    02f017fd        bl          FUN_0001b048                            ;undefined FUN_0001b048(int param_1, ...
ram:0001861a    0121            movs        r1,#0x1                                 
ram:0001861c    0520            movs        r0,#0x5                                 
ram:0001861e    02f013fd        bl          FUN_0001b048                            ;undefined FUN_0001b048(int param_1, ...
ram:00018622    2068            ldr         r0,[r4,#0x0]=>DAT_20002020              
ram:00018624    0825            movs        r5,#0x8                                 
ram:00018626    a843            bics        r0,r5                                   
ram:00018628    2060            str         r0,[r4,#0x0]=>DAT_20002020              
ram:0001862a    2068            ldr         r0,[r4,#0x0]=>DAT_20002020              
ram:0001862c    1026            movs        r6,#0x10                                
ram:0001862e    b043            bics        r0,r6                                   
ram:00018630    2060            str         r0,[r4,#0x0]=>DAT_20002020              
ram:00018632    0420            movs        r0,#0x4                                 
ram:00018634    02f020fd        bl          FUN_0001b078                            ;uint FUN_0001b078(uint param_1)
ram:00018638    c007            lsls        r0,r0,#0x1f                             
ram:0001863a    2168            ldr         r1,[r4,#0x0]=>DAT_20002020              
ram:0001863c    000f            lsrs        r0,r0,#0x1c                             
ram:0001863e    a943            bics        r1,r5                                   
ram:00018640    0143            orrs        r1,r0                                   
ram:00018642    2160            str         r1,[r4,#0x0]=>DAT_20002020              
ram:00018644    0520            movs        r0,#0x5                                 
ram:00018646    02f017fd        bl          FUN_0001b078                            ;uint FUN_0001b078(uint param_1)
ram:0001864a    c007            lsls        r0,r0,#0x1f                             
ram:0001864c    c10e            lsrs        r1,r0,#0x1b                             
ram:0001864e    2068            ldr         r0,[r4,#0x0]=>DAT_20002020              
ram:00018650    b043            bics        r0,r6                                   
ram:00018652    0843            orrs        r0,r1                                   
ram:00018654    2060            str         r0,[r4,#0x0]=>DAT_20002020              
ram:00018656    2068            ldr         r0,[r4,#0x0]=>DAT_20002020              
ram:00018658    0321            movs        r1,#0x3                                 
ram:0001865a    0904            lsls        r1,r1,#0x10                             
ram:0001865c    8843            bics        r0,r1                                   
ram:0001865e    a903            lsls        r1,r5,#0xe                              
ram:00018660    4018            adds        r0,r0,r1                                
ram:00018662    2060            str         r0,[r4,#0x0]=>DAT_20002020              
ram:00018664    2068            ldr         r0,[r4,#0x0]=>DAT_20002020              
ram:00018666    8003            lsls        r0,r0,#0xe                              
ram:00018668    800f            lsrs        r0,r0,#0x1e                             
ram:0001866a    fff735ff        bl          FUN_000184d8                            ;undefined FUN_000184d8(uint param_1)
ram:0001866e    01f099fc        bl          FUN_00019fa4                            ;undefined FUN_00019fa4(void)
                            LAB_00018672:                 ;XREF[1,0]:   000185f4
ram:00018672    70bd            pop         {r4,r5,r6,pc}                           
                            DAT_00018674:                 ;XREF[2,0]:   000185ea,000185fa
ram:00018674    24200020        undefined4  20002024h                               
                            ;************************************************************************************************
                            ;*                                           FUNCTION                                           *
                            ;************************************************************************************************
                            ;undefined FUN_00018678(int param_1)
          ;param_1       int                 r0                      
                                                          ;XREF[1,0]:   0001acfa
ram:00018678    10b5            push        {r4,lr}                                 
ram:0001867a    1149            ldr         r1=>DAT_20002020,[DAT_000186c0]         ;= 20002020h
ram:0001867c    0128            cmp         param_1,#0x1                            
ram:0001867e    1bd0            beq         LAB_000186b8                            
ram:00018680    0028            cmp         param_1,#0x0                            
ram:00018682    18d1            bne         LAB_000186b6                            
ram:00018684    0868            ldr         param_1,[r1,#0x0]=>DAT_20002020         
ram:00018686    8003            lsls        param_1,param_1,#0xe                    
ram:00018688    800f            lsrs        param_1,param_1,#0x1e                   
ram:0001868a    c043            mvns        param_1,param_1                         
ram:0001868c    c4b2            uxtb        r4,param_1                              
                            LAB_0001868e:                 ;XREF[1,0]:   000186be
ram:0001868e    002c            cmp         r4,#0x0                                 
ram:00018690    11d0            beq         LAB_000186b6                            
ram:00018692    0b48            ldr         param_1,[DAT_000186c0]                  ;= 20002020h
ram:00018694    001d            adds        param_1,param_1,#0x4                    
ram:00018696    0068            ldr         param_1,[param_1,#0x0]=>DAT_20002024    
ram:00018698    4007            lsls        param_1,param_1,#0x1d                   
ram:0001869a    400f            lsrs        param_1,param_1,#0x1d                   
ram:0001869c    0128            cmp         param_1,#0x1                            
ram:0001869e    0ad9            bls         LAB_000186b6                            
ram:000186a0    0868            ldr         param_1,[r1,#0x0]=>DAT_20002020         
ram:000186a2    0122            movs        r2,#0x1                                 
ram:000186a4    1043            orrs        param_1,r2                              
ram:000186a6    0860            str         param_1,[r1,#0x0]=>DAT_20002020         
ram:000186a8    fff78cff        bl          FUN_000185c4                            ;undefined FUN_000185c4(void)
ram:000186ac    2046            mov         param_1,r4                              
ram:000186ae    fff713ff        bl          FUN_000184d8                            ;undefined FUN_000184d8(uint param_1)
ram:000186b2    01f077fc        bl          FUN_00019fa4                            ;undefined FUN_00019fa4(void)
                            LAB_000186b6:                 ;XREF[3,0]:   00018682,00018690,0001869e
ram:000186b6    10bd            pop         {r4,pc}                                 
                            LAB_000186b8:                 ;XREF[1,0]:   0001867e
ram:000186b8    0868            ldr         param_1,[r1,#0x0]=>DAT_20002020         
ram:000186ba    8003            lsls        param_1,param_1,#0xe                    
ram:000186bc    840f            lsrs        r4,param_1,#0x1e                        
ram:000186be    e6e7            b           LAB_0001868e                            
                            DAT_000186c0:                 ;XREF[2,0]:   0001867a,00018692
ram:000186c0    20200020        undefined4  20002020h                               
                            ;************************************************************************************************
                            ;*                                           FUNCTION                                           *
                            ;************************************************************************************************
                            ;undefined FUN_000186c4(uint param_1, int param_2)
          ;param_1       uint                r0                      
          ;param_2       int                 r1                      
                                                          ;XREF[2,0]:   000191be,000191d0
ram:000186c4    8307            lsls        r3,param_1,#0x1e                        
ram:000186c6    ff22            movs        r2,#0xff                                
ram:000186c8    db0e            lsrs        r3,r3,#0x1b                             
ram:000186ca    9a40            lsls        r2,r3                                   
ram:000186cc    8907            lsls        param_2,param_2,#0x1e                   
ram:000186ce    090e            lsrs        param_2,param_2,#0x18                   
ram:000186d0    9940            lsls        param_2,r3                              
ram:000186d2    0028            cmp         param_1,#0x0                            
ram:000186d4    0bda            bge         LAB_000186ee                            
ram:000186d6    0007            lsls        param_1,param_1,#0x1c                   
ram:000186d8    000f            lsrs        param_1,param_1,#0x1c                   
ram:000186da    0838            subs        param_1,#0x8                            
ram:000186dc    8308            lsrs        r3,param_1,#0x2                         
ram:000186de    0848            ldr         param_1,[DAT_00018700]                  ;= E000ED00h
ram:000186e0    9b00            lsls        r3,r3,#0x2                              
ram:000186e2    1818            adds        param_1,r3,param_1                      
ram:000186e4    c369            ldr         r3,[param_1,#0x1c]                      
ram:000186e6    9343            bics        r3,r2                                   
ram:000186e8    0b43            orrs        r3,param_2                              
ram:000186ea    c361            str         r3,[param_1,#0x1c]                      
ram:000186ec    7047            bx          lr                                      
                            LAB_000186ee:                 ;XREF[1,0]:   000186d4
ram:000186ee    8308            lsrs        r3,param_1,#0x2                         
ram:000186f0    0448            ldr         param_1,[DAT_00018704]                  ;= E000E400h
ram:000186f2    9b00            lsls        r3,r3,#0x2                              
ram:000186f4    1b18            adds        r3,r3,param_1                           
ram:000186f6    1868            ldr         param_1,[r3,#0x0]                       
ram:000186f8    9043            bics        param_1,r2                              
ram:000186fa    0843            orrs        param_1,param_2                         
ram:000186fc    1860            str         param_1,[r3,#0x0]                       
ram:000186fe    7047            bx          lr                                      
                            DAT_00018700:                 ;XREF[1,0]:   000186de
ram:00018700    00ed00e0        undefined4  E000ED00h                               
                            DAT_00018704:                 ;XREF[1,0]:   000186f0
ram:00018704    00e400e0        undefined4  E000E400h                               
                            ;************************************************************************************************
                            ;*                                           FUNCTION                                           *
                            ;************************************************************************************************
                            ;undefined FUNC_VT_00018708(void)
                                                          ;XREF[0,1]:   00018084
ram:00018708    10b5            push        {r4,lr}                                 
ram:0001870a    0649            ldr         r1,[DAT_00018724]                       ;= 40011140h
ram:0001870c    0020            movs        r0,#0x0                                 
ram:0001870e    0860            str         r0,[r1,#0x0]=>DAT_40011140              
ram:00018710    4860            str         r0,[r1,#0x4]=>DAT_40011144              
ram:00018712    8860            str         r0,[r1,#0x8]=>DAT_40011148              
ram:00018714    c860            str         r0,[r1,#0xc]=>DAT_4001114c              
ram:00018716    0349            ldr         r1,[DAT_00018724]                       ;= 40011140h
ram:00018718    4039            subs        r1=>DAT_40011100,#0x40                  
ram:0001871a    0860            str         r0,[r1,#0x0]=>DAT_40011100              
ram:0001871c    4860            str         r0,[r1,#offset DAT_40011104 &0xff]      
ram:0001871e    03f04dfd        bl          FUN_0001c1bc                            ;undefined FUN_0001c1bc(void)
ram:00018722    10bd            pop         {r4,pc}                                 
                            DAT_00018724:                 ;XREF[2,0]:   0001870a,00018716
ram:00018724    40110140        undefined4  40011140h                               
                            ;************************************************************************************************
                            ;*                                           FUNCTION                                           *
                            ;************************************************************************************************
                            ;undefined FUNC_VT_00018728(undefined4 param_1, uint param_2)
          ;param_1       undefined4          r0                      
          ;param_2       uint                r1                      
          ;local_18      undefined4         -18                      ;XREF[3,0]:   00018730,00018754,0001875c
          ;local_1c      undefined4         -1c                      ;XREF[2,0]:   00018734,0001874c
          ;local_20      undefined4         -20                      ;XREF[1,0]:   0001874e
                                                          ;XREF[0,1]:   00018090
ram:00018728    feb5            push        {param_2,r2,r3,r4,r5,r6,r7,lr}          
ram:0001872a    0020            movs        param_1,#0x0                            
ram:0001872c    c043            mvns        param_1,param_1                         
ram:0001872e    124d            ldr         r5,[DAT_00018778]                       ;= 20002114h
ram:00018730    0290            str         param_1,[sp,#local_18+0x20]             
ram:00018732    6869            ldr         param_1,[r5,#0x14]=>DAT_20002128        
ram:00018734    0190            str         param_1,[sp,#local_1c+0x20]             
ram:00018736    6846            mov         param_1,sp                              
ram:00018738    2e69            ldr         r6,[r5,#0x10]=>DAT_20002124             
ram:0001873a    01f01bff        bl          FUN_0001a574                            ;undefined4 FUN_0001a574(int * param_1)
ram:0001873e    0746            mov         r7,param_1                              
ram:00018740    02f0caf8        bl          FUN_0001a8d8                            ;undefined4 FUN_0001a8d8(void)
ram:00018744    0446            mov         r4,param_1                              
ram:00018746    002f            cmp         r7,#0x0                                 
ram:00018748    08d0            beq         LAB_0001875c                            
ram:0001874a    02aa            add         r2,sp,#0x8                              
ram:0001874c    0199            ldr         param_2,[sp,#local_1c+0x20]             
ram:0001874e    0098            ldr         param_1,[sp,#0x0]=>local_20             
ram:00018750    01f030ff        bl          FUN_0001a5b4                            ;undefined FUN_0001a5b4(uint param_1,...
ram:00018754    0298            ldr         param_1,[sp,#local_18+0x20]             
ram:00018756    02f009f9        bl          FUN_0001a96c                            ;undefined4 FUN_0001a96c(int param_1)
ram:0001875a    06e0            b           LAB_0001876a                            
                            LAB_0001875c:                 ;XREF[1,0]:   00018748
ram:0001875c    0298            ldr         param_1,[sp,#local_18+0x20]             
ram:0001875e    02f005f9        bl          FUN_0001a96c                            ;undefined4 FUN_0001a96c(int param_1)
ram:00018762    0028            cmp         param_1,#0x0                            
ram:00018764    01d1            bne         LAB_0001876a                            
ram:00018766    002c            cmp         r4,#0x0                                 
ram:00018768    02d0            beq         LAB_00018770                            
                            LAB_0001876a:                 ;XREF[2,0]:   0001875a,00018764
ram:0001876a    3046            mov         param_1,r6                              
ram:0001876c    01f0fefa        bl          FUN_00019d6c                            ;undefined FUN_00019d6c(void)
                            LAB_00018770:                 ;XREF[1,0]:   00018768
ram:00018770    0020            movs        param_1,#0x0                            
ram:00018772    6871            strb        param_1,[r5,#0x5]=>DAT_20002119         
ram:00018774    febd            pop         {param_2,r2,r3,r4,r5,r6,r7,pc}          
ram:00018776    0000            movs        r0,r0                                   
                            DAT_00018778:                 ;XREF[1,0]:   0001872e
ram:00018778    14210020        undefined4  20002114h                               
                            ;************************************************************************************************
                            ;*                                           FUNCTION                                           *
                            ;************************************************************************************************
                            ;undefined FUNC_VT_0001877c(void)
                                                          ;XREF[0,1]:   00018098
ram:0001877c    10b5            push        {r4,lr}                                 
ram:0001877e    0748            ldr         r0,[DAT_0001879c]                       ;= 20002140h
ram:00018780    4068            ldr         r0,[r0,#0x4]=>DAT_20002144              
ram:00018782    0028            cmp         r0,#0x0                                 
ram:00018784    07d0            beq         LAB_00018796                            
ram:00018786    8047            blx         r0                                      
ram:00018788    0028            cmp         r0,#0x0                                 
ram:0001878a    03d0            beq         LAB_00018794                            
ram:0001878c    0022            movs        r2,#0x0                                 
ram:0001878e    1146            mov         r1,r2                                   
ram:00018790    00f07afa        bl          FUN_00018c88                            ;undefined FUN_00018c88(void)
                            LAB_00018794:                 ;XREF[1,0]:   0001878a
ram:00018794    10bd            pop         {r4,pc}                                 
                            LAB_00018796:                 ;XREF[1,0]:   00018784
ram:00018796    02f027f8        bl          FUN_0001a7e8                            ;undefined FUN_0001a7e8(void)
ram:0001879a    10bd            pop         {r4,pc}                                 
                            DAT_0001879c:                 ;XREF[1,0]:   0001877e
ram:0001879c    40210020        undefined4  20002140h                               
                            ;************************************************************************************************
                            ;*                                           FUNCTION                                           *
                            ;************************************************************************************************
                            ;undefined FUN_000187a0(void)
                                                          ;XREF[1,1]:   0001816c,00018188
ram:000187a0    10b5            push        {r4,lr}                                 
ram:000187a2    02f06ff8        bl          FUN_0001a884                            ;undefined4 FUN_0001a884(void)
ram:000187a6    0028            cmp         r0,#0x0                                 
ram:000187a8    05d0            beq         LAB_000187b6                            
ram:000187aa    0e49            ldr         r1,[DAT_000187e4]                       ;= 40000500h
ram:000187ac    0c48            ldr         r0,[DAT_000187e0]                       ;= C007FFDFh
ram:000187ae    4860            str         r0,[r1,#offset DAT_40000504 &0xff]      
ram:000187b0    c813            asrs        r0,r1,#0xf                              
ram:000187b2    0d49            ldr         r1,[DAT_000187e8]                       ;= 40006C00h
ram:000187b4    8861            str         r0,[r1,#offset DAT_40006c18 &0xff]      
                            LAB_000187b6:                 ;XREF[1,0]:   000187a8
ram:000187b6    0d48            ldr         r0,[DAT_000187ec]                       ;= F0000FC0h
ram:000187b8    018c            ldrh        r1,[r0,#0x20]=>DAT_f0000fe0             
ram:000187ba    c9b2            uxtb        r1,r1                                   
ram:000187bc    0129            cmp         r1,#0x1                                 
ram:000187be    0ed1            bne         LAB_000187de                            
ram:000187c0    818c            ldrh        r1,[r0,#0x24]=>DAT_f0000fe4             
ram:000187c2    0907            lsls        r1,r1,#0x1c                             
ram:000187c4    0bd1            bne         LAB_000187de                            
ram:000187c6    018d            ldrh        r1,[r0,#0x28]=>DAT_f0000fe8             
ram:000187c8    0906            lsls        r1,r1,#0x18                             
ram:000187ca    090f            lsrs        r1,r1,#0x1c                             
ram:000187cc    0429            cmp         r1,#0x4                                 
ram:000187ce    06d1            bne         LAB_000187de                            
ram:000187d0    808d            ldrh        r0,[r0,#0x2c]=>DAT_f0000fec             
ram:000187d2    0006            lsls        r0,r0,#0x18                             
ram:000187d4    000f            lsrs        r0,r0,#0x1c                             
ram:000187d6    02d1            bne         LAB_000187de                            
ram:000187d8    0549            ldr         r1,[DAT_000187f0]                       ;= 40000600h
ram:000187da    0120            movs        r0,#0x1                                 
ram:000187dc    8860            str         r0,[r1,#offset DAT_40000608 &0xff]      
                            LAB_000187de:                 ;XREF[4,0]:   000187be,000187c4,000187ce,000187d6
ram:000187de    10bd            pop         {r4,pc}                                 
                            DAT_000187e0:                 ;XREF[1,0]:   000187ac
ram:000187e0    dfff07c0        undefined4  C007FFDFh                               
                            DAT_000187e4:                 ;XREF[1,0]:   000187aa
ram:000187e4    00050040        undefined4  40000500h                               
                            DAT_000187e8:                 ;XREF[1,0]:   000187b2
ram:000187e8    006c0040        undefined4  40006C00h                               
                            DAT_000187ec:                 ;XREF[1,0]:   000187b6
ram:000187ec    c00f00f0        undefined4  F0000FC0h                               
                            DAT_000187f0:                 ;XREF[1,0]:   000187d8
ram:000187f0    00060040        undefined4  40000600h                               
                            ;************************************************************************************************
                            ;*                                           FUNCTION                                           *
                            ;************************************************************************************************
                            ;undefined FUNC_VT_000187f4(void)
                                                          ;XREF[0,1]:   00018064
ram:000187f4    0548            ldr         r0=>DAT_40009140,[DAT_0001880c]         ;= 40009140h
ram:000187f6    0168            ldr         r1,[r0,#0x0]=>DAT_40009140              
ram:000187f8    0029            cmp         r1,#0x0                                 
ram:000187fa    05d0            beq         LAB_00018808                            
ram:000187fc    0449            ldr         r1,[DAT_00018810]                       ;= 40009300h
ram:000187fe    4968            ldr         r1,[r1,#offset DAT_40009304 &0xff]      
ram:00018800    c903            lsls        r1,r1,#0xf                              
ram:00018802    01d5            bpl         LAB_00018808                            
ram:00018804    0021            movs        r1,#0x0                                 
ram:00018806    0160            str         r1,[r0,#0x0]=>DAT_40009140              
                            LAB_00018808:                 ;XREF[2,0]:   000187fa,00018802
ram:00018808    7047            bx          lr                                      
ram:0001880a    0000            movs        r0,r0                                   
                            DAT_0001880c:                 ;XREF[1,0]:   000187f4
ram:0001880c    40910040        undefined4  40009140h                               
                            DAT_00018810:                 ;XREF[1,0]:   000187fc
ram:00018810    00930040        undefined4  40009300h                               
                            ;************************************************************************************************
                            ;*                                           FUNCTION                                           *
                            ;************************************************************************************************
                            ;undefined FUNC_VT_00018814(undefined4 param_1, undefined4 param_2, uint param_3, undefined4 param_4)
          ;param_1       undefined4          r0                      
          ;param_2       undefined4          r1                      
          ;param_3       uint                r2                      
          ;param_4       undefined4          r3                      
          ;local_1c      undefined4         -1c                      ;XREF[2,0]:   0001883a,00018872
          ;local_20      undefined1         -20                      ;XREF[2,0]:   00018838,00018870
                                                          ;XREF[0,1]:   00018048
ram:00018814    feb5            push        {param_2,param_3,param_4,r4,r5,r6,r7,lr}
ram:00018816    194c            ldr         r4,[DAT_0001887c]                       ;= 40002100h
ram:00018818    a068            ldr         param_1,[r4,#offset DAT_40002108 &0xff] 
ram:0001881a    194d            ldr         r5,[DAT_00018880]                       ;= 200020C4h
ram:0001881c    194e            ldr         r6,[DAT_00018884]                       ;= 40002300h
ram:0001881e    0027            movs        r7,#0x0                                 
ram:00018820    0028            cmp         param_1,#0x0                            
ram:00018822    0ed0            beq         LAB_00018842                            
ram:00018824    7068            ldr         param_1,[r6,#offset DAT_40002304 &0xff] 
ram:00018826    4007            lsls        param_1,param_1,#0x1d                   
ram:00018828    0bd5            bpl         LAB_00018842                            
ram:0001882a    a760            str         r7,[r4,#offset DAT_40002108 &0xff]      
ram:0001882c    1648            ldr         param_1,[DAT_00018888]                  ;= 40002500h
ram:0001882e    8069            ldr         param_1,[param_1,#offset DAT_40002518...
ram:00018830    0422            movs        param_3,#0x4                            
ram:00018832    c0b2            uxtb        param_1,param_1                         
ram:00018834    a880            strh        param_1,[r5,#0x4]=>DAT_200020c8         
ram:00018836    6946            mov         param_2,sp                              
ram:00018838    0a70            strb        param_3,[param_2,#0x0]=>local_20        
ram:0001883a    0871            strb        param_1,[r1,#local_1c+0x20]             
ram:0001883c    e968            ldr         param_2,[r5,#0xc]=>DAT_200020d0         
ram:0001883e    6846            mov         param_1,sp                              
ram:00018840    8847            blx         param_2                                 
                            LAB_00018842:                 ;XREF[2,0]:   00018822,00018828
ram:00018842    e069            ldr         param_1,[r4,#offset DAT_4000211c &0xff] 
ram:00018844    0028            cmp         param_1,#0x0                            
ram:00018846    06d0            beq         LAB_00018856                            
ram:00018848    7068            ldr         param_1,[r6,#offset DAT_40002304 &0xff] 
ram:0001884a    0006            lsls        param_1,param_1,#0x18                   
ram:0001884c    03d5            bpl         LAB_00018856                            
ram:0001884e    e761            str         r7,[r4,#offset DAT_4000211c &0xff]      
ram:00018850    0320            movs        param_1,#0x3                            
ram:00018852    02f009fd        bl          FUN_0001b268                            ;undefined FUN_0001b268(uint param_1)
                            LAB_00018856:                 ;XREF[2,0]:   00018846,0001884c
ram:00018856    606a            ldr         param_1,[r4,#offset DAT_40002124 &0xff] 
ram:00018858    0028            cmp         param_1,#0x0                            
ram:0001885a    0ed0            beq         LAB_0001887a                            
ram:0001885c    7068            ldr         param_1,[r6,#offset DAT_40002304 &0xff] 
ram:0001885e    8005            lsls        param_1,param_1,#0x16                   
ram:00018860    0bd5            bpl         LAB_0001887a                            
ram:00018862    6762            str         r7,[r4,#offset DAT_40002124 &0xff]      
ram:00018864    0849            ldr         param_2,[DAT_00018888]                  ;= 40002500h
ram:00018866    8039            subs        param_2,#0x80                           
ram:00018868    0868            ldr         param_1,[param_2,#0x0]=>DAT_40002480    
ram:0001886a    0860            str         param_1,[param_2,#0x0]=>DAT_40002480    
ram:0001886c    0221            movs        param_2,#0x2                            
ram:0001886e    6a46            mov         param_3,sp                              
ram:00018870    1170            strb        param_2,[param_3,#0x0]=>local_20        
ram:00018872    0190            str         param_1,[sp,#local_1c+0x20]             
ram:00018874    e968            ldr         param_2,[r5,#0xc]=>DAT_200020d0         
ram:00018876    6846            mov         param_1,sp                              
ram:00018878    8847            blx         param_2                                 
                            LAB_0001887a:                 ;XREF[2,0]:   0001885a,00018860
ram:0001887a    febd            pop         {param_2,param_3,param_4,r4,r5,r6,r7,pc}
                            DAT_0001887c:                 ;XREF[1,0]:   00018816
ram:0001887c    00210040        undefined4  40002100h                               
                            DAT_00018880:                 ;XREF[1,0]:   0001881a
ram:00018880    c4200020        undefined4  200020C4h                               
                            DAT_00018884:                 ;XREF[1,0]:   0001881c
ram:00018884    00230040        undefined4  40002300h                               
                            DAT_00018888:                 ;XREF[2,0]:   0001882c,00018864
ram:00018888    00250040        undefined4  40002500h                               
                            ;************************************************************************************************
                            ;*                                           FUNCTION                                           *
                            ;************************************************************************************************
                            ;undefined FUNC_VT_0001888c(void)
                                                          ;XREF[0,1]:   00018080
ram:0001888c    0648            ldr         r0,[DAT_000188a8]                       ;= 40010300h
ram:0001888e    4068            ldr         r0,[r0,#offset DAT_40010304 &0xff]      
ram:00018890    c107            lsls        r1,r0,#0x1f                             
ram:00018892    c90f            lsrs        r1,r1,#0x1f                             
ram:00018894    0020            movs        r0,#0x0                                 
ram:00018896    0029            cmp         r1,#0x0                                 
ram:00018898    04d0            beq         LAB_000188a4                            
ram:0001889a    0449            ldr         r1,[DAT_000188ac]                       ;= 40010100h
ram:0001889c    0860            str         r0,[r1,#0x0]=>DAT_40010100              
ram:0001889e    0448            ldr         r0,[DAT_000188b0]                       ;= 2000207Ch
ram:000188a0    4068            ldr         r0,[r0,#0x4]=>DAT_20002080              
ram:000188a2    0047            bx          r0                                      
                            LAB_000188a4:                 ;XREF[1,0]:   00018898
ram:000188a4    7047            bx          lr                                      
ram:000188a6    0000            movs        r0,r0                                   
                            DAT_000188a8:                 ;XREF[1,0]:   0001888c
ram:000188a8    00030140        undefined4  40010300h                               
                            DAT_000188ac:                 ;XREF[1,0]:   0001889a
ram:000188ac    00010140        undefined4  40010100h                               
                            DAT_000188b0:                 ;XREF[1,0]:   0001889e
ram:000188b0    7c200020        undefined4  2000207Ch                               
                            ;************************************************************************************************
                            ;*                                           FUNCTION                                           *
                            ;************************************************************************************************
                            ;int FUN_000188b4(uint param_1)
          ;param_1       uint                r0                      
                                                          ;XREF[2,0]:   000182ac,000182b2
ram:000188b4    2021            movs        r1,#0x20                                
ram:000188b6    020c            lsrs        r2,param_1,#0x10                        
ram:000188b8    01d0            beq         LAB_000188be                            
ram:000188ba    1021            movs        r1,#0x10                                
ram:000188bc    1046            mov         param_1,r2                              
                            LAB_000188be:                 ;XREF[1,0]:   000188b8
ram:000188be    020a            lsrs        r2,param_1,#0x8                         
ram:000188c0    01d0            beq         LAB_000188c6                            
ram:000188c2    1046            mov         param_1,r2                              
ram:000188c4    0839            subs        r1,#0x8                                 
                            LAB_000188c6:                 ;XREF[1,0]:   000188c0
ram:000188c6    0209            lsrs        r2,param_1,#0x4                         
ram:000188c8    01d0            beq         LAB_000188ce                            
ram:000188ca    1046            mov         param_1,r2                              
ram:000188cc    091f            subs        r1,r1,#0x4                              
                            LAB_000188ce:                 ;XREF[1,0]:   000188c8
ram:000188ce    8208            lsrs        r2,param_1,#0x2                         
ram:000188d0    01d0            beq         LAB_000188d6                            
ram:000188d2    1046            mov         param_1,r2                              
ram:000188d4    891e            subs        r1,r1,#0x2                              
                            LAB_000188d6:                 ;XREF[1,0]:   000188d0
ram:000188d6    4208            lsrs        r2,param_1,#0x1                         
ram:000188d8    01d0            beq         LAB_000188de                            
ram:000188da    881e            subs        param_1,r1,#0x2                         
ram:000188dc    7047            bx          lr                                      
                            LAB_000188de:                 ;XREF[1,0]:   000188d8
ram:000188de    081a            subs        param_1,r1,param_1                      
ram:000188e0    7047            bx          lr                                      
                            ;************************************************************************************************
                            ;*                                           FUNCTION                                           *
                            ;************************************************************************************************
                            ;undefined __ARM_common_switch8(void)
                                                          ;XREF[4,0]:   0001b1d2,0001b276,0001bc0a,0001bfe8
ram:000188e2    30b4            push        {r4,r5}                                 
ram:000188e4    7446            mov         r4,lr                                   
ram:000188e6    641e            subs        r4,r4,#0x1                              
ram:000188e8    2578            ldrb        r5,[r4,#0x0]                            
ram:000188ea    641c            adds        r4,r4,#0x1                              
ram:000188ec    ab42            cmp         r3,r5                                   
ram:000188ee    00d2            bcs         FUN_000188f2                            
ram:000188f0    1d46            mov         r5,r3                                   
                            ;************************************************************************************************
                            ;*                                           FUNCTION                                           *
                            ;************************************************************************************************
                            ;undefined FUN_000188f2(void)
                                                          ;XREF[1,0]:   000188ee
ram:000188f2    635d            ldrb        r3,[r4,r5]                              
ram:000188f4    5b00            lsls        r3,r3,#0x1                              
ram:000188f6    e318            adds        r3,r4,r3                                
ram:000188f8    30bc            pop         {r4,r5}                                 
ram:000188fa    1847            bx          r3                                      
ram:000188fc    02e0            b           LAB_00018904                            
                            ;************************************************************************************************
                            ;*                                           FUNCTION                                           *
                            ;************************************************************************************************
                            ;undefined FUN_000188fe(undefined4 * param_1, undefined4 * param_2, int param_3)
          ;param_1       undefined4 *        r0                      
          ;param_2       undefined4 *        r1                      
          ;param_3       int                 r2                      
                                                          ;XREF[1,0]:   00018906
ram:000188fe    08c8            ldmia       param_1!,{r3}                           
ram:00018900    121f            subs        param_3,param_3,#0x4                    
ram:00018902    08c1            stmia       param_2!,{r3}                           
                            LAB_00018904:                 ;XREF[1,0]:   000188fc
ram:00018904    002a            cmp         param_3,#0x0                            
ram:00018906    fad1            bne         FUN_000188fe                            
ram:00018908    7047            bx          lr                                      
ram:0001890a    7047            bx          lr                                      
ram:0001890c    0020            movs        r0,#0x0                                 
ram:0001890e    01e0            b           LAB_00018914                            
                            LAB_00018910:                 ;XREF[1,0]:   00018916
ram:00018910    01c1            stmia       r1!,{r0}                                
ram:00018912    121f            subs        r2,r2,#0x4                              
                            LAB_00018914:                 ;XREF[1,0]:   0001890e
ram:00018914    002a            cmp         r2,#0x0                                 
ram:00018916    fbd1            bne         LAB_00018910                            
ram:00018918    7047            bx          lr                                      
ram:0001891a    0000            movs        r0,r0                                   
ram:0001891c    1cb5            push        {r2,r3,r4,lr}                           
ram:0001891e    0649            ldr         r1,[DAT_00018938]                       ;= 40002000h
ram:00018920    0120            movs        r0,#0x1                                 
ram:00018922    c860            str         r0,[r1,#offset DAT_4000200c &0xff]      
ram:00018924    0549            ldr         r1,[DAT_0001893c]                       ;= 200020C4h
ram:00018926    4870            strb        r0,[r1,#0x1]=>DAT_200020c5              
ram:00018928    0320            movs        r0,#0x3                                 
ram:0001892a    6a46            mov         r2,sp                                   
ram:0001892c    1070            strb        r0,[r2,#0x0]                            
ram:0001892e    c968            ldr         r1,[r1,#0xc]=>DAT_200020d0              
ram:00018930    6846            mov         r0,sp                                   
ram:00018932    8847            blx         r1                                      
ram:00018934    1cbd            pop         {r2,r3,r4,pc}                           
ram:00018936    0000            movs        r0,r0                                   
                            DAT_00018938:                 ;XREF[1,0]:   0001891e
ram:00018938    00200040        undefined4  40002000h                               
                            DAT_0001893c:                 ;XREF[1,0]:   00018924
ram:0001893c    c4200020        undefined4  200020C4h                               
ram:00018940    04              ??          04h                                     
ram:00018941    49              ??          49h    I                                
ram:00018942    00              ??          00h                                     
ram:00018943    20              ??          20h                                     
ram:00018944    48              ??          48h    H                                
ram:00018945    70              ??          70h    p                                
ram:00018946    04              ??          04h                                     
ram:00018947    49              ??          49h    I                                
ram:00018948    01              ??          01h                                     
ram:00018949    22              ??          22h    "                                
ram:0001894a    ca              ??          CAh                                     
ram:0001894b    60              ??          60h    `                                
ram:0001894c    4a              ??          4Ah    J                                
ram:0001894d    60              ??          60h    `                                
ram:0001894e    03              ??          03h                                     
ram:0001894f    49              ??          49h    I                                
ram:00018950    08              ??          08h                                     
ram:00018951    60              ??          60h    `                                
ram:00018952    70              ??          70h    p                                
ram:00018953    47              ??          47h    G                                
ram:00018954    c4              ??          C4h                                     
ram:00018955    20              ??          20h                                     
ram:00018956    00              ??          00h                                     
ram:00018957    20              ??          20h                                     
ram:00018958    00              ??          00h                                     
ram:00018959    20              ??          20h                                     
ram:0001895a    00              ??          00h                                     
ram:0001895b    40              ??          40h    @                                
ram:0001895c    00              ??          00h                                     
ram:0001895d    25              ??          25h    %                                
ram:0001895e    00              ??          00h                                     
ram:0001895f    40              ??          40h    @                                
                            ;************************************************************************************************
                            ;*                                           FUNCTION                                           *
                            ;************************************************************************************************
                            ;undefined FUN_00018960(void)
                                                          ;XREF[2,0]:   0001abc6,0001be86
ram:00018960    0249            ldr         r1,[DAT_0001896c]                       ;= 40007500h
ram:00018962    0120            movs        r0,#0x1                                 
ram:00018964    0860            str         r0,[r1,#0x0]=>DAT_40007500              
ram:00018966    0249            ldr         r1,[DAT_00018970]                       ;= 40007000h
ram:00018968    0860            str         r0,[r1,#0x0]=>DAT_40007000              
ram:0001896a    7047            bx          lr                                      
                            DAT_0001896c:                 ;XREF[1,0]:   00018960
ram:0001896c    00750040        undefined4  40007500h                               
                            DAT_00018970:                 ;XREF[1,0]:   00018966
ram:00018970    00700040        undefined4  40007000h                               
                            ;************************************************************************************************
                            ;*                                           FUNCTION                                           *
                            ;************************************************************************************************
                            ;undefined * FUN_00018974(char * param_1, undefined * param_2, byte * param_3)
          ;param_1       char *              r0                      
          ;param_2       undefined *         r1                      
          ;param_3       byte *              r2                      
          ;local_1c      undefined4         -1c                      ;XREF[12,0]:  00018988,0001899a,000189e0,000189ea,000189fa
                                                                     ;             00018a12,00018a42,00018a5c,00018a76,00018a88
                                                                     ;             00018a9a,00018ab0
          ;local_28      undefined4         -28                      ;XREF[4,0]:   000189ca,00018a3a,00018a54,00018a6e
                                                          ;XREF[2,0]:   000195a8,000195cc
ram:00018974    f7b5            push        {param_1,param_2,param_3,r4,r5,r6,r7,lr}
ram:00018976    82b0            sub         sp,#0x8                                 
ram:00018978    0026            movs        r6,#0x0                                 
ram:0001897a    0546            mov         r5,param_1                              
ram:0001897c    1670            strb        r6,[param_3,#0x0]                       
ram:0001897e    0078            ldrb        param_1,[param_1,#0x0]                  
ram:00018980    1446            mov         r4,param_3                              
ram:00018982    0028            cmp         param_1,#0x0                            
ram:00018984    05d0            beq         LAB_00018992                            
ram:00018986    2846            mov         param_1,r5                              
ram:00018988    0399            ldr         param_2,[sp,#local_1c+0x28]             
ram:0001898a    02f053fa        bl          FUN_0001ae34                            ;int FUN_0001ae34(char * param_1, int...
ram:0001898e    0600            movs        r6,param_1                              
ram:00018990    08d1            bne         LAB_000189a4                            
                            LAB_00018992:                 ;XREF[1,0]:   00018984
ram:00018992    a878            ldrb        param_1,[r5,#0x2]                       
ram:00018994    0028            cmp         param_1,#0x0                            
ram:00018996    1ed0            beq         LAB_000189d6                            
ram:00018998    2078            ldrb        param_1,[r4,#0x0]                       
ram:0001899a    039f            ldr         r7,[sp,#local_1c+0x28]                  
ram:0001899c    001d            adds        param_1,param_1,#0x4                    
ram:0001899e    1f28            cmp         param_1,#0x1f                           
ram:000189a0    02d9            bls         LAB_000189a8                            
                            LAB_000189a2:                 ;XREF[1,0]:   00018a16
ram:000189a2    0c20            movs        param_1,#0xc                            
                            LAB_000189a4:                 ;XREF[7,0]:   00018990,000189ae,00018a4a,00018a64
                                                          ;             00018a7e,00018a90,00018abc
ram:000189a4    05b0            add         sp,#0x14                                
ram:000189a6    f0bd            pop         {r4,r5,r6,r7,pc}                        
                            LAB_000189a8:                 ;XREF[1,0]:   000189a0
ram:000189a8    6846            mov         param_1,sp                              
ram:000189aa    79df            svc         0x79                                    
ram:000189ac    0028            cmp         param_1,#0x0                            
                            LAB_000189ae:                 ;XREF[1,0]:   00018aa2
ram:000189ae    f9d1            bne         LAB_000189a4                            
ram:000189b0    2178            ldrb        param_2,[r4,#0x0]                       
ram:000189b2    0322            movs        param_3,#0x3                            
ram:000189b4    481c            adds        param_1,param_2,#0x1                    
ram:000189b6    2070            strb        param_1,[r4,#0x0]                       
ram:000189b8    7a54            strb        param_3,[r7,param_2]                    
ram:000189ba    2178            ldrb        param_2,[r4,#0x0]                       
ram:000189bc    1922            movs        param_3,#0x19                           
ram:000189be    481c            adds        param_1,param_2,#0x1                    
ram:000189c0    2070            strb        param_1,[r4,#0x0]                       
ram:000189c2    7a54            strb        param_3,[r7,param_2]                    
ram:000189c4    2078            ldrb        param_1,[r4,#0x0]                       
ram:000189c6    c119            adds        param_2,param_1,r7                      
ram:000189c8    6846            mov         param_1,sp                              
ram:000189ca    0088            ldrh        param_1=>local_28,[param_1,#0x0]        
ram:000189cc    03f0affc        bl          FUN_0001c32e                            ;undefined4 FUN_0001c32e(undefined4 p...
ram:000189d0    2178            ldrb        param_2,[r4,#0x0]                       
ram:000189d2    4018            adds        param_1,param_1,param_2                 
ram:000189d4    2070            strb        param_1,[r4,#0x0]                       
                            LAB_000189d6:                 ;XREF[1,0]:   00018996
ram:000189d6    e878            ldrb        param_1,[r5,#0x3]                       
ram:000189d8    0223            movs        r3,#0x2                                 
ram:000189da    0028            cmp         param_1,#0x0                            
ram:000189dc    10d0            beq         LAB_00018a00                            
ram:000189de    2078            ldrb        param_1,[r4,#0x0]                       
ram:000189e0    039a            ldr         param_3,[sp,#local_1c+0x28]             
ram:000189e2    411c            adds        param_2,param_1,#0x1                    
ram:000189e4    2170            strb        param_2,[r4,#0x0]                       
ram:000189e6    1354            strb        r3,[param_3,param_1]                    
ram:000189e8    2078            ldrb        param_1,[r4,#0x0]                       
ram:000189ea    0399            ldr         param_2,[sp,#local_1c+0x28]             
ram:000189ec    471c            adds        r7,param_1,#0x1                         
ram:000189ee    0122            movs        param_3,#0x1                            
ram:000189f0    2770            strb        r7,[r4,#0x0]                            
ram:000189f2    0a54            strb        param_3,[param_2,param_1]               
ram:000189f4    2078            ldrb        param_1,[r4,#0x0]                       
ram:000189f6    ea78            ldrb        param_3,[r5,#0x3]                       
ram:000189f8    471c            adds        r7,param_1,#0x1                         
ram:000189fa    0399            ldr         param_2,[sp,#local_1c+0x28]             
ram:000189fc    2770            strb        r7,[r4,#0x0]                            
ram:000189fe    0a54            strb        param_3,[param_2,param_1]               
                            LAB_00018a00:                 ;XREF[1,0]:   000189dc
ram:00018a00    6868            ldr         param_1,[r5,#0x4]                       
ram:00018a02    0028            cmp         param_1,#0x0                            
ram:00018a04    15d0            beq         LAB_00018a32                            
ram:00018a06    0021            movs        param_2,#0x0                            
ram:00018a08    4156            ldrsb       param_2,[param_1,param_2]               
ram:00018a0a    2078            ldrb        param_1,[r4,#0x0]                       
ram:00018a0c    8c46            mov         r12,param_2                             
ram:00018a0e    0246            mov         param_3,param_1                         
ram:00018a10    c01c            adds        param_1,param_1,#0x3                    
ram:00018a12    0399            ldr         param_2,[sp,#local_1c+0x28]             
ram:00018a14    1f28            cmp         param_1,#0x1f                           
ram:00018a16    c4d8            bhi         LAB_000189a2                            
ram:00018a18    501c            adds        param_1,param_3,#0x1                    
ram:00018a1a    2070            strb        param_1,[r4,#0x0]                       
ram:00018a1c    8b54            strb        r3,[param_2,param_3]                    
ram:00018a1e    2278            ldrb        param_3,[r4,#0x0]                       
ram:00018a20    0a23            movs        r3,#0xa                                 
ram:00018a22    501c            adds        param_1,param_3,#0x1                    
ram:00018a24    2070            strb        param_1,[r4,#0x0]                       
ram:00018a26    8b54            strb        r3,[param_2,param_3]                    
ram:00018a28    2078            ldrb        param_1,[r4,#0x0]                       
ram:00018a2a    6246            mov         param_3,r12                             
ram:00018a2c    431c            adds        r3,param_1,#0x1                         
ram:00018a2e    2370            strb        r3,[r4,#0x0]                            
ram:00018a30    0a54            strb        param_3,[param_2,param_1]               
                            LAB_00018a32:                 ;XREF[1,0]:   00018a04
ram:00018a32    2889            ldrh        param_1,[r5,#0x8]                       
ram:00018a34    0028            cmp         param_1,#0x0                            
ram:00018a36    09d0            beq         LAB_00018a4c                            
ram:00018a38    2846            mov         param_1,r5                              
ram:00018a3a    0094            str         r4,[sp,#0x0]=>local_28                  
ram:00018a3c    0622            movs        param_3,#0x6                            
ram:00018a3e    0221            movs        param_2,#0x2                            
ram:00018a40    0830            adds        param_1,#0x8                            
ram:00018a42    039b            ldr         r3,[sp,#local_1c+0x28]                  
ram:00018a44    03f004fd        bl          FUN_0001c450                            ;undefined8 FUN_0001c450(ushort * par...
ram:00018a48    0600            movs        r6,param_1                              
                            LAB_00018a4a:                 ;XREF[1,0]:   00018ab8
ram:00018a4a    abd1            bne         LAB_000189a4                            
                            LAB_00018a4c:                 ;XREF[1,0]:   00018a36
ram:00018a4c    288a            ldrh        param_1,[r5,#0x10]                      
ram:00018a4e    0028            cmp         param_1,#0x0                            
ram:00018a50    09d0            beq         LAB_00018a66                            
ram:00018a52    2846            mov         param_1,r5                              
ram:00018a54    0094            str         r4,[sp,#0x0]=>local_28                  
ram:00018a56    0722            movs        param_3,#0x7                            
ram:00018a58    0321            movs        param_2,#0x3                            
ram:00018a5a    1030            adds        param_1,#0x10                           
ram:00018a5c    039b            ldr         r3,[sp,#local_1c+0x28]                  
ram:00018a5e    03f0f7fc        bl          FUN_0001c450                            ;undefined8 FUN_0001c450(ushort * par...
ram:00018a62    0600            movs        r6,param_1                              
ram:00018a64    9ed1            bne         LAB_000189a4                            
                            LAB_00018a66:                 ;XREF[1,0]:   00018a50
ram:00018a66    288b            ldrh        param_1,[r5,#0x18]                      
ram:00018a68    0028            cmp         param_1,#0x0                            
ram:00018a6a    09d0            beq         LAB_00018a80                            
ram:00018a6c    2846            mov         param_1,r5                              
ram:00018a6e    0094            str         r4,[sp,#0x0]=>local_28                  
ram:00018a70    1522            movs        param_3,#0x15                           
ram:00018a72    1421            movs        param_2,#0x14                           
ram:00018a74    1830            adds        param_1,#0x18                           
ram:00018a76    039b            ldr         r3,[sp,#local_1c+0x28]                  
ram:00018a78    03f0eafc        bl          FUN_0001c450                            ;undefined8 FUN_0001c450(ushort * par...
ram:00018a7c    0600            movs        r6,param_1                              
ram:00018a7e    91d1            bne         LAB_000189a4                            
                            LAB_00018a80:                 ;XREF[1,0]:   00018a6a
ram:00018a80    286a            ldr         param_1,[r5,#0x20]                      
ram:00018a82    0028            cmp         param_1,#0x0                            
ram:00018a84    05d0            beq         LAB_00018a92                            
ram:00018a86    2246            mov         param_3,r4                              
ram:00018a88    0399            ldr         param_2,[sp,#local_1c+0x28]             
ram:00018a8a    01f0c1f9        bl          FUN_00019e10                            ;undefined4 FUN_00019e10(ushort * par...
ram:00018a8e    0600            movs        r6,param_1                              
ram:00018a90    88d1            bne         LAB_000189a4                            
                            LAB_00018a92:                 ;XREF[1,0]:   00018a84
ram:00018a92    686a            ldr         param_1,[r5,#0x24]                      
ram:00018a94    0028            cmp         param_1,#0x0                            
ram:00018a96    05d0            beq         LAB_00018aa4                            
ram:00018a98    2246            mov         param_3,r4                              
ram:00018a9a    0399            ldr         param_2,[sp,#local_1c+0x28]             
ram:00018a9c    02f098f9        bl          FUN_0001add0                            ;undefined4 FUN_0001add0(ushort * par...
ram:00018aa0    0600            movs        r6,param_1                              
ram:00018aa2    84d1            bne         LAB_000189ae                            
                            LAB_00018aa4:                 ;XREF[1,0]:   00018a96
ram:00018aa4    2c20            movs        param_1,#0x2c                           
ram:00018aa6    405d            ldrb        param_1,[param_1,r5]                    
ram:00018aa8    0028            cmp         param_1,#0x0                            
ram:00018aaa    06d0            beq         LAB_00018aba                            
ram:00018aac    2246            mov         param_3,r4                              
ram:00018aae    2846            mov         param_1,r5                              
ram:00018ab0    0399            ldr         param_2,[sp,#local_1c+0x28]             
ram:00018ab2    02f09fff        bl          FUN_0001b9f4                            ;undefined4 FUN_0001b9f4(int param_1,...
ram:00018ab6    0600            movs        r6,param_1                              
ram:00018ab8    c7d1            bne         LAB_00018a4a                            
                            LAB_00018aba:                 ;XREF[1,0]:   00018aaa
ram:00018aba    3046            mov         param_1,r6                              
ram:00018abc    72e7            b           LAB_000189a4                            
ram:00018abe    0000            movs        r0,r0                                   
                            ;************************************************************************************************
                            ;*                                           FUNCTION                                           *
                            ;************************************************************************************************
                            ;undefined FUN_00018ac0(undefined4 param_1, undefined4 param_2, undefined4 param_3, undefined4 param_4)
          ;param_1       undefined4          r0                      
          ;param_2       undefined4          r1                      
          ;param_3       undefined4          r2                      
          ;param_4       undefined4          r3                      
          ;local_18      undefined4         -18                      ;XREF[1,1]:   00018b3a,00018b44
          ;local_1c      undefined4         -1c                      ;XREF[1,0]:   00018b16
          ;local_20      undefined2         -20                      ;XREF[1,0]:   00018b1c
          ;local_24      undefined2         -24                      ;XREF[1,0]:   00018afa
          ;local_28      undefined4         -28                      ;XREF[1,0]:   00018b50
          ;local_2c      undefined2         -2c                      ;XREF[1,0]:   00018b4c
          ;local_30      undefined2         -30                      ;XREF[1,0]:   00018b4a
          ;local_33      undefined1         -33                      ;XREF[1,0]:   00018af4
          ;local_34      undefined1         -34                      ;XREF[1,0]:   00018aea
          ;local_35      undefined1         -35                      ;XREF[1,0]:   00018ae2
          ;local_36      undefined1         -36                      ;XREF[1,0]:   00018ae0
          ;local_37      undefined1         -37                      ;XREF[1,0]:   00018adc
          ;local_38      undefined1         -38                      ;XREF[1,0]:   00018ada
          ;local_3c      undefined1         -3c                      ;XREF[1,0]:   00018b66
          ;local_40      undefined4         -40                      ;XREF[1,0]:   00018b6a
          ;local_54      undefined4         -54                      ;XREF[1,0]:   00018b62
          ;local_58      undefined2         -58                      ;XREF[1,0]:   00018b5e
          ;local_74      undefined4         -74                      ;XREF[1,0]:   00018b34
          ;local_95      undefined1         -95                      ;XREF[1,0]:   00018b30
          ;local_96      undefined1         -96                      ;XREF[1,0]:   00018b2c
          ;local_98      undefined1         -98                      ;XREF[1,0]:   00018b2a
                                                          ;XREF[2,0]:   0001abe0,0001ad10
ram:00018ac0    f0b5            push        {r4,r5,r6,r7,lr}                        
ram:00018ac2    3048            ldr         param_1,[DAT_00018b84]                  ;= 10000040h
ram:00018ac4    a1b0            sub         sp,#0x84                                
ram:00018ac6    016a            ldr         param_2,[param_1,#0x20]=>DAT_10000060   
ram:00018ac8    cfb2            uxtb        r7,param_2                              
ram:00018aca    016a            ldr         param_2,[param_1,#0x20]=>DAT_10000060   
ram:00018acc    0904            lsls        param_2,param_2,#0x10                   
ram:00018ace    0e0e            lsrs        r6,param_2,#0x18                        
ram:00018ad0    016a            ldr         param_2,[param_1,#0x20]=>DAT_10000060   
ram:00018ad2    006a            ldr         param_1,[param_1,#0x20]=>DAT_10000060   
ram:00018ad4    0902            lsls        param_2,param_2,#0x8                    
ram:00018ad6    0d0e            lsrs        r5,param_2,#0x18                        
ram:00018ad8    18a9            add         param_2,sp,#0x60                        
ram:00018ada    0f70            strb        r7,[param_2,#0x0]=>local_38             
ram:00018adc    4e70            strb        r6,[r1,#local_37+0x38]                  
ram:00018ade    040e            lsrs        r4,param_1,#0x18                        
ram:00018ae0    8d70            strb        r5,[r1,#local_36+0x38]                  
ram:00018ae2    cc70            strb        r4,[r1,#local_35+0x38]                  
ram:00018ae4    01f0dcfd        bl          FUN_0001a6a0                            ;uint FUN_0001a6a0(void)
ram:00018ae8    18a9            add         param_2,sp,#0x60                        
ram:00018aea    0871            strb        param_1,[r1,#local_34+0x38]             
ram:00018aec    2648            ldr         param_1,[DAT_00018b88]                  ;= 20002678h
ram:00018aee    03f001fc        bl          FUN_0001c2f4                            ;undefined8 FUN_0001c2f4(int param_1,...
ram:00018af2    18a9            add         param_2,sp,#0x60                        
ram:00018af4    4871            strb        param_1,[r1,#local_33+0x38]             
ram:00018af6    4c20            movs        param_1,#0x4c                           
ram:00018af8    10a9            add         param_2,sp,#0x40                        
ram:00018afa    8886            strh        param_1,[r1,#local_24+0x58]             
ram:00018afc    2348            ldr         param_1,[DAT_00018b8c]                  ;= 20002000h
ram:00018afe    c178            ldrb        param_2,[param_1,#offset DAT_20002003...
ram:00018b00    4c30            adds        param_1,#0x4c                           
ram:00018b02    0329            cmp         param_2,#0x3                            
ram:00018b04    01d3            bcc         LAB_00018b0a                            
ram:00018b06    ff21            movs        param_2,#0xff                           
ram:00018b08    00e0            b           LAB_00018b0c                            
                            LAB_00018b0a:                 ;XREF[1,0]:   00018b04
ram:00018b0a    0121            movs        param_2,#0x1                            
                            LAB_00018b0c:                 ;XREF[1,0]:   00018b08
ram:00018b0c    8170            strb        param_2,[param_1,#0x2]=>DAT_2000204e    
ram:00018b0e    8774            strb        r7,[param_1,#0x12]=>DAT_2000205e        
ram:00018b10    c674            strb        r6,[param_1,#0x13]=>DAT_2000205f        
ram:00018b12    0575            strb        r5,[param_1,#0x14]=>DAT_20002060        
ram:00018b14    4475            strb        r4,[param_1,#0x15]=>DAT_20002061        
ram:00018b16    1f90            str         param_1,[sp,#local_1c+0x98]             
ram:00018b18    1721            movs        param_2,#0x17                           
ram:00018b1a    10a8            add         param_1,sp,#0x40                        
ram:00018b1c    0187            strh        param_2,[r0,#local_20+0x58]             
ram:00018b1e    3021            movs        param_2,#0x30                           
ram:00018b20    6846            mov         param_1,sp                              
ram:00018b22    fff764fb        bl          FUN_000181ee                            ;undefined FUN_000181ee(undefined * p...
ram:00018b26    0021            movs        param_2,#0x0                            
ram:00018b28    6846            mov         param_1,sp                              
ram:00018b2a    0170            strb        param_2,[param_1,#0x0]=>local_98        
ram:00018b2c    8170            strb        param_2,[r0,#local_96+0x98]             
ram:00018b2e    0621            movs        param_2,#0x6                            
ram:00018b30    c170            strb        param_2,[r0,#local_95+0x98]             
ram:00018b32    1da8            add         param_1,sp,#0x74                        
ram:00018b34    0990            str         param_1,[sp,#local_74+0x98]             
ram:00018b36    1648            ldr         param_1,[PTR_DAT_00018b90]              ;= 0001c560
ram:00018b38    0068            ldr         param_1,[param_1,#0x0]=>DAT_0001c560    ;= 00001523h
ram:00018b3a    2090            str         param_1,[sp,#local_18+0x98]             
ram:00018b3c    1248            ldr         param_1,[DAT_00018b88]                  ;= 20002678h
ram:00018b3e    5438            subs        param_1,#0x54                           
ram:00018b40    827c            ldrb        param_3,[param_1,#0x12]=>DAT_20002636   
ram:00018b42    20a8            add         param_1,sp,#0x80                        
ram:00018b44    8270            strb        param_3,[r0,#local_18+0x1a]             
ram:00018b46    134a            ldr         param_3,[DAT_00018b94]                  ;= 00001523h
ram:00018b48    10a8            add         param_1,sp,#0x40                        
ram:00018b4a    0285            strh        param_3,[r0,#local_30+0x58]             
ram:00018b4c    8185            strh        param_2,[r0,#local_2c+0x58]             
ram:00018b4e    18a8            add         param_1,sp,#0x60                        
ram:00018b50    1c90            str         param_1,[sp,#local_28+0x98]             
ram:00018b52    3021            movs        param_2,#0x30                           
ram:00018b54    0ca8            add         param_1,sp,#0x30                        
ram:00018b56    fff74afb        bl          FUN_000181ee                            ;undefined FUN_000181ee(undefined * p...
ram:00018b5a    0121            movs        param_2,#0x1                            
ram:00018b5c    10a8            add         param_1,sp,#0x40                        
ram:00018b5e    0180            strh        param_2,[param_1,#0x0]=>local_58        
ram:00018b60    20a8            add         param_1,sp,#0x80                        
ram:00018b62    1190            str         param_1,[sp,#local_54+0x98]             
ram:00018b64    10a8            add         param_1,sp,#0x40                        
ram:00018b66    0177            strb        param_2,[r0,#local_3c+0x58]             
ram:00018b68    1aa8            add         param_1,sp,#0x68                        
ram:00018b6a    1690            str         param_1,[sp,#local_40+0x98]             
ram:00018b6c    0ca9            add         param_2,sp,#0x30                        
ram:00018b6e    6846            mov         param_1,sp                              
ram:00018b70    00f00cfd        bl          FUN_0001958c                            ;undefined * FUN_0001958c(char * para...
ram:00018b74    0028            cmp         param_1,#0x0                            
ram:00018b76    03d0            beq         LAB_00018b80                            
ram:00018b78    0022            movs        param_3,#0x0                            
ram:00018b7a    1146            mov         param_2,param_3                         
ram:00018b7c    00f084f8        bl          FUN_00018c88                            ;undefined FUN_00018c88(void)
                            LAB_00018b80:                 ;XREF[1,0]:   00018b76
ram:00018b80    21b0            add         sp,#0x84                                
ram:00018b82    f0bd            pop         {r4,r5,r6,r7,pc}                        
                            DAT_00018b84:                 ;XREF[1,0]:   00018ac2
ram:00018b84    40000010        undefined4  10000040h                               
                            DAT_00018b88:                 ;XREF[2,0]:   00018aec,00018b3c
ram:00018b88    78260020        undefined4  20002678h                               
                            DAT_00018b8c:                 ;XREF[1,0]:   00018afc
ram:00018b8c    00200020        undefined4  20002000h                               
                            PTR_DAT_00018b90:             ;XREF[1,0]:   00018b36
ram:00018b90    60c50100        addr        DAT_0001c560                            ;= 00001523h
                            DAT_00018b94:                 ;XREF[1,0]:   00018b46
ram:00018b94    23150000        undefined4  00001523h                               
                            ;************************************************************************************************
                            ;*                                           FUNCTION                                           *
                            ;************************************************************************************************
                            ;undefined FUN_00018b98(void)
          ;local_e       undefined2          -e                      ;XREF[1,0]:   00018bb4
          ;local_10      undefined2         -10                      ;XREF[1,0]:   00018bb2
          ;local_18      undefined1         -18                      ;XREF[1,0]:   00018bae
          ;local_1c      undefined4         -1c                      ;XREF[1,0]:   00018baa
          ;local_20      undefined1         -20                      ;XREF[1,0]:   00018ba8
                                                          ;XREF[2,0]:   0001ac98,0001b0fe
ram:00018b98    00b5            push        {lr}                                    
ram:00018b9a    87b0            sub         sp,#0x1c                                
ram:00018b9c    1821            movs        r1,#0x18                                
ram:00018b9e    6846            mov         r0,sp                                   
ram:00018ba0    fff725fb        bl          FUN_000181ee                            ;undefined FUN_000181ee(undefined * p...
ram:00018ba4    0020            movs        r0,#0x0                                 
ram:00018ba6    6946            mov         r1,sp                                   
ram:00018ba8    0870            strb        r0,[r1,#0x0]=>local_20                  
ram:00018baa    0190            str         r0,[sp,#local_1c+0x20]                  
ram:00018bac    ff22            movs        r2,#0xff                                
ram:00018bae    0872            strb        r0,[r1,#local_18+0x20]                  
ram:00018bb0    ff32            adds        r2,#0xff                                
ram:00018bb2    0a82            strh        r2,[r1,#local_10+0x20]                  
ram:00018bb4    4882            strh        r0,[r1,#local_e+0x20]                   
ram:00018bb6    6846            mov         r0,sp                                   
ram:00018bb8    73df            svc         0x73                                    
ram:00018bba    0028            cmp         r0,#0x0                                 
ram:00018bbc    03d0            beq         LAB_00018bc6                            
ram:00018bbe    0022            movs        r2,#0x0                                 
ram:00018bc0    1146            mov         r1,r2                                   
ram:00018bc2    00f061f8        bl          FUN_00018c88                            ;undefined FUN_00018c88(void)
                            LAB_00018bc6:                 ;XREF[1,0]:   00018bbc
ram:00018bc6    07b0            add         sp,#0x1c                                
ram:00018bc8    00bd            pop         {pc}                                    
                            ;************************************************************************************************
                            ;*                                           FUNCTION                                           *
                            ;************************************************************************************************
                            ;undefined FUN_00018bca(undefined * param_1)
          ;param_1       undefined *         r0                      
                                                          ;XREF[1,0]:   0001abce
ram:00018bca    0021            movs        r1,#0x0                                 
ram:00018bcc    0170            strb        r1,[param_1,#0x0]                       
ram:00018bce    4170            strb        r1,[param_1,#0x1]                       
ram:00018bd0    8170            strb        r1,[param_1,#0x2]                       
ram:00018bd2    0e21            movs        r1,#0xe                                 
ram:00018bd4    c170            strb        r1,[param_1,#0x3]                       
ram:00018bd6    7047            bx          lr                                      
                            ;************************************************************************************************
                            ;*                                           FUNCTION                                           *
                            ;************************************************************************************************
                            ;undefined FUN_00018bd8(int param_1)
          ;param_1       int                 r0                      
                                                          ;XREF[3,0]:   00018bf8,00019bc0,00019bca
ram:00018bd8    0021            movs        r1,#0x0                                 
ram:00018bda    4170            strb        r1,[param_1,#0x1]                       
ram:00018bdc    ff21            movs        r1,#0xff                                
ram:00018bde    8170            strb        r1,[param_1,#0x2]                       
ram:00018be0    c170            strb        r1,[param_1,#0x3]                       
ram:00018be2    0179            ldrb        r1,[param_1,#0x4]                       
ram:00018be4    f122            movs        r2,#0xf1                                
ram:00018be6    1140            ands        r1,r2                                   
ram:00018be8    0171            strb        r1,[param_1,#0x4]                       
ram:00018bea    7047            bx          lr                                      
                            ;************************************************************************************************
                            ;*                                           FUNCTION                                           *
                            ;************************************************************************************************
                            ;undefined FUN_00018bec(int param_1)
          ;param_1       int                 r0                      
                                                          ;XREF[1,0]:   0001abd6
ram:00018bec    10b5            push        {r4,lr}                                 
ram:00018bee    0446            mov         r4,param_1                              
ram:00018bf0    0023            movs        r3,#0x0                                 
                            LAB_00018bf2:                 ;XREF[1,0]:   00018c00
ram:00018bf2    9800            lsls        param_1,r3,#0x2                         
ram:00018bf4    1818            adds        param_1,r3,param_1                      
ram:00018bf6    0019            adds        param_1,param_1,r4                      
ram:00018bf8    fff7eeff        bl          FUN_00018bd8                            ;undefined FUN_00018bd8(int param_1)
ram:00018bfc    5b1c            adds        r3,r3,#0x1                              
ram:00018bfe    062b            cmp         r3,#0x6                                 
ram:00018c00    f7db            blt         LAB_00018bf2                            
ram:00018c02    10bd            pop         {r4,pc}                                 
                            ;************************************************************************************************
                            ;*                                           FUNCTION                                           *
                            ;************************************************************************************************
                            ;undefined4 FUN_00018c04(void)
                                                          ;XREF[1,0]:   0001aaf8
ram:00018c04    10b5            push        {r4,lr}                                 
ram:00018c06    0548            ldr         r0,[DAT_00018c1c]                       ;= 200020E0h
ram:00018c08    4168            ldr         r1,[r0,#0x4]=>DAT_200020e4              
ram:00018c0a    0029            cmp         r1,#0x0                                 
ram:00018c0c    03d0            beq         LAB_00018c16                            
ram:00018c0e    4078            ldrb        r0,[r0,#0x1]=>DAT_200020e1              
ram:00018c10    00f094f8        bl          FUN_00018d3c                            ;undefined4 FUN_00018d3c(uint param_1)
ram:00018c14    10bd            pop         {r4,pc}                                 
                            LAB_00018c16:                 ;XREF[1,0]:   00018c0c
ram:00018c16    0820            movs        r0,#0x8                                 
ram:00018c18    10bd            pop         {r4,pc}                                 
ram:00018c1a    0000            movs        r0,r0                                   
                            DAT_00018c1c:                 ;XREF[1,0]:   00018c06
ram:00018c1c    e0200020        undefined4  200020E0h                               
                            ;************************************************************************************************
                            ;*                                           FUNCTION                                           *
                            ;************************************************************************************************
                            ;int FUN_00018c20(int param_1, uint param_2, uint param_3)
          ;param_1       int                 r0                      
          ;param_2       uint                r1                      
          ;param_3       uint                r2                      
                                                          ;XREF[1,0]:   0001aae8
ram:00018c20    70b5            push        {r4,r5,r6,lr}                           
ram:00018c22    052a            cmp         param_3,#0x5                            
ram:00018c24    01d2            bcs         LAB_00018c2a                            
ram:00018c26    0720            movs        param_1,#0x7                            
                            LAB_00018c28:                 ;XREF[1,0]:   00018c68
ram:00018c28    70bd            pop         {r4,r5,r6,pc}                           
                            LAB_00018c2a:                 ;XREF[1,0]:   00018c24
ram:00018c2a    134b            ldr         r3,[DAT_00018c78]                       ;= 200020E0h
ram:00018c2c    5860            str         param_1,[r3,#0x4]=>DAT_200020e4         
ram:00018c2e    1970            strb        param_2,[r3,#0x0]=>DAT_200020e0         
ram:00018c30    9a60            str         param_3,[r3,#0x8]=>DAT_200020e8         
ram:00018c32    0022            movs        param_3,#0x0                            
ram:00018c34    0ce0            b           LAB_00018c50                            
                            LAB_00018c36:                 ;XREF[1,0]:   00018c58
ram:00018c36    cb00            lsls        r3,param_2,#0x3                         
ram:00018c38    1c18            adds        r4,r3,param_1                           
ram:00018c3a    2378            ldrb        r3,[r4,#0x0]                            
ram:00018c3c    a578            ldrb        r5,[r4,#0x2]                            
ram:00018c3e    0f4e            ldr         r6,[DAT_00018c7c]                       ;= 50000700h
ram:00018c40    ad00            lsls        r5,r5,#0x2                              
ram:00018c42    9b00            lsls        r3,r3,#0x2                              
ram:00018c44    9b19            adds        r3,r3,r6                                
ram:00018c46    1d60            str         r5,[r3,#0x0]=>DAT_50000700              
ram:00018c48    2478            ldrb        r4,[r4,#0x0]                            
ram:00018c4a    0123            movs        r3,#0x1                                 
ram:00018c4c    a340            lsls        r3,r4                                   
ram:00018c4e    1a43            orrs        param_3,r3                              
                            LAB_00018c50:                 ;XREF[1,0]:   00018c34
ram:00018c50    0b46            mov         r3,param_2                              
ram:00018c52    491e            subs        param_2,param_2,#0x1                    
ram:00018c54    c9b2            uxtb        param_2,param_2                         
ram:00018c56    002b            cmp         r3,#0x0                                 
ram:00018c58    edd1            bne         LAB_00018c36                            
ram:00018c5a    0748            ldr         param_1,[DAT_00018c78]                  ;= 200020E0h
ram:00018c5c    084b            ldr         r3=>FUN_0001a6f4+1,[PTR_FUN_0001a6f4+...;= 0001a6f5
ram:00018c5e    1146            mov         param_2,param_3                         
ram:00018c60    401c            adds        param_1=>DAT_200020e1,param_1,#0x1      
ram:00018c62    00f0b5f8        bl          FUN_00018dd0                            ;undefined4 FUN_00018dd0(byte * param...
ram:00018c66    0028            cmp         param_1,#0x0                            
ram:00018c68    ded1            bne         LAB_00018c28                            
ram:00018c6a    0348            ldr         param_1,[DAT_00018c78]                  ;= 200020E0h
ram:00018c6c    054a            ldr         param_3=>LAB_000...,[PTR_LAB_0001a110...;= 0001a111
ram:00018c6e    0021            movs        param_2,#0x0                            
ram:00018c70    0c30            adds        param_1=>DAT_200020ec,#0xc              
ram:00018c72    00f021fa        bl          FUN_000190b8                            ;undefined4 FUN_000190b8(int * param_...
ram:00018c76    70bd            pop         {r4,r5,r6,pc}                           
                            DAT_00018c78:                 ;XREF[3,0]:   00018c2a,00018c5a,00018c6a
ram:00018c78    e0200020        undefined4  200020E0h                               
                            DAT_00018c7c:                 ;XREF[1,0]:   00018c3e
ram:00018c7c    00070050        undefined4  50000700h                               
                            PTR_FUN_0001a6f4+1_00018c80:  ;XREF[1,0]:   00018c5c
ram:00018c80    f5a60100        addr        FUN_0001a6f4+1                          
                            PTR_LAB_0001a110+1+1_00018c84:;XREF[1,0]:   00018c6c
ram:00018c84    11a10100        addr        LAB_0001a110+1+1                        
                            ;************************************************************************************************
                            ;*                                           FUNCTION                                           *
                            ;************************************************************************************************
                            ;undefined FUN_00018c88(void)
                                                          ;XREF[64,0]:  00018790,00018b7c,00018bc2,00018e32
                                                          ;             00018e4a,00018e86,00018ec0,00018ee4
                                                          ;             00018fbc,00019002,00019112,000193a8
                                                          ;             000193ec,0001940a,0001943a,000194be
                                                          ;             00019504,0001998a,000199a6,000199b8
                                                          ;             000199ca,00019a02,00019a10,00019a22
                                                          ;             00019aa0,00019e9a,00019fd6,0001a190
                                                          ;             0001a1ce,0001a1de,0001a224,0001a820
                                                          ;             0001a84a,0001aad8,0001aaf4,0001ab04
                                                          ;             0001ab1c,0001ab2c,0001ab4e,0001ab6c
                                                          ;             0001ab90,0001ac18,0001ac50,0001ac64
                                                          ;             0001ac7e,0001ac94,0001af74,0001afb4
                                                          ;             0001b0ec,0001b174,0001b330,0001b904
                                                          ;             0001b914,0001ba90,0001bab4,0001be0c
                                                          ;             0001c084,0001c1fe,0001c256,0001c26c
                                                          ;             0001c284,0001c29c,0001c2b4,0001c2cc
ram:00018c88    bff34f8f        dsb         0xf                                     
ram:00018c8c    0449            ldr         r1,[DAT_00018ca0]                       ;= E000ED00h
ram:00018c8e    0348            ldr         r0,[DAT_00018c9c]                       ;= 05FA0004h
ram:00018c90    c860            str         r0,[r1,#offset DAT_e000ed0c &0xff]      
ram:00018c92    bff34f8f        dsb         0xf                                     
                            LAB_00018c96:                 ;XREF[1,0]:   00018c98
ram:00018c96    00bf            nop                                                  
ram:00018c98    fde7            b           LAB_00018c96                            
ram:00018c9a    0000            movs        r0,r0                                   
                            DAT_00018c9c:                 ;XREF[1,0]:   00018c8e
ram:00018c9c    0400fa05        undefined4  05FA0004h                               
                            DAT_00018ca0:                 ;XREF[1,0]:   00018c8c
ram:00018ca0    00ed00e0        undefined4  E000ED00h                               
                            ;************************************************************************************************
                            ;*                                           FUNCTION                                           *
                            ;************************************************************************************************
                            ;undefined4 FUN_00018ca4(int param_1, undefined * param_2)
          ;param_1       int                 r0                      
          ;param_2       undefined *         r1                      
                                                          ;XREF[1,0]:   0001aacc
ram:00018ca4    10b5            push        {r4,lr}                                 
ram:00018ca6    0029            cmp         param_2,#0x0                            
ram:00018ca8    03d0            beq         LAB_00018cb2                            
ram:00018caa    8a07            lsls        r2,param_2,#0x1e                        
ram:00018cac    0024            movs        r4,#0x0                                 
ram:00018cae    002a            cmp         r2,#0x0                                 
ram:00018cb0    01d0            beq         LAB_00018cb6                            
                            LAB_00018cb2:                 ;XREF[1,0]:   00018ca8
ram:00018cb2    0720            movs        param_1,#0x7                            
ram:00018cb4    10bd            pop         {r4,pc}                                 
                            LAB_00018cb6:                 ;XREF[1,0]:   00018cb0
ram:00018cb6    0f4a            ldr         r2=>DAT_200020f8,[DAT_00018cf4]         ;= 200020F8h
ram:00018cb8    0b46            mov         r3,param_2                              
ram:00018cba    5160            str         param_2,[r2,#0x4]=>DAT_200020fc         
ram:00018cbc    1070            strb        param_1,[r2,#0x0]=>DAT_200020f8         
ram:00018cbe    1421            movs        param_2,#0x14                           
ram:00018cc0    5470            strb        r4,[r2,#0x1]=>DAT_200020f9              
ram:00018cc2    4143            muls        param_2,param_1                         
ram:00018cc4    1846            mov         param_1,r3                              
ram:00018cc6    9460            str         r4,[r2,#0x8]=>DAT_20002100              
ram:00018cc8    fff791fa        bl          FUN_000181ee                            ;undefined FUN_000181ee(undefined * p...
ram:00018ccc    0020            movs        param_1,#0x0                            
ram:00018cce    0a49            ldr         param_2,[DAT_00018cf8]                  ;= 40006300h
ram:00018cd0    c043            mvns        param_1,param_1                         
ram:00018cd2    8860            str         param_1,[param_2,#offset DAT_40006308...
ram:00018cd4    0948            ldr         param_1,[DAT_00018cfc]                  ;= E000E280h
ram:00018cd6    4021            movs        param_2,#0x40                           
ram:00018cd8    0160            str         param_2,[param_1,#0x0]=>DAT_e000e280    
ram:00018cda    094a            ldr         r2,[DAT_00018d00]                       ;= E000E404h
ram:00018cdc    1068            ldr         param_1,[r2,#0x0]=>DAT_e000e404         
ram:00018cde    ff23            movs        r3,#0xff                                
ram:00018ce0    1b04            lsls        r3,r3,#0x10                             
ram:00018ce2    9843            bics        param_1,r3                              
ram:00018ce4    0b04            lsls        r3,param_2,#0x10                        
ram:00018ce6    1843            orrs        param_1,r3                              
ram:00018ce8    1060            str         param_1,[r2,#0x0]=>DAT_e000e404         
ram:00018cea    0648            ldr         param_1,[DAT_00018d04]                  ;= E000E100h
ram:00018cec    0160            str         param_2,[param_1,#0x0]=>DAT_e000e100    
ram:00018cee    0020            movs        param_1,#0x0                            
ram:00018cf0    10bd            pop         {r4,pc}                                 
ram:00018cf2    0000            movs        r0,r0                                   
                            DAT_00018cf4:                 ;XREF[1,0]:   00018cb6
ram:00018cf4    f8200020        undefined4  200020F8h                               
                            DAT_00018cf8:                 ;XREF[1,0]:   00018cce
ram:00018cf8    00630040        undefined4  40006300h                               
                            DAT_00018cfc:                 ;XREF[1,0]:   00018cd4
ram:00018cfc    80e200e0        undefined4  E000E280h                               
                            DAT_00018d00:                 ;XREF[1,0]:   00018cda
ram:00018d00    04e400e0        undefined4  E000E404h                               
                            DAT_00018d04:                 ;XREF[1,0]:   00018cea
ram:00018d04    00e100e0        undefined4  E000E100h                               
                            ;************************************************************************************************
                            ;*                                           FUNCTION                                           *
                            ;************************************************************************************************
                            ;undefined4 FUN_00018d08(uint param_1, uint * param_2)
          ;param_1       uint                r0                      
          ;param_2       uint *              r1                      
                                                          ;XREF[1,0]:   0001a118
ram:00018d08    0a4b            ldr         r3,[DAT_00018d34]                       ;= 200020F8h
ram:00018d0a    5a68            ldr         r2,[r3,#0x4]=>DAT_200020fc              
ram:00018d0c    002a            cmp         r2,#0x0                                 
ram:00018d0e    04d0            beq         LAB_00018d1a                            
ram:00018d10    5b78            ldrb        r3,[r3,#0x1]=>DAT_200020f9              
ram:00018d12    9842            cmp         param_1,r3                              
ram:00018d14    03d3            bcc         LAB_00018d1e                            
ram:00018d16    0720            movs        param_1,#0x7                            
ram:00018d18    7047            bx          lr                                      
                            LAB_00018d1a:                 ;XREF[1,0]:   00018d0e
ram:00018d1a    0820            movs        param_1,#0x8                            
ram:00018d1c    7047            bx          lr                                      
                            LAB_00018d1e:                 ;XREF[1,0]:   00018d14
ram:00018d1e    1423            movs        r3,#0x14                                
ram:00018d20    5843            muls        param_1,r3                              
ram:00018d22    8018            adds        param_1,param_1,r2                      
ram:00018d24    044a            ldr         r2,[DAT_00018d38]                       ;= 50000500h
ram:00018d26    1269            ldr         r2,[r2,#offset DAT_50000510 &0xff]      
ram:00018d28    0068            ldr         param_1,[param_1,#0x0]                  
ram:00018d2a    0240            ands        r2,param_1                              
ram:00018d2c    0020            movs        param_1,#0x0                            
ram:00018d2e    0a60            str         r2,[param_2,#0x0]                       
ram:00018d30    7047            bx          lr                                      
ram:00018d32    0000            movs        r0,r0                                   
                            DAT_00018d34:                 ;XREF[1,0]:   00018d08
ram:00018d34    f8200020        undefined4  200020F8h                               
                            DAT_00018d38:                 ;XREF[1,0]:   00018d24
ram:00018d38    00050050        undefined4  50000500h                               
                            ;************************************************************************************************
                            ;*                                           FUNCTION                                           *
                            ;************************************************************************************************
                            ;undefined4 FUN_00018d3c(uint param_1)
          ;param_1       uint                r0                      
                                                          ;XREF[1,0]:   00018c10
ram:00018d3c    f0b5            push        {r4,r5,r6,r7,lr}                        
ram:00018d3e    1f4a            ldr         r2,[DAT_00018dbc]                       ;= 200020F8h
ram:00018d40    5168            ldr         r1,[r2,#0x4]=>DAT_200020fc              
ram:00018d42    0029            cmp         r1,#0x0                                 
ram:00018d44    04d0            beq         LAB_00018d50                            
ram:00018d46    5378            ldrb        r3,[r2,#0x1]=>DAT_200020f9              
ram:00018d48    9842            cmp         param_1,r3                              
ram:00018d4a    03d3            bcc         LAB_00018d54                            
ram:00018d4c    0720            movs        param_1,#0x7                            
ram:00018d4e    f0bd            pop         {r4,r5,r6,r7,pc}                        
                            LAB_00018d50:                 ;XREF[1,0]:   00018d44
ram:00018d50    0820            movs        param_1,#0x8                            
ram:00018d52    f0bd            pop         {r4,r5,r6,r7,pc}                        
                            LAB_00018d54:                 ;XREF[1,0]:   00018d4a
ram:00018d54    1a4b            ldr         r3,[DAT_00018dc0]                       ;= 40006140h
ram:00018d56    0025            movs        r5,#0x0                                 
ram:00018d58    dd63            str         r5,[r3,#0x3c]=>DAT_4000617c             
ram:00018d5a    1a4b            ldr         r3,[DAT_00018dc4]                       ;= 50000500h
ram:00018d5c    1c69            ldr         r4,[r3,#offset DAT_50000510 &0xff]      
ram:00018d5e    9768            ldr         r7,[r2,#0x8]=>DAT_20002100              
ram:00018d60    002f            cmp         r7,#0x0                                 
ram:00018d62    02d1            bne         LAB_00018d6a                            
ram:00018d64    184e            ldr         r6,[DAT_00018dc8]                       ;= 40006300h
ram:00018d66    db05            lsls        r3,r3,#0x17                             
ram:00018d68    7360            str         r3,[r6,#offset DAT_40006304 &0xff]      
                            LAB_00018d6a:                 ;XREF[1,0]:   00018d62
ram:00018d6a    0126            movs        r6,#0x1                                 
ram:00018d6c    8640            lsls        r6,param_1                              
ram:00018d6e    3e43            orrs        r6,r7                                   
ram:00018d70    9660            str         r6,[r2,#0x8]=>DAT_20002100              
ram:00018d72    1422            movs        r2,#0x14                                
ram:00018d74    5043            muls        param_1,r2                              
ram:00018d76    4218            adds        r2,param_1,r1                           
ram:00018d78    d560            str         r5,[r2,#0xc]                            
ram:00018d7a    0022            movs        r2,#0x0                                 
                            LAB_00018d7c:                 ;XREF[1,0]:   00018db6
ram:00018d7c    0123            movs        r3,#0x1                                 
ram:00018d7e    0d58            ldr         r5,[r1,param_1]                         
ram:00018d80    9340            lsls        r3,r2                                   
ram:00018d82    1d42            tst         r5,r3                                   
ram:00018d84    15d0            beq         LAB_00018db2                            
ram:00018d86    1c42            tst         r4,r3                                   
ram:00018d88    02d0            beq         LAB_00018d90                            
ram:00018d8a    0325            movs        r5,#0x3                                 
ram:00018d8c    2d04            lsls        r5,r5,#0x10                             
ram:00018d8e    05e0            b           LAB_00018d9c                            
                            LAB_00018d90:                 ;XREF[1,0]:   00018d88
ram:00018d90    0125            movs        r5,#0x1                                 
ram:00018d92    6d04            lsls        r5,r5,#0x11                             
ram:00018d94    4618            adds        r6,param_1,r1                           
ram:00018d96    f768            ldr         r7,[r6,#0xc]                            
ram:00018d98    1f43            orrs        r7,r3                                   
ram:00018d9a    f760            str         r7,[r6,#0xc]                            
                            LAB_00018d9c:                 ;XREF[1,0]:   00018d8e
ram:00018d9c    0b4b            ldr         r3,[DAT_00018dcc]                       ;= 50000700h
ram:00018d9e    9600            lsls        r6,r2,#0x2                              
ram:00018da0    f318            adds        r3,r6,r3                                
ram:00018da2    1e68            ldr         r6,[r3,#0x0]=>DAT_50000700              
ram:00018da4    0327            movs        r7,#0x3                                 
ram:00018da6    3f04            lsls        r7,r7,#0x10                             
ram:00018da8    be43            bics        r6,r7                                   
ram:00018daa    1e60            str         r6,[r3,#0x0]=>DAT_50000700              
ram:00018dac    1e68            ldr         r6,[r3,#0x0]=>DAT_50000700              
ram:00018dae    2e43            orrs        r6,r5                                   
ram:00018db0    1e60            str         r6,[r3,#0x0]=>DAT_50000700              
                            LAB_00018db2:                 ;XREF[1,0]:   00018d84
ram:00018db2    521c            adds        r2,r2,#0x1                              
ram:00018db4    202a            cmp         r2,#0x20                                
ram:00018db6    e1d3            bcc         LAB_00018d7c                            
ram:00018db8    0020            movs        param_1,#0x0                            
ram:00018dba    f0bd            pop         {r4,r5,r6,r7,pc}                        
                            DAT_00018dbc:                 ;XREF[1,0]:   00018d3e
ram:00018dbc    f8200020        undefined4  200020F8h                               
                            DAT_00018dc0:                 ;XREF[1,0]:   00018d54
ram:00018dc0    40610040        undefined4  40006140h                               
                            DAT_00018dc4:                 ;XREF[1,0]:   00018d5a
ram:00018dc4    00050050        undefined4  50000500h                               
                            DAT_00018dc8:                 ;XREF[1,0]:   00018d64
ram:00018dc8    00630040        undefined4  40006300h                               
                            DAT_00018dcc:                 ;XREF[1,0]:   00018d9c
ram:00018dcc    00070050        undefined4  50000700h                               
                            ;************************************************************************************************
                            ;*                                           FUNCTION                                           *
                            ;************************************************************************************************
                            ;undefined4 FUN_00018dd0(byte * param_1, uint param_2, uint param_3, int param_4)
          ;param_1       byte *              r0                      
          ;param_2       uint                r1                      
          ;param_3       uint                r2                      
          ;param_4       int                 r3                      
                                                          ;XREF[1,0]:   00018c62
ram:00018dd0    f8b5            push        {param_4,r4,r5,r6,r7,lr}                
ram:00018dd2    114f            ldr         r7,[DAT_00018e18]                       ;= 200020F8h
ram:00018dd4    8446            mov         r12,param_1                             
ram:00018dd6    7d68            ldr         r5,[r7,#0x4]=>DAT_200020fc              
ram:00018dd8    002d            cmp         r5,#0x0                                 
ram:00018dda    07d0            beq         LAB_00018dec                            
ram:00018ddc    002b            cmp         param_4,#0x0                            
ram:00018dde    07d0            beq         LAB_00018df0                            
ram:00018de0    7878            ldrb        param_1,[r7,#0x1]=>DAT_200020f9         
ram:00018de2    3c78            ldrb        r4,[r7,#0x0]=>DAT_200020f8              
ram:00018de4    a042            cmp         param_1,r4                              
ram:00018de6    05d3            bcc         LAB_00018df4                            
ram:00018de8    0420            movs        param_1,#0x4                            
ram:00018dea    f8bd            pop         {param_4,r4,r5,r6,r7,pc}                
                            LAB_00018dec:                 ;XREF[1,0]:   00018dda
ram:00018dec    0820            movs        param_1,#0x8                            
ram:00018dee    f8bd            pop         {param_4,r4,r5,r6,r7,pc}                
                            LAB_00018df0:                 ;XREF[1,0]:   00018dde
ram:00018df0    0720            movs        param_1,#0x7                            
ram:00018df2    f8bd            pop         {param_4,r4,r5,r6,r7,pc}                
                            LAB_00018df4:                 ;XREF[1,0]:   00018de6
ram:00018df4    0e46            mov         r6,param_2                              
ram:00018df6    1424            movs        r4,#0x14                                
ram:00018df8    1643            orrs        r6,param_3                              
ram:00018dfa    4443            muls        r4,param_1                              
ram:00018dfc    2e51            str         r6,[r5,r4]                              
ram:00018dfe    6419            adds        r4,r4,r5                                
ram:00018e00    2361            str         param_4,[r4,#0x10]                      
ram:00018e02    a260            str         param_3,[r4,#0x8]                       
ram:00018e04    6160            str         param_2,[r4,#0x4]                       
ram:00018e06    6146            mov         param_2,r12                             
ram:00018e08    0870            strb        param_1,[param_2,#0x0]                  
ram:00018e0a    411c            adds        param_2,param_1,#0x1                    
ram:00018e0c    7970            strb        param_2,[r7,#0x1]=>DAT_200020f9         
ram:00018e0e    02f06bfa        bl          FUN_0001b2e8                            ;undefined FUN_0001b2e8(int param_1)
ram:00018e12    0020            movs        param_1,#0x0                            
ram:00018e14    f8bd            pop         {param_4,r4,r5,r6,r7,pc}                
ram:00018e16    0000            movs        r0,r0                                   
                            DAT_00018e18:                 ;XREF[1,0]:   00018dd2
ram:00018e18    f8200020        undefined4  200020F8h                               
                            ;************************************************************************************************
                            ;*                                           FUNCTION                                           *
                            ;************************************************************************************************
                            ;undefined FUN_00018e1c(void)
          ;local_1c      undefined4         -1c                      ;XREF[2,0]:   00018e6e,00018ea8
          ;local_24      undefined1         -24                      ;XREF[2,0]:   00018e60,00018ea6
          ;local_28      undefined4         -28                      ;XREF[2,0]:   00018e66,00018ea2
                                                          ;XREF[1,0]:   0001ab52
ram:00018e1c    30b5            push        {r4,r5,lr}                              
ram:00018e1e    87b0            sub         sp,#0x1c                                
ram:00018e20    02aa            add         r2,sp,#0x8                              
ram:00018e22    0021            movs        r1,#0x0                                 
ram:00018e24    3148            ldr         r0,[DAT_00018eec]                       ;= 20002044h
ram:00018e26    02f087fa        bl          FUN_0001b338                            ;undefined4 FUN_0001b338(uint * param...
ram:00018e2a    0028            cmp         r0,#0x0                                 
ram:00018e2c    03d0            beq         LAB_00018e36                            
ram:00018e2e    0022            movs        r2,#0x0                                 
ram:00018e30    1146            mov         r1,r2                                   
ram:00018e32    fff729ff        bl          FUN_00018c88                            ;undefined FUN_00018c88(void)
                            LAB_00018e36:                 ;XREF[1,0]:   00018e2c
ram:00018e36    0023            movs        r3,#0x0                                 
ram:00018e38    0822            movs        r2,#0x8                                 
ram:00018e3a    02a9            add         r1,sp,#0x8                              
ram:00018e3c    6846            mov         r0,sp                                   
ram:00018e3e    02f039fb        bl          FUN_0001b4b4                            ;undefined4 FUN_0001b4b4(undefined4 *...
ram:00018e42    0028            cmp         r0,#0x0                                 
ram:00018e44    03d0            beq         LAB_00018e4e                            
ram:00018e46    0022            movs        r2,#0x0                                 
ram:00018e48    1146            mov         r1,r2                                   
ram:00018e4a    fff71dff        bl          FUN_00018c88                            ;undefined FUN_00018c88(void)
                            LAB_00018e4e:                 ;XREF[1,0]:   00018e44
ram:00018e4e    0421            movs        r1,#0x4                                 
ram:00018e50    6846            mov         r0,sp                                   
ram:00018e52    02f087fe        bl          FUN_0001bb64                            ;char FUN_0001bb64(int param_1, int p...
ram:00018e56    254c            ldr         r4,[DAT_00018eec]                       ;= 20002044h
ram:00018e58    443c            subs        r4,#0x44                                
ram:00018e5a    0028            cmp         r0,#0x0                                 
ram:00018e5c    07d0            beq         LAB_00018e6e                            
ram:00018e5e    6946            mov         r1,sp                                   
ram:00018e60    0979            ldrb        r1,[r1,#local_24+0x28]                  
ram:00018e62    8142            cmp         r1,r0                                   
ram:00018e64    03d1            bne         LAB_00018e6e                            
ram:00018e66    0098            ldr         r0,[sp,#0x0]=>local_28                  
ram:00018e68    e060            str         r0,[r4,#offset DAT_2000200c &0xff]      
                            LAB_00018e6a:                 ;XREF[2,0]:   00018ede,00018ee8
ram:00018e6a    07b0            add         sp,#0x1c                                
ram:00018e6c    30bd            pop         {r4,r5,pc}                              
                            LAB_00018e6e:                 ;XREF[2,0]:   00018e5c,00018e64
ram:00018e6e    0398            ldr         r0,[sp,#local_1c+0x28]                  
ram:00018e70    a060            str         r0,[r4,#offset DAT_20002008 &0xff]      
ram:00018e72    0125            movs        r5,#0x1                                 
ram:00018e74    2570            strb        r5,[r4,#0x0]=>DAT_20002000              
ram:00018e76    0821            movs        r1,#0x8                                 
ram:00018e78    02a8            add         r0,sp,#0x8                              
ram:00018e7a    02f087fa        bl          FUN_0001b38c                            ;int FUN_0001b38c(uint * param_1, und...
ram:00018e7e    0028            cmp         r0,#0x0                                 
ram:00018e80    06d0            beq         LAB_00018e90                            
ram:00018e82    0022            movs        r2,#0x0                                 
ram:00018e84    1146            mov         r1,r2                                   
ram:00018e86    fff7fffe        bl          FUN_00018c88                            ;undefined FUN_00018c88(void)
ram:00018e8a    01e0            b           LAB_00018e90                            
                            LAB_00018e8c:                 ;XREF[1,0]:   00018e94
ram:00018e8c    02f04afa        bl          FUN_0001b324                            ;undefined FUN_0001b324(int param_1)
                            LAB_00018e90:                 ;XREF[2,0]:   00018e80,00018e8a
ram:00018e90    2078            ldrb        r0,[r4,#0x0]=>DAT_20002000              
ram:00018e92    0028            cmp         r0,#0x0                                 
ram:00018e94    fad1            bne         LAB_00018e8c                            
ram:00018e96    1548            ldr         r0,[DAT_00018eec]                       ;= 20002044h
ram:00018e98    0421            movs        r1,#0x4                                 
ram:00018e9a    3838            subs        r0=>DAT_2000200c,#0x38                  
ram:00018e9c    02f062fe        bl          FUN_0001bb64                            ;char FUN_0001bb64(int param_1, int p...
ram:00018ea0    e168            ldr         r1,[r4,#offset DAT_2000200c &0xff]      
ram:00018ea2    0091            str         r1,[sp,#0x0]=>local_28                  
ram:00018ea4    6946            mov         r1,sp                                   
ram:00018ea6    0871            strb        r0,[r1,#local_24+0x28]                  
ram:00018ea8    0398            ldr         r0,[sp,#local_1c+0x28]                  
ram:00018eaa    a060            str         r0,[r4,#offset DAT_20002008 &0xff]      
ram:00018eac    2570            strb        r5,[r4,#0x0]=>DAT_20002000              
ram:00018eae    0023            movs        r3,#0x0                                 
ram:00018eb0    0822            movs        r2,#0x8                                 
ram:00018eb2    02a8            add         r0,sp,#0x8                              
ram:00018eb4    02f0c6fb        bl          FUN_0001b644                            ;int FUN_0001b644(uint * param_1, uin...
ram:00018eb8    0028            cmp         r0,#0x0                                 
ram:00018eba    06d0            beq         LAB_00018eca                            
ram:00018ebc    0022            movs        r2,#0x0                                 
ram:00018ebe    1146            mov         r1,r2                                   
ram:00018ec0    fff7e2fe        bl          FUN_00018c88                            ;undefined FUN_00018c88(void)
ram:00018ec4    01e0            b           LAB_00018eca                            
                            LAB_00018ec6:                 ;XREF[1,0]:   00018ece
ram:00018ec6    02f02dfa        bl          FUN_0001b324                            ;undefined FUN_0001b324(int param_1)
                            LAB_00018eca:                 ;XREF[2,0]:   00018eba,00018ec4
ram:00018eca    2078            ldrb        r0,[r4,#0x0]=>DAT_20002000              
ram:00018ecc    0028            cmp         r0,#0x0                                 
ram:00018ece    fad1            bne         LAB_00018ec6                            
ram:00018ed0    0023            movs        r3,#0x0                                 
ram:00018ed2    0822            movs        r2,#0x8                                 
ram:00018ed4    02a9            add         r1,sp,#0x8                              
ram:00018ed6    04a8            add         r0,sp,#0x10                             
ram:00018ed8    02f0ecfa        bl          FUN_0001b4b4                            ;undefined4 FUN_0001b4b4(undefined4 *...
ram:00018edc    0028            cmp         r0,#0x0                                 
ram:00018ede    c4d0            beq         LAB_00018e6a                            
ram:00018ee0    0022            movs        r2,#0x0                                 
ram:00018ee2    1146            mov         r1,r2                                   
ram:00018ee4    fff7d0fe        bl          FUN_00018c88                            ;undefined FUN_00018c88(void)
ram:00018ee8    bfe7            b           LAB_00018e6a                            
ram:00018eea    0000            movs        r0,r0                                   
                            DAT_00018eec:                 ;XREF[3,0]:   00018e24,00018e56,00018e96
ram:00018eec    44200020        undefined4  20002044h                               
                            ;************************************************************************************************
                            ;*                                           FUNCTION                                           *
                            ;************************************************************************************************
                            ;undefined FUN_00018ef0(undefined4 param_1, undefined * param_2)
          ;param_1       undefined4          r0                      
          ;param_2       undefined *         r1                      
          ;local_10      undefined4         -10                      ;XREF[1,0]:   00018f00
                                                          ;XREF[2,0]:   0001b71e,0001b7c4
ram:00018ef0    38b5            push        {r3,r4,r5,lr}                           
ram:00018ef2    0c46            mov         r4,param_2                              
ram:00018ef4    a268            ldr         r2,[r4,#0x8]                            
ram:00018ef6    064b            ldr         r3,[DAT_00018f10]                       ;= 200028C4h
ram:00018ef8    1201            lsls        r2,r2,#0x4                              
ram:00018efa    9d58            ldr         r5,[r3,r2]=>DAT_200028c4                
ram:00018efc    0978            ldrb        param_2,[param_2,#0x0]                  
ram:00018efe    6288            ldrh        r2,[r4,#0x2]                            
ram:00018f00    0092            str         r2,[sp,#0x0]=>local_10                  
ram:00018f02    0246            mov         r2,param_1                              
ram:00018f04    2046            mov         param_1,r4                              
ram:00018f06    0830            adds        param_1,#0x8                            
ram:00018f08    2369            ldr         r3,[r4,#0x10]                           
ram:00018f0a    a847            blx         r5                                      
ram:00018f0c    38bd            pop         {r3,r4,r5,pc}                           
ram:00018f0e    0000            movs        r0,r0                                   
                            DAT_00018f10:                 ;XREF[1,0]:   00018ef6
ram:00018f10    c4280020        undefined4  200028C4h                               
                            ;************************************************************************************************
                            ;*                                           FUNCTION                                           *
                            ;************************************************************************************************
                            ;undefined4 FUN_00018f14(int * param_1, undefined2 * param_2, undefined4 * param_3)
          ;param_1       int *               r0                      
          ;param_2       undefined2 *        r1                      
          ;param_3       undefined4 *        r2                      
                                                          ;XREF[1,0]:   0001906c
ram:00018f14    70b5            push        {r4,r5,r6,lr}                           
ram:00018f16    0f4b            ldr         r3,[DAT_00018f54]                       ;= 20002104h
ram:00018f18    0524            movs        r4,#0x5                                 
ram:00018f1a    1d78            ldrb        r5,[r3,#0x0]=>DAT_20002104              
ram:00018f1c    5e78            ldrb        r6,[r3,#0x1]=>DAT_20002105              
ram:00018f1e    ae42            cmp         r6,r5                                   
ram:00018f20    15d0            beq         LAB_00018f4e                            
ram:00018f22    1d78            ldrb        r5,[r3,#0x0]=>DAT_20002104              
ram:00018f24    1c78            ldrb        r4,[r3,#0x0]=>DAT_20002104              
ram:00018f26    9e88            ldrh        r6,[r3,#0x4]=>DAT_20002108              
ram:00018f28    b442            cmp         r4,r6                                   
ram:00018f2a    01da            bge         LAB_00018f30                            
ram:00018f2c    641c            adds        r4,r4,#0x1                              
ram:00018f2e    00e0            b           LAB_00018f32                            
                            LAB_00018f30:                 ;XREF[1,0]:   00018f2a
ram:00018f30    0024            movs        r4,#0x0                                 
                            LAB_00018f32:                 ;XREF[1,0]:   00018f2e
ram:00018f32    1c70            strb        r4,[r3,#0x0]=>DAT_20002104              
ram:00018f34    5c88            ldrh        r4,[r3,#0x2]=>DAT_20002106              
ram:00018f36    de68            ldr         r6,[r3,#0xc]=>DAT_20002110              
ram:00018f38    6c43            muls        r4,r5                                   
ram:00018f3a    a419            adds        r4,r4,r6                                
ram:00018f3c    0460            str         r4,[param_1,#0x0]                       
ram:00018f3e    9b68            ldr         r3,[r3,#0x8]=>DAT_2000210c              
ram:00018f40    e800            lsls        param_1,r5,#0x3                         
ram:00018f42    c418            adds        r4,param_1,r3                           
ram:00018f44    a488            ldrh        r4,[r4,#0x4]                            
ram:00018f46    0c80            strh        r4,[param_2,#0x0]                       
ram:00018f48    1858            ldr         param_1,[r3,param_1]                    
ram:00018f4a    0024            movs        r4,#0x0                                 
ram:00018f4c    1060            str         param_1,[param_3,#0x0]                  
                            LAB_00018f4e:                 ;XREF[1,0]:   00018f20
ram:00018f4e    2046            mov         param_1,r4                              
ram:00018f50    70bd            pop         {r4,r5,r6,pc}                           
ram:00018f52    0000            movs        r0,r0                                   
                            DAT_00018f54:                 ;XREF[1,0]:   00018f16
ram:00018f54    04210020        undefined4  20002104h                               
                            ;************************************************************************************************
                            ;*                                           FUNCTION                                           *
                            ;************************************************************************************************
                            ;undefined4 FUN_00018f58(undefined4 * param_1, uint param_2, undefined4 param_3)
          ;param_1       undefined4 *        r0                      
          ;param_2       uint                r1                      
          ;param_3       undefined4          r2                      
          ;local_18      undefined4         -18                      ;XREF[1,0]:   00019010
          ;local_20      undefined4         -20                      ;XREF[1,0]:   00019014
          ;local_28      undefined1         -28                      ;XREF[2,0]:   00018f6a,00018ff2
                                                          ;XREF[1,0]:   0001912c
ram:00018f58    f7b5            push        {param_1,param_2,param_3,r4,r5,r6,r7,lr}
ram:00018f5a    3b4c            ldr         r4,[DAT_00019048]                       ;= 20002104h
ram:00018f5c    82b0            sub         sp,#0x8                                 
ram:00018f5e    6088            ldrh        param_1,[r4,#0x2]=>DAT_20002106         
ram:00018f60    0f46            mov         r7,param_2                              
ram:00018f62    8142            cmp         param_2,param_1                         
ram:00018f64    6ed8            bhi         LAB_00019044                            
ram:00018f66    0020            movs        param_1,#0x0                            
ram:00018f68    6946            mov         param_2,sp                              
ram:00018f6a    0870            strb        param_1,[param_2,#0x0]=>local_28        
ram:00018f6c    3849            ldr         param_2,[DAT_00019050]                  ;= E000ED00h
ram:00018f6e    374e            ldr         r6,[DAT_0001904c]                       ;= 0000FFFFh
ram:00018f70    4868            ldr         param_1,[param_2,#offset DAT_e000ed04...
ram:00018f72    c005            lsls        param_1,param_1,#0x17                   
ram:00018f74    c00d            lsrs        param_1,param_1,#0x17                   
ram:00018f76    18d0            beq         LAB_00018faa                            
ram:00018f78    1038            subs        param_1,#0x10                           
ram:00018f7a    40b2            sxtb        param_1,param_1                         
ram:00018f7c    0028            cmp         param_1,#0x0                            
ram:00018f7e    07da            bge         LAB_00018f90                            
ram:00018f80    0207            lsls        param_3,param_1,#0x1c                   
ram:00018f82    120f            lsrs        param_3,param_3,#0x1c                   
ram:00018f84    083a            subs        param_3,#0x8                            
ram:00018f86    9208            lsrs        param_3,param_3,#0x2                    
ram:00018f88    9200            lsls        param_3,param_3,#0x2                    
ram:00018f8a    5118            adds        param_2,param_3,param_2                 
ram:00018f8c    c969            ldr         param_2,[param_2,#0x1c]                 
ram:00018f8e    04e0            b           LAB_00018f9a                            
                            LAB_00018f90:                 ;XREF[1,0]:   00018f7e
ram:00018f90    8108            lsrs        param_2,param_1,#0x2                    
ram:00018f92    304a            ldr         param_3,[DAT_00019054]                  ;= E000E400h
ram:00018f94    8900            lsls        param_2,param_2,#0x2                    
ram:00018f96    8918            adds        param_2,param_2,param_3                 
ram:00018f98    0968            ldr         param_2,[param_2,#0x0]                  
                            LAB_00018f9a:                 ;XREF[1,0]:   00018f8e
ram:00018f9a    8007            lsls        param_1,param_1,#0x1e                   
ram:00018f9c    c00e            lsrs        param_1,param_1,#0x1b                   
ram:00018f9e    c140            lsrs        param_2,param_1                         
ram:00018fa0    0806            lsls        param_1,param_2,#0x18                   
ram:00018fa2    850f            lsrs        r5,param_1,#0x1e                        
ram:00018fa4    012d            cmp         r5,#0x1                                 
ram:00018fa6    01d1            bne         LAB_00018fac                            
ram:00018fa8    0ae0            b           LAB_00018fc0                            
                            LAB_00018faa:                 ;XREF[1,0]:   00018f76
ram:00018faa    0425            movs        r5,#0x4                                 
                            LAB_00018fac:                 ;XREF[1,0]:   00018fa6
ram:00018fac    6846            mov         param_1,sp                              
ram:00018fae    36df            svc         0x36                                    
ram:00018fb0    0228            cmp         param_1,#0x2                            
ram:00018fb2    0cd0            beq         LAB_00018fce                            
ram:00018fb4    0028            cmp         param_1,#0x0                            
ram:00018fb6    03d0            beq         LAB_00018fc0                            
ram:00018fb8    0022            movs        param_3,#0x0                            
ram:00018fba    1146            mov         param_2,param_3                         
ram:00018fbc    fff764fe        bl          FUN_00018c88                            ;undefined FUN_00018c88(void)
                            LAB_00018fc0:                 ;XREF[3,0]:   00018fa8,00018fb6,00018fd0
ram:00018fc0    2278            ldrb        param_3,[r4,#0x0]=>DAT_20002104         
ram:00018fc2    6078            ldrb        param_1,[r4,#0x1]=>DAT_20002105         
ram:00018fc4    a188            ldrh        param_2,[r4,#0x4]=>DAT_20002108         
ram:00018fc6    8842            cmp         param_1,param_2                         
ram:00018fc8    03da            bge         LAB_00018fd2                            
ram:00018fca    401c            adds        param_1,param_1,#0x1                    
ram:00018fcc    02e0            b           LAB_00018fd4                            
                            LAB_00018fce:                 ;XREF[1,0]:   00018fb2
ram:00018fce    72b6            cpsid       i                                       
ram:00018fd0    f6e7            b           LAB_00018fc0                            
                            LAB_00018fd2:                 ;XREF[1,0]:   00018fc8
ram:00018fd2    0020            movs        param_1,#0x0                            
                            LAB_00018fd4:                 ;XREF[1,0]:   00018fcc
ram:00018fd4    c0b2            uxtb        param_1,param_1                         
ram:00018fd6    9042            cmp         param_1,param_3                         
ram:00018fd8    07d0            beq         LAB_00018fea                            
ram:00018fda    6678            ldrb        r6,[r4,#0x1]=>DAT_20002105              
ram:00018fdc    6078            ldrb        param_1,[r4,#0x1]=>DAT_20002105         
ram:00018fde    8842            cmp         param_1,param_2                         
ram:00018fe0    01da            bge         LAB_00018fe6                            
ram:00018fe2    401c            adds        param_1,param_1,#0x1                    
ram:00018fe4    00e0            b           LAB_00018fe8                            
                            LAB_00018fe6:                 ;XREF[1,0]:   00018fe0
ram:00018fe6    0020            movs        param_1,#0x0                            
                            LAB_00018fe8:                 ;XREF[1,0]:   00018fe4
ram:00018fe8    6070            strb        param_1,[r4,#0x1]=>DAT_20002105         
                            LAB_00018fea:                 ;XREF[1,0]:   00018fd8
ram:00018fea    012d            cmp         r5,#0x1                                 
ram:00018fec    0bd0            beq         LAB_00019006                            
ram:00018fee    62b6            cpsie       i                                       
ram:00018ff0    6846            mov         param_1,sp                              
ram:00018ff2    0078            ldrb        param_1=>local_28,[param_1,#0x0]        
ram:00018ff4    37df            svc         0x37                                    
ram:00018ff6    0228            cmp         param_1,#0x2                            
ram:00018ff8    05d0            beq         LAB_00019006                            
ram:00018ffa    0028            cmp         param_1,#0x0                            
ram:00018ffc    03d0            beq         LAB_00019006                            
ram:00018ffe    0022            movs        param_3,#0x0                            
ram:00019000    1146            mov         param_2,param_3                         
ram:00019002    fff741fe        bl          FUN_00018c88                            ;undefined FUN_00018c88(void)
                            LAB_00019006:                 ;XREF[3,0]:   00018fec,00018ff8,00018ffc
ram:00019006    1148            ldr         param_1,[DAT_0001904c]                  ;= 0000FFFFh
ram:00019008    8642            cmp         r6,param_1                              
ram:0001900a    19d0            beq         LAB_00019040                            
ram:0001900c    a068            ldr         param_1,[r4,#0x8]=>DAT_2000210c         
ram:0001900e    f500            lsls        r5,r6,#0x3                              
ram:00019010    0499            ldr         param_2,[sp,#local_18+0x28]             
ram:00019012    4151            str         param_2,[param_1,r5]                    
ram:00019014    0299            ldr         param_2,[sp,#local_20+0x28]             
ram:00019016    0029            cmp         param_2,#0x0                            
ram:00019018    0cd0            beq         LAB_00019034                            
ram:0001901a    002f            cmp         r7,#0x0                                 
ram:0001901c    0ad0            beq         LAB_00019034                            
ram:0001901e    6088            ldrh        param_1,[r4,#0x2]=>DAT_20002106         
ram:00019020    3a46            mov         param_3,r7                              
ram:00019022    4643            muls        r6,param_1                              
ram:00019024    e068            ldr         param_1,[r4,#0xc]=>DAT_20002110         
ram:00019026    3018            adds        param_1,r6,param_1                      
ram:00019028    fff7c8f8        bl          FUN_000181bc                            ;undefined FUN_000181bc(undefined4 * ...
ram:0001902c    a068            ldr         param_1,[r4,#0x8]=>DAT_2000210c         
ram:0001902e    2818            adds        param_1,r5,param_1                      
ram:00019030    8780            strh        r7,[param_1,#0x4]                       
ram:00019032    02e0            b           LAB_0001903a                            
                            LAB_00019034:                 ;XREF[2,0]:   00019018,0001901c
ram:00019034    0021            movs        param_2,#0x0                            
ram:00019036    2818            adds        param_1,r5,param_1                      
ram:00019038    8180            strh        param_2,[param_1,#0x4]                  
                            LAB_0001903a:                 ;XREF[1,0]:   00019032
ram:0001903a    0020            movs        param_1,#0x0                            
                            LAB_0001903c:                 ;XREF[2,0]:   00019042,00019046
ram:0001903c    05b0            add         sp,#0x14                                
ram:0001903e    f0bd            pop         {r4,r5,r6,r7,pc}                        
                            LAB_00019040:                 ;XREF[1,0]:   0001900a
ram:00019040    0420            movs        param_1,#0x4                            
ram:00019042    fbe7            b           LAB_0001903c                            
                            LAB_00019044:                 ;XREF[1,0]:   00018f64
ram:00019044    0920            movs        param_1,#0x9                            
ram:00019046    f9e7            b           LAB_0001903c                            
                            DAT_00019048:                 ;XREF[1,0]:   00018f5a
ram:00019048    04210020        undefined4  20002104h                               
                            DAT_0001904c:                 ;XREF[2,0]:   00018f6e,00019006
ram:0001904c    ffff0000        undefined4  0000FFFFh                               
                            DAT_00019050:                 ;XREF[1,0]:   00018f6c
ram:00019050    00ed00e0        undefined4  E000ED00h                               
                            DAT_00019054:                 ;XREF[1,0]:   00018f92
ram:00019054    00e400e0        undefined4  E000E400h                               
                            ;************************************************************************************************
                            ;*                                           FUNCTION                                           *
                            ;************************************************************************************************
                            ;undefined FUN_00019058(undefined4 param_1, int param_2, uint param_3, undefined * param_4)
          ;param_1       undefined4          r0                      
          ;param_2       int                 r1                      
          ;param_3       uint                r2                      
          ;param_4       undefined *         r3                      
          ;local_8       undefined4          -8                      ;XREF[1,0]:   00019060
          ;local_c       undefined2          -c                      ;XREF[1,0]:   0001905e
          ;local_10      undefined4         -10                      ;XREF[1,0]:   00019062
                                                          ;XREF[1,0]:   0001ad14
ram:00019058    0eb5            push        {param_2,param_3,param_4,lr}            
ram:0001905a    04e0            b           LAB_00019066                            
                            LAB_0001905c:                 ;XREF[1,0]:   00019072
ram:0001905c    6846            mov         param_1,sp                              
ram:0001905e    8188            ldrh        param_2=>local_c,[param_1,#0x4]         
ram:00019060    029a            ldr         param_3=>local_8,[sp,#0x8]              
ram:00019062    0098            ldr         param_1=>local_10,[sp,#0x0]             
ram:00019064    9047            blx         param_3                                 
                            LAB_00019066:                 ;XREF[1,0]:   0001905a
ram:00019066    02aa            add         param_3,sp,#0x8                         
ram:00019068    01a9            add         param_2,sp,#0x4                         
ram:0001906a    6846            mov         param_1,sp                              
ram:0001906c    fff752ff        bl          FUN_00018f14                            ;undefined4 FUN_00018f14(int * param_...
ram:00019070    0028            cmp         param_1,#0x0                            
ram:00019072    f3d0            beq         LAB_0001905c                            
ram:00019074    0ebd            pop         {param_2,param_3,param_4,pc}            
ram:00019076    0000            movs        r0,r0                                   
                            ;************************************************************************************************
                            ;*                                           FUNCTION                                           *
                            ;************************************************************************************************
                            ;undefined4 FUN_00019078(undefined2 param_1, short param_2, uint param_3)
          ;param_1       undefined2          r0                      
          ;param_2       short               r1                      
          ;param_3       uint                r2                      
                                                          ;XREF[1,0]:   0001ab10
ram:00019078    30b5            push        {r4,r5,lr}                              
ram:0001907a    cb00            lsls        r3,param_2,#0x3                         
ram:0001907c    0833            adds        r3,#0x8                                 
ram:0001907e    9db2            uxth        r5,r3                                   
ram:00019080    9307            lsls        r3,param_3,#0x1e                        
ram:00019082    0024            movs        r4,#0x0                                 
ram:00019084    002b            cmp         r3,#0x0                                 
ram:00019086    01d0            beq         LAB_0001908c                            
ram:00019088    0720            movs        param_1,#0x7                            
ram:0001908a    30bd            pop         {r4,r5,pc}                              
                            LAB_0001908c:                 ;XREF[1,0]:   00019086
ram:0001908c    044b            ldr         r3,[DAT_000190a0]                       ;= 20002104h
ram:0001908e    9a60            str         param_3,[r3,#0x8]=>DAT_2000210c         
ram:00019090    5219            adds        param_3,param_3,r5                      
ram:00019092    da60            str         param_3,[r3,#0xc]=>DAT_20002110         
ram:00019094    5c70            strb        r4,[r3,#0x1]=>DAT_20002105              
ram:00019096    1c70            strb        r4,[r3,#0x0]=>DAT_20002104              
ram:00019098    5880            strh        param_1,[r3,#0x2]=>DAT_20002106         
ram:0001909a    9980            strh        param_2,[r3,#0x4]=>DAT_20002108         
ram:0001909c    0020            movs        param_1,#0x0                            
ram:0001909e    30bd            pop         {r4,r5,pc}                              
                            DAT_000190a0:                 ;XREF[1,0]:   0001908c
ram:000190a0    04210020        undefined4  20002104h                               
                            ;************************************************************************************************
                            ;*                                           FUNCTION                                           *
                            ;************************************************************************************************
                            ;undefined LAB_000190a4+1(int param_1)
          ;param_1       int                 r0                      
                                                          ;XREF[0,2]:   0001ab3c,0001ad34
ram:000190a4    4168            ldr         r1,[param_1,#0x4]                       
ram:000190a6    0348            ldr         param_1=>DAT_20002000,[DAT_000190b4]    ;= 20002000h
ram:000190a8    8268            ldr         r2,[param_1,#offset DAT_20002008 &0xff] 
ram:000190aa    9142            cmp         r1,r2                                   
ram:000190ac    01d1            bne         LAB_000190b2                            
ram:000190ae    0021            movs        r1,#0x0                                 
ram:000190b0    0170            strb        r1,[param_1,#0x0]=>DAT_20002000         
                            LAB_000190b2:                 ;XREF[1,0]:   000190ac
ram:000190b2    7047            bx          lr                                      
                            DAT_000190b4:                 ;XREF[1,0]:   000190a6
ram:000190b4    00200020        undefined4  20002000h                               
                            ;************************************************************************************************
                            ;*                                           FUNCTION                                           *
                            ;************************************************************************************************
                            ;undefined4 FUN_000190b8(int * param_1, undefined param_2, int param_3)
          ;param_1       int *               r0                      
          ;param_2       undefined           r1                      
          ;param_3       int                 r2                      
                                                          ;XREF[7,0]:   00018c72,0001962a,0001c260,0001c278
                                                          ;             0001c290,0001c2a8,0001c2c0
ram:000190b8    70b5            push        {r4,r5,r6,lr}                           
ram:000190ba    114c            ldr         r4,[DAT_00019100]                       ;= 20002114h
ram:000190bc    a568            ldr         r5,[r4,#0x8]=>DAT_2000211c              
ram:000190be    002d            cmp         r5,#0x0                                 
ram:000190c0    06d0            beq         LAB_000190d0                            
ram:000190c2    002a            cmp         param_3,#0x0                            
ram:000190c4    06d0            beq         LAB_000190d4                            
ram:000190c6    0028            cmp         param_1,#0x0                            
ram:000190c8    04d0            beq         LAB_000190d4                            
ram:000190ca    0023            movs        r3,#0x0                                 
ram:000190cc    2478            ldrb        r4,[r4,#0x0]=>DAT_20002114              
ram:000190ce    09e0            b           LAB_000190e4                            
                            LAB_000190d0:                 ;XREF[1,0]:   000190c0
ram:000190d0    0820            movs        param_1,#0x8                            
ram:000190d2    70bd            pop         {r4,r5,r6,pc}                           
                            LAB_000190d4:                 ;XREF[2,0]:   000190c4,000190c8
ram:000190d4    0720            movs        param_1,#0x7                            
ram:000190d6    70bd            pop         {r4,r5,r6,pc}                           
                            LAB_000190d8:                 ;XREF[1,0]:   000190e6
ram:000190d8    2426            movs        r6,#0x24                                
ram:000190da    5e43            muls        r6,r3                                   
ram:000190dc    ae5d            ldrb        r6,[r5,r6]                              
ram:000190de    002e            cmp         r6,#0x0                                 
ram:000190e0    04d0            beq         LAB_000190ec                            
ram:000190e2    5b1c            adds        r3,r3,#0x1                              
                            LAB_000190e4:                 ;XREF[1,0]:   000190ce
ram:000190e4    a342            cmp         r3,r4                                   
ram:000190e6    f7db            blt         LAB_000190d8                            
ram:000190e8    0420            movs        param_1,#0x4                            
ram:000190ea    70bd            pop         {r4,r5,r6,pc}                           
                            LAB_000190ec:                 ;XREF[1,0]:   000190e0
ram:000190ec    2424            movs        r4,#0x24                                
ram:000190ee    0126            movs        r6,#0x1                                 
ram:000190f0    5c43            muls        r4,r3                                   
ram:000190f2    2e55            strb        r6,[r5,r4]                              
ram:000190f4    6419            adds        r4,r4,r5                                
ram:000190f6    6170            strb        param_2,[r4,#0x1]                       
ram:000190f8    a261            str         param_3,[r4,#0x18]                      
ram:000190fa    0360            str         r3,[param_1,#0x0]                       
ram:000190fc    0020            movs        param_1,#0x0                            
ram:000190fe    70bd            pop         {r4,r5,r6,pc}                           
                            DAT_00019100:                 ;XREF[1,0]:   000190ba
ram:00019100    14210020        undefined4  20002114h                               
                            ;************************************************************************************************
                            ;*                                           FUNCTION                                           *
                            ;************************************************************************************************
                            ;undefined FUN_00019104(undefined * * param_1, int param_2)
          ;param_1       undefined * *       r0                      
          ;param_2       int                 r1                      
                                                          ;XREF[0,2]:   00019126,00019134
ram:00019104    10b5            push        {r4,lr}                                 
ram:00019106    0446            mov         r4,param_1                              
ram:00019108    0829            cmp         param_2,#0x8                            
ram:0001910a    04d0            beq         LAB_00019116                            
ram:0001910c    0022            movs        r2,#0x0                                 
ram:0001910e    1146            mov         param_2,r2                              
ram:00019110    1046            mov         param_1,r2                              
ram:00019112    fff7b9fd        bl          FUN_00018c88                            ;undefined FUN_00018c88(void)
                            LAB_00019116:                 ;XREF[1,0]:   0001910a
ram:00019116    2168            ldr         param_2,[r4,#0x0]                       
ram:00019118    6068            ldr         param_1,[r4,#0x4]                       
ram:0001911a    8847            blx         param_2                                 
ram:0001911c    10bd            pop         {r4,pc}                                 
ram:0001911e    0000            movs        r0,r0                                   
                            ;************************************************************************************************
                            ;*                                           FUNCTION                                           *
                            ;************************************************************************************************
                            ;undefined LAB_00019120+1(undefined4 param_1, undefined4 param_2)
          ;param_1       undefined4          r0                      
          ;param_2       undefined4          r1                      
          ;local_c       undefined4          -c                      ;XREF[1,0]:   00019122
          ;local_10      undefined4         -10                      ;XREF[1,0]:   00019124
                                                          ;XREF[0,2]:   0001c240,0001c2d4
ram:00019120    1cb5            push        {r2,r3,r4,lr}                           
ram:00019122    0191            str         param_2,[sp,#local_c+0x10]              
ram:00019124    0090            str         param_1,[sp,#0x0]=>local_10             
ram:00019126    034a            ldr         r2=>FUN_00019104+1,[PTR_FUN_00019104+...;= 00019105
ram:00019128    0821            movs        param_2,#0x8                            
ram:0001912a    6846            mov         param_1,sp                              
ram:0001912c    fff714ff        bl          FUN_00018f58                            ;undefined4 FUN_00018f58(undefined4 *...
ram:00019130    1cbd            pop         {r2,r3,r4,pc}                           
ram:00019132    0000            movs        r0,r0                                   
                            PTR_FUN_00019104+1_00019134:  ;XREF[1,0]:   00019126
ram:00019134    05910100        addr        FUN_00019104+1                          
                            ;************************************************************************************************
                            ;*                                           FUNCTION                                           *
                            ;************************************************************************************************
                            ;undefined4 FUN_00019138(undefined4 param_1, int param_2, int param_3, uint param_4, undefined4 param_5)
          ;param_1       undefined4          r0                      
          ;param_2       int                 r1                      
          ;param_3       int                 r2                      
          ;param_4       uint                r3                      
          ;param_5       undefined4           0                      ;XREF[1,0]:   00019154
          ;local_24      undefined4         -24                      ;XREF[1,0]:   000191c8
                                                          ;XREF[1,0]:   0001c24a
ram:00019138    ffb5            push        {param_1,param_2,param_3,param_4,r4,r...
ram:0001913a    9807            lsls        param_1,param_4,#0x1e                   
ram:0001913c    0024            movs        r4,#0x0                                 
ram:0001913e    81b0            sub         sp,#0x4                                 
ram:00019140    1e46            mov         r6,param_4                              
ram:00019142    1546            mov         r5,param_3                              
ram:00019144    0f46            mov         r7,param_2                              
ram:00019146    0028            cmp         param_1,#0x0                            
ram:00019148    0bd1            bne         LAB_00019162                            
ram:0001914a    002e            cmp         r6,#0x0                                 
ram:0001914c    09d0            beq         LAB_00019162                            
ram:0001914e    02f0f1fb        bl          FUN_0001b934                            ;undefined FUN_0001b934(void)
ram:00019152    2249            ldr         param_2,[DAT_000191dc]                  ;= 20002114h
ram:00019154    0a98            ldr         param_1,[sp,#param_5+0x28]              
ram:00019156    8861            str         param_1,[param_2,#0x18]=>DAT_2000212c   
ram:00019158    0f70            strb        r7,[param_2,#0x0]=>DAT_20002114         
ram:0001915a    3246            mov         param_3,r6                              
ram:0001915c    0020            movs        param_1,#0x0                            
ram:0001915e    8e60            str         r6,[param_2,#0x8]=>DAT_2000211c         
ram:00019160    08e0            b           LAB_00019174                            
                            LAB_00019162:                 ;XREF[2,0]:   00019148,0001914c
ram:00019162    0720            movs        param_1,#0x7                            
                            LAB_00019164:                 ;XREF[1,0]:   000191da
ram:00019164    05b0            add         sp,#0x14                                
ram:00019166    f0bd            pop         {r4,r5,r6,r7,pc}                        
                            LAB_00019168:                 ;XREF[1,0]:   00019176
ram:00019168    2423            movs        param_4,#0x24                           
ram:0001916a    4343            muls        param_4,param_1                         
ram:0001916c    d454            strb        r4,[param_3,param_4]                    
ram:0001916e    9b18            adds        param_4,param_4,param_3                 
ram:00019170    1c75            strb        r4,[param_4,#0x14]                      
ram:00019172    401c            adds        param_1,param_1,#0x1                    
                            LAB_00019174:                 ;XREF[1,0]:   00019160
ram:00019174    b842            cmp         param_1,r7                              
ram:00019176    f7db            blt         LAB_00019168                            
ram:00019178    2420            movs        param_1,#0x24                           
ram:0001917a    4743            muls        r7,param_1                              
ram:0001917c    bb19            adds        param_4,r7,r6                           
ram:0001917e    0320            movs        param_1,#0x3                            
ram:00019180    4870            strb        param_1,[param_2,#0x1]=>DAT_20002115    
ram:00019182    0f46            mov         r7,param_2                              
ram:00019184    1846            mov         param_1,param_4                         
ram:00019186    cb60            str         param_4,[param_2,#0xc]=>DAT_20002120    
ram:00019188    1946            mov         param_2,param_4                         
ram:0001918a    1830            adds        param_1,#0x18                           
ram:0001918c    0022            movs        param_3,#0x0                            
ram:0001918e    1823            movs        param_4,#0x18                           
ram:00019190    2e46            mov         r6,r5                                   
ram:00019192    5e43            muls        r6,param_4                              
                            LAB_00019194:                 ;XREF[1,0]:   000191a6
ram:00019194    d300            lsls        param_4,param_3,#0x3                    
ram:00019196    5b18            adds        param_4,param_4,param_2                 
ram:00019198    1c70            strb        r4,[param_4,#0x0]                       
ram:0001919a    5c70            strb        r4,[param_4,#0x1]                       
ram:0001919c    9d70            strb        r5,[param_4,#0x2]                       
ram:0001919e    5860            str         param_1,[param_4,#0x4]                  
ram:000191a0    3018            adds        param_1,r6,param_1                      
ram:000191a2    521c            adds        param_3,param_3,#0x1                    
ram:000191a4    032a            cmp         param_3,#0x3                            
ram:000191a6    f5db            blt         LAB_00019194                            
ram:000191a8    0020            movs        param_1,#0x0                            
ram:000191aa    c043            mvns        param_1,param_1                         
ram:000191ac    3861            str         param_1,[r7,#0x10]=>DAT_20002124        
ram:000191ae    bc70            strb        r4,[r7,#0x2]=>DAT_20002116              
ram:000191b0    fc70            strb        r4,[r7,#0x3]=>DAT_20002117              
ram:000191b2    0124            movs        r4,#0x1                                 
ram:000191b4    0a48            ldr         param_1,[DAT_000191e0]                  ;= E000E280h
ram:000191b6    2405            lsls        r4,r4,#0x14                             
ram:000191b8    0460            str         r4,[param_1,#0x0]=>DAT_e000e280         
ram:000191ba    0321            movs        param_2,#0x3                            
ram:000191bc    1420            movs        param_1,#0x14                           
ram:000191be    fff781fa        bl          FUN_000186c4                            ;undefined FUN_000186c4(uint param_1,...
ram:000191c2    0848            ldr         param_1,[DAT_000191e4]                  ;= E000E100h
ram:000191c4    0460            str         r4,[param_1,#0x0]=>DAT_e000e100         
ram:000191c6    084c            ldr         r4,[DAT_000191e8]                       ;= 40011500h
ram:000191c8    0198            ldr         param_1,[sp,#local_24+0x28]             
ram:000191ca    a060            str         param_1,[r4,#offset DAT_40011508 &0xff] 
ram:000191cc    0321            movs        param_2,#0x3                            
ram:000191ce    1120            movs        param_1,#0x11                           
ram:000191d0    fff778fa        bl          FUN_000186c4                            ;undefined FUN_000186c4(uint param_1,...
ram:000191d4    6068            ldr         param_1,[r4,#offset DAT_40011504 &0xff] 
ram:000191d6    7861            str         param_1,[r7,#0x14]=>DAT_20002128        
ram:000191d8    0020            movs        param_1,#0x0                            
ram:000191da    c3e7            b           LAB_00019164                            
                            DAT_000191dc:                 ;XREF[1,0]:   00019152
ram:000191dc    14210020        undefined4  20002114h                               
                            DAT_000191e0:                 ;XREF[1,0]:   000191b4
ram:000191e0    80e200e0        undefined4  E000E280h                               
                            DAT_000191e4:                 ;XREF[1,0]:   000191c2
ram:000191e4    00e100e0        undefined4  E000E100h                               
                            DAT_000191e8:                 ;XREF[1,0]:   000191c6
ram:000191e8    00150140        undefined4  40011500h                               
                            ;************************************************************************************************
                            ;*                                           FUNCTION                                           *
                            ;************************************************************************************************
                            ;longlong FUN_000191ec(uint param_1, uint param_2, undefined4 param_3, undefined4 param_4)
          ;param_1       uint                r0                      
          ;param_2       uint                r1                      
          ;param_3       undefined4          r2                      
          ;param_4       undefined4          r3                      
          ;local_1c      undefined4         -1c                      ;XREF[2,0]:   0001922c,0001924c
          ;local_20      undefined4         -20                      ;XREF[1,0]:   00019252
                                                          ;XREF[7,0]:   000193d2,00019aca,00019ee2,00019fca
                                                          ;             0001a716,0001ac72,0001ac88
ram:000191ec    feb5            push        {param_2,param_3,param_4,r4,r5,r6,r7,lr}
ram:000191ee    0446            mov         r4,param_1                              
ram:000191f0    1d48            ldr         param_1,[DAT_00019268]                  ;= 20002114h
ram:000191f2    1746            mov         r7,param_3                              
ram:000191f4    8268            ldr         param_3,[param_1,#0x8]=>DAT_2000211c    
ram:000191f6    0d46            mov         r5,param_2                              
ram:000191f8    002a            cmp         param_3,#0x0                            
ram:000191fa    0cd0            beq         LAB_00019216                            
ram:000191fc    0178            ldrb        param_2,[param_1,#0x0]=>DAT_20002114    
ram:000191fe    8c42            cmp         r4,param_2                              
ram:00019200    01d2            bcs         LAB_00019206                            
ram:00019202    052d            cmp         r5,#0x5                                 
ram:00019204    01d2            bcs         LAB_0001920a                            
                            LAB_00019206:                 ;XREF[1,0]:   00019200
ram:00019206    0720            movs        param_1,#0x7                            
ram:00019208    febd            pop         {param_2,param_3,param_4,r4,r5,r6,r7,pc}
                            LAB_0001920a:                 ;XREF[1,0]:   00019204
ram:0001920a    2146            mov         param_2,r4                              
ram:0001920c    2423            movs        param_4,#0x24                           
ram:0001920e    5943            muls        param_2,param_4                         
ram:00019210    535c            ldrb        param_4,[param_3,param_2]               
ram:00019212    012b            cmp         param_4,#0x1                            
ram:00019214    01d0            beq         LAB_0001921a                            
                            LAB_00019216:                 ;XREF[1,0]:   000191fa
ram:00019216    0820            movs        param_1,#0x8                            
ram:00019218    febd            pop         {param_2,param_3,param_4,r4,r5,r6,r7,pc}
                            LAB_0001921a:                 ;XREF[1,0]:   00019214
ram:0001921a    8818            adds        param_1,param_2,param_3                 
ram:0001921c    4078            ldrb        param_1,[param_1,#0x1]                  
ram:0001921e    0128            cmp         param_1,#0x1                            
ram:00019220    1dd0            beq         LAB_0001925e                            
ram:00019222    0026            movs        r6,#0x0                                 
                            LAB_00019224:                 ;XREF[1,0]:   00019260
ram:00019224    03f0d8f8        bl          FUN_0001c3d8                            ;undefined4 FUN_0001c3d8(void)
ram:00019228    c000            lsls        param_1,param_1,#0x3                    
ram:0001922a    0f49            ldr         param_2,[DAT_00019268]                  ;= 20002114h
ram:0001922c    0190            str         param_1,[sp,#local_1c+0x20]             
ram:0001922e    c968            ldr         param_2,[param_2,#0xc]=>DAT_20002120    
ram:00019230    4018            adds        param_1,param_1,param_2                 
ram:00019232    6946            mov         param_2,sp                              
ram:00019234    03f0faf8        bl          FUN_0001c42c                            ;int FUN_0001c42c(byte * param_1, uin...
ram:00019238    0028            cmp         param_1,#0x0                            
ram:0001923a    12d0            beq         LAB_00019262                            
ram:0001923c    0121            movs        param_2,#0x1                            
ram:0001923e    0170            strb        param_2,[param_1,#0x0]                  
ram:00019240    0a49            ldr         param_2,[DAT_0001926c]                  ;= 40011500h
ram:00019242    4460            str         r4,[param_1,#0x4]                       
ram:00019244    4968            ldr         param_2,[param_2,#offset DAT_40011504...
ram:00019246    0830            adds        param_1,#0x8                            
ram:00019248    e2c0            stmia       param_1!,{param_2,r5,r6,r7}             
ram:0001924a    0749            ldr         param_2,[DAT_00019268]                  ;= 20002114h
ram:0001924c    0198            ldr         param_1,[sp,#local_1c+0x20]             
ram:0001924e    c968            ldr         param_2,[param_2,#0xc]=>DAT_20002120    
ram:00019250    4118            adds        param_2,param_1,param_2                 
ram:00019252    0098            ldr         param_1,[sp,#0x0]=>local_20             
ram:00019254    4870            strb        param_1,[param_2,#0x1]                  
ram:00019256    02f03fff        bl          FUN_0001c0d8                            ;undefined FUN_0001c0d8(void)
ram:0001925a    0020            movs        param_1,#0x0                            
ram:0001925c    febd            pop         {param_2,param_3,param_4,r4,r5,r6,r7,pc}
                            LAB_0001925e:                 ;XREF[1,0]:   00019220
ram:0001925e    2e46            mov         r6,r5                                   
ram:00019260    e0e7            b           LAB_00019224                            
                            LAB_00019262:                 ;XREF[1,0]:   0001923a
ram:00019262    0420            movs        param_1,#0x4                            
ram:00019264    febd            pop         {param_2,param_3,param_4,r4,r5,r6,r7,pc}
ram:00019266    0000            movs        r0,r0                                   
                            DAT_00019268:                 ;XREF[3,0]:   000191f0,0001922a,0001924a
ram:00019268    14210020        undefined4  20002114h                               
                            DAT_0001926c:                 ;XREF[1,0]:   00019240
ram:0001926c    00150140        undefined4  40011500h                               
                            ;************************************************************************************************
                            ;*                                           FUNCTION                                           *
                            ;************************************************************************************************
                            ;undefined4 FUN_00019270(uint param_1, undefined4 param_2, undefined4 param_3, uint param_4)
          ;param_1       uint                r0                      
          ;param_2       undefined4          r1                      
          ;param_3       undefined4          r2                      
          ;param_4       uint                r3                      
          ;local_18      undefined4         -18                      ;XREF[1,0]:   000192b2
                                                          ;XREF[8,0]:   00019474,000194d4,000196a2,000196d2
                                                          ;             00019a94,00019f9a,0001a6fe,0001aa82
ram:00019270    f8b5            push        {param_4,r4,r5,r6,r7,lr}                
ram:00019272    144d            ldr         r5,[DAT_000192c4]                       ;= 20002114h
ram:00019274    0446            mov         r4,param_1                              
ram:00019276    a868            ldr         param_1,[r5,#0x8]=>DAT_2000211c         
ram:00019278    0028            cmp         param_1,#0x0                            
ram:0001927a    09d0            beq         LAB_00019290                            
ram:0001927c    2978            ldrb        param_2,[r5,#0x0]=>DAT_20002114         
ram:0001927e    8c42            cmp         r4,param_2                              
ram:00019280    01d3            bcc         LAB_00019286                            
ram:00019282    0720            movs        param_1,#0x7                            
ram:00019284    f8bd            pop         {param_4,r4,r5,r6,r7,pc}                
                            LAB_00019286:                 ;XREF[1,0]:   00019280
ram:00019286    2421            movs        param_2,#0x24                           
ram:00019288    6143            muls        param_2,r4                              
ram:0001928a    405c            ldrb        param_1,[param_1,param_2]               
ram:0001928c    0128            cmp         param_1,#0x1                            
ram:0001928e    01d0            beq         LAB_00019294                            
                            LAB_00019290:                 ;XREF[1,0]:   0001927a
ram:00019290    0820            movs        param_1,#0x8                            
ram:00019292    f8bd            pop         {param_4,r4,r5,r6,r7,pc}                
                            LAB_00019294:                 ;XREF[1,0]:   0001928e
ram:00019294    03f0a0f8        bl          FUN_0001c3d8                            ;undefined4 FUN_0001c3d8(void)
ram:00019298    c600            lsls        r6,param_1,#0x3                         
ram:0001929a    e868            ldr         param_1,[r5,#0xc]=>DAT_20002120         
ram:0001929c    6946            mov         param_2,sp                              
ram:0001929e    3018            adds        param_1,r6,param_1                      
ram:000192a0    03f0c4f8        bl          FUN_0001c42c                            ;int FUN_0001c42c(byte * param_1, uin...
ram:000192a4    0028            cmp         param_1,#0x0                            
ram:000192a6    0ad0            beq         LAB_000192be                            
ram:000192a8    0221            movs        param_2,#0x2                            
ram:000192aa    0170            strb        param_2,[param_1,#0x0]                  
ram:000192ac    4460            str         r4,[param_1,#0x4]                       
ram:000192ae    e868            ldr         param_1,[r5,#0xc]=>DAT_20002120         
ram:000192b0    3118            adds        param_2,r6,param_1                      
ram:000192b2    0098            ldr         param_1,[sp,#0x0]=>local_18             
ram:000192b4    4870            strb        param_1,[param_2,#0x1]                  
ram:000192b6    02f00fff        bl          FUN_0001c0d8                            ;undefined FUN_0001c0d8(void)
ram:000192ba    0020            movs        param_1,#0x0                            
ram:000192bc    f8bd            pop         {param_4,r4,r5,r6,r7,pc}                
                            LAB_000192be:                 ;XREF[1,0]:   000192a6
ram:000192be    0420            movs        param_1,#0x4                            
ram:000192c0    f8bd            pop         {param_4,r4,r5,r6,r7,pc}                
ram:000192c2    0000            movs        r0,r0                                   
                            DAT_000192c4:                 ;XREF[1,0]:   00019272
ram:000192c4    14210020        undefined4  20002114h                               
                            ;************************************************************************************************
                            ;*                                           FUNCTION                                           *
                            ;************************************************************************************************
                            ;undefined8 FUN_000192c8(ushort * param_1)
          ;param_1       ushort *            r0                      
          ;local_18      undefined4         -18                      ;XREF[1,0]:   0001935c
          ;local_1c      undefined2         -1c                      ;XREF[1,0]:   0001935a
          ;local_1e      undefined2         -1e                      ;XREF[1,0]:   00019358
          ;local_20      undefined2         -20                      ;XREF[1,0]:   00019354
          ;local_24      undefined4         -24                      ;XREF[1,0]:   00019350
          ;local_28      undefined4         -28                      ;XREF[1,0]:   0001934c
          ;local_2a      undefined1         -2a                      ;XREF[1,0]:   0001931c
          ;local_2c      undefined2         -2c                      ;XREF[1,0]:   00019322
          ;local_30      undefined4         -30                      ;XREF[2,3]:   000192da,000192dc,000192e6,000192e8,000192f0
          ;local_34      undefined4         -34                      ;XREF[1,0]:   00019314
          ;local_38      undefined4         -38                      ;XREF[1,0]:   0001930e
          ;local_3c      undefined4         -3c                      ;XREF[1,0]:   00019312
          ;local_40      undefined4         -40                      ;XREF[1,0]:   00019310
          ;local_48      undefined4         -48                      ;XREF[1,0]:   0001930c
          ;local_4c      undefined1         -4c                      ;XREF[2,0]:   000192fc,00019308
          ;local_50      undefined4         -50                      ;XREF[2,3]:   00019326,00019328,0001932a,0001932c,00019340
                                                          ;XREF[1,0]:   000198f4
ram:000192c8    70b5            push        {r4,r5,r6,lr}                           
ram:000192ca    0024            movs        r4,#0x0                                 
ram:000192cc    0546            mov         r5,param_1                              
ram:000192ce    601c            adds        param_1,r4,#0x1                         
ram:000192d0    90b0            sub         sp,#0x40                                
ram:000192d2    0007            lsls        param_1,param_1,#0x1c                   
ram:000192d4    000f            lsrs        param_1,param_1,#0x1c                   
ram:000192d6    08a9            add         r1,sp,#0x20                             
ram:000192d8    1030            adds        param_1,#0x10                           
ram:000192da    0894            str         r4,[sp,#local_30+0x50]                  
ram:000192dc    0870            strb        param_1,[r1,#0x0]=>local_30             
ram:000192de    601c            adds        param_1,r4,#0x1                         
ram:000192e0    0007            lsls        param_1,param_1,#0x1c                   
ram:000192e2    000f            lsrs        param_1,param_1,#0x1c                   
ram:000192e4    1030            adds        param_1,#0x10                           
ram:000192e6    4870            strb        param_1,[r1,#local_30+0x31]             
ram:000192e8    8878            ldrb        param_1,[r1,#local_30+0x32]             
ram:000192ea    f926            movs        r6,#0xf9                                
ram:000192ec    3040            ands        param_1,r6                              
ram:000192ee    801c            adds        param_1,param_1,#0x2                    
ram:000192f0    8870            strb        param_1,[r1,#local_30+0x32]             
ram:000192f2    1c21            movs        r1,#0x1c                                
ram:000192f4    01a8            add         param_1,sp,#0x4                         
ram:000192f6    fef77aff        bl          FUN_000181ee                            ;undefined FUN_000181ee(undefined * p...
ram:000192fa    6946            mov         r1,sp                                   
ram:000192fc    0879            ldrb        param_1,[r1,#local_4c+0x50]             
ram:000192fe    fd21            movs        r1,#0xfd                                
ram:00019300    0840            ands        param_1,r1                              
ram:00019302    1821            movs        r1,#0x18                                
ram:00019304    0843            orrs        param_1,r1                              
ram:00019306    6946            mov         r1,sp                                   
ram:00019308    0871            strb        param_1,[r1,#local_4c+0x50]             
ram:0001930a    08a8            add         param_1,sp,#0x20                        
ram:0001930c    0294            str         r4,[sp,#local_48+0x50]                  
ram:0001930e    0690            str         param_1,[sp,#local_38+0x50]             
ram:00019310    0494            str         r4,[sp,#local_40+0x50]                  
ram:00019312    0594            str         r4,[sp,#local_3c+0x50]                  
ram:00019314    0794            str         r4,[sp,#local_34+0x50]                  
ram:00019316    3220            movs        param_1,#0x32                           
ram:00019318    405d            ldrb        param_1,[param_1,r5]                    
ram:0001931a    08a9            add         r1,sp,#0x20                             
ram:0001931c    8871            strb        param_1,[r1,#local_2a+0x30]             
ram:0001931e    1448            ldr         param_1,[DAT_00019370]                  ;= 00001529h
ram:00019320    6946            mov         r1,sp                                   
ram:00019322    8884            strh        param_1,[r1,#local_2c+0x50]             
ram:00019324    1120            movs        param_1,#0x11                           
ram:00019326    0094            str         r4,[sp,#0x0]=>local_50                  
ram:00019328    0870            strb        param_1,[r1,#0x0]=>local_50             
ram:0001932a    4870            strb        param_1,[r1,#local_50+0x51]             
ram:0001932c    8878            ldrb        param_1,[r1,#local_50+0x52]             
ram:0001932e    f721            movs        r1,#0xf7                                
ram:00019330    3040            ands        param_1,r6                              
ram:00019332    801c            adds        param_1,param_1,#0x2                    
ram:00019334    0840            ands        param_1,r1                              
ram:00019336    ef21            movs        r1,#0xef                                
ram:00019338    0840            ands        param_1,r1                              
ram:0001933a    0126            movs        r6,#0x1                                 
ram:0001933c    3043            orrs        param_1,r6                              
ram:0001933e    6946            mov         r1,sp                                   
ram:00019340    8870            strb        param_1,[r1,#local_50+0x52]             
ram:00019342    1421            movs        r1,#0x14                                
ram:00019344    0aa8            add         param_1,sp,#0x28                        
ram:00019346    fef752ff        bl          FUN_000181ee                            ;undefined FUN_000181ee(undefined * p...
ram:0001934a    09a8            add         param_1,sp,#0x24                        
ram:0001934c    0a90            str         param_1,[sp,#local_28+0x50]             
ram:0001934e    6846            mov         param_1,sp                              
ram:00019350    0b90            str         param_1,[sp,#local_24+0x50]             
ram:00019352    6946            mov         r1,sp                                   
ram:00019354    0e86            strh        r6,[r1,#local_20+0x50]                  
ram:00019356    0720            movs        param_1,#0x7                            
ram:00019358    4c86            strh        r4,[r1,#local_1e+0x50]                  
ram:0001935a    8886            strh        param_1,[r1,#local_1c+0x50]             
ram:0001935c    0e94            str         r4,[sp,#local_18+0x50]                  
ram:0001935e    2b46            mov         r3,r5                                   
ram:00019360    2888            ldrh        param_1,[r5,#0x0]                       
ram:00019362    2a33            adds        r3,#0x2a                                
ram:00019364    0aaa            add         r2,sp,#0x28                             
ram:00019366    01a9            add         r1,sp,#0x4                              
ram:00019368    a2df            svc         0xa2                                    
ram:0001936a    10b0            add         sp,#0x40                                
ram:0001936c    70bd            pop         {r4,r5,r6,pc}                           
ram:0001936e    0000            movs        r0,r0                                   
                            DAT_00019370:                 ;XREF[1,0]:   0001931e
ram:00019370    29150000        undefined4  00001529h                               
                            ;************************************************************************************************
                            ;*                                           FUNCTION                                           *
                            ;************************************************************************************************
                            ;undefined LAB_00019374+1(int param_1, uint param_2, undefined4 param_3, undefined4 param_4)
          ;param_1       int                 r0                      
          ;param_2       uint                r1                      
          ;param_3       undefined4          r2                      
          ;param_4       undefined4          r3                      
          ;local_1c      undefined4         -1c                      ;XREF[1,0]:   000193f2
                                                          ;XREF[0,2]:   0001ba7e,0001bacc
ram:00019374    feb5            push        {param_2,param_3,param_4,r4,r5,r6,r7,lr}
ram:00019376    0446            mov         r4,param_1                              
ram:00019378    0326            movs        r6,#0x3                                 
ram:0001937a    3046            mov         param_1,r6                              
ram:0001937c    01f0f2fc        bl          FUN_0001ad64                            ;uint * FUN_0001ad64(int param_1)
ram:00019380    2779            ldrb        r7,[r4,#0x4]                            
ram:00019382    324c            ldr         r4,[DAT_0001944c]                       ;= 20002000h
ram:00019384    0546            mov         r5,param_1                              
ram:00019386    012f            cmp         r7,#0x1                                 
ram:00019388    14d0            beq         LAB_000193b4                            
ram:0001938a    022f            cmp         r7,#0x2                                 
ram:0001938c    24d0            beq         LAB_000193d8                            
ram:0001938e    0120            movs        param_1,#0x1                            
ram:00019390    6f70            strb        r7,[r5,#0x1]                            
ram:00019392    a870            strb        param_1,[r5,#0x2]                       
ram:00019394    2e48            ldr         param_1,[DAT_00019450]                  ;= 20002604h
ram:00019396    3346            mov         param_4,r6                              
ram:00019398    418d            ldrh        param_2,[param_1,#0x2a]=>DAT_2000262e   
ram:0001939a    2a46            mov         param_3,r5                              
ram:0001939c    02f0ecfa        bl          FUN_0001b978                            ;undefined8 FUN_0001b978(int param_1,...
ram:000193a0    0028            cmp         param_1,#0x0                            
ram:000193a2    03d0            beq         LAB_000193ac                            
ram:000193a4    0022            movs        param_3,#0x0                            
ram:000193a6    1146            mov         param_2,param_3                         
ram:000193a8    fff76efc        bl          FUN_00018c88                            ;undefined FUN_00018c88(void)
                            LAB_000193ac:                 ;XREF[3,0]:   000193a2,000193d6,00019444
ram:000193ac    2846            mov         param_1,r5                              
ram:000193ae    01f035f9        bl          FUN_0001a61c                            ;undefined FUN_0001a61c(int param_1)
ram:000193b2    febd            pop         {param_2,param_3,param_4,r4,r5,r6,r7,pc}
                            LAB_000193b4:                 ;XREF[1,0]:   00019388
ram:000193b4    2648            ldr         param_1,[DAT_00019450]                  ;= 20002604h
ram:000193b6    9430            adds        param_1,#0x94                           
ram:000193b8    8168            ldr         param_2,[param_1,#0x8]=>DAT_200026a0    
ram:000193ba    0122            movs        param_3,#0x1                            
ram:000193bc    1143            orrs        param_2,param_3                         
ram:000193be    8160            str         param_2,[param_1,#0x8]=>DAT_200026a0    
ram:000193c0    8168            ldr         param_2,[param_1,#0x8]=>DAT_200026a0    
ram:000193c2    0222            movs        param_3,#0x2                            
ram:000193c4    9143            bics        param_2,param_3                         
ram:000193c6    8160            str         param_2,[param_1,#0x8]=>DAT_200026a0    
ram:000193c8    0021            movs        param_2,#0x0                            
ram:000193ca    c160            str         param_2,[param_1,#0xc]=>DAT_200026a4    
ram:000193cc    0a46            mov         param_3,param_2                         
ram:000193ce    2149            ldr         param_2,[DAT_00019454]                  ;= 00000E39h
ram:000193d0    e069            ldr         param_1,[r4,#offset DAT_2000201c &0xff] 
ram:000193d2    fff70bff        bl          FUN_000191ec                            ;longlong FUN_000191ec(uint param_1, ...
ram:000193d6    e9e7            b           LAB_000193ac                            
                            LAB_000193d8:                 ;XREF[1,0]:   0001938c
ram:000193d8    1c48            ldr         param_1,[DAT_0001944c]                  ;= 20002000h
ram:000193da    6a46            mov         param_3,sp                              
ram:000193dc    0021            movs        param_2,#0x0                            
ram:000193de    4430            adds        param_1,#0x44                           
ram:000193e0    01f0aaff        bl          FUN_0001b338                            ;undefined4 FUN_0001b338(uint * param...
ram:000193e4    0028            cmp         param_1,#0x0                            
ram:000193e6    03d0            beq         LAB_000193f0                            
ram:000193e8    0022            movs        param_3,#0x0                            
ram:000193ea    1146            mov         param_2,param_3                         
ram:000193ec    fff74cfc        bl          FUN_00018c88                            ;undefined FUN_00018c88(void)
                            LAB_000193f0:                 ;XREF[1,0]:   000193e6
ram:000193f0    1648            ldr         param_1,[DAT_0001944c]                  ;= 20002000h
ram:000193f2    0199            ldr         param_2,[sp,#local_1c+0x20]             
ram:000193f4    8160            str         param_2,[param_1,#offset DAT_20002008...
ram:000193f6    0121            movs        param_2,#0x1                            
ram:000193f8    0170            strb        param_2,[param_1,#0x0]=>DAT_20002000    
ram:000193fa    0821            movs        param_2,#0x8                            
ram:000193fc    6846            mov         param_1,sp                              
ram:000193fe    01f0c5ff        bl          FUN_0001b38c                            ;int FUN_0001b38c(uint * param_1, und...
ram:00019402    041e            subs        r4,param_1,#0x0                         
ram:00019404    06d0            beq         LAB_00019414                            
ram:00019406    0022            movs        param_3,#0x0                            
ram:00019408    1146            mov         param_2,param_3                         
ram:0001940a    fff73dfc        bl          FUN_00018c88                            ;undefined FUN_00018c88(void)
ram:0001940e    01e0            b           LAB_00019414                            
                            LAB_00019410:                 ;XREF[1,0]:   0001941a
ram:00019410    01f088ff        bl          FUN_0001b324                            ;undefined FUN_0001b324(int param_1)
                            LAB_00019414:                 ;XREF[2,0]:   00019404,0001940e
ram:00019414    0d48            ldr         param_1,[DAT_0001944c]                  ;= 20002000h
ram:00019416    0078            ldrb        param_1,[param_1,#0x0]=>DAT_20002000    
ram:00019418    0028            cmp         param_1,#0x0                            
ram:0001941a    f9d1            bne         LAB_00019410                            
ram:0001941c    002c            cmp         r4,#0x0                                 
ram:0001941e    12d0            beq         LAB_00019446                            
ram:00019420    0320            movs        param_1,#0x3                            
                            LAB_00019422:                 ;XREF[1,0]:   00019448
ram:00019422    6f70            strb        r7,[r5,#0x1]                            
ram:00019424    a870            strb        param_1,[r5,#0x2]                       
ram:00019426    0a48            ldr         param_1,[DAT_00019450]                  ;= 20002604h
ram:00019428    3346            mov         param_4,r6                              
ram:0001942a    418d            ldrh        param_2,[param_1,#0x2a]=>DAT_2000262e   
ram:0001942c    2a46            mov         param_3,r5                              
ram:0001942e    02f0a3fa        bl          FUN_0001b978                            ;undefined8 FUN_0001b978(int param_1,...
ram:00019432    0028            cmp         param_1,#0x0                            
ram:00019434    03d0            beq         LAB_0001943e                            
ram:00019436    0022            movs        param_3,#0x0                            
ram:00019438    1146            mov         param_2,param_3                         
ram:0001943a    fff725fc        bl          FUN_00018c88                            ;undefined FUN_00018c88(void)
                            LAB_0001943e:                 ;XREF[1,0]:   00019434
ram:0001943e    02f053fa        bl          FUN_0001b8e8                            ;undefined FUN_0001b8e8(undefined4 pa...
ram:00019442    35df            svc         0x35                                    
ram:00019444    b2e7            b           LAB_000193ac                            
                            LAB_00019446:                 ;XREF[1,0]:   0001941e
ram:00019446    0020            movs        param_1,#0x0                            
ram:00019448    ebe7            b           LAB_00019422                            
ram:0001944a    0000            movs        r0,r0                                   
                            DAT_0001944c:                 ;XREF[4,0]:   00019382,000193d8,000193f0,00019414
ram:0001944c    00200020        undefined4  20002000h                               
                            DAT_00019450:                 ;XREF[3,0]:   00019394,000193b4,00019426
ram:00019450    04260020        undefined4  20002604h                               
                            DAT_00019454:                 ;XREF[1,0]:   000193ce
ram:00019454    390e0000        undefined4  00000E39h                               
                            ;************************************************************************************************
                            ;*                                           FUNCTION                                           *
                            ;************************************************************************************************
                            ;undefined LAB_00019458+1(undefined4 param_1, undefined4 param_2, undefined4 param_3, uint param_4)
          ;param_1       undefined4          r0                      
          ;param_2       undefined4          r1                      
          ;param_3       undefined4          r2                      
          ;param_4       uint                r3                      
          ;local_16      undefined1         -16                      ;XREF[1,0]:   000194ee
          ;local_17      undefined1         -17                      ;XREF[1,0]:   000194ea
                                                          ;XREF[0,2]:   0001c2a2,0001c2ec
ram:00019458    f8b5            push        {param_4,r4,r5,r6,r7,lr}                
ram:0001945a    2c4c            ldr         r4,[DAT_0001950c]                       ;= 20002698h
ram:0001945c    a068            ldr         param_1,[r4,#0x8]=>DAT_200026a0         
ram:0001945e    0025            movs        r5,#0x0                                 
ram:00019460    c107            lsls        param_2,param_1,#0x1f                   
ram:00019462    2b48            ldr         param_1,[DAT_00019510]                  ;= 20002000h
ram:00019464    0226            movs        r6,#0x2                                 
ram:00019466    0127            movs        r7,#0x1                                 
ram:00019468    c069            ldr         param_1,[param_1,#offset DAT_2000201c...
ram:0001946a    0029            cmp         param_2,#0x0                            
ram:0001946c    2dd0            beq         LAB_000194ca                            
ram:0001946e    a168            ldr         param_2,[r4,#0x8]=>DAT_200026a0         
ram:00019470    8907            lsls        param_2,param_2,#0x1e                   
ram:00019472    2ad5            bpl         LAB_000194ca                            
ram:00019474    fff7fcfe        bl          FUN_00019270                            ;undefined4 FUN_00019270(uint param_1...
ram:00019478    a068            ldr         param_1,[r4,#0x8]=>DAT_200026a0         
ram:0001947a    b843            bics        param_1,r7                              
ram:0001947c    a060            str         param_1,[r4,#0x8]=>DAT_200026a0         
ram:0001947e    a068            ldr         param_1,[r4,#0x8]=>DAT_200026a0         
ram:00019480    b043            bics        param_1,r6                              
ram:00019482    a060            str         param_1,[r4,#0x8]=>DAT_200026a0         
ram:00019484    e560            str         r5,[r4,#0xc]=>DAT_200026a4              
ram:00019486    2068            ldr         param_1,[r4,#0x0]=>DAT_20002698         
ram:00019488    0726            movs        r6,#0x7                                 
ram:0001948a    3046            mov         param_1,r6                              
ram:0001948c    01f06afc        bl          FUN_0001ad64                            ;uint * FUN_0001ad64(int param_1)
ram:00019490    4770            strb        r7,[param_1,#0x1]                       
ram:00019492    0446            mov         r4,param_1                              
ram:00019494    8570            strb        r5,[param_1,#0x2]                       
ram:00019496    1e49            ldr         param_2,[DAT_00019510]                  ;= 20002000h
ram:00019498    0020            movs        param_1,#0x0                            
ram:0001949a    0c31            adds        param_2,#0xc                            
                            LAB_0001949c:                 ;XREF[1,0]:   000194a6
                                                          ; FWD[2,0]:   2000200c,2000200d
ram:0001949c    0a5c            ldrb        param_3,[param_2,param_1]=>DAT_2000200c 
ram:0001949e    2318            adds        param_4,r4,param_1                      
ram:000194a0    401c            adds        param_1,param_1,#0x1                    
ram:000194a2    da70            strb        param_3,[param_4,#0x3]                  
ram:000194a4    0428            cmp         param_1,#0x4                            
ram:000194a6    f9db            blt         LAB_0001949c                            
ram:000194a8    1848            ldr         param_1,[DAT_0001950c]                  ;= 20002698h
ram:000194aa    3346            mov         param_4,r6                              
ram:000194ac    9438            subs        param_1,#0x94                           
ram:000194ae    418d            ldrh        param_2,[param_1,#0x2a]=>DAT_2000262e   
ram:000194b0    2246            mov         param_3,r4                              
ram:000194b2    02f061fa        bl          FUN_0001b978                            ;undefined8 FUN_0001b978(int param_1,...
ram:000194b6    0028            cmp         param_1,#0x0                            
ram:000194b8    03d0            beq         LAB_000194c2                            
ram:000194ba    0022            movs        param_3,#0x0                            
ram:000194bc    1146            mov         param_2,param_3                         
ram:000194be    fff7e3fb        bl          FUN_00018c88                            ;undefined FUN_00018c88(void)
                            LAB_000194c2:                 ;XREF[1,0]:   000194b8
ram:000194c2    2046            mov         param_1,r4                              
ram:000194c4    01f0aaf8        bl          FUN_0001a61c                            ;undefined FUN_0001a61c(int param_1)
                            LAB_000194c8:                 ;XREF[2,0]:   000194d2,000194fe
ram:000194c8    f8bd            pop         {param_4,r4,r5,r6,r7,pc}                
                            LAB_000194ca:                 ;XREF[2,0]:   0001946c,00019472
ram:000194ca    e168            ldr         param_2,[r4,#0xc]=>DAT_200026a4         
ram:000194cc    4a1c            adds        param_3,param_2,#0x1                    
ram:000194ce    e260            str         param_3,[r4,#0xc]=>DAT_200026a4         
ram:000194d0    0a29            cmp         param_2,#0xa                            
ram:000194d2    f9d3            bcc         LAB_000194c8                            
ram:000194d4    fff7ccfe        bl          FUN_00019270                            ;undefined4 FUN_00019270(uint param_1...
ram:000194d8    a068            ldr         param_1,[r4,#0x8]=>DAT_200026a0         
ram:000194da    4008            lsrs        param_1,param_1,#0x1                    
ram:000194dc    4000            lsls        param_1,param_1,#0x1                    
ram:000194de    a060            str         param_1,[r4,#0x8]=>DAT_200026a0         
ram:000194e0    a068            ldr         param_1,[r4,#0x8]=>DAT_200026a0         
ram:000194e2    b043            bics        param_1,r6                              
ram:000194e4    a060            str         param_1,[r4,#0x8]=>DAT_200026a0         
ram:000194e6    e560            str         r5,[r4,#0xc]=>DAT_200026a4              
ram:000194e8    6846            mov         param_1,sp                              
ram:000194ea    4770            strb        r7,[r0,#local_17+0x18]                  
ram:000194ec    0323            movs        param_4,#0x3                            
ram:000194ee    8370            strb        param_4,[r0,#local_16+0x18]             
ram:000194f0    0648            ldr         param_1,[DAT_0001950c]                  ;= 20002698h
ram:000194f2    6a46            mov         param_3,sp                              
ram:000194f4    9438            subs        param_1,#0x94                           
ram:000194f6    418d            ldrh        param_2,[param_1,#0x2a]=>DAT_2000262e   
ram:000194f8    02f03efa        bl          FUN_0001b978                            ;undefined8 FUN_0001b978(int param_1,...
ram:000194fc    0028            cmp         param_1,#0x0                            
ram:000194fe    e3d0            beq         LAB_000194c8                            
ram:00019500    0022            movs        param_3,#0x0                            
ram:00019502    1146            mov         param_2,param_3                         
ram:00019504    fff7c0fb        bl          FUN_00018c88                            ;undefined FUN_00018c88(void)
ram:00019508    f8bd            pop         {param_4,r4,r5,r6,r7,pc}                
ram:0001950a    0000            movs        r0,r0                                   
                            DAT_0001950c:                 ;XREF[3,0]:   0001945a,000194a8,000194f0
ram:0001950c    98260020        undefined4  20002698h                               
                            DAT_00019510:                 ;XREF[2,0]:   00019462,00019496
ram:00019510    00200020        undefined4  20002000h                               
                            ;************************************************************************************************
                            ;*                                           FUNCTION                                           *
                            ;************************************************************************************************
                            ;undefined4 FUN_00019514(int param_1, uint param_2)
          ;param_1       int                 r0                      
          ;param_2       uint                r1                      
                                                          ;XREF[2,0]:   0001bdd0,0001bfda
ram:00019514    f8b5            push        {r3,r4,r5,r6,r7,lr}                     
ram:00019516    0646            mov         r6,param_1                              
ram:00019518    0c46            mov         r4,param_2                              
ram:0001951a    0846            mov         param_1,param_2                         
ram:0001951c    01f022fc        bl          FUN_0001ad64                            ;uint * FUN_0001ad64(int param_1)
ram:00019520    0546            mov         r5,param_1                              
ram:00019522    201f            subs        param_1,r4,#0x4                         
ram:00019524    c7b2            uxtb        r7,param_1                              
ram:00019526    3a46            mov         r2,r7                                   
ram:00019528    311d            adds        param_2,r6,#0x4                         
ram:0001952a    2846            mov         param_1,r5                              
ram:0001952c    fef746fe        bl          FUN_000181bc                            ;undefined FUN_000181bc(undefined4 * ...
ram:00019530    e819            adds        param_1,r5,r7                           
ram:00019532    0422            movs        r2,#0x4                                 
ram:00019534    1349            ldr         param_2=>DAT_2000200c,[DAT_00019584]    ;= 2000200Ch
ram:00019536    fef741fe        bl          FUN_000181bc                            ;undefined FUN_000181bc(undefined4 * ...
ram:0001953a    2878            ldrb        param_1,[r5,#0x0]                       
ram:0001953c    2946            mov         param_2,r5                              
ram:0001953e    c001            lsls        param_1,param_1,#0x7                    
ram:00019540    0022            movs        r2,#0x0                                 
ram:00019542    06e0            b           LAB_00019552                            
                            LAB_00019544:                 ;XREF[1,0]:   00019554
ram:00019544    104f            ldr         r7,[DAT_00019588]                       ;= 000F4243h
ram:00019546    0b78            ldrb        r3,[param_2,#0x0]                       
ram:00019548    7843            muls        param_1,r7                              
ram:0001954a    5840            eors        param_1,r3                              
ram:0001954c    6040            eors        param_1,r4                              
ram:0001954e    491c            adds        param_2,param_2,#0x1                    
ram:00019550    521c            adds        r2,r2,#0x1                              
                            LAB_00019552:                 ;XREF[1,0]:   00019542
ram:00019552    a242            cmp         r2,r4                                   
ram:00019554    f6d3            bcc         LAB_00019544                            
ram:00019556    411c            adds        param_2,param_1,#0x1                    
ram:00019558    00d1            bne         LAB_0001955c                            
ram:0001955a    881e            subs        param_1,param_2,#0x2                    
                            LAB_0001955c:                 ;XREF[1,0]:   00019558
ram:0001955c    04ba            rev         r4,param_1                              
ram:0001955e    3046            mov         param_1,r6                              
ram:00019560    fef764fe        bl          FUN_0001822c                            ;uint FUN_0001822c(int param_1, undef...
ram:00019564    00ba            rev         param_1,param_1                         
ram:00019566    000a            lsrs        param_1,param_1,#0x8                    
ram:00019568    f178            ldrb        param_2,[r6,#0x3]                       
ram:0001956a    0002            lsls        param_1,param_1,#0x8                    
ram:0001956c    0843            orrs        param_1,param_2                         
ram:0001956e    a042            cmp         param_1,r4                              
ram:00019570    2846            mov         param_1,r5                              
ram:00019572    03d0            beq         LAB_0001957c                            
ram:00019574    01f052f8        bl          FUN_0001a61c                            ;undefined FUN_0001a61c(int param_1)
ram:00019578    0420            movs        param_1,#0x4                            
ram:0001957a    f8bd            pop         {r3,r4,r5,r6,r7,pc}                     
                            LAB_0001957c:                 ;XREF[1,0]:   00019572
ram:0001957c    01f04ef8        bl          FUN_0001a61c                            ;undefined FUN_0001a61c(int param_1)
ram:00019580    0020            movs        param_1,#0x0                            
ram:00019582    f8bd            pop         {r3,r4,r5,r6,r7,pc}                     
                            DAT_00019584:                 ;XREF[1,0]:   00019534
ram:00019584    0c200020        undefined4  2000200Ch                               
                            DAT_00019588:                 ;XREF[1,0]:   00019544
ram:00019588    43420f00        undefined4  000F4243h                               
                            ;************************************************************************************************
                            ;*                                           FUNCTION                                           *
                            ;************************************************************************************************
                            ;undefined * FUN_0001958c(char * param_1, char * param_2)
          ;param_1       char *              r0                      
          ;param_2       char *              r1                      
          ;local_54      undefined1         -54                      ;XREF[2,0]:   0001959a,000195dc
          ;local_58      undefined1         -58                      ;XREF[2,0]:   00019596,000195de
                                                          ;XREF[1,0]:   00018b70
ram:0001958c    70b5            push        {r4,r5,r6,lr}                           
ram:0001958e    0c46            mov         r4,param_2                              
ram:00019590    92b0            sub         sp,#0x48                                
ram:00019592    0021            movs        param_2,#0x0                            
ram:00019594    6a46            mov         r2,sp                                   
ram:00019596    1170            strb        param_2,[r2,#0x0]=>local_58             
ram:00019598    0725            movs        r5,#0x7                                 
ram:0001959a    1171            strb        param_2,[r2,#local_54+0x58]             
ram:0001959c    0028            cmp         param_1,#0x0                            
ram:0001959e    09d0            beq         LAB_000195b4                            
ram:000195a0    c178            ldrb        param_2,[param_1,#0x3]                  
ram:000195a2    4907            lsls        param_2,param_2,#0x1d                   
ram:000195a4    0cd5            bpl         LAB_000195c0                            
ram:000195a6    02a9            add         param_2,sp,#0x8                         
ram:000195a8    fff7e4f9        bl          FUN_00018974                            ;undefined * FUN_00018974(char * para...
ram:000195ac    0028            cmp         param_1,#0x0                            
ram:000195ae    08d1            bne         LAB_000195c2                            
ram:000195b0    02ae            add         r6,sp,#0x8                              
ram:000195b2    00e0            b           LAB_000195b6                            
                            LAB_000195b4:                 ;XREF[1,0]:   0001959e
ram:000195b4    0026            movs        r6,#0x0                                 
                            LAB_000195b6:                 ;XREF[1,0]:   000195b2
ram:000195b6    002c            cmp         r4,#0x0                                 
ram:000195b8    0ed0            beq         LAB_000195d8                            
ram:000195ba    e078            ldrb        param_1,[r4,#0x3]                       
ram:000195bc    0028            cmp         param_1,#0x0                            
ram:000195be    02d0            beq         LAB_000195c6                            
                            LAB_000195c0:                 ;XREF[1,0]:   000195a4
ram:000195c0    2846            mov         param_1,r5                              
                            LAB_000195c2:                 ;XREF[3,0]:   000195ae,000195d2,000195e4
ram:000195c2    12b0            add         sp,#0x48                                
ram:000195c4    70bd            pop         {r4,r5,r6,pc}                           
                            LAB_000195c6:                 ;XREF[1,0]:   000195be
ram:000195c6    01aa            add         r2,sp,#0x4                              
ram:000195c8    0aa9            add         param_2,sp,#0x28                        
ram:000195ca    2046            mov         param_1,r4                              
ram:000195cc    fff7d2f9        bl          FUN_00018974                            ;undefined * FUN_00018974(char * para...
ram:000195d0    0028            cmp         param_1,#0x0                            
ram:000195d2    f6d1            bne         LAB_000195c2                            
ram:000195d4    0aaa            add         r2,sp,#0x28                             
ram:000195d6    00e0            b           LAB_000195da                            
                            LAB_000195d8:                 ;XREF[1,0]:   000195b8
ram:000195d8    0022            movs        r2,#0x0                                 
                            LAB_000195da:                 ;XREF[1,0]:   000195d6
ram:000195da    6846            mov         param_1,sp                              
ram:000195dc    0379            ldrb        r3,[r0,#local_54+0x58]                  
ram:000195de    0178            ldrb        param_2,[param_1,#0x0]=>local_58        
ram:000195e0    3046            mov         param_1,r6                              
ram:000195e2    72df            svc         0x72                                    
ram:000195e4    ede7            b           LAB_000195c2                            
ram:000195e6    0000            movs        r0,r0                                   
                            ;************************************************************************************************
                            ;*                                           FUNCTION                                           *
                            ;************************************************************************************************
                            ;undefined FUN_000195e8(undefined4 * param_1)
          ;param_1       undefined4 *        r0                      
                                                          ;XREF[1,0]:   0001ac0c
ram:000195e8    70b5            push        {r4,r5,r6,lr}                           
ram:000195ea    0546            mov         r5,param_1                              
ram:000195ec    0146            mov         r1,param_1                              
ram:000195ee    1c22            movs        r2,#0x1c                                
ram:000195f0    0f48            ldr         param_1,[DAT_00019630]                  ;= 200026A8h
ram:000195f2    fef7e3fd        bl          FUN_000181bc                            ;undefined FUN_000181bc(undefined4 * ...
ram:000195f6    0f4c            ldr         r4,[DAT_00019634]                       ;= 2000208Ch
ram:000195f8    0026            movs        r6,#0x0                                 
ram:000195fa    2670            strb        r6,[r4,#0x0]=>DAT_2000208c              
ram:000195fc    2968            ldr         r1,[r5,#0x0]                            
ram:000195fe    0029            cmp         r1,#0x0                                 
ram:00019600    07d0            beq         LAB_00019612                            
ram:00019602    0822            movs        r2,#0x8                                 
ram:00019604    a018            adds        param_1=>DAT_20002094,r4,r2             
ram:00019606    fef7d9fd        bl          FUN_000181bc                            ;undefined FUN_000181bc(undefined4 * ...
ram:0001960a    2046            mov         param_1,r4                              
ram:0001960c    0830            adds        param_1,#0x8                            
ram:0001960e    7adf            svc         0x7a                                    
ram:00019610    02e0            b           LAB_00019618                            
                            LAB_00019612:                 ;XREF[1,0]:   00019600
ram:00019612    0848            ldr         param_1,[DAT_00019634]                  ;= 2000208Ch
ram:00019614    0830            adds        param_1,#0x8                            
ram:00019616    7bdf            svc         0x7b                                    
                            LAB_00019618:                 ;XREF[1,0]:   00019610
ram:00019618    0028            cmp         param_1,#0x0                            
ram:0001961a    08d1            bne         LAB_0001962e                            
ram:0001961c    401e            subs        param_1,param_1,#0x1                    
ram:0001961e    6080            strh        param_1,[r4,#0x2]=>DAT_2000208e         
ram:00019620    0448            ldr         param_1,[DAT_00019634]                  ;= 2000208Ch
ram:00019622    6670            strb        r6,[r4,#0x1]=>DAT_2000208d              
ram:00019624    044a            ldr         r2=>FUN_0001c374+1,[PTR_FUN_0001c374+...;= 0001c375
ram:00019626    0021            movs        r1,#0x0                                 
ram:00019628    001d            adds        param_1=>DAT_20002090,param_1,#0x4      
ram:0001962a    fff745fd        bl          FUN_000190b8                            ;undefined4 FUN_000190b8(int * param_...
                            LAB_0001962e:                 ;XREF[1,0]:   0001961a
ram:0001962e    70bd            pop         {r4,r5,r6,pc}                           
                            DAT_00019630:                 ;XREF[1,0]:   000195f0
ram:00019630    a8260020        undefined4  200026A8h                               
                            DAT_00019634:                 ;XREF[3,0]:   000195f6,00019612,00019620
ram:00019634    8c200020        undefined4  2000208Ch                               
                            PTR_FUN_0001c374+1_00019638:  ;XREF[1,0]:   00019624
ram:00019638    75c30100        addr        FUN_0001c374+1                          
                            ;************************************************************************************************
                            ;*                                           FUNCTION                                           *
                            ;************************************************************************************************
                            ;undefined FUN_0001963c(ushort * param_1, undefined4 param_2, undefined4 param_3, uint param_4)
          ;param_1       ushort *            r0                      
          ;param_2       undefined4          r1                      
          ;param_3       undefined4          r2                      
          ;param_4       uint                r3                      
                                                          ;XREF[1,0]:   0001985a
ram:0001963c    f8b5            push        {param_4,r4,r5,r6,r7,lr}                
ram:0001963e    224c            ldr         r4,[DAT_000196c8]                       ;= 200026A8h
ram:00019640    0288            ldrh        param_3,[param_1,#0x0]                  
ram:00019642    0027            movs        r7,#0x0                                 
ram:00019644    1f4d            ldr         r5,[DAT_000196c4]                       ;= 2000208Ch
ram:00019646    e689            ldrh        r6,[r4,#0xe]=>DAT_200026b6              
ram:00019648    102a            cmp         param_3,#0x10                           
ram:0001964a    16d0            beq         LAB_0001967a                            
ram:0001964c    2946            mov         param_2,r5                              
ram:0001964e    4968            ldr         param_2,[param_2,#0x4]=>DAT_20002090    
ram:00019650    112a            cmp         param_3,#0x11                           
ram:00019652    21d0            beq         LAB_00019698                            
ram:00019654    122a            cmp         param_3,#0x12                           
ram:00019656    2dd0            beq         LAB_000196b4                            
ram:00019658    502a            cmp         param_3,#0x50                           
ram:0001965a    1cd1            bne         LAB_00019696                            
ram:0001965c    c288            ldrh        param_3,[param_1,#0x6]                  
ram:0001965e    801d            adds        param_1,param_1,#0x6                    
ram:00019660    b242            cmp         param_3,r6                              
ram:00019662    18d1            bne         LAB_00019696                            
ram:00019664    028b            ldrh        param_3,[param_1,#0x18]                 
ram:00019666    022a            cmp         param_3,#0x2                            
ram:00019668    15d1            bne         LAB_00019696                            
ram:0001966a    c27e            ldrb        param_3,[param_1,#0x1b]                 
ram:0001966c    837e            ldrb        param_4,[param_1,#0x1a]                 
ram:0001966e    1002            lsls        param_1,param_3,#0x8                    
ram:00019670    1843            orrs        param_1,param_4                         
ram:00019672    c007            lsls        param_1,param_1,#0x1f                   
ram:00019674    c00f            lsrs        param_1,param_1,#0x1f                   
ram:00019676    0cd1            bne         LAB_00019692                            
ram:00019678    12e0            b           LAB_000196a0                            
                            LAB_0001967a:                 ;XREF[1,0]:   0001964a
ram:0001967a    8188            ldrh        param_2,[param_1,#0x4]                  
ram:0001967c    6980            strh        param_2,[r5,#0x2]=>DAT_2000208e         
ram:0001967e    0146            mov         param_2,param_1                         
ram:00019680    1048            ldr         param_1,[DAT_000196c4]                  ;= 2000208Ch
ram:00019682    0822            movs        param_3,#0x8                            
ram:00019684    1631            adds        param_2,#0x16                           
ram:00019686    1030            adds        param_1,#0x10                           
ram:00019688    fef798fd        bl          FUN_000181bc                            ;undefined FUN_000181bc(undefined4 * ...
ram:0001968c    6f70            strb        r7,[r5,#0x1]=>DAT_2000208d              
ram:0001968e    002e            cmp         r6,#0x0                                 
ram:00019690    01d1            bne         LAB_00019696                            
                            LAB_00019692:                 ;XREF[2,0]:   00019676,000196c0
ram:00019692    00f005fc        bl          FUN_00019ea0                            ;undefined FUN_00019ea0(void)
                            LAB_00019696:                 ;XREF[6,0]:   0001965a,00019662,00019668,00019690
                                                          ;             000196a8,000196ae
ram:00019696    f8bd            pop         {param_4,r4,r5,r6,r7,pc}                
                            LAB_00019698:                 ;XREF[1,0]:   00019652
ram:00019698    0020            movs        param_1,#0x0                            
ram:0001969a    c043            mvns        param_1,param_1                         
ram:0001969c    6880            strh        param_1,[r5,#0x2]=>DAT_2000208e         
ram:0001969e    6f70            strb        r7,[r5,#0x1]=>DAT_2000208d              
                            LAB_000196a0:                 ;XREF[1,0]:   00019678
ram:000196a0    0846            mov         param_1,param_2                         
ram:000196a2    fff7e5fd        bl          FUN_00019270                            ;undefined4 FUN_00019270(uint param_1...
ram:000196a6    0028            cmp         param_1,#0x0                            
ram:000196a8    f5d0            beq         LAB_00019696                            
ram:000196aa    a169            ldr         param_2,[r4,#0x18]=>DAT_200026c0        
ram:000196ac    0029            cmp         param_2,#0x0                            
ram:000196ae    f2d0            beq         LAB_00019696                            
ram:000196b0    8847            blx         param_2                                 
ram:000196b2    f8bd            pop         {param_4,r4,r5,r6,r7,pc}                
                            LAB_000196b4:                 ;XREF[1,0]:   00019656
ram:000196b4    811d            adds        param_2,param_1,#0x6                    
ram:000196b6    0348            ldr         param_1,[DAT_000196c4]                  ;= 2000208Ch
ram:000196b8    0822            movs        param_3,#0x8                            
ram:000196ba    1030            adds        param_1,#0x10                           
ram:000196bc    fef77efd        bl          FUN_000181bc                            ;undefined FUN_000181bc(undefined4 * ...
ram:000196c0    e7e7            b           LAB_00019692                            
ram:000196c2    0000            movs        r0,r0                                   
                            DAT_000196c4:                 ;XREF[3,0]:   00019644,00019680,000196b6
ram:000196c4    8c200020        undefined4  2000208Ch                               
                            DAT_000196c8:                 ;XREF[1,0]:   0001963e
ram:000196c8    a8260020        undefined4  200026A8h                               
                            ;************************************************************************************************
                            ;*                                           FUNCTION                                           *
                            ;************************************************************************************************
                            ;undefined FUN_000196cc(undefined4 param_1, undefined4 param_2, undefined4 param_3, uint param_4)
          ;param_1       undefined4          r0                      
          ;param_2       undefined4          r1                      
          ;param_3       undefined4          r2                      
          ;param_4       uint                r3                      
                                                          ;XREF[1,0]:   0001b908
ram:000196cc    10b5            push        {r4,lr}                                 
ram:000196ce    0248            ldr         param_1,[DAT_000196d8]                  ;= 2000208Ch
ram:000196d0    4068            ldr         param_1,[param_1,#0x4]=>DAT_20002090    
ram:000196d2    fff7cdfd        bl          FUN_00019270                            ;undefined4 FUN_00019270(uint param_1...
ram:000196d6    10bd            pop         {r4,pc}                                 
                            DAT_000196d8:                 ;XREF[1,0]:   000196ce
ram:000196d8    8c200020        undefined4  2000208Ch                               
                            ;************************************************************************************************
                            ;*                                           FUNCTION                                           *
                            ;************************************************************************************************
                            ;undefined4 * FUN_000196dc(undefined2 * param_1, int param_2)
          ;param_1       undefined2 *        r0                      
          ;param_2       int                 r1                      
          ;local_10      undefined4         -10                      ;XREF[1,0]:   000196fa
          ;local_1c      undefined4         -1c                      ;XREF[1,0]:   000196fe
          ;local_1e      undefined1         -1e                      ;XREF[1,0]:   0001971e
          ;local_20      undefined2         -20                      ;XREF[1,0]:   00019704
                                                          ;XREF[1,0]:   0001baa8
ram:000196dc    30b5            push        {r4,r5,lr}                              
ram:000196de    85b0            sub         sp,#0x14                                
ram:000196e0    0d46            mov         r5,param_2                              
ram:000196e2    0400            movs        r4,param_1                              
ram:000196e4    39d0            beq         LAB_0001975a                            
ram:000196e6    002d            cmp         r5,#0x0                                 
ram:000196e8    37d0            beq         LAB_0001975a                            
ram:000196ea    6868            ldr         param_1,[r5,#0x4]                       
ram:000196ec    0028            cmp         param_1,#0x0                            
ram:000196ee    34d0            beq         LAB_0001975a                            
ram:000196f0    0020            movs        param_1,#0x0                            
ram:000196f2    c043            mvns        param_1,param_1                         
ram:000196f4    1a4b            ldr         r3,[PTR_DAT_00019760]                   ;= 0001c598
ram:000196f6    2080            strh        param_1,[r4,#0x0]                       
                                                          ; FWD[4,0]:   0001c598,0001c59c,0001c5a0,0001c5a4
ram:000196f8    0fcb            ldmia       r3,{param_1,param_2,r2,r3}=>DAT_0001c598;= EABCD123h
                                                                                    ;= 1523785Fh
                                                                                    ;= 1212EFDEh
ram:000196fa    0493            str         r3,[sp,#local_10+0x20]                  
ram:000196fc    01ab            add         r3,sp,#0x4                              
ram:000196fe    07c3            stmia       r3!=>local_1c,{param_1,param_2,r2}      
ram:00019700    1848            ldr         param_1,[DAT_00019764]                  ;= 00001530h
ram:00019702    6946            mov         param_2,sp                              
ram:00019704    0880            strh        param_1,[param_2,#0x0]=>local_20        
ram:00019706    01a8            add         param_1,sp,#0x4                         
ram:00019708    811e            subs        param_2,param_1,#0x2                    
ram:0001970a    63df            svc         0x63                                    
ram:0001970c    0028            cmp         param_1,#0x0                            
ram:0001970e    22d1            bne         LAB_00019756                            
ram:00019710    221d            adds        r2,r4,#0x4                              
ram:00019712    6946            mov         param_2,sp                              
ram:00019714    0120            movs        param_1,#0x1                            
ram:00019716    a0df            svc         0xa0                                    
ram:00019718    0028            cmp         param_1,#0x0                            
ram:0001971a    1cd1            bne         LAB_00019756                            
ram:0001971c    6846            mov         param_1,sp                              
ram:0001971e    8078            ldrb        param_1,[r0,#local_1e+0x20]             
ram:00019720    a071            strb        param_1,[r4,#0x6]                       
ram:00019722    2046            mov         param_1,r4                              
ram:00019724    00f0dcfd        bl          FUN_0001a2e0                            ;undefined2 FUN_0001a2e0(int param_1)
ram:00019728    0028            cmp         param_1,#0x0                            
ram:0001972a    14d1            bne         LAB_00019756                            
ram:0001972c    2046            mov         param_1,r4                              
ram:0001972e    00f093fd        bl          FUN_0001a258                            ;undefined2 FUN_0001a258(int param_1)
ram:00019732    0028            cmp         param_1,#0x0                            
ram:00019734    0fd1            bne         LAB_00019756                            
ram:00019736    2946            mov         param_2,r5                              
ram:00019738    2046            mov         param_1,r4                              
ram:0001973a    00f013fe        bl          FUN_0001a364                            ;undefined8 FUN_0001a364(int param_1)
ram:0001973e    0028            cmp         param_1,#0x0                            
ram:00019740    09d1            bne         LAB_00019756                            
ram:00019742    6868            ldr         param_1,[r5,#0x4]                       
ram:00019744    a062            str         param_1,[r4,#0x28]                      
ram:00019746    a868            ldr         param_1,[r5,#0x8]                       
ram:00019748    0028            cmp         param_1,#0x0                            
ram:0001974a    00d0            beq         LAB_0001974e                            
ram:0001974c    e062            str         param_1,[r4,#0x2c]                      
                            LAB_0001974e:                 ;XREF[1,0]:   0001974a
ram:0001974e    0649            ldr         param_2,[DAT_00019768]                  ;= 200020A4h
ram:00019750    0120            movs        param_1,#0x1                            
ram:00019752    0870            strb        param_1,[param_2,#0x0]=>DAT_200020a4    
ram:00019754    0020            movs        param_1,#0x0                            
                            LAB_00019756:                 ;XREF[6,0]:   0001970e,0001971a,0001972a,00019734
                                                          ;             00019740,0001975c
ram:00019756    05b0            add         sp,#0x14                                
ram:00019758    30bd            pop         {r4,r5,pc}                              
                            LAB_0001975a:                 ;XREF[3,0]:   000196e4,000196e8,000196ee
ram:0001975a    0e20            movs        param_1,#0xe                            
ram:0001975c    fbe7            b           LAB_00019756                            
ram:0001975e    0000            movs        r0,r0                                   
                            PTR_DAT_00019760:             ;XREF[1,0]:   000196f4
ram:00019760    98c50100        addr        DAT_0001c598                            ;= EABCD123h
                            DAT_00019764:                 ;XREF[1,0]:   00019700
ram:00019764    30150000        undefined4  00001530h                               
                            DAT_00019768:                 ;XREF[1,0]:   0001974e
ram:00019768    a4200020        undefined4  200020A4h                               
                            ;************************************************************************************************
                            ;*                                           FUNCTION                                           *
                            ;************************************************************************************************
                            ;undefined FUN_0001976c(ushort * param_1, short * param_2, uint param_3, undefined4 param_4)
          ;param_1       ushort *            r0                      
          ;param_2       short *             r1                      
          ;param_3       uint                r2                      
          ;param_4       undefined4          r3                      
          ;local_10      undefined4         -10                      ;XREF[1,0]:   000197de
          ;local_14      undefined1         -14                      ;XREF[1,0]:   000197da
          ;local_18      undefined1         -18                      ;XREF[1,0]:   000197d6
                                                          ;XREF[1,0]:   00019874
ram:0001976c    3eb5            push        {param_2,param_3,param_4,r4,r5,lr}      
ram:0001976e    0028            cmp         param_1,#0x0                            
ram:00019770    28d0            beq         LAB_000197c4                            
ram:00019772    0029            cmp         param_2,#0x0                            
ram:00019774    26d0            beq         LAB_000197c4                            
ram:00019776    826a            ldr         param_3,[param_1,#0x28]                 
ram:00019778    002a            cmp         param_3,#0x0                            
ram:0001977a    23d0            beq         LAB_000197c4                            
ram:0001977c    0a88            ldrh        param_3,[param_2,#0x0]                  
ram:0001977e    102a            cmp         param_3,#0x10                           
ram:00019780    21d0            beq         LAB_000197c6                            
ram:00019782    112a            cmp         param_3,#0x11                           
ram:00019784    30d0            beq         LAB_000197e8                            
ram:00019786    502a            cmp         param_3,#0x50                           
ram:00019788    1fd0            beq         LAB_000197ca                            
ram:0001978a    512a            cmp         param_3,#0x51                           
ram:0001978c    1ad1            bne         LAB_000197c4                            
ram:0001978e    0a46            mov         param_3,param_2                         
ram:00019790    0446            mov         r4,param_1                              
ram:00019792    891d            adds        param_2,param_2,#0x6                    
ram:00019794    0878            ldrb        param_1,[param_2,#0x0]                  
ram:00019796    0228            cmp         param_1,#0x2                            
ram:00019798    14d1            bne         LAB_000197c4                            
ram:0001979a    4888            ldrh        param_1,[param_2,#0x2]                  
ram:0001979c    238a            ldrh        param_4,[r4,#0x10]                      
ram:0001979e    9842            cmp         param_1,param_4                         
ram:000197a0    10d1            bne         LAB_000197c4                            
ram:000197a2    907a            ldrb        param_1,[param_3,#0xa]                  
ram:000197a4    0428            cmp         param_1,#0x4                            
ram:000197a6    0dd0            beq         LAB_000197c4                            
ram:000197a8    0628            cmp         param_1,#0x6                            
ram:000197aa    0bd0            beq         LAB_000197c4                            
ram:000197ac    0528            cmp         param_1,#0x5                            
ram:000197ae    09d0            beq         LAB_000197c4                            
ram:000197b0    2046            mov         param_1,r4                              
ram:000197b2    891c            adds        param_2,param_2,#0x2                    
ram:000197b4    01f0e4fc        bl          FUN_0001b180                            ;undefined8 FUN_0001b180(ushort * par...
ram:000197b8    0028            cmp         param_1,#0x0                            
ram:000197ba    03d0            beq         LAB_000197c4                            
ram:000197bc    e16a            ldr         param_2,[r4,#0x2c]                      
ram:000197be    0029            cmp         param_2,#0x0                            
ram:000197c0    00d0            beq         LAB_000197c4                            
ram:000197c2    8847            blx         param_2                                 
                            LAB_000197c4:                 ;XREF[12,0]:  00019770,00019774,0001977a,0001978c
                                                          ;             00019798,000197a0,000197a6,000197aa
                                                          ;             000197ae,000197ba,000197c0,000197d0
ram:000197c4    3ebd            pop         {param_2,param_3,param_4,r4,r5,pc}      
                            LAB_000197c6:                 ;XREF[1,0]:   00019780
ram:000197c6    8988            ldrh        param_2,[param_2,#0x4]                  
ram:000197c8    10e0            b           LAB_000197ec                            
                            LAB_000197ca:                 ;XREF[1,0]:   00019788
ram:000197ca    cb88            ldrh        param_4,[param_2,#0x6]                  
ram:000197cc    0289            ldrh        param_3,[param_1,#0x8]                  
ram:000197ce    9342            cmp         param_4,param_3                         
ram:000197d0    f8d1            bne         LAB_000197c4                            
ram:000197d2    0822            movs        param_3,#0x8                            
ram:000197d4    6b46            mov         param_4,sp                              
ram:000197d6    1a70            strb        param_3,[param_4,#0x0]=>local_18        
ram:000197d8    8a7f            ldrb        param_3,[param_2,#0x1e]                 
ram:000197da    1a71            strb        param_3,[r3,#local_14+0x18]             
ram:000197dc    2031            adds        param_2,#0x20                           
ram:000197de    0291            str         param_2,[sp,#local_10+0x18]             
ram:000197e0    826a            ldr         param_3,[param_1,#0x28]                 
ram:000197e2    6946            mov         param_2,sp                              
ram:000197e4    9047            blx         param_3                                 
ram:000197e6    3ebd            pop         {param_2,param_3,param_4,r4,r5,pc}      
                            LAB_000197e8:                 ;XREF[1,0]:   00019784
ram:000197e8    0021            movs        param_2,#0x0                            
ram:000197ea    c943            mvns        param_2,param_2                         
                            LAB_000197ec:                 ;XREF[1,0]:   000197c8
ram:000197ec    0180            strh        param_2,[param_1,#0x0]                  
ram:000197ee    3ebd            pop         {param_2,param_3,param_4,r4,r5,pc}      
                            ;************************************************************************************************
                            ;*                                           FUNCTION                                           *
                            ;************************************************************************************************
                            ;undefined8 FUN_000197f0(ushort * param_1, undefined * param_2, char param_3)
          ;param_1       ushort *            r0                      
          ;param_2       undefined *         r1                      
          ;param_3       char                r2                      
          ;local_10      undefined2         -10                      ;XREF[1,0]:   0001981c
          ;local_14      undefined4         -14                      ;XREF[2,0]:   00019824,00019832
          ;local_18      undefined4         -18                      ;XREF[2,0]:   00019822,00019830
          ;local_1c      undefined4         -1c                      ;XREF[2,0]:   00019820,0001982c
          ;local_20      undefined4         -20                      ;XREF[2,1]:   0001981e,00019828,0001982a
                                                          ;XREF[2,0]:   0001a184,0001b23e
ram:000197f0    30b5            push        {r4,r5,lr}                              
ram:000197f2    85b0            sub         sp,#0x14                                
ram:000197f4    0028            cmp         param_1,#0x0                            
ram:000197f6    22d0            beq         LAB_0001983e                            
ram:000197f8    0388            ldrh        r3,[param_1,#0x0]                       
ram:000197fa    134c            ldr         r4,[DAT_00019848]                       ;= 0000FFFFh
ram:000197fc    a342            cmp         r3,r4                                   
ram:000197fe    20d0            beq         LAB_00019842                            
ram:00019800    124b            ldr         r3,[DAT_0001984c]                       ;= 200020A4h
ram:00019802    1b78            ldrb        r3,[r3,#0x0]=>DAT_200020a4              
ram:00019804    002b            cmp         r3,#0x0                                 
ram:00019806    1cd0            beq         LAB_00019842                            
ram:00019808    104b            ldr         r3,[DAT_0001984c]                       ;= 200020A4h
ram:0001980a    1025            movs        r5,#0x10                                
ram:0001980c    5b1c            adds        r3,r3,#0x1                              
ram:0001980e    1d70            strb        r5,[r3,#0x0]=>DAT_200020a5              
ram:00019810    5970            strb        param_2,[r3,#0x1]=>DAT_200020a6         
ram:00019812    0024            movs        r4,#0x0                                 
ram:00019814    0125            movs        r5,#0x1                                 
ram:00019816    9a70            strb        param_3,[r3,#0x2]=>DAT_200020a7         
ram:00019818    0322            movs        param_3,#0x3                            
ram:0001981a    6946            mov         param_2,sp                              
ram:0001981c    0a82            strh        param_3,[r1,#local_10+0x20]             
ram:0001981e    0094            str         r4,[sp,#0x0]=>local_20                  
ram:00019820    0194            str         r4,[sp,#local_1c+0x20]                  
ram:00019822    0294            str         r4,[sp,#local_18+0x20]                  
ram:00019824    0394            str         r4,[sp,#local_14+0x20]                  
ram:00019826    028a            ldrh        param_3,[param_1,#0x10]                 
ram:00019828    0a80            strh        param_3,[param_2,#0x0]=>local_20        
ram:0001982a    8d70            strb        r5,[r1,#local_20+0x22]                  
ram:0001982c    8c80            strh        r4,[r1,#local_1c+0x20]                  
ram:0001982e    04a9            add         param_2,sp,#0x10                        
ram:00019830    0291            str         param_2,[sp,#local_18+0x20]             
ram:00019832    0393            str         r3=>DAT_200020a5,[sp,#local_14+0x20]    
ram:00019834    0088            ldrh        param_1,[param_1,#0x0]                  
ram:00019836    6946            mov         param_2,sp                              
ram:00019838    a6df            svc         0xa6                                    
                            LAB_0001983a:                 ;XREF[2,0]:   00019840,00019844
ram:0001983a    05b0            add         sp,#0x14                                
ram:0001983c    30bd            pop         {r4,r5,pc}                              
                            LAB_0001983e:                 ;XREF[1,0]:   000197f6
ram:0001983e    0e20            movs        param_1,#0xe                            
ram:00019840    fbe7            b           LAB_0001983a                            
                            LAB_00019842:                 ;XREF[2,0]:   000197fe,00019806
ram:00019842    0820            movs        param_1,#0x8                            
ram:00019844    f9e7            b           LAB_0001983a                            
ram:00019846    0000            movs        r0,r0                                   
                            DAT_00019848:                 ;XREF[1,0]:   000197fa
ram:00019848    ffff0000        undefined4  0000FFFFh                               
                            DAT_0001984c:                 ;XREF[2,0]:   00019800,00019808
ram:0001984c    a4200020        undefined4  200020A4h                               
                            ;************************************************************************************************
                            ;*                                           FUNCTION                                           *
                            ;************************************************************************************************
                            ;undefined FUN_00019850(ushort * param_1, undefined4 param_2, uint param_3, uint param_4)
          ;param_1       ushort *            r0                      
          ;param_2       undefined4          r1                      
          ;param_3       uint                r2                      
          ;param_4       uint                r3                      
                                                          ;XREF[0,2]:   000199aa,000199d4
ram:00019850    10b5            push        {r4,lr}                                 
ram:00019852    0446            mov         r4,param_1                              
ram:00019854    01f026fc        bl          FUN_0001b0a4                            ;undefined FUN_0001b0a4(ushort * para...
ram:00019858    2046            mov         param_1,r4                              
ram:0001985a    fff7effe        bl          FUN_0001963c                            ;undefined FUN_0001963c(ushort * para...
ram:0001985e    2146            mov         param_2,r4                              
ram:00019860    0648            ldr         param_1,[DAT_0001987c]                  ;= 20002604h
ram:00019862    00f04ff8        bl          FUN_00019904                            ;undefined FUN_00019904(int param_1, ...
ram:00019866    0648            ldr         param_1,[DAT_00019880]                  ;= 20002000h
ram:00019868    0079            ldrb        param_1,[param_1,#offset DAT_20002004...
ram:0001986a    01f0affb        bl          FUN_0001afcc                            ;undefined FUN_0001afcc(int param_1)
ram:0001986e    0348            ldr         param_1,[DAT_0001987c]                  ;= 20002604h
ram:00019870    2146            mov         param_2,r4                              
ram:00019872    4430            adds        param_1,#0x44                           
ram:00019874    fff77aff        bl          FUN_0001976c                            ;undefined FUN_0001976c(ushort * para...
ram:00019878    10bd            pop         {r4,pc}                                 
ram:0001987a    0000            movs        r0,r0                                   
                            DAT_0001987c:                 ;XREF[2,0]:   00019860,0001986e
ram:0001987c    04260020        undefined4  20002604h                               
                            DAT_00019880:                 ;XREF[1,0]:   00019866
ram:00019880    00200020        undefined4  20002000h                               
                            ;************************************************************************************************
                            ;*                                           FUNCTION                                           *
                            ;************************************************************************************************
                            ;undefined8 FUN_00019884(ushort * param_1, undefined4 * param_2)
          ;param_1       ushort *            r0                      
          ;param_2       undefined4 *        r1                      
          ;local_e       undefined1          -e                      ;XREF[1,0]:   000198ba
          ;local_10      undefined2         -10                      ;XREF[1,0]:   000198be
          ;local_14      undefined4         -14                      ;XREF[1,0]:   000198a2
          ;local_20      undefined4         -20                      ;XREF[1,0]:   000198a6
                                                          ;XREF[1,0]:   0001ba84
ram:00019884    30b5            push        {r4,r5,lr}                              
ram:00019886    0446            mov         r4,param_1                              
ram:00019888    0020            movs        param_1,#0x0                            
ram:0001988a    85b0            sub         sp,#0x14                                
ram:0001988c    c043            mvns        param_1,param_1                         
ram:0001988e    a086            strh        param_1,[r4,#0x34]                      
ram:00019890    0868            ldr         param_1,[param_2,#0x0]                  
ram:00019892    a063            str         param_1,[r4,#0x38]                      
ram:00019894    4868            ldr         param_1,[param_2,#0x4]                  
ram:00019896    e063            str         param_1,[r4,#0x3c]                      
ram:00019898    8868            ldr         param_1,[param_2,#0x8]                  
ram:0001989a    184b            ldr         r3,[PTR_DAT_000198fc]                   ;= 0001c57c
ram:0001989c    0d46            mov         r5,param_2                              
ram:0001989e    2064            str         param_1,[r4,#0x40]                      
                                                          ; FWD[4,0]:   0001c57c,0001c580,0001c584,0001c588
ram:000198a0    0fcb            ldmia       r3,{param_1,param_2,r2,r3}=>DAT_0001c57c;= EABCD123h
                                                                                    ;= 1523785Fh
                                                                                    ;= 1212EFDEh
ram:000198a2    0393            str         r3,[sp,#local_14+0x20]                  
ram:000198a4    6b46            mov         r3,sp                                   
ram:000198a6    07c3            stmia       r3!=>local_20,{param_1,param_2,r2}      
ram:000198a8    2146            mov         param_2,r4                              
ram:000198aa    3231            adds        param_2,#0x32                           
ram:000198ac    6846            mov         param_1,sp                              
ram:000198ae    63df            svc         0x63                                    
ram:000198b0    0028            cmp         param_1,#0x0                            
ram:000198b2    21d1            bne         LAB_000198f8                            
ram:000198b4    3220            movs        param_1,#0x32                           
ram:000198b6    015d            ldrb        param_2,[param_1,r4]                    
ram:000198b8    6846            mov         param_1,sp                              
ram:000198ba    8174            strb        param_2,[r0,#local_e+0x20]              
ram:000198bc    1049            ldr         param_2,[DAT_00019900]                  ;= 00001523h
ram:000198be    0182            strh        param_2,[r0,#local_10+0x20]             
ram:000198c0    2246            mov         r2,r4                                   
ram:000198c2    04a9            add         param_2,sp,#0x10                        
ram:000198c4    0120            movs        param_1,#0x1                            
ram:000198c6    a0df            svc         0xa0                                    
ram:000198c8    0028            cmp         param_1,#0x0                            
ram:000198ca    15d1            bne         LAB_000198f8                            
ram:000198cc    2946            mov         param_2,r5                              
ram:000198ce    2046            mov         param_1,r4                              
ram:000198d0    02f01cfa        bl          FUN_0001bd0c                            ;undefined8 FUN_0001bd0c(ushort * par...
ram:000198d4    0028            cmp         param_1,#0x0                            
ram:000198d6    0fd1            bne         LAB_000198f8                            
ram:000198d8    2946            mov         param_2,r5                              
ram:000198da    2046            mov         param_1,r4                              
ram:000198dc    00f020ff        bl          FUN_0001a720                            ;undefined8 FUN_0001a720(ushort * par...
ram:000198e0    0028            cmp         param_1,#0x0                            
ram:000198e2    09d1            bne         LAB_000198f8                            
ram:000198e4    2946            mov         param_2,r5                              
ram:000198e6    2046            mov         param_1,r4                              
ram:000198e8    02f008fb        bl          FUN_0001befc                            ;undefined8 FUN_0001befc(ushort * par...
ram:000198ec    0028            cmp         param_1,#0x0                            
ram:000198ee    03d1            bne         LAB_000198f8                            
ram:000198f0    2946            mov         param_2,r5                              
ram:000198f2    2046            mov         param_1,r4                              
ram:000198f4    fff7e8fc        bl          FUN_000192c8                            ;undefined8 FUN_000192c8(ushort * par...
                            LAB_000198f8:                 ;XREF[5,0]:   000198b2,000198ca,000198d6,000198e2
                                                          ;             000198ee
ram:000198f8    05b0            add         sp,#0x14                                
ram:000198fa    30bd            pop         {r4,r5,pc}                              
                            PTR_DAT_000198fc:             ;XREF[1,0]:   0001989a
ram:000198fc    7cc50100        addr        DAT_0001c57c                            ;= EABCD123h
                            DAT_00019900:                 ;XREF[1,0]:   000198bc
ram:00019900    23150000        undefined4  00001523h                               
                            ;************************************************************************************************
                            ;*                                           FUNCTION                                           *
                            ;************************************************************************************************
                            ;undefined FUN_00019904(int param_1, short * param_2)
          ;param_1       int                 r0                      
          ;param_2       short *             r1                      
                                                          ;XREF[1,0]:   00019862
ram:00019904    30b4            push        {r4,r5}                                 
ram:00019906    0a88            ldrh        r2,[param_2,#0x0]                       
ram:00019908    102a            cmp         r2,#0x10                                
ram:0001990a    11d0            beq         LAB_00019930                            
ram:0001990c    112a            cmp         r2,#0x11                                
ram:0001990e    11d0            beq         LAB_00019934                            
ram:00019910    502a            cmp         r2,#0x50                                
ram:00019912    12d1            bne         LAB_0001993a                            
ram:00019914    cc88            ldrh        r4,[param_2,#0x6]                       
ram:00019916    458a            ldrh        r5,[param_1,#0x12]                      
ram:00019918    0a46            mov         r2,param_2                              
ram:0001991a    8b1d            adds        r3,param_2,#0x6                         
ram:0001991c    2032            adds        r2,#0x20                                
ram:0001991e    ac42            cmp         r4,r5                                   
ram:00019920    0dd1            bne         LAB_0001993e                            
ram:00019922    198b            ldrh        param_2,[r3,#0x18]                      
ram:00019924    0529            cmp         param_2,#0x5                            
ram:00019926    0ad3            bcc         LAB_0001993e                            
ram:00019928    856b            ldr         r5,[param_1,#0x38]                      
ram:0001992a    002d            cmp         r5,#0x0                                 
ram:0001992c    10d1            bne         LAB_00019950                            
ram:0001992e    06e0            b           LAB_0001993e                            
                            LAB_00019930:                 ;XREF[1,0]:   0001990a
ram:00019930    8988            ldrh        param_2,[param_2,#0x4]                  
ram:00019932    01e0            b           LAB_00019938                            
                            LAB_00019934:                 ;XREF[1,0]:   0001990e
ram:00019934    0021            movs        param_2,#0x0                            
ram:00019936    c943            mvns        param_2,param_2                         
                            LAB_00019938:                 ;XREF[1,0]:   00019932
ram:00019938    8186            strh        param_2,[param_1,#0x34]                 
                            LAB_0001993a:                 ;XREF[4,0]:   00019912,0001995e,00019964,0001996a
ram:0001993a    30bc            pop         {r4,r5}                                 
ram:0001993c    7047            bx          lr                                      
                            LAB_0001993e:                 ;XREF[3,0]:   00019920,00019926,0001992e
ram:0001993e    418c            ldrh        param_2,[param_1,#0x22]                 
ram:00019940    8c42            cmp         r4,param_2                              
ram:00019942    0ad1            bne         LAB_0001995a                            
ram:00019944    198b            ldrh        param_2,[r3,#0x18]                      
ram:00019946    0529            cmp         param_2,#0x5                            
ram:00019948    07d3            bcc         LAB_0001995a                            
ram:0001994a    c56b            ldr         r5,[param_1,#0x3c]                      
ram:0001994c    002d            cmp         r5,#0x0                                 
ram:0001994e    04d0            beq         LAB_0001995a                            
                            LAB_00019950:                 ;XREF[1,0]:   0001992c
ram:00019950    ac46            mov         r12,r5                                  
ram:00019952    30bc            pop         {r4,r5}                                 
ram:00019954    c9b2            uxtb        param_2,param_2                         
ram:00019956    1046            mov         param_1,r2                              
ram:00019958    6047            bx          r12                                     
                            LAB_0001995a:                 ;XREF[3,0]:   00019942,00019948,0001994e
ram:0001995a    418d            ldrh        param_2,[param_1,#0x2a]                 
ram:0001995c    8c42            cmp         r4,param_2                              
ram:0001995e    ecd1            bne         LAB_0001993a                            
ram:00019960    198b            ldrh        param_2,[r3,#0x18]                      
ram:00019962    0529            cmp         param_2,#0x5                            
ram:00019964    e9d3            bcc         LAB_0001993a                            
ram:00019966    036c            ldr         r3,[param_1,#0x40]                      
ram:00019968    002b            cmp         r3,#0x0                                 
ram:0001996a    e6d0            beq         LAB_0001993a                            
ram:0001996c    30bc            pop         {r4,r5}                                 
ram:0001996e    c9b2            uxtb        param_2,param_2                         
ram:00019970    1046            mov         param_1,r2                              
ram:00019972    1847            bx          r3                                      
                            ;************************************************************************************************
                            ;*                                           FUNCTION                                           *
                            ;************************************************************************************************
                            ;undefined FUN_00019974(void)
          ;local_c       undefined4          -c                      ;XREF[1,0]:   00019992
          ;local_10      undefined4         -10                      ;XREF[2,0]:   00019990,00019998
                                                          ;XREF[1,0]:   0001aadc
ram:00019974    1cb5            push        {r2,r3,r4,lr}                           
ram:00019976    0023            movs        r3,#0x0                                 
ram:00019978    4822            movs        r2,#0x48                                
ram:0001997a    1549            ldr         r1,[DAT_000199d0]                       ;= 200024D0h
ram:0001997c    1320            movs        r0,#0x13                                
ram:0001997e    02f00df9        bl          FUN_0001bb9c                            ;undefined8 FUN_0001bb9c(int param_1,...
ram:00019982    0028            cmp         r0,#0x0                                 
ram:00019984    03d0            beq         LAB_0001998e                            
ram:00019986    0022            movs        r2,#0x0                                 
ram:00019988    1146            mov         r1,r2                                   
ram:0001998a    fff77df9        bl          FUN_00018c88                            ;undefined FUN_00018c88(void)
                            LAB_0001998e:                 ;XREF[1,0]:   00019984
ram:0001998e    0020            movs        r0,#0x0                                 
ram:00019990    0090            str         r0,[sp,#0x0]=>local_10                  
ram:00019992    0190            str         r0,[sp,#local_c+0x10]                   
ram:00019994    0120            movs        r0,#0x1                                 
ram:00019996    6946            mov         r1,sp                                   
ram:00019998    0870            strb        r0,[r1,#0x0]=>local_10                  
ram:0001999a    6846            mov         r0,sp                                   
ram:0001999c    60df            svc         0x60                                    
ram:0001999e    0028            cmp         r0,#0x0                                 
ram:000199a0    03d0            beq         LAB_000199aa                            
ram:000199a2    0022            movs        r2,#0x0                                 
ram:000199a4    1146            mov         r1,r2                                   
ram:000199a6    fff76ff9        bl          FUN_00018c88                            ;undefined FUN_00018c88(void)
                            LAB_000199aa:                 ;XREF[1,0]:   000199a0
ram:000199aa    0a48            ldr         r0=>FUN_00019850+1,[PTR_FUN_00019850+...;= 00019851
ram:000199ac    02f0ecf8        bl          FUN_0001bb88                            ;undefined4 FUN_0001bb88(int param_1)
ram:000199b0    0028            cmp         r0,#0x0                                 
ram:000199b2    03d0            beq         LAB_000199bc                            
ram:000199b4    0022            movs        r2,#0x0                                 
ram:000199b6    1146            mov         r1,r2                                   
ram:000199b8    fff766f9        bl          FUN_00018c88                            ;undefined FUN_00018c88(void)
                            LAB_000199bc:                 ;XREF[1,0]:   000199b2
ram:000199bc    0648            ldr         r0=>LAB_0001bef4...,[PTR_LAB_0001bef4...;= 0001bef5
ram:000199be    02f005f9        bl          FUN_0001bbcc                            ;undefined4 FUN_0001bbcc(int param_1)
ram:000199c2    0028            cmp         r0,#0x0                                 
ram:000199c4    03d0            beq         LAB_000199ce                            
ram:000199c6    0022            movs        r2,#0x0                                 
ram:000199c8    1146            mov         r1,r2                                   
ram:000199ca    fff75df9        bl          FUN_00018c88                            ;undefined FUN_00018c88(void)
                            LAB_000199ce:                 ;XREF[1,0]:   000199c4
ram:000199ce    1cbd            pop         {r2,r3,r4,pc}                           
                            DAT_000199d0:                 ;XREF[1,0]:   0001997a
ram:000199d0    d0240020        undefined4  200024D0h                               
                            PTR_FUN_00019850+1_000199d4:  ;XREF[1,0]:   000199aa
ram:000199d4    51980100        addr        FUN_00019850+1                          
                            PTR_LAB_0001bef4+1+1_000199d8:;XREF[1,0]:   000199bc
ram:000199d8    f5be0100        addr        LAB_0001bef4+1+1                        
                            ;************************************************************************************************
                            ;*                                           FUNCTION                                           *
                            ;************************************************************************************************
                            ;undefined FUN_000199dc(uint param_1, undefined4 param_2, undefined4 param_3, undefined4 param_4)
          ;param_1       uint                r0                      
          ;param_2       undefined4          r1                      
          ;param_3       undefined4          r2                      
          ;param_4       undefined4          r3                      
          ;local_18      undefined2         -18                      ;XREF[1,0]:   000199e4
                                                          ;XREF[1,0]:   0001a198
ram:000199dc    f8b5            push        {param_4,r4,r5,r6,r7,lr}                
ram:000199de    0546            mov         r5,param_1                              
ram:000199e0    0820            movs        param_1,#0x8                            
ram:000199e2    6946            mov         param_2,sp                              
ram:000199e4    0880            strh        param_1,[param_2,#0x0]=>local_18        
ram:000199e6    0123            movs        param_4,#0x1                            
ram:000199e8    6a46            mov         param_3,sp                              
ram:000199ea    1d49            ldr         param_2,[DAT_00019a60]                  ;= 20002918h
ram:000199ec    2846            mov         param_1,r5                              
ram:000199ee    aadf            svc         0xaa                                    
ram:000199f0    1c48            ldr         param_1,[DAT_00019a64]                  ;= 20002138h
ram:000199f2    0068            ldr         param_1,[param_1,#0x0]=>DAT_20002138    
ram:000199f4    8047            blx         param_1                                 
ram:000199f6    b120            movs        param_1,#0xb1                           
ram:000199f8    44df            svc         0x44                                    
ram:000199fa    0028            cmp         param_1,#0x0                            
ram:000199fc    03d0            beq         LAB_00019a06                            
ram:000199fe    0022            movs        param_3,#0x0                            
ram:00019a00    1146            mov         param_2,param_3                         
ram:00019a02    fff741f9        bl          FUN_00018c88                            ;undefined FUN_00018c88(void)
                            LAB_00019a06:                 ;XREF[1,0]:   000199fc
ram:00019a06    11df            svc         0x11                                    
ram:00019a08    0028            cmp         param_1,#0x0                            
ram:00019a0a    03d0            beq         LAB_00019a14                            
ram:00019a0c    0022            movs        param_3,#0x0                            
ram:00019a0e    1146            mov         param_2,param_3                         
ram:00019a10    fff73af9        bl          FUN_00018c88                            ;undefined FUN_00018c88(void)
                            LAB_00019a14:                 ;XREF[1,0]:   00019a0a
ram:00019a14    144c            ldr         r4,[DAT_00019a68]                       ;= 10001000h
ram:00019a16    6069            ldr         param_1,[r4,#offset DAT_10001014 &0xff] 
ram:00019a18    13df            svc         0x13                                    
ram:00019a1a    0028            cmp         param_1,#0x0                            
ram:00019a1c    03d0            beq         LAB_00019a26                            
ram:00019a1e    0022            movs        param_3,#0x0                            
ram:00019a20    1146            mov         param_2,param_3                         
ram:00019a22    fff731f9        bl          FUN_00018c88                            ;undefined FUN_00018c88(void)
                            LAB_00019a26:                 ;XREF[1,0]:   00019a1c
ram:00019a26    2846            mov         param_1,r5                              
ram:00019a28    00f0bafb        bl          FUN_0001a1a0                            ;undefined FUN_0001a1a0(uint param_1)
ram:00019a2c    0121            movs        param_2,#0x1                            
ram:00019a2e    0f4a            ldr         param_3,[DAT_00019a6c]                  ;= E000E280h
ram:00019a30    8805            lsls        param_1,param_2,#0x16                   
ram:00019a32    1060            str         param_1,[param_3,#0x0]=>DAT_e000e280    
ram:00019a34    0e48            ldr         param_1,[DAT_00019a70]                  ;= E000E100h
ram:00019a36    0268            ldr         param_3,[param_1,#0x0]=>DAT_e000e100    
ram:00019a38    0d4b            ldr         param_4,[DAT_00019a70]                  ;= E000E100h
ram:00019a3a    0020            movs        param_1,#0x0                            
ram:00019a3c    8033            adds        param_4=>DAT_e000e180,#0x80             
                            LAB_00019a3e:                 ;XREF[1,0]:   00019a54
ram:00019a3e    0d46            mov         r5,param_2                              
ram:00019a40    8540            lsls        r5,param_1                              
ram:00019a42    1542            tst         r5,param_3                              
ram:00019a44    04d0            beq         LAB_00019a50                            
ram:00019a46    c606            lsls        r6,param_1,#0x1b                        
ram:00019a48    f60e            lsrs        r6,r6,#0x1b                             
ram:00019a4a    0d46            mov         r5,param_2                              
ram:00019a4c    b540            lsls        r5,r6                                   
ram:00019a4e    1d60            str         r5,[param_4,#0x0]=>DAT_e000e180         
                            LAB_00019a50:                 ;XREF[1,0]:   00019a44
ram:00019a50    401c            adds        param_1,param_1,#0x1                    
ram:00019a52    2028            cmp         param_1,#0x20                           
ram:00019a54    f3d3            bcc         LAB_00019a3e                            
ram:00019a56    6069            ldr         param_1,[r4,#offset DAT_10001014 &0xff] 
ram:00019a58    00f00cf8        bl          FUN_00019a74                            ;undefined FUN_00019a74(undefined4 * ...
ram:00019a5c    f8bd            pop         {param_4,r4,r5,r6,r7,pc}                
ram:00019a5e    0000            movs        r0,r0                                   
                            DAT_00019a60:                 ;XREF[1,0]:   000199ea
ram:00019a60    18290020        undefined4  20002918h                               
                            DAT_00019a64:                 ;XREF[1,0]:   000199f0
ram:00019a64    38210020        undefined4  20002138h                               
                            DAT_00019a68:                 ;XREF[1,0]:   00019a14
ram:00019a68    00100010        undefined4  10001000h                               
                            DAT_00019a6c:                 ;XREF[1,0]:   00019a2e
ram:00019a6c    80e200e0        undefined4  E000E280h                               
                            DAT_00019a70:                 ;XREF[2,0]:   00019a34,00019a38
ram:00019a70    00e100e0        undefined4  E000E100h                               
                            ;************************************************************************************************
                            ;*                                           FUNCTION                                           *
                            ;************************************************************************************************
                            ;undefined FUN_00019a74(undefined4 * param_1)
          ;param_1       undefined4 *        r0                      
                                                          ;XREF[1,0]:   00019a58
ram:00019a74    10b5            push        {r4,lr}                                 
ram:00019a76    fef74dfb        bl          FUN_00018114                            ;undefined FUN_00018114(undefined4 * ...
ram:00019a7a    10bd            pop         {r4,pc}                                 
                            ;************************************************************************************************
                            ;*                                           FUNCTION                                           *
                            ;************************************************************************************************
                            ;undefined FUN_00019a7c(int param_1, int param_2, undefined4 param_3, uint param_4)
          ;param_1       int                 r0                      
          ;param_2       int                 r1                      
          ;param_3       undefined4          r2                      
          ;param_4       uint                r3                      
ram:00019a7c    70b5            push        {r4,r5,r6,lr}                           
ram:00019a7e    0025            movs        r5,#0x0                                 
ram:00019a80    134c            ldr         r4,[DAT_00019ad0]                       ;= 20002000h
ram:00019a82    0129            cmp         param_2,#0x1                            
ram:00019a84    0fd0            beq         LAB_00019aa6                            
ram:00019a86    0b28            cmp         param_1,#0xb                            
ram:00019a88    0cd1            bne         LAB_00019aa4                            
ram:00019a8a    e078            ldrb        param_1,[r4,#offset DAT_20002003 &0xff] 
ram:00019a8c    0328            cmp         param_1,#0x3                            
ram:00019a8e    09d2            bcs         LAB_00019aa4                            
ram:00019a90    e570            strb        r5,[r4,#offset DAT_20002003 &0xff]      
ram:00019a92    6069            ldr         param_1,[r4,#offset DAT_20002014 &0xff] 
ram:00019a94    fff7ecfb        bl          FUN_00019270                            ;undefined4 FUN_00019270(uint param_1...
                            LAB_00019a98:                 ;XREF[1,0]:   00019ace
ram:00019a98    0028            cmp         param_1,#0x0                            
ram:00019a9a    03d0            beq         LAB_00019aa4                            
ram:00019a9c    0022            movs        param_3,#0x0                            
ram:00019a9e    1146            mov         param_2,param_3                         
ram:00019aa0    fff7f2f8        bl          FUN_00018c88                            ;undefined FUN_00018c88(void)
                            LAB_00019aa4:                 ;XREF[4,0]:   00019a88,00019a8e,00019a9a,00019aa8
ram:00019aa4    70bd            pop         {r4,r5,r6,pc}                           
                            LAB_00019aa6:                 ;XREF[1,0]:   00019a84
ram:00019aa6    0b28            cmp         param_1,#0xb                            
ram:00019aa8    fcd1            bne         LAB_00019aa4                            
ram:00019aaa    0a48            ldr         param_1=>DAT_20002698,[DAT_00019ad4]    ;= 20002698h
ram:00019aac    8168            ldr         param_2,[param_1,#0x8]=>DAT_200026a0    
ram:00019aae    c907            lsls        param_2,param_2,#0x1f                   
ram:00019ab0    04d0            beq         LAB_00019abc                            
ram:00019ab2    8168            ldr         param_2,[param_1,#0x8]=>DAT_200026a0    
ram:00019ab4    0222            movs        param_3,#0x2                            
ram:00019ab6    1143            orrs        param_2,param_3                         
ram:00019ab8    8160            str         param_2,[param_1,#0x8]=>DAT_200026a0    
ram:00019aba    70bd            pop         {r4,r5,r6,pc}                           
                            LAB_00019abc:                 ;XREF[1,0]:   00019ab0
ram:00019abc    0220            movs        param_1,#0x2                            
ram:00019abe    02f00df8        bl          FUN_0001badc                            ;undefined4 FUN_0001badc(int param_1)
ram:00019ac2    e570            strb        r5,[r4,#offset DAT_20002003 &0xff]      
ram:00019ac4    0022            movs        param_3,#0x0                            
ram:00019ac6    0449            ldr         param_2,[DAT_00019ad8]                  ;= 00000E39h
ram:00019ac8    6069            ldr         param_1,[r4,#offset DAT_20002014 &0xff] 
ram:00019aca    fff78ffb        bl          FUN_000191ec                            ;longlong FUN_000191ec(uint param_1, ...
ram:00019ace    e3e7            b           LAB_00019a98                            
                            DAT_00019ad0:                 ;XREF[1,0]:   00019a80
ram:00019ad0    00200020        undefined4  20002000h                               
                            DAT_00019ad4:                 ;XREF[1,0]:   00019aaa
ram:00019ad4    98260020        undefined4  20002698h                               
                            DAT_00019ad8:                 ;XREF[1,0]:   00019ac6
ram:00019ad8    390e0000        undefined4  00000E39h                               
                            ;************************************************************************************************
                            ;*                                           FUNCTION                                           *
                            ;************************************************************************************************
                            ;undefined FUN_00019adc(undefined * param_1, int param_2)
          ;param_1       undefined *         r0                      
          ;param_2       int                 r1                      
                                                          ;XREF[1,0]:   0001a14e
ram:00019adc    0129            cmp         param_2,#0x1                            
ram:00019ade    05d0            beq         LAB_00019aec                            
ram:00019ae0    0029            cmp         param_2,#0x0                            
ram:00019ae2    08d1            bne         LAB_00019af6                            
ram:00019ae4    0278            ldrb        r2,[param_1,#0x0]                       
ram:00019ae6    4368            ldr         r3,[param_1,#0x4]                       
ram:00019ae8    1046            mov         param_1,r2                              
ram:00019aea    1847            bx          r3                                      
                            LAB_00019aec:                 ;XREF[1,0]:   00019ade
ram:00019aec    0378            ldrb        r3,[param_1,#0x0]                       
ram:00019aee    4268            ldr         r2,[param_1,#0x4]                       
ram:00019af0    0121            movs        param_2,#0x1                            
ram:00019af2    1846            mov         param_1,r3                              
ram:00019af4    1047            bx          r2                                      
                            LAB_00019af6:                 ;XREF[1,0]:   00019ae2
ram:00019af6    7047            bx          lr                                      
                            ;************************************************************************************************
                            ;*                                           FUNCTION                                           *
                            ;************************************************************************************************
                            ;undefined4 FUN_00019af8(void)
                                                          ;XREF[1,0]:   00019f26
ram:00019af8    70b5            push        {r4,r5,r6,lr}                           
ram:00019afa    0420            movs        r0,#0x4                                 
ram:00019afc    01f0bcfa        bl          FUN_0001b078                            ;uint FUN_0001b078(uint param_1)
ram:00019b00    c4b2            uxtb        r4,r0                                   
ram:00019b02    0520            movs        r0,#0x5                                 
ram:00019b04    01f0b8fa        bl          FUN_0001b078                            ;uint FUN_0001b078(uint param_1)
ram:00019b08    c2b2            uxtb        r2,r0                                   
ram:00019b0a    2248            ldr         r0,[DAT_00019b94]                       ;= 20002020h
ram:00019b0c    0168            ldr         r1,[r0,#0x0]=>DAT_20002020              
ram:00019b0e    0b07            lsls        r3,r1,#0x1c                             
ram:00019b10    0421            movs        r1,#0x4                                 
ram:00019b12    002b            cmp         r3,#0x0                                 
ram:00019b14    01db            blt         LAB_00019b1a                            
ram:00019b16    012c            cmp         r4,#0x1                                 
ram:00019b18    15d0            beq         LAB_00019b46                            
                            LAB_00019b1a:                 ;XREF[1,0]:   00019b14
ram:00019b1a    0368            ldr         r3,[r0,#0x0]=>DAT_20002020              
ram:00019b1c    dd06            lsls        r5,r3,#0x1b                             
ram:00019b1e    1e4b            ldr         r3,[DAT_00019b98]                       ;= 00030000h
ram:00019b20    01d4            bmi         LAB_00019b26                            
ram:00019b22    012a            cmp         r2,#0x1                                 
ram:00019b24    16d0            beq         LAB_00019b54                            
                            LAB_00019b26:                 ;XREF[1,0]:   00019b20
ram:00019b26    0568            ldr         r5,[r0,#0x0]=>DAT_20002020              
ram:00019b28    ed04            lsls        r5,r5,#0x13                             
ram:00019b2a    2d0e            lsrs        r5,r5,#0x18                             
ram:00019b2c    962d            cmp         r5,#0x96                                
ram:00019b2e    2fd3            bcc         LAB_00019b90                            
ram:00019b30    0568            ldr         r5,[r0,#0x0]=>DAT_20002020              
ram:00019b32    2d07            lsls        r5,r5,#0x1c                             
ram:00019b34    01d5            bpl         LAB_00019b3a                            
ram:00019b36    012c            cmp         r4,#0x1                                 
ram:00019b38    09d0            beq         LAB_00019b4e                            
                            LAB_00019b3a:                 ;XREF[1,0]:   00019b34
ram:00019b3a    0468            ldr         r4,[r0,#0x0]=>DAT_20002020              
ram:00019b3c    e406            lsls        r4,r4,#0x1b                             
ram:00019b3e    18d5            bpl         LAB_00019b72                            
ram:00019b40    012a            cmp         r2,#0x1                                 
ram:00019b42    18d0            beq         LAB_00019b76                            
ram:00019b44    15e0            b           LAB_00019b72                            
                            LAB_00019b46:                 ;XREF[1,0]:   00019b18
ram:00019b46    0268            ldr         r2,[r0,#0x0]=>DAT_20002020              
ram:00019b48    0823            movs        r3,#0x8                                 
ram:00019b4a    1a43            orrs        r2,r3                                   
ram:00019b4c    0260            str         r2,[r0,#0x0]=>DAT_20002020              
                            LAB_00019b4e:                 ;XREF[1,0]:   00019b38
ram:00019b4e    0268            ldr         r2,[r0,#0x0]=>DAT_20002020              
ram:00019b50    0a43            orrs        r2,r1                                   
ram:00019b52    0de0            b           LAB_00019b70                            
                            LAB_00019b54:                 ;XREF[1,0]:   00019b24
ram:00019b54    0268            ldr         r2,[r0,#0x0]=>DAT_20002020              
ram:00019b56    0468            ldr         r4,[r0,#0x0]=>DAT_20002020              
ram:00019b58    9203            lsls        r2,r2,#0xe                              
ram:00019b5a    920f            lsrs        r2,r2,#0x1e                             
ram:00019b5c    d243            mvns        r2,r2                                   
ram:00019b5e    9207            lsls        r2,r2,#0x1e                             
ram:00019b60    920b            lsrs        r2,r2,#0xe                              
ram:00019b62    9c43            bics        r4,r3                                   
ram:00019b64    1443            orrs        r4,r2                                   
ram:00019b66    0460            str         r4,[r0,#0x0]=>DAT_20002020              
ram:00019b68    0268            ldr         r2,[r0,#0x0]=>DAT_20002020              
ram:00019b6a    1023            movs        r3,#0x10                                
ram:00019b6c    1a43            orrs        r2,r3                                   
ram:00019b6e    0be0            b           LAB_00019b88                            
                            LAB_00019b70:                 ;XREF[2,0]:   00019b52,00019b8e
ram:00019b70    0260            str         r2,[r0,#0x0]=>DAT_20002020              
                            LAB_00019b72:                 ;XREF[2,0]:   00019b3e,00019b44
ram:00019b72    0120            movs        r0,#0x1                                 
ram:00019b74    70bd            pop         {r4,r5,r6,pc}                           
                            LAB_00019b76:                 ;XREF[1,0]:   00019b42
ram:00019b76    0268            ldr         r2,[r0,#0x0]=>DAT_20002020              
ram:00019b78    9203            lsls        r2,r2,#0xe                              
ram:00019b7a    920f            lsrs        r2,r2,#0x1e                             
ram:00019b7c    d243            mvns        r2,r2                                   
ram:00019b7e    9207            lsls        r2,r2,#0x1e                             
ram:00019b80    940b            lsrs        r4,r2,#0xe                              
ram:00019b82    0268            ldr         r2,[r0,#0x0]=>DAT_20002020              
ram:00019b84    9a43            bics        r2,r3                                   
ram:00019b86    2243            orrs        r2,r4                                   
                            LAB_00019b88:                 ;XREF[1,0]:   00019b6e
ram:00019b88    0260            str         r2,[r0,#0x0]=>DAT_20002020              
ram:00019b8a    0268            ldr         r2,[r0,#0x0]=>DAT_20002020              
ram:00019b8c    8a43            bics        r2,r1                                   
ram:00019b8e    efe7            b           LAB_00019b70                            
                            LAB_00019b90:                 ;XREF[1,0]:   00019b2e
ram:00019b90    0020            movs        r0,#0x0                                 
ram:00019b92    70bd            pop         {r4,r5,r6,pc}                           
                            DAT_00019b94:                 ;XREF[1,0]:   00019b0a
ram:00019b94    20200020        undefined4  20002020h                               
                            DAT_00019b98:                 ;XREF[1,0]:   00019b1e
ram:00019b98    00000300        undefined4  00030000h                               
                            ;************************************************************************************************
                            ;*                                           FUNCTION                                           *
                            ;************************************************************************************************
                            ;undefined4 FUN_00019b9c(int param_1, byte * param_2, int param_3)
          ;param_1       int                 r0                      
          ;param_2       byte *              r1                      
          ;param_3       int                 r2                      
ram:00019b9c    10b5            push        {r4,lr}                                 
ram:00019b9e    0346            mov         r3,param_1                              
ram:00019ba0    012a            cmp         param_3,#0x1                            
ram:00019ba2    16d1            bne         LAB_00019bd2                            
ram:00019ba4    0978            ldrb        param_2,[param_2,#0x0]                  
ram:00019ba6    0846            mov         param_1,param_2                         
ram:00019ba8    02f0d3fc        bl          FUN_0001c552                            ;undefined4 FUN_0001c552(uint param_1)
ram:00019bac    0028            cmp         param_1,#0x0                            
ram:00019bae    10d0            beq         LAB_00019bd2                            
ram:00019bb0    4806            lsls        param_1,param_2,#0x19                   
ram:00019bb2    000e            lsrs        param_1,param_1,#0x18                   
ram:00019bb4    8100            lsls        param_2,param_1,#0x2                    
ram:00019bb6    4118            adds        param_2,param_1,param_2                 
ram:00019bb8    401c            adds        param_1,param_1,#0x1                    
ram:00019bba    c918            adds        param_2,param_2,r3                      
ram:00019bbc    c4b2            uxtb        r4,param_1                              
ram:00019bbe    0846            mov         param_1,param_2                         
ram:00019bc0    fff70af8        bl          FUN_00018bd8                            ;undefined FUN_00018bd8(int param_1)
ram:00019bc4    a000            lsls        param_1,r4,#0x2                         
ram:00019bc6    2018            adds        param_1,r4,param_1                      
ram:00019bc8    c018            adds        param_1,param_1,r3                      
ram:00019bca    fff705f8        bl          FUN_00018bd8                            ;undefined FUN_00018bd8(int param_1)
ram:00019bce    0020            movs        param_1,#0x0                            
ram:00019bd0    10bd            pop         {r4,pc}                                 
                            LAB_00019bd2:                 ;XREF[2,0]:   00019ba2,00019bae
ram:00019bd2    0220            movs        param_1,#0x2                            
ram:00019bd4    10bd            pop         {r4,pc}                                 
ram:00019bd6    0000            movs        r0,r0                                   
                            ;************************************************************************************************
                            ;*                                           FUNCTION                                           *
                            ;************************************************************************************************
                            ;int FUN_00019bd8(void)
                                                          ;XREF[3,0]:   00019ce2,00019d52,0001b710
ram:00019bd8    f8b5            push        {r3,r4,r5,r6,r7,lr}                     
ram:00019bda    3b49            ldr         r1,[DAT_00019cc8]                       ;= 200027F8h
ram:00019bdc    1423            movs        r3,#0x14                                
ram:00019bde    0a78            ldrb        r2,[r1,#0x0]=>DAT_200027f8              
ram:00019be0    0f20            movs        r0,#0xf                                 
ram:00019be2    5a43            muls        r2,r3                                   
ram:00019be4    5418            adds        r4,r2,r1                                
ram:00019be6    2179            ldrb        r1,[r4,#0x4]                            
ram:00019be8    2569            ldr         r5,[r4,#0x10]                           
ram:00019bea    384e            ldr         r6,[DAT_00019ccc]                       ;= 200020D4h
ram:00019bec    241d            adds        r4,r4,#0x4                              
ram:00019bee    0229            cmp         r1,#0x2                                 
ram:00019bf0    1ad0            beq         LAB_00019c28                            
ram:00019bf2    0429            cmp         r1,#0x4                                 
ram:00019bf4    2ed0            beq         LAB_00019c54                            
ram:00019bf6    0529            cmp         r1,#0x5                                 
ram:00019bf8    64d1            bne         LAB_00019cc4                            
ram:00019bfa    01f017fc        bl          FUN_0001b42c                            ;uint FUN_0001b42c(void)
ram:00019bfe    0146            mov         r1,r0                                   
ram:00019c00    2846            mov         r0,r5                                   
ram:00019c02    fef7c5fa        bl          FUN_00018190                            ;int FUN_00018190(uint param_1, uint ...
ram:00019c06    0646            mov         r6,r0                                   
ram:00019c08    01f010fc        bl          FUN_0001b42c                            ;uint FUN_0001b42c(void)
ram:00019c0c    0146            mov         r1,r0                                   
ram:00019c0e    a088            ldrh        r0,[r4,#0x4]                            
ram:00019c10    7143            muls        r1,r6                                   
ram:00019c12    4019            adds        r0,r0,r5                                
ram:00019c14    401a            subs        r0,r0,r1                                
ram:00019c16    8708            lsrs        r7,r0,#0x2                              
ram:00019c18    01f008fc        bl          FUN_0001b42c                            ;uint FUN_0001b42c(void)
ram:00019c1c    711c            adds        r1,r6,#0x1                              
ram:00019c1e    4843            muls        r0,r1                                   
ram:00019c20    a188            ldrh        r1,[r4,#0x4]                            
ram:00019c22    6288            ldrh        r2,[r4,#0x2]                            
ram:00019c24    8918            adds        r1,r1,r2                                
ram:00019c26    36e0            b           LAB_00019c96                            
                            LAB_00019c28:                 ;XREF[1,0]:   00019bf0
ram:00019c28    b088            ldrh        r0,[r6,#0x4]=>DAT_200020d8              
ram:00019c2a    2269            ldr         r2,[r4,#0x10]                           
ram:00019c2c    8002            lsls        r0,r0,#0xa                              
ram:00019c2e    6188            ldrh        r1,[r4,#0x2]                            
ram:00019c30    1318            adds        r3,r2,r0                                
ram:00019c32    091a            subs        r1,r1,r0                                
ram:00019c34    a288            ldrh        r2,[r4,#0x4]                            
ram:00019c36    2818            adds        r0,r5,r0                                
ram:00019c38    1018            adds        r0,r2,r0                                
ram:00019c3a    0122            movs        r2,#0x1                                 
ram:00019c3c    9202            lsls        r2,r2,#0xa                              
ram:00019c3e    9142            cmp         r1,r2                                   
ram:00019c40    03d2            bcs         LAB_00019c4a                            
ram:00019c42    8a08            lsrs        r2,r1,#0x2                              
ram:00019c44    1946            mov         r1,r3                                   
ram:00019c46    29df            svc         0x29                                    
ram:00019c48    37e0            b           LAB_00019cba                            
                            LAB_00019c4a:                 ;XREF[1,0]:   00019c40
ram:00019c4a    ff22            movs        r2,#0xff                                
ram:00019c4c    0132            adds        r2,#0x1                                 
ram:00019c4e    1946            mov         r1,r3                                   
ram:00019c50    29df            svc         0x29                                    
ram:00019c52    32e0            b           LAB_00019cba                            
                            LAB_00019c54:                 ;XREF[1,0]:   00019bf4
ram:00019c54    a268            ldr         r2,[r4,#0x8]                            
ram:00019c56    1c48            ldr         r0,[DAT_00019cc8]                       ;= 200027F8h
ram:00019c58    1101            lsls        r1,r2,#0x4                              
ram:00019c5a    cc30            adds        r0,#0xcc                                
ram:00019c5c    0918            adds        r1,r1,r0                                
ram:00019c5e    0889            ldrh        r0,[r1,#0x8]=>DAT_200028cc              
ram:00019c60    4b89            ldrh        r3,[r1,#0xa]=>DAT_200028ce              
ram:00019c62    4968            ldr         r1,[r1,#0x4]                            
ram:00019c64    a942            cmp         r1,r5                                   
ram:00019c66    03d1            bne         LAB_00019c70                            
ram:00019c68    6188            ldrh        r1,[r4,#0x2]                            
ram:00019c6a    5843            muls        r0,r3                                   
ram:00019c6c    8842            cmp         r0,r1                                   
ram:00019c6e    1bd0            beq         LAB_00019ca8                            
                            LAB_00019c70:                 ;XREF[1,0]:   00019c66
ram:00019c70    032a            cmp         r2,#0x3                                 
ram:00019c72    19d0            beq         LAB_00019ca8                            
ram:00019c74    01f0dafb        bl          FUN_0001b42c                            ;uint FUN_0001b42c(void)
ram:00019c78    0146            mov         r1,r0                                   
ram:00019c7a    2846            mov         r0,r5                                   
ram:00019c7c    fef788fa        bl          FUN_00018190                            ;int FUN_00018190(uint param_1, uint ...
ram:00019c80    0646            mov         r6,r0                                   
ram:00019c82    01f0d3fb        bl          FUN_0001b42c                            ;uint FUN_0001b42c(void)
ram:00019c86    7043            muls        r0,r6                                   
ram:00019c88    281a            subs        r0,r5,r0                                
ram:00019c8a    8708            lsrs        r7,r0,#0x2                              
ram:00019c8c    01f0cefb        bl          FUN_0001b42c                            ;uint FUN_0001b42c(void)
ram:00019c90    711c            adds        r1,r6,#0x1                              
ram:00019c92    4843            muls        r0,r1                                   
ram:00019c94    6188            ldrh        r1,[r4,#0x2]                            
                            LAB_00019c96:                 ;XREF[1,0]:   00019c26
ram:00019c96    3a46            mov         r2,r7                                   
ram:00019c98    4919            adds        r1,r1,r5                                
ram:00019c9a    401a            subs        r0,r0,r1                                
ram:00019c9c    8308            lsrs        r3,r0,#0x2                              
ram:00019c9e    3146            mov         r1,r6                                   
ram:00019ca0    2046            mov         r0,r4                                   
ram:00019ca2    01f09dff        bl          FUN_0001bbe0                            ;undefined FUN_0001bbe0(undefined4 pa...
ram:00019ca6    08e0            b           LAB_00019cba                            
                            LAB_00019ca8:                 ;XREF[2,0]:   00019c6e,00019c72
ram:00019ca8    01f0c0fb        bl          FUN_0001b42c                            ;uint FUN_0001b42c(void)
ram:00019cac    0146            mov         r1,r0                                   
ram:00019cae    2846            mov         r0,r5                                   
ram:00019cb0    fef76efa        bl          FUN_00018190                            ;int FUN_00018190(uint param_1, uint ...
ram:00019cb4    b188            ldrh        r1,[r6,#0x4]=>DAT_200020d8              
ram:00019cb6    4018            adds        r0,r0,r1                                
ram:00019cb8    28df            svc         0x28                                    
                            LAB_00019cba:                 ;XREF[3,0]:   00019c48,00019c52,00019ca6
ram:00019cba    0028            cmp         r0,#0x0                                 
ram:00019cbc    02d1            bne         LAB_00019cc4                            
ram:00019cbe    0249            ldr         r1,[DAT_00019cc8]                       ;= 200027F8h
ram:00019cc0    0122            movs        r2,#0x1                                 
ram:00019cc2    8a70            strb        r2,[r1,#0x2]=>DAT_200027fa              
                            LAB_00019cc4:                 ;XREF[2,0]:   00019bf8,00019cbc
ram:00019cc4    f8bd            pop         {r3,r4,r5,r6,r7,pc}                     
ram:00019cc6    0000            movs        r0,r0                                   
                            DAT_00019cc8:                 ;XREF[3,0]:   00019bda,00019c56,00019cbe
ram:00019cc8    f8270020        undefined4  200027F8h                               
                            DAT_00019ccc:                 ;XREF[1,0]:   00019bea
ram:00019ccc    d4200020        undefined4  200020D4h                               
                            ;************************************************************************************************
                            ;*                                           FUNCTION                                           *
                            ;************************************************************************************************
                            ;int FUN_00019cd0(void)
                                                          ;XREF[2,0]:   0001b72a,0001b7ce
ram:00019cd0    10b5            push        {r4,lr}                                 
ram:00019cd2    0849            ldr         r1,[DAT_00019cf4]                       ;= 200027F8h
ram:00019cd4    0020            movs        r0,#0x0                                 
ram:00019cd6    4a78            ldrb        r2,[r1,#0x1]=>DAT_200027f9              
ram:00019cd8    002a            cmp         r2,#0x0                                 
ram:00019cda    09d0            beq         LAB_00019cf0                            
ram:00019cdc    8978            ldrb        r1,[r1,#0x2]=>DAT_200027fa              
ram:00019cde    0029            cmp         r1,#0x0                                 
ram:00019ce0    06d1            bne         LAB_00019cf0                            
ram:00019ce2    fff779ff        bl          FUN_00019bd8                            ;int FUN_00019bd8(void)
ram:00019ce6    0028            cmp         r0,#0x0                                 
ram:00019ce8    02d0            beq         LAB_00019cf0                            
ram:00019cea    1128            cmp         r0,#0x11                                
ram:00019cec    00d1            bne         LAB_00019cf0                            
ram:00019cee    0020            movs        r0,#0x0                                 
                            LAB_00019cf0:                 ;XREF[4,0]:   00019cda,00019ce0,00019ce8,00019cec
ram:00019cf0    10bd            pop         {r4,pc}                                 
ram:00019cf2    0000            movs        r0,r0                                   
                            DAT_00019cf4:                 ;XREF[1,0]:   00019cd2
ram:00019cf4    f8270020        undefined4  200027F8h                               
                            ;************************************************************************************************
                            ;*                                           FUNCTION                                           *
                            ;************************************************************************************************
                            ;undefined FUN_00019cf8(int param_1)
          ;param_1       int                 r0                      
                                                          ;XREF[2,0]:   0001b44e,0001b7ca
ram:00019cf8    1422            movs        r2,#0x14                                
ram:00019cfa    5043            muls        param_1,r2                              
ram:00019cfc    054a            ldr         r2,[DAT_00019d14]                       ;= 200027F8h
ram:00019cfe    0021            movs        r1,#0x0                                 
ram:00019d00    8018            adds        param_1,param_1,r2                      
ram:00019d02    0171            strb        r1,[param_1,#0x4]                       
ram:00019d04    c180            strh        r1,[param_1,#0x6]                       
ram:00019d06    0222            movs        r2,#0x2                                 
ram:00019d08    0161            str         r1,[param_1,#0x10]                      
ram:00019d0a    c260            str         r2,[param_1,#0xc]                       
ram:00019d0c    4161            str         r1,[param_1,#0x14]                      
ram:00019d0e    0181            strh        r1,[param_1,#0x8]                       
ram:00019d10    7047            bx          lr                                      
ram:00019d12    0000            movs        r0,r0                                   
                            DAT_00019d14:                 ;XREF[1,0]:   00019cfc
ram:00019d14    f8270020        undefined4  200027F8h                               
                            ;************************************************************************************************
                            ;*                                           FUNCTION                                           *
                            ;************************************************************************************************
                            ;int FUN_00019d18(char param_1, undefined4 * param_2, undefined4 param_3, undefined2 param_4, undefined2 param_5)
          ;param_1       char                r0                      
          ;param_2       undefined4 *        r1                      
          ;param_3       undefined4          r2                      
          ;param_4       undefined2          r3                      
          ;param_5       undefined2           0                      ;XREF[1,0]:   00019d1c
                                                          ;XREF[2,0]:   0001b3fa,0001b6c2
ram:00019d18    f8b5            push        {param_4,r4,r5,r6,r7,lr}                
ram:00019d1a    134c            ldr         r4,[DAT_00019d68]                       ;= 200027F8h
ram:00019d1c    069e            ldr         r6,[sp,#param_5+0x18]                   
ram:00019d1e    6578            ldrb        r5,[r4,#0x1]=>DAT_200027f9              
ram:00019d20    0a2d            cmp         r5,#0xa                                 
ram:00019d22    1fd0            beq         LAB_00019d64                            
ram:00019d24    2778            ldrb        r7,[r4,#0x0]=>DAT_200027f8              
ram:00019d26    7d19            adds        r5,r7,r5                                
ram:00019d28    edb2            uxtb        r5,r5                                   
ram:00019d2a    0a2d            cmp         r5,#0xa                                 
ram:00019d2c    01d3            bcc         LAB_00019d32                            
ram:00019d2e    0a3d            subs        r5,#0xa                                 
ram:00019d30    edb2            uxtb        r5,r5                                   
                            LAB_00019d32:                 ;XREF[1,0]:   00019d2c
ram:00019d32    1427            movs        r7,#0x14                                
ram:00019d34    7d43            muls        r5,r7                                   
ram:00019d36    2d19            adds        r5,r5,r4                                
ram:00019d38    2871            strb        param_1,[r5,#0x4]                       
ram:00019d3a    0020            movs        param_1,#0x0                            
ram:00019d3c    6871            strb        param_1,[r5,#0x5]                       
ram:00019d3e    6a61            str         param_3,[r5,#0x14]                      
ram:00019d40    03c9            ldmia       param_2,{param_1,param_2}               
ram:00019d42    2961            str         param_2,[r5,#0x10]                      
ram:00019d44    e860            str         param_1,[r5,#0xc]                       
ram:00019d46    eb80            strh        param_4,[r5,#0x6]                       
ram:00019d48    2e81            strh        r6,[r5,#0x8]                            
ram:00019d4a    a178            ldrb        param_2,[r4,#0x2]=>DAT_200027fa         
ram:00019d4c    0020            movs        param_1,#0x0                            
ram:00019d4e    0029            cmp         param_2,#0x0                            
ram:00019d50    04d1            bne         LAB_00019d5c                            
ram:00019d52    fff741ff        bl          FUN_00019bd8                            ;int FUN_00019bd8(void)
ram:00019d56    1128            cmp         param_1,#0x11                           
ram:00019d58    00d1            bne         LAB_00019d5c                            
ram:00019d5a    0020            movs        param_1,#0x0                            
                            LAB_00019d5c:                 ;XREF[2,0]:   00019d50,00019d58
ram:00019d5c    6178            ldrb        param_2,[r4,#0x1]=>DAT_200027f9         
ram:00019d5e    491c            adds        param_2,param_2,#0x1                    
ram:00019d60    6170            strb        param_2,[r4,#0x1]=>DAT_200027f9         
ram:00019d62    f8bd            pop         {param_4,r4,r5,r6,r7,pc}                
                            LAB_00019d64:                 ;XREF[1,0]:   00019d22
ram:00019d64    0420            movs        param_1,#0x4                            
ram:00019d66    f8bd            pop         {param_4,r4,r5,r6,r7,pc}                
                            DAT_00019d68:                 ;XREF[1,0]:   00019d1a
ram:00019d68    f8270020        undefined4  200027F8h                               
                            ;************************************************************************************************
                            ;*                                           FUNCTION                                           *
                            ;************************************************************************************************
                            ;undefined FUN_00019d6c(void)
                                                          ;XREF[1,0]:   0001876c
ram:00019d6c    f8b5            push        {r3,r4,r5,r6,r7,lr}                     
ram:00019d6e    2248            ldr         r0=>DAT_20002114,[DAT_00019df8]         ;= 20002114h
ram:00019d70    0169            ldr         r1,[r0,#0x10]=>DAT_20002124             
ram:00019d72    4a1c            adds        r2,r1,#0x1                              
ram:00019d74    3dd0            beq         LAB_00019df2                            
ram:00019d76    2422            movs        r2,#0x24                                
ram:00019d78    5143            muls        r1,r2                                   
ram:00019d7a    8268            ldr         r2,[r0,#0x8]=>DAT_2000211c              
ram:00019d7c    8918            adds        r1,r1,r2                                
ram:00019d7e    4e68            ldr         r6,[r1,#0x4]                            
ram:00019d80    1e49            ldr         r1,[DAT_00019dfc]                       ;= 40011500h
ram:00019d82    4c68            ldr         r4,[r1,#offset DAT_40011504 &0xff]      
ram:00019d84    4769            ldr         r7,[r0,#0x14]=>DAT_20002128             
ram:00019d86    0079            ldrb        r0,[r0,#0x4]=>DAT_20002118              
ram:00019d88    e11b            subs        r1,r4,r7                                
ram:00019d8a    0d02            lsls        r5,r1,#0x8                              
ram:00019d8c    2d0a            lsrs        r5,r5,#0x8                              
ram:00019d8e    ed1c            adds        r5,r5,#0x3                              
ram:00019d90    0028            cmp         r0,#0x0                                 
ram:00019d92    14d1            bne         LAB_00019dbe                            
ram:00019d94    0120            movs        r0,#0x1                                 
ram:00019d96    1a4a            ldr         r2,[DAT_00019e00]                       ;= 40011340h
ram:00019d98    0004            lsls        r0,r0,#0x10                             
ram:00019d9a    5060            str         r0,[r2,#0x4]=>DAT_40011344              
ram:00019d9c    184a            ldr         r2,[DAT_00019e00]                       ;= 40011340h
ram:00019d9e    403a            subs        r2,#0x40                                
ram:00019da0    5060            str         r0,[r2,#offset DAT_40011304 &0xff]      
ram:00019da2    1849            ldr         r1,[DAT_00019e04]                       ;= E000E280h
ram:00019da4    4000            lsls        r0,r0,#0x1                              
ram:00019da6    0860            str         r0,[r1,#0x0]=>DAT_e000e280              
ram:00019da8    1749            ldr         r1,[DAT_00019e08]                       ;= E000E100h
ram:00019daa    0860            str         r0,[r1,#0x0]=>DAT_e000e100              
ram:00019dac    1749            ldr         r1=>DAT_40011000,[DAT_00019e0c]         ;= 40011000h
ram:00019dae    0120            movs        r0,#0x1                                 
ram:00019db0    0860            str         r0,[r1,#0x0]=>DAT_40011000              
ram:00019db2    2f20            movs        r0,#0x2f                                
ram:00019db4    fef79ef9        bl          FUN_000180f4                            ;undefined FUN_000180f4(int param_1)
ram:00019db8    0f49            ldr         r1,[DAT_00019df8]                       ;= 20002114h
ram:00019dba    0120            movs        r0,#0x1                                 
ram:00019dbc    0871            strb        r0,[r1,#0x4]=>DAT_20002118              
                            LAB_00019dbe:                 ;XREF[1,0]:   00019d92
ram:00019dbe    b542            cmp         r5,r6                                   
ram:00019dc0    00d2            bcs         LAB_00019dc4                            
ram:00019dc2    3546            mov         r5,r6                                   
                            LAB_00019dc4:                 ;XREF[1,0]:   00019dc0
ram:00019dc4    e819            adds        r0,r5,r7                                
ram:00019dc6    0002            lsls        r0,r0,#0x8                              
ram:00019dc8    0c49            ldr         r1,[DAT_00019dfc]                       ;= 40011500h
ram:00019dca    000a            lsrs        r0,r0,#0x8                              
ram:00019dcc    4031            adds        r1,#0x40                                
ram:00019dce    0860            str         r0,[r1,#0x0]=>DAT_40011540              
ram:00019dd0    0a49            ldr         r1,[DAT_00019dfc]                       ;= 40011500h
ram:00019dd2    4968            ldr         r1,[r1,#offset DAT_40011504 &0xff]      
ram:00019dd4    001b            subs        r0,r0,r4                                
ram:00019dd6    091b            subs        r1,r1,r4                                
ram:00019dd8    0902            lsls        r1,r1,#0x8                              
ram:00019dda    090a            lsrs        r1,r1,#0x8                              
ram:00019ddc    0002            lsls        r0,r0,#0x8                              
ram:00019dde    000a            lsrs        r0,r0,#0x8                              
ram:00019de0    c91c            adds        r1,r1,#0x3                              
ram:00019de2    8142            cmp         r1,r0                                   
ram:00019de4    04d9            bls         LAB_00019df0                            
ram:00019de6    0120            movs        r0,#0x1                                 
ram:00019de8    0649            ldr         r1,[DAT_00019e04]                       ;= E000E280h
ram:00019dea    4004            lsls        r0,r0,#0x11                             
ram:00019dec    8039            subs        r1,#0x80                                
ram:00019dee    0860            str         r0,[r1,#0x0]=>DAT_e000e200              
                            LAB_00019df0:                 ;XREF[1,0]:   00019de4
ram:00019df0    f8bd            pop         {r3,r4,r5,r6,r7,pc}                     
                            LAB_00019df2:                 ;XREF[1,0]:   00019d74
ram:00019df2    01f09ffd        bl          FUN_0001b934                            ;undefined FUN_0001b934(void)
ram:00019df6    f8bd            pop         {r3,r4,r5,r6,r7,pc}                     
                            DAT_00019df8:                 ;XREF[2,0]:   00019d6e,00019db8
ram:00019df8    14210020        undefined4  20002114h                               
                            DAT_00019dfc:                 ;XREF[3,0]:   00019d80,00019dc8,00019dd0
ram:00019dfc    00150140        undefined4  40011500h                               
                            DAT_00019e00:                 ;XREF[2,0]:   00019d96,00019d9c
ram:00019e00    40130140        undefined4  40011340h                               
                            DAT_00019e04:                 ;XREF[2,0]:   00019da2,00019de8
ram:00019e04    80e200e0        undefined4  E000E280h                               
                            DAT_00019e08:                 ;XREF[1,0]:   00019da8
ram:00019e08    00e100e0        undefined4  E000E100h                               
                            DAT_00019e0c:                 ;XREF[1,0]:   00019dac
ram:00019e0c    00100140        undefined4  40011000h                               
                            ;************************************************************************************************
                            ;*                                           FUNCTION                                           *
                            ;************************************************************************************************
                            ;undefined4 FUN_00019e10(ushort * param_1, int param_2, byte * param_3)
          ;param_1       ushort *            r0                      
          ;param_2       int                 r1                      
          ;param_3       byte *              r2                      
                                                          ;XREF[1,0]:   00018a8a
ram:00019e10    f8b5            push        {r3,r4,r5,r6,r7,lr}                     
ram:00019e12    0d46            mov         r5,param_2                              
ram:00019e14    1178            ldrb        param_2,[param_3,#0x0]                  
ram:00019e16    0646            mov         r6,param_1                              
ram:00019e18    881d            adds        param_1,param_2,#0x6                    
ram:00019e1a    1446            mov         r4,param_3                              
ram:00019e1c    1f28            cmp         param_1,#0x1f                           
ram:00019e1e    01d9            bls         LAB_00019e24                            
ram:00019e20    0c20            movs        param_1,#0xc                            
                            LAB_00019e22:                 ;XREF[5,0]:   00019e2a,00019e38,00019e3e,00019e48
                                                          ;             00019e56
ram:00019e22    f8bd            pop         {r3,r4,r5,r6,r7,pc}                     
                            LAB_00019e24:                 ;XREF[1,0]:   00019e1e
ram:00019e24    3388            ldrh        r3,[r6,#0x0]                            
ram:00019e26    0720            movs        param_1,#0x7                            
ram:00019e28    062b            cmp         r3,#0x6                                 
ram:00019e2a    fad3            bcc         LAB_00019e22                            
ram:00019e2c    1927            movs        r7,#0x19                                
ram:00019e2e    ff01            lsls        r7,r7,#0x7                              
ram:00019e30    bb42            cmp         r3,r7                                   
ram:00019e32    02d9            bls         LAB_00019e3a                            
ram:00019e34    164a            ldr         param_3,[DAT_00019e90]                  ;= 0000FFFFh
ram:00019e36    9342            cmp         r3,param_3                              
ram:00019e38    f3d1            bne         LAB_00019e22                            
                            LAB_00019e3a:                 ;XREF[1,0]:   00019e32
ram:00019e3a    7288            ldrh        param_3,[r6,#0x2]                       
ram:00019e3c    062a            cmp         param_3,#0x6                            
ram:00019e3e    f0d3            bcc         LAB_00019e22                            
ram:00019e40    ba42            cmp         param_3,r7                              
ram:00019e42    02d9            bls         LAB_00019e4a                            
ram:00019e44    124f            ldr         r7,[DAT_00019e90]                       ;= 0000FFFFh
ram:00019e46    ba42            cmp         param_3,r7                              
ram:00019e48    ebd1            bne         LAB_00019e22                            
                            LAB_00019e4a:                 ;XREF[1,0]:   00019e42
ram:00019e4a    114f            ldr         r7,[DAT_00019e90]                       ;= 0000FFFFh
ram:00019e4c    bb42            cmp         r3,r7                                   
ram:00019e4e    03d0            beq         LAB_00019e58                            
ram:00019e50    ba42            cmp         param_3,r7                              
ram:00019e52    01d0            beq         LAB_00019e58                            
ram:00019e54    9342            cmp         r3,param_3                              
ram:00019e56    e4d8            bhi         LAB_00019e22                            
                            LAB_00019e58:                 ;XREF[2,0]:   00019e4e,00019e52
ram:00019e58    481c            adds        param_1,param_2,#0x1                    
ram:00019e5a    0522            movs        param_3,#0x5                            
ram:00019e5c    2070            strb        param_1,[r4,#0x0]                       
ram:00019e5e    6a54            strb        param_3,[r5,param_2]                    
ram:00019e60    2078            ldrb        param_1,[r4,#0x0]                       
ram:00019e62    1222            movs        param_3,#0x12                           
ram:00019e64    411c            adds        param_2,param_1,#0x1                    
ram:00019e66    2170            strb        param_2,[r4,#0x0]                       
ram:00019e68    2a54            strb        param_3,[r5,param_1]                    
ram:00019e6a    2078            ldrb        param_1,[r4,#0x0]                       
ram:00019e6c    4119            adds        param_2,param_1,r5                      
ram:00019e6e    3088            ldrh        param_1,[r6,#0x0]                       
ram:00019e70    02f05dfa        bl          FUN_0001c32e                            ;undefined4 FUN_0001c32e(undefined4 p...
ram:00019e74    2178            ldrb        param_2,[r4,#0x0]                       
ram:00019e76    4018            adds        param_1,param_1,param_2                 
ram:00019e78    c0b2            uxtb        param_1,param_1                         
ram:00019e7a    2070            strb        param_1,[r4,#0x0]                       
ram:00019e7c    4119            adds        param_2,param_1,r5                      
ram:00019e7e    7088            ldrh        param_1,[r6,#0x2]                       
ram:00019e80    02f055fa        bl          FUN_0001c32e                            ;undefined4 FUN_0001c32e(undefined4 p...
ram:00019e84    2178            ldrb        param_2,[r4,#0x0]                       
ram:00019e86    4018            adds        param_1,param_1,param_2                 
ram:00019e88    2070            strb        param_1,[r4,#0x0]                       
ram:00019e8a    0020            movs        param_1,#0x0                            
ram:00019e8c    f8bd            pop         {r3,r4,r5,r6,r7,pc}                     
ram:00019e8e    0000            movs        r0,r0                                   
                            DAT_00019e90:                 ;XREF[3,0]:   00019e34,00019e44,00019e4a
ram:00019e90    ffff0000        undefined4  0000FFFFh                               
                            ;************************************************************************************************
                            ;*                                           FUNCTION                                           *
                            ;************************************************************************************************
                            ;undefined LAB_00019e94+1(void)
                                                          ;XREF[0,2]:   0001ac08,0001ad50
ram:00019e94    10b5            push        {r4,lr}                                 
ram:00019e96    0022            movs        r2,#0x0                                 
ram:00019e98    1146            mov         r1,r2                                   
ram:00019e9a    fef7f5fe        bl          FUN_00018c88                            ;undefined FUN_00018c88(void)
ram:00019e9e    10bd            pop         {r4,pc}                                 
                            ;************************************************************************************************
                            ;*                                           FUNCTION                                           *
                            ;************************************************************************************************
                            ;undefined FUN_00019ea0(void)
          ;local_18      undefined1         -18                      ;XREF[2,0]:   00019ebe,00019ed2
                                                          ;XREF[1,0]:   00019692
ram:00019ea0    f8b5            push        {r3,r4,r5,r6,r7,lr}                     
ram:00019ea2    1648            ldr         r0,[DAT_00019efc]                       ;= 2000209Ch
ram:00019ea4    00f0e0fc        bl          FUN_0001a868                            ;undefined4 FUN_0001a868(int param_1)
ram:00019ea8    144d            ldr         r5,[DAT_00019efc]                       ;= 2000209Ch
ram:00019eaa    0026            movs        r6,#0x0                                 
ram:00019eac    103d            subs        r5,#0x10                                
ram:00019eae    144c            ldr         r4,[DAT_00019f00]                       ;= 200026A8h
ram:00019eb0    0028            cmp         r0,#0x0                                 
ram:00019eb2    07d0            beq         LAB_00019ec4                            
ram:00019eb4    6169            ldr         r1,[r4,#0x14]=>DAT_200026bc             
ram:00019eb6    0029            cmp         r1,#0x0                                 
ram:00019eb8    1bd0            beq         LAB_00019ef2                            
ram:00019eba    0120            movs        r0,#0x1                                 
ram:00019ebc    6a46            mov         r2,sp                                   
ram:00019ebe    1070            strb        r0,[r2,#0x0]=>local_18                  
ram:00019ec0    6846            mov         r0,sp                                   
ram:00019ec2    15e0            b           LAB_00019ef0                            
                            LAB_00019ec4:                 ;XREF[1,0]:   00019eb2
ram:00019ec4    2878            ldrb        r0,[r5,#0x0]=>DAT_2000208c              
ram:00019ec6    0028            cmp         r0,#0x0                                 
ram:00019ec8    05d0            beq         LAB_00019ed6                            
ram:00019eca    6169            ldr         r1,[r4,#0x14]=>DAT_200026bc             
ram:00019ecc    0029            cmp         r1,#0x0                                 
ram:00019ece    10d0            beq         LAB_00019ef2                            
ram:00019ed0    6846            mov         r0,sp                                   
ram:00019ed2    0670            strb        r6,[r0,#0x0]=>local_18                  
ram:00019ed4    0ce0            b           LAB_00019ef0                            
                            LAB_00019ed6:                 ;XREF[1,0]:   00019ec8
ram:00019ed6    6878            ldrb        r0,[r5,#0x1]=>DAT_2000208d              
ram:00019ed8    0028            cmp         r0,#0x0                                 
ram:00019eda    0cd0            beq         LAB_00019ef6                            
ram:00019edc    a168            ldr         r1,[r4,#0x8]=>DAT_200026b0              
                            LAB_00019ede:                 ;XREF[1,0]:   00019ef8
ram:00019ede    0022            movs        r2,#0x0                                 
ram:00019ee0    6868            ldr         r0,[r5,#0x4]=>DAT_20002090              
ram:00019ee2    fff783f9        bl          FUN_000191ec                            ;longlong FUN_000191ec(uint param_1, ...
ram:00019ee6    0028            cmp         r0,#0x0                                 
ram:00019ee8    03d0            beq         LAB_00019ef2                            
ram:00019eea    a169            ldr         r1,[r4,#0x18]=>DAT_200026c0             
ram:00019eec    0029            cmp         r1,#0x0                                 
ram:00019eee    00d0            beq         LAB_00019ef2                            
                            LAB_00019ef0:                 ;XREF[2,0]:   00019ec2,00019ed4
ram:00019ef0    8847            blx         r1                                      
                            LAB_00019ef2:                 ;XREF[4,0]:   00019eb8,00019ece,00019ee8,00019eee
ram:00019ef2    2e70            strb        r6,[r5,#0x0]=>DAT_2000208c              
ram:00019ef4    f8bd            pop         {r3,r4,r5,r6,r7,pc}                     
                            LAB_00019ef6:                 ;XREF[1,0]:   00019eda
ram:00019ef6    6168            ldr         r1,[r4,#0x4]=>DAT_200026ac              
ram:00019ef8    f1e7            b           LAB_00019ede                            
ram:00019efa    0000            movs        r0,r0                                   
                            DAT_00019efc:                 ;XREF[2,0]:   00019ea2,00019ea8
ram:00019efc    9c200020        undefined4  2000209Ch                               
                            DAT_00019f00:                 ;XREF[1,0]:   00019eae
ram:00019f00    a8260020        undefined4  200026A8h                               
                            ;************************************************************************************************
                            ;*                                           FUNCTION                                           *
                            ;************************************************************************************************
                            ;undefined FUN_00019f04(void)
                                                          ;XREF[0,2]:   0001c28a,0001c2e8
ram:00019f04    10b5            push        {r4,lr}                                 
ram:00019f06    264c            ldr         r4,[DAT_00019fa0]                       ;= 20002020h
ram:00019f08    2068            ldr         r0,[r4,#0x0]=>DAT_20002020              
ram:00019f0a    c004            lsls        r0,r0,#0x13                             
ram:00019f0c    000e            lsrs        r0,r0,#0x18                             
ram:00019f0e    401c            adds        r0,r0,#0x1                              
ram:00019f10    0006            lsls        r0,r0,#0x18                             
ram:00019f12    c10c            lsrs        r1,r0,#0x13                             
ram:00019f14    2068            ldr         r0,[r4,#0x0]=>DAT_20002020              
ram:00019f16    ff22            movs        r2,#0xff                                
ram:00019f18    5201            lsls        r2,r2,#0x5                              
ram:00019f1a    9043            bics        r0,r2                                   
ram:00019f1c    0843            orrs        r0,r1                                   
ram:00019f1e    2060            str         r0,[r4,#0x0]=>DAT_20002020              
ram:00019f20    2068            ldr         r0,[r4,#0x0]=>DAT_20002020              
ram:00019f22    0004            lsls        r0,r0,#0x10                             
ram:00019f24    0bd4            bmi         LAB_00019f3e                            
ram:00019f26    fff7e7fd        bl          FUN_00019af8                            ;undefined4 FUN_00019af8(void)
ram:00019f2a    0028            cmp         r0,#0x0                                 
ram:00019f2c    06d0            beq         LAB_00019f3c                            
ram:00019f2e    2068            ldr         r0,[r4,#0x0]=>DAT_20002020              
ram:00019f30    0121            movs        r1,#0x1                                 
ram:00019f32    c903            lsls        r1,r1,#0xf                              
ram:00019f34    0843            orrs        r0,r1                                   
ram:00019f36    2060            str         r0,[r4,#0x0]=>DAT_20002020              
ram:00019f38    fef7dcfa        bl          FUN_000184f4                            ;undefined FUN_000184f4(void)
                            LAB_00019f3c:                 ;XREF[3,0]:   00019f2c,00019f80,00019f86
ram:00019f3c    10bd            pop         {r4,pc}                                 
                            LAB_00019f3e:                 ;XREF[1,0]:   00019f24
ram:00019f3e    0420            movs        r0,#0x4                                 
ram:00019f40    01f09af8        bl          FUN_0001b078                            ;uint FUN_0001b078(uint param_1)
ram:00019f44    c007            lsls        r0,r0,#0x1f                             
ram:00019f46    010f            lsrs        r1,r0,#0x1c                             
ram:00019f48    2068            ldr         r0,[r4,#0x0]=>DAT_20002020              
ram:00019f4a    0822            movs        r2,#0x8                                 
ram:00019f4c    9043            bics        r0,r2                                   
ram:00019f4e    0843            orrs        r0,r1                                   
ram:00019f50    2060            str         r0,[r4,#0x0]=>DAT_20002020              
ram:00019f52    0520            movs        r0,#0x5                                 
ram:00019f54    01f090f8        bl          FUN_0001b078                            ;uint FUN_0001b078(uint param_1)
ram:00019f58    c007            lsls        r0,r0,#0x1f                             
ram:00019f5a    c10e            lsrs        r1,r0,#0x1b                             
ram:00019f5c    2068            ldr         r0,[r4,#0x0]=>DAT_20002020              
ram:00019f5e    1022            movs        r2,#0x10                                
ram:00019f60    9043            bics        r0,r2                                   
ram:00019f62    0843            orrs        r0,r1                                   
ram:00019f64    2060            str         r0,[r4,#0x0]=>DAT_20002020              
ram:00019f66    2068            ldr         r0,[r4,#0x0]=>DAT_20002020              
ram:00019f68    c004            lsls        r0,r0,#0x13                             
ram:00019f6a    000e            lsrs        r0,r0,#0x18                             
ram:00019f6c    9628            cmp         r0,#0x96                                
ram:00019f6e    0bd2            bcs         LAB_00019f88                            
ram:00019f70    2068            ldr         r0,[r4,#0x0]=>DAT_20002020              
ram:00019f72    0007            lsls        r0,r0,#0x1c                             
ram:00019f74    02d5            bpl         LAB_00019f7c                            
ram:00019f76    2068            ldr         r0,[r4,#0x0]=>DAT_20002020              
ram:00019f78    4007            lsls        r0,r0,#0x1d                             
ram:00019f7a    05d4            bmi         LAB_00019f88                            
                            LAB_00019f7c:                 ;XREF[1,0]:   00019f74
ram:00019f7c    2068            ldr         r0,[r4,#0x0]=>DAT_20002020              
ram:00019f7e    c006            lsls        r0,r0,#0x1b                             
ram:00019f80    dcd5            bpl         LAB_00019f3c                            
ram:00019f82    2068            ldr         r0,[r4,#0x0]=>DAT_20002020              
ram:00019f84    4007            lsls        r0,r0,#0x1d                             
ram:00019f86    d9d4            bmi         LAB_00019f3c                            
                            LAB_00019f88:                 ;XREF[2,0]:   00019f6e,00019f7a
ram:00019f88    fef7b4fa        bl          FUN_000184f4                            ;undefined FUN_000184f4(void)
ram:00019f8c    2068            ldr         r0,[r4,#0x0]=>DAT_20002020              
ram:00019f8e    4008            lsrs        r0,r0,#0x1                              
ram:00019f90    4000            lsls        r0,r0,#0x1                              
ram:00019f92    2060            str         r0,[r4,#0x0]=>DAT_20002020              
ram:00019f94    0248            ldr         r0,[DAT_00019fa0]                       ;= 20002020h
ram:00019f96    2038            subs        r0,#0x20                                
ram:00019f98    8069            ldr         r0,[r0,#offset DAT_20002018 &0xff]      
ram:00019f9a    fff769f9        bl          FUN_00019270                            ;undefined4 FUN_00019270(uint param_1...
ram:00019f9e    10bd            pop         {r4,pc}                                 
                            DAT_00019fa0:                 ;XREF[2,0]:   00019f06,00019f94
ram:00019fa0    20200020        undefined4  20002020h                               
                            ;************************************************************************************************
                            ;*                                           FUNCTION                                           *
                            ;************************************************************************************************
                            ;undefined FUN_00019fa4(void)
                                                          ;XREF[2,0]:   0001866e,000186b2
ram:00019fa4    10b5            push        {r4,lr}                                 
ram:00019fa6    0121            movs        r1,#0x1                                 
ram:00019fa8    0420            movs        r0,#0x4                                 
ram:00019faa    01f04df8        bl          FUN_0001b048                            ;undefined FUN_0001b048(int param_1, ...
ram:00019fae    0121            movs        r1,#0x1                                 
ram:00019fb0    0520            movs        r0,#0x5                                 
ram:00019fb2    01f049f8        bl          FUN_0001b048                            ;undefined FUN_0001b048(int param_1, ...
ram:00019fb6    0948            ldr         r0,[DAT_00019fdc]                       ;= 20002020h
ram:00019fb8    0168            ldr         r1,[r0,#0x0]=>DAT_20002020              
ram:00019fba    ff22            movs        r2,#0xff                                
ram:00019fbc    5201            lsls        r2,r2,#0x5                              
ram:00019fbe    9143            bics        r1,r2                                   
ram:00019fc0    0160            str         r1,[r0,#0x0]=>DAT_20002020              
ram:00019fc2    2038            subs        r0,#0x20                                
ram:00019fc4    0022            movs        r2,#0x0                                 
ram:00019fc6    4921            movs        r1,#0x49                                
ram:00019fc8    8069            ldr         r0,[r0,#offset DAT_20002018 &0xff]      
ram:00019fca    fff70ff9        bl          FUN_000191ec                            ;longlong FUN_000191ec(uint param_1, ...
ram:00019fce    0028            cmp         r0,#0x0                                 
ram:00019fd0    03d0            beq         LAB_00019fda                            
ram:00019fd2    0022            movs        r2,#0x0                                 
ram:00019fd4    1146            mov         r1,r2                                   
ram:00019fd6    fef757fe        bl          FUN_00018c88                            ;undefined FUN_00018c88(void)
                            LAB_00019fda:                 ;XREF[1,0]:   00019fd0
ram:00019fda    10bd            pop         {r4,pc}                                 
                            DAT_00019fdc:                 ;XREF[1,0]:   00019fb6
ram:00019fdc    20200020        undefined4  20002020h                               
                            ;************************************************************************************************
                            ;*                                           FUNCTION                                           *
                            ;************************************************************************************************
                            ;undefined4 FUN_00019fe0(int param_1, byte * param_2, int param_3)
          ;param_1       int                 r0                      
          ;param_2       byte *              r1                      
          ;param_3       int                 r2                      
          ;local_1c      undefined4         -1c                      ;XREF[3,0]:   0001a048,0001a05c,0001a0bc
          ;local_2c      undefined4         -2c                      ;XREF[2,0]:   0001a004,0001a07a
          ;local_30      undefined4         -30                      ;XREF[2,0]:   0001a008,0001a07e
          ;local_38      undefined4         -38                      ;XREF[3,0]:   0001a026,0001a040,0001a082
          ;local_3c      undefined4         -3c                      ;XREF[1,0]:   0001a010
          ;local_40      undefined4         -40                      ;XREF[1,0]:   0001a012
          ;local_44      undefined4         -44                      ;XREF[4,0]:   00019ffa,0001a074,0001a078,0001a0c2
ram:00019fe0    f0b5            push        {r4,r5,r6,r7,lr}                        
ram:00019fe2    8db0            sub         sp,#0x34                                
ram:00019fe4    0c46            mov         r4,param_2                              
ram:00019fe6    0646            mov         r6,param_1                              
ram:00019fe8    092a            cmp         param_3,#0x9                            
ram:00019fea    41d1            bne         LAB_0001a070                            
ram:00019fec    2578            ldrb        r5,[r4,#0x0]                            
ram:00019fee    2846            mov         param_1,r5                              
ram:00019ff0    02f0affa        bl          FUN_0001c552                            ;undefined4 FUN_0001c552(uint param_1)
ram:00019ff4    0028            cmp         param_1,#0x0                            
ram:00019ff6    3bd0            beq         LAB_0001a070                            
ram:00019ff8    6800            lsls        param_1,r5,#0x1                         
ram:00019ffa    0190            str         param_1,[sp,#local_44+0x48]             
ram:00019ffc    c0b2            uxtb        param_1,param_1                         
ram:00019ffe    8100            lsls        param_2,param_1,#0x2                    
ram:0001a000    4018            adds        param_1,param_1,param_2                 
ram:0001a002    8119            adds        param_2,param_1,r6                      
ram:0001a004    0790            str         param_1,[sp,#local_2c+0x48]             
ram:0001a006    0522            movs        param_3,#0x5                            
ram:0001a008    0691            str         param_2,[sp,#local_30+0x48]             
ram:0001a00a    02a8            add         param_1,sp,#0x8                         
ram:0001a00c    fef7d6f8        bl          FUN_000181bc                            ;undefined FUN_000181bc(undefined4 * ...
ram:0001a010    0399            ldr         param_2,[sp,#local_3c+0x48]             
ram:0001a012    0298            ldr         param_1,[sp,#local_40+0x48]             
ram:0001a014    02f080fa        bl          FUN_0001c518                            ;undefined4 FUN_0001c518(uint param_1)
ram:0001a018    0028            cmp         param_1,#0x0                            
ram:0001a01a    02d0            beq         LAB_0001a022                            
ram:0001a01c    0320            movs        param_1,#0x3                            
                            LAB_0001a01e:                 ;XREF[2,0]:   0001a072,0001a10e
ram:0001a01e    0db0            add         sp,#0x34                                
ram:0001a020    f0bd            pop         {r4,r5,r6,r7,pc}                        
                            LAB_0001a022:                 ;XREF[1,0]:   0001a01a
ram:0001a022    6178            ldrb        param_2,[r4,#0x1]                       
ram:0001a024    a078            ldrb        param_1,[r4,#0x2]                       
ram:0001a026    0490            str         param_1,[sp,#local_38+0x48]             
ram:0001a028    6079            ldrb        param_1,[r4,#0x5]                       
ram:0001a02a    e778            ldrb        r7,[r4,#0x3]                            
ram:0001a02c    8646            mov         lr,param_1                              
ram:0001a02e    a079            ldrb        param_1,[r4,#0x6]                       
ram:0001a030    2279            ldrb        param_3,[r4,#0x4]                       
ram:0001a032    e379            ldrb        r3,[r4,#0x7]                            
ram:0001a034    8446            mov         r12,param_1                             
ram:0001a036    247a            ldrb        r4,[r4,#0x8]                            
ram:0001a038    7806            lsls        param_1,r7,#0x19                        
ram:0001a03a    19d0            beq         LAB_0001a070                            
ram:0001a03c    1829            cmp         param_2,#0x18                           
ram:0001a03e    17d2            bcs         LAB_0001a070                            
ram:0001a040    0498            ldr         param_1,[sp,#local_38+0x48]             
ram:0001a042    3c28            cmp         param_1,#0x3c                           
ram:0001a044    14d2            bcs         LAB_0001a070                            
ram:0001a046    0120            movs        param_1,#0x1                            
ram:0001a048    0b90            str         param_1,[sp,#local_1c+0x48]             
ram:0001a04a    5806            lsls        param_1,r3,#0x19                        
ram:0001a04c    08d0            beq         LAB_0001a060                            
ram:0001a04e    7046            mov         param_1,lr                              
ram:0001a050    1828            cmp         param_1,#0x18                           
ram:0001a052    05d2            bcs         LAB_0001a060                            
ram:0001a054    6046            mov         param_1,r12                             
ram:0001a056    3c28            cmp         param_1,#0x3c                           
ram:0001a058    02d2            bcs         LAB_0001a060                            
ram:0001a05a    0220            movs        param_1,#0x2                            
ram:0001a05c    0b90            str         param_1,[sp,#local_1c+0x48]             
ram:0001a05e    09e0            b           LAB_0001a074                            
                            LAB_0001a060:                 ;XREF[3,0]:   0001a04c,0001a052,0001a058
ram:0001a060    ff2b            cmp         r3,#0xff                                
ram:0001a062    07d0            beq         LAB_0001a074                            
ram:0001a064    7046            mov         param_1,lr                              
ram:0001a066    ff28            cmp         param_1,#0xff                           
ram:0001a068    04d0            beq         LAB_0001a074                            
ram:0001a06a    6046            mov         param_1,r12                             
ram:0001a06c    ff28            cmp         param_1,#0xff                           
ram:0001a06e    01d0            beq         LAB_0001a074                            
                            LAB_0001a070:                 ;XREF[5,0]:   00019fea,00019ff6,0001a03a,0001a03e
                                                          ;             0001a044
ram:0001a070    0220            movs        param_1,#0x2                            
ram:0001a072    d4e7            b           LAB_0001a01e                            
                            LAB_0001a074:                 ;XREF[4,0]:   0001a05e,0001a062,0001a068,0001a06e
ram:0001a074    0198            ldr         param_1,[sp,#local_44+0x48]             
ram:0001a076    c0b2            uxtb        param_1,param_1                         
ram:0001a078    0190            str         param_1,[sp,#local_44+0x48]             
ram:0001a07a    0798            ldr         param_1,[sp,#local_2c+0x48]             
ram:0001a07c    3554            strb        r5,[r6,param_1]                         
ram:0001a07e    0698            ldr         param_1,[sp,#local_30+0x48]             
ram:0001a080    8170            strb        param_2,[param_1,#0x2]                  
ram:0001a082    0499            ldr         param_2,[sp,#local_38+0x48]             
ram:0001a084    c170            strb        param_2,[param_1,#0x3]                  
ram:0001a086    7906            lsls        param_2,r7,#0x19                        
ram:0001a088    490e            lsrs        param_2,param_2,#0x19                   
ram:0001a08a    4170            strb        param_2,[param_1,#0x1]                  
ram:0001a08c    0179            ldrb        param_2,[param_1,#0x4]                  
ram:0001a08e    f727            movs        r7,#0xf7                                
ram:0001a090    3940            ands        param_2,r7                              
ram:0001a092    1707            lsls        r7,param_3,#0x1c                        
ram:0001a094    ff0f            lsrs        r7,r7,#0x1f                             
ram:0001a096    ff00            lsls        r7,r7,#0x3                              
ram:0001a098    3943            orrs        param_2,r7                              
ram:0001a09a    fd27            movs        r7,#0xfd                                
ram:0001a09c    3940            ands        param_2,r7                              
ram:0001a09e    5707            lsls        r7,param_3,#0x1d                        
ram:0001a0a0    ff0f            lsrs        r7,r7,#0x1f                             
ram:0001a0a2    7f00            lsls        r7,r7,#0x1                              
ram:0001a0a4    3943            orrs        param_2,r7                              
ram:0001a0a6    9707            lsls        r7,param_3,#0x1e                        
ram:0001a0a8    4908            lsrs        param_2,param_2,#0x1                    
ram:0001a0aa    4900            lsls        param_2,param_2,#0x1                    
ram:0001a0ac    ff0f            lsrs        r7,r7,#0x1f                             
ram:0001a0ae    3943            orrs        param_2,r7                              
ram:0001a0b0    fb27            movs        r7,#0xfb                                
ram:0001a0b2    d207            lsls        param_3,param_3,#0x1f                   
ram:0001a0b4    3940            ands        param_2,r7                              
ram:0001a0b6    520f            lsrs        param_3,param_3,#0x1d                   
ram:0001a0b8    1143            orrs        param_2,param_3                         
ram:0001a0ba    0171            strb        param_2,[param_1,#0x4]                  
ram:0001a0bc    0b98            ldr         param_1,[sp,#local_1c+0x48]             
ram:0001a0be    0228            cmp         param_1,#0x2                            
ram:0001a0c0    24d1            bne         LAB_0001a10c                            
ram:0001a0c2    0198            ldr         param_1,[sp,#local_44+0x48]             
ram:0001a0c4    f722            movs        param_3,#0xf7                           
ram:0001a0c6    401c            adds        param_1,param_1,#0x1                    
ram:0001a0c8    c0b2            uxtb        param_1,param_1                         
ram:0001a0ca    8100            lsls        param_2,param_1,#0x2                    
ram:0001a0cc    4018            adds        param_1,param_1,param_2                 
ram:0001a0ce    3554            strb        r5,[r6,param_1]                         
ram:0001a0d0    7146            mov         param_2,lr                              
ram:0001a0d2    8019            adds        param_1,param_1,r6                      
ram:0001a0d4    8170            strb        param_2,[param_1,#0x2]                  
ram:0001a0d6    6146            mov         param_2,r12                             
ram:0001a0d8    c170            strb        param_2,[param_1,#0x3]                  
ram:0001a0da    5906            lsls        param_2,r3,#0x19                        
ram:0001a0dc    490e            lsrs        param_2,param_2,#0x19                   
ram:0001a0de    4170            strb        param_2,[param_1,#0x1]                  
ram:0001a0e0    0179            ldrb        param_2,[param_1,#0x4]                  
ram:0001a0e2    1140            ands        param_2,param_3                         
ram:0001a0e4    2207            lsls        param_3,r4,#0x1c                        
ram:0001a0e6    d20f            lsrs        param_3,param_3,#0x1f                   
ram:0001a0e8    d200            lsls        param_3,param_3,#0x3                    
ram:0001a0ea    1143            orrs        param_2,param_3                         
ram:0001a0ec    fd22            movs        param_3,#0xfd                           
ram:0001a0ee    1140            ands        param_2,param_3                         
ram:0001a0f0    6207            lsls        param_3,r4,#0x1d                        
ram:0001a0f2    d20f            lsrs        param_3,param_3,#0x1f                   
ram:0001a0f4    5200            lsls        param_3,param_3,#0x1                    
ram:0001a0f6    1143            orrs        param_2,param_3                         
ram:0001a0f8    4908            lsrs        param_2,param_2,#0x1                    
ram:0001a0fa    a207            lsls        param_3,r4,#0x1e                        
ram:0001a0fc    4900            lsls        param_2,param_2,#0x1                    
ram:0001a0fe    d20f            lsrs        param_3,param_3,#0x1f                   
ram:0001a100    1143            orrs        param_2,param_3                         
ram:0001a102    e207            lsls        param_3,r4,#0x1f                        
ram:0001a104    3940            ands        param_2,r7                              
ram:0001a106    520f            lsrs        param_3,param_3,#0x1d                   
ram:0001a108    1143            orrs        param_2,param_3                         
ram:0001a10a    0171            strb        param_2,[param_1,#0x4]                  
                            LAB_0001a10c:                 ;XREF[1,0]:   0001a0c0
ram:0001a10c    0020            movs        param_1,#0x0                            
ram:0001a10e    86e7            b           LAB_0001a01e                            
                            ;************************************************************************************************
                            ;*                                           FUNCTION                                           *
                            ;************************************************************************************************
                            ;undefined LAB_0001a110+1(void)
                                                          ;XREF[0,2]:   00018c6c,00018c84
ram:0001a110    f8b5            push        {r3,r4,r5,r6,r7,lr}                     
ram:0001a112    184d            ldr         r5,[DAT_0001a174]                       ;= 200020E0h
ram:0001a114    6946            mov         r1,sp                                   
ram:0001a116    6878            ldrb        r0,[r5,#0x1]=>DAT_200020e1              
ram:0001a118    fef7f6fd        bl          FUN_00018d08                            ;undefined4 FUN_00018d08(uint param_1...
ram:0001a11c    0028            cmp         r0,#0x0                                 
ram:0001a11e    1dd1            bne         LAB_0001a15c                            
ram:0001a120    2f46            mov         r7,r5                                   
ram:0001a122    0024            movs        r4,#0x0                                 
ram:0001a124    1037            adds        r7,#0x10                                
ram:0001a126    0126            movs        r6,#0x1                                 
ram:0001a128    15e0            b           LAB_0001a156                            
                            LAB_0001a12a:                 ;XREF[1,0]:   0001a15a
ram:0001a12a    6968            ldr         r1,[r5,#0x4]=>DAT_200020e4              
ram:0001a12c    e000            lsls        r0,r4,#0x3                              
ram:0001a12e    4018            adds        r0,r0,r1                                
ram:0001a130    0378            ldrb        r3,[r0,#0x0]                            
ram:0001a132    3146            mov         r1,r6                                   
ram:0001a134    3a68            ldr         r2,[r7,#0x0]=>DAT_200020f0              
ram:0001a136    9940            lsls        r1,r3                                   
ram:0001a138    0a42            tst         r2,r1                                   
ram:0001a13a    10d0            beq         LAB_0001a15e                            
ram:0001a13c    4268            ldr         r2,[r0,#0x4]                            
ram:0001a13e    002a            cmp         r2,#0x0                                 
ram:0001a140    0dd0            beq         LAB_0001a15e                            
ram:0001a142    4178            ldrb        r1,[r0,#0x1]                            
ram:0001a144    0129            cmp         r1,#0x1                                 
ram:0001a146    01d1            bne         LAB_0001a14c                            
                            LAB_0001a148:                 ;XREF[1,0]:   0001a170
ram:0001a148    0021            movs        r1,#0x0                                 
ram:0001a14a    00e0            b           LAB_0001a14e                            
                            LAB_0001a14c:                 ;XREF[2,0]:   0001a146,0001a16e
ram:0001a14c    0121            movs        r1,#0x1                                 
                            LAB_0001a14e:                 ;XREF[1,0]:   0001a14a
ram:0001a14e    fff7c5fc        bl          FUN_00019adc                            ;undefined FUN_00019adc(undefined * p...
                            LAB_0001a152:                 ;XREF[2,0]:   0001a162,0001a168
ram:0001a152    641c            adds        r4,r4,#0x1                              
ram:0001a154    e4b2            uxtb        r4,r4                                   
                            LAB_0001a156:                 ;XREF[1,0]:   0001a128
ram:0001a156    2878            ldrb        r0,[r5,#0x0]=>DAT_200020e0              
ram:0001a158    8442            cmp         r4,r0                                   
ram:0001a15a    e6d3            bcc         LAB_0001a12a                            
                            LAB_0001a15c:                 ;XREF[1,0]:   0001a11e
ram:0001a15c    f8bd            pop         {r3,r4,r5,r6,r7,pc}                     
                            LAB_0001a15e:                 ;XREF[2,0]:   0001a13a,0001a140
ram:0001a15e    7a68            ldr         r2,[r7,#0x4]=>DAT_200020f4              
ram:0001a160    0a42            tst         r2,r1                                   
ram:0001a162    f6d0            beq         LAB_0001a152                            
ram:0001a164    4168            ldr         r1,[r0,#0x4]                            
ram:0001a166    0029            cmp         r1,#0x0                                 
ram:0001a168    f3d0            beq         LAB_0001a152                            
ram:0001a16a    4178            ldrb        r1,[r0,#0x1]                            
ram:0001a16c    0129            cmp         r1,#0x1                                 
ram:0001a16e    edd0            beq         LAB_0001a14c                            
ram:0001a170    eae7            b           LAB_0001a148                            
ram:0001a172    0000            movs        r0,r0                                   
                            DAT_0001a174:                 ;XREF[1,0]:   0001a112
ram:0001a174    e0200020        undefined4  200020E0h                               
                            ;************************************************************************************************
                            ;*                                           FUNCTION                                           *
                            ;************************************************************************************************
                            ;undefined LAB_0001a178+1(ushort * param_1, char * param_2, undefined4 param_3, undefined4 param_4)
          ;param_1       ushort *            r0                      
          ;param_2       char *              r1                      
          ;param_3       undefined4          r2                      
          ;param_4       undefined4          r3                      
                                                          ;XREF[0,2]:   0001ba9c,0001bad4
ram:0001a178    10b5            push        {r4,lr}                                 
ram:0001a17a    0978            ldrb        param_2,[param_2,#0x0]                  
ram:0001a17c    0029            cmp         param_2,#0x0                            
ram:0001a17e    0ad0            beq         LAB_0001a196                            
ram:0001a180    0322            movs        param_3,#0x3                            
ram:0001a182    0121            movs        param_2,#0x1                            
ram:0001a184    fff734fb        bl          FUN_000197f0                            ;undefined8 FUN_000197f0(ushort * par...
ram:0001a188    0028            cmp         param_1,#0x0                            
ram:0001a18a    03d0            beq         LAB_0001a194                            
ram:0001a18c    0022            movs        param_3,#0x0                            
ram:0001a18e    1146            mov         param_2,param_3                         
ram:0001a190    fef77afd        bl          FUN_00018c88                            ;undefined FUN_00018c88(void)
                            LAB_0001a194:                 ;XREF[1,0]:   0001a18a
ram:0001a194    10bd            pop         {r4,pc}                                 
                            LAB_0001a196:                 ;XREF[1,0]:   0001a17e
ram:0001a196    0088            ldrh        param_1,[param_1,#0x0]                  
ram:0001a198    fff720fc        bl          FUN_000199dc                            ;undefined FUN_000199dc(uint param_1,...
ram:0001a19c    10bd            pop         {r4,pc}                                 
ram:0001a19e    0000            movs        r0,r0                                   
                            ;************************************************************************************************
                            ;*                                           FUNCTION                                           *
                            ;************************************************************************************************
                            ;undefined FUN_0001a1a0(uint param_1)
          ;param_1       uint                r0                      
          ;local_c       undefined4          -c                      ;XREF[1,0]:   0001a232
          ;local_10      undefined4         -10                      ;XREF[1,0]:   0001a22e
          ;local_1c      undefined4         -1c                      ;XREF[2,0]:   0001a1e6,0001a1f8
          ;local_2c      undefined4         -2c                      ;XREF[2,0]:   0001a204,0001a20c
          ;local_30      undefined4         -30                      ;XREF[2,0]:   0001a1a6,0001a22a
                                                          ;XREF[1,0]:   00019a28
ram:0001a1a0    00b5            push        {lr}                                    
ram:0001a1a2    8bb0            sub         sp,#0x2c                                
ram:0001a1a4    0021            movs        r1,#0x0                                 
ram:0001a1a6    0091            str         r1,[sp,#0x0]=>local_30                  
ram:0001a1a8    2549            ldr         r1,[DAT_0001a240]                       ;= 2000213Ch
ram:0001a1aa    00f07ff9        bl          FUN_0001a4ac                            ;int FUN_0001a4ac(uint param_1, char ...
ram:0001a1ae    0028            cmp         param_1,#0x0                            
ram:0001a1b0    17d1            bne         LAB_0001a1e2                            
ram:0001a1b2    01a9            add         r1,sp,#0x4                              
ram:0001a1b4    2248            ldr         param_1,[DAT_0001a240]                  ;= 2000213Ch
ram:0001a1b6    00f021f9        bl          FUN_0001a3fc                            ;int FUN_0001a3fc(char * param_1, int...
ram:0001a1ba    0028            cmp         param_1,#0x0                            
ram:0001a1bc    13d0            beq         LAB_0001a1e6                            
ram:0001a1be    2149            ldr         r1,[DAT_0001a244]                       ;= 200028E4h
ram:0001a1c0    1f48            ldr         param_1,[DAT_0001a240]                  ;= 2000213Ch
ram:0001a1c2    00f097f9        bl          FUN_0001a4f4                            ;int FUN_0001a4f4(char * param_1, und...
ram:0001a1c6    0028            cmp         param_1,#0x0                            
ram:0001a1c8    03d0            beq         LAB_0001a1d2                            
ram:0001a1ca    0022            movs        r2,#0x0                                 
ram:0001a1cc    1146            mov         r1,r2                                   
ram:0001a1ce    fef75bfd        bl          FUN_00018c88                            ;undefined FUN_00018c88(void)
                            LAB_0001a1d2:                 ;XREF[1,0]:   0001a1c8
ram:0001a1d2    1c48            ldr         param_1,[DAT_0001a244]                  ;= 200028E4h
ram:0001a1d4    00df            svc         0x0                                     
                            LAB_0001a1d6:                 ;XREF[1,0]:   0001a23c
ram:0001a1d6    0028            cmp         param_1,#0x0                            
ram:0001a1d8    03d0            beq         LAB_0001a1e2                            
ram:0001a1da    0022            movs        r2,#0x0                                 
ram:0001a1dc    1146            mov         r1,r2                                   
ram:0001a1de    fef753fd        bl          FUN_00018c88                            ;undefined FUN_00018c88(void)
                            LAB_0001a1e2:                 ;XREF[2,0]:   0001a1b0,0001a1d8
ram:0001a1e2    0bb0            add         sp,#0x2c                                
ram:0001a1e4    00bd            pop         {pc}                                    
                            LAB_0001a1e6:                 ;XREF[1,0]:   0001a1bc
ram:0001a1e6    0599            ldr         r1,[sp,#local_1c+0x30]                  
ram:0001a1e8    0722            movs        r2,#0x7                                 
ram:0001a1ea    1648            ldr         param_1,[DAT_0001a244]                  ;= 200028E4h
ram:0001a1ec    1031            adds        r1,#0x10                                
ram:0001a1ee    fdf7e5ff        bl          FUN_000181bc                            ;undefined FUN_000181bc(undefined4 * ...
ram:0001a1f2    1448            ldr         param_1,[DAT_0001a244]                  ;= 200028E4h
ram:0001a1f4    1022            movs        r2,#0x10                                
ram:0001a1f6    c01d            adds        param_1,param_1,#0x7                    
ram:0001a1f8    0599            ldr         r1,[sp,#local_1c+0x30]                  
ram:0001a1fa    fdf7dfff        bl          FUN_000181bc                            ;undefined FUN_000181bc(undefined4 * ...
ram:0001a1fe    1148            ldr         param_1,[DAT_0001a244]                  ;= 200028E4h
ram:0001a200    1122            movs        r2,#0x11                                
ram:0001a202    1830            adds        param_1,#0x18                           
ram:0001a204    0199            ldr         r1,[sp,#local_2c+0x30]                  
ram:0001a206    fdf7d9ff        bl          FUN_000181bc                            ;undefined FUN_000181bc(undefined4 * ...
ram:0001a20a    0e48            ldr         param_1,[DAT_0001a244]                  ;= 200028E4h
ram:0001a20c    0199            ldr         r1,[sp,#local_2c+0x30]                  
ram:0001a20e    0a22            movs        r2,#0xa                                 
ram:0001a210    2a30            adds        param_1,#0x2a                           
ram:0001a212    1231            adds        r1,#0x12                                
ram:0001a214    fdf7d2ff        bl          FUN_000181bc                            ;undefined FUN_000181bc(undefined4 * ...
ram:0001a218    0a48            ldr         param_1,[DAT_0001a244]                  ;= 200028E4h
ram:0001a21a    00df            svc         0x0                                     
ram:0001a21c    0028            cmp         param_1,#0x0                            
ram:0001a21e    03d0            beq         LAB_0001a228                            
ram:0001a220    0022            movs        r2,#0x0                                 
ram:0001a222    1146            mov         r1,r2                                   
ram:0001a224    fef730fd        bl          FUN_00018c88                            ;undefined FUN_00018c88(void)
                            LAB_0001a228:                 ;XREF[1,0]:   0001a21e
ram:0001a228    0120            movs        param_1,#0x1                            
ram:0001a22a    0090            str         param_1,[sp,#0x0]=>local_30             
ram:0001a22c    0420            movs        param_1,#0x4                            
ram:0001a22e    0890            str         param_1,[sp,#local_10+0x30]             
ram:0001a230    6846            mov         param_1,sp                              
ram:0001a232    0990            str         param_1,[sp,#local_c+0x30]              
ram:0001a234    07a9            add         r1,sp,#0x1c                             
ram:0001a236    0248            ldr         param_1,[DAT_0001a240]                  ;= 2000213Ch
ram:0001a238    00f0dcf8        bl          FUN_0001a3f4                            ;undefined4 FUN_0001a3f4(void)
ram:0001a23c    cbe7            b           LAB_0001a1d6                            
ram:0001a23e    0000            movs        r0,r0                                   
                            DAT_0001a240:                 ;XREF[4,0]:   0001a1a8,0001a1b4,0001a1c0,0001a236
ram:0001a240    3c210020        undefined4  2000213Ch                               
                            DAT_0001a244:                 ;XREF[7,0]:   0001a1be,0001a1d2,0001a1ea,0001a1f2
                                                          ;             0001a1fe,0001a20a,0001a218
ram:0001a244    e4280020        undefined4  200028E4h                               
ram:0001a248    70              ??          70h    p                                
ram:0001a249    47              ??          47h    G                                
ram:0001a24a    00              ??          00h                                     
ram:0001a24b    00              ??          00h                                     
                            ;************************************************************************************************
                            ;*                                           FUNCTION                                           *
                            ;************************************************************************************************
                            ;undefined FUN_0001a24c(undefined4 param_1)
          ;param_1       undefined4          r0                      
                                                          ;XREF[1,0]:   0001baba
ram:0001a24c    0149            ldr         r1,[DAT_0001a254]                       ;= 20002138h
ram:0001a24e    0860            str         param_1,[r1,#0x0]=>DAT_20002138         
ram:0001a250    7047            bx          lr                                      
ram:0001a252    0000            movs        r0,r0                                   
                            DAT_0001a254:                 ;XREF[1,0]:   0001a24c
ram:0001a254    38210020        undefined4  20002138h                               
                            ;************************************************************************************************
                            ;*                                           FUNCTION                                           *
                            ;************************************************************************************************
                            ;undefined2 FUN_0001a258(int param_1)
          ;param_1       int                 r0                      
          ;local_14      undefined4         -14                      ;XREF[1,0]:   0001a2cc
          ;local_18      undefined2         -18                      ;XREF[1,0]:   0001a2ca
          ;local_1a      undefined2         -1a                      ;XREF[1,0]:   0001a2c8
          ;local_1c      undefined2         -1c                      ;XREF[1,0]:   0001a2c4
          ;local_20      undefined4         -20                      ;XREF[1,0]:   0001a2c0
          ;local_24      undefined4         -24                      ;XREF[1,0]:   0001a2bc
          ;local_26      undefined1         -26                      ;XREF[1,0]:   0001a286
          ;local_28      undefined2         -28                      ;XREF[1,0]:   0001a28c
          ;local_2c      undefined4         -2c                      ;XREF[2,3]:   0001a292,0001a296,0001a29a,0001a29c,0001a2b0
          ;local_30      undefined4         -30                      ;XREF[1,0]:   0001a280
          ;local_34      undefined4         -34                      ;XREF[1,0]:   0001a27e
          ;local_38      undefined4         -38                      ;XREF[1,0]:   0001a27c
          ;local_3c      undefined4         -3c                      ;XREF[1,0]:   0001a27a
          ;local_44      undefined4         -44                      ;XREF[1,0]:   0001a278
          ;local_48      undefined1         -48                      ;XREF[2,0]:   0001a268,0001a274
                                                          ;XREF[1,0]:   0001972e
ram:0001a258    30b5            push        {r4,r5,lr}                              
ram:0001a25a    8fb0            sub         sp,#0x3c                                
ram:0001a25c    0546            mov         r5,param_1                              
ram:0001a25e    1c21            movs        r1,#0x1c                                
ram:0001a260    6846            mov         param_1,sp                              
ram:0001a262    fdf7c4ff        bl          FUN_000181ee                            ;undefined FUN_000181ee(undefined * p...
ram:0001a266    6946            mov         r1,sp                                   
ram:0001a268    0878            ldrb        param_1,[r1,#0x0]=>local_48             
ram:0001a26a    0821            movs        r1,#0x8                                 
ram:0001a26c    0843            orrs        param_1,r1                              
ram:0001a26e    1022            movs        r2,#0x10                                
ram:0001a270    1043            orrs        param_1,r2                              
ram:0001a272    6946            mov         r1,sp                                   
ram:0001a274    0870            strb        param_1,[r1,#0x0]=>local_48             
ram:0001a276    0024            movs        r4,#0x0                                 
ram:0001a278    0194            str         r4,[sp,#local_44+0x48]                  
ram:0001a27a    0394            str         r4,[sp,#local_3c+0x48]                  
ram:0001a27c    0494            str         r4,[sp,#local_38+0x48]                  
ram:0001a27e    0594            str         r4,[sp,#local_34+0x48]                  
ram:0001a280    0694            str         r4,[sp,#local_30+0x48]                  
ram:0001a282    a879            ldrb        param_1,[r5,#0x6]                       
ram:0001a284    08a9            add         r1,sp,#0x20                             
ram:0001a286    8870            strb        param_1,[r1,#local_26+0x28]             
ram:0001a288    1448            ldr         param_1,[DAT_0001a2dc]                  ;= 00001531h
ram:0001a28a    6946            mov         r1,sp                                   
ram:0001a28c    0884            strh        param_1,[r1,#local_28+0x48]             
ram:0001a28e    601c            adds        param_1,r4,#0x1                         
ram:0001a290    0007            lsls        param_1,param_1,#0x1c                   
ram:0001a292    0794            str         r4,[sp,#local_2c+0x48]                  
ram:0001a294    000f            lsrs        param_1,param_1,#0x1c                   
ram:0001a296    0c77            strb        r4,[r1,#local_2c+0x48]                  
ram:0001a298    1030            adds        param_1,#0x10                           
ram:0001a29a    4877            strb        param_1,[r1,#local_2c+0x49]             
ram:0001a29c    887f            ldrb        param_1,[r1,#local_2c+0x4a]             
ram:0001a29e    f921            movs        r1,#0xf9                                
ram:0001a2a0    0840            ands        param_1,r1                              
ram:0001a2a2    f721            movs        r1,#0xf7                                
ram:0001a2a4    801c            adds        param_1,param_1,#0x2                    
ram:0001a2a6    0840            ands        param_1,r1                              
ram:0001a2a8    1043            orrs        param_1,r2                              
ram:0001a2aa    0121            movs        r1,#0x1                                 
ram:0001a2ac    0843            orrs        param_1,r1                              
ram:0001a2ae    6946            mov         r1,sp                                   
ram:0001a2b0    8877            strb        param_1,[r1,#local_2c+0x4a]             
ram:0001a2b2    1421            movs        r1,#0x14                                
ram:0001a2b4    09a8            add         param_1,sp,#0x24                        
ram:0001a2b6    fdf79aff        bl          FUN_000181ee                            ;undefined FUN_000181ee(undefined * p...
ram:0001a2ba    08a8            add         param_1,sp,#0x20                        
ram:0001a2bc    0990            str         param_1,[sp,#local_24+0x48]             
ram:0001a2be    07a8            add         param_1,sp,#0x1c                        
ram:0001a2c0    0a90            str         param_1,[sp,#local_20+0x48]             
ram:0001a2c2    6946            mov         r1,sp                                   
ram:0001a2c4    8c85            strh        r4,[r1,#local_1c+0x48]                  
ram:0001a2c6    1720            movs        param_1,#0x17                           
ram:0001a2c8    cc85            strh        r4,[r1,#local_1a+0x48]                  
ram:0001a2ca    0886            strh        param_1,[r1,#local_18+0x48]             
ram:0001a2cc    0d94            str         r4,[sp,#local_14+0x48]                  
ram:0001a2ce    2b46            mov         r3,r5                                   
ram:0001a2d0    a888            ldrh        param_1,[r5,#0x4]                       
ram:0001a2d2    1033            adds        r3,#0x10                                
ram:0001a2d4    09aa            add         r2,sp,#0x24                             
ram:0001a2d6    a2df            svc         0xa2                                    
ram:0001a2d8    0fb0            add         sp,#0x3c                                
ram:0001a2da    30bd            pop         {r4,r5,pc}                              
                            DAT_0001a2dc:                 ;XREF[1,0]:   0001a288
ram:0001a2dc    31150000        undefined4  00001531h                               
                            ;************************************************************************************************
                            ;*                                           FUNCTION                                           *
                            ;************************************************************************************************
                            ;undefined2 FUN_0001a2e0(int param_1)
          ;param_1       int                 r0                      
          ;local_14      undefined4         -14                      ;XREF[1,0]:   0001a350
          ;local_18      undefined2         -18                      ;XREF[1,0]:   0001a34e
          ;local_1a      undefined2         -1a                      ;XREF[1,0]:   0001a34c
          ;local_1c      undefined2         -1c                      ;XREF[1,0]:   0001a348
          ;local_20      undefined4         -20                      ;XREF[1,0]:   0001a344
          ;local_24      undefined4         -24                      ;XREF[1,0]:   0001a340
          ;local_26      undefined1         -26                      ;XREF[1,0]:   0001a30a
          ;local_28      undefined2         -28                      ;XREF[1,0]:   0001a310
          ;local_2c      undefined4         -2c                      ;XREF[2,3]:   0001a316,0001a31a,0001a31e,0001a320,0001a334
          ;local_30      undefined4         -30                      ;XREF[1,0]:   0001a304
          ;local_34      undefined4         -34                      ;XREF[1,0]:   0001a302
          ;local_38      undefined4         -38                      ;XREF[1,0]:   0001a300
          ;local_3c      undefined4         -3c                      ;XREF[1,0]:   0001a2fe
          ;local_44      undefined4         -44                      ;XREF[1,0]:   0001a2fc
          ;local_48      undefined1         -48                      ;XREF[2,0]:   0001a2f0,0001a2f8
                                                          ;XREF[1,0]:   00019724
ram:0001a2e0    30b5            push        {r4,r5,lr}                              
ram:0001a2e2    8fb0            sub         sp,#0x3c                                
ram:0001a2e4    0546            mov         r5,param_1                              
ram:0001a2e6    1c21            movs        r1,#0x1c                                
ram:0001a2e8    6846            mov         param_1,sp                              
ram:0001a2ea    fdf780ff        bl          FUN_000181ee                            ;undefined FUN_000181ee(undefined * p...
ram:0001a2ee    6946            mov         r1,sp                                   
ram:0001a2f0    0878            ldrb        param_1,[r1,#0x0]=>local_48             
ram:0001a2f2    0421            movs        r1,#0x4                                 
ram:0001a2f4    0843            orrs        param_1,r1                              
ram:0001a2f6    6946            mov         r1,sp                                   
ram:0001a2f8    0870            strb        param_1,[r1,#0x0]=>local_48             
ram:0001a2fa    0024            movs        r4,#0x0                                 
ram:0001a2fc    0194            str         r4,[sp,#local_44+0x48]                  
ram:0001a2fe    0394            str         r4,[sp,#local_3c+0x48]                  
ram:0001a300    0494            str         r4,[sp,#local_38+0x48]                  
ram:0001a302    0594            str         r4,[sp,#local_34+0x48]                  
ram:0001a304    0694            str         r4,[sp,#local_30+0x48]                  
ram:0001a306    a879            ldrb        param_1,[r5,#0x6]                       
ram:0001a308    08a9            add         r1,sp,#0x20                             
ram:0001a30a    8870            strb        param_1,[r1,#local_26+0x28]             
ram:0001a30c    1448            ldr         param_1,[DAT_0001a360]                  ;= 00001532h
ram:0001a30e    6946            mov         r1,sp                                   
ram:0001a310    0884            strh        param_1,[r1,#local_28+0x48]             
ram:0001a312    601c            adds        param_1,r4,#0x1                         
ram:0001a314    0007            lsls        param_1,param_1,#0x1c                   
ram:0001a316    0794            str         r4,[sp,#local_2c+0x48]                  
ram:0001a318    000f            lsrs        param_1,param_1,#0x1c                   
ram:0001a31a    0c77            strb        r4,[r1,#local_2c+0x48]                  
ram:0001a31c    1030            adds        param_1,#0x10                           
ram:0001a31e    4877            strb        param_1,[r1,#local_2c+0x49]             
ram:0001a320    8a7f            ldrb        r2,[r1,#local_2c+0x4a]                  
ram:0001a322    f920            movs        param_1,#0xf9                           
ram:0001a324    0240            ands        r2,param_1                              
ram:0001a326    f720            movs        param_1,#0xf7                           
ram:0001a328    921c            adds        r2,r2,#0x2                              
ram:0001a32a    0240            ands        r2,param_1                              
ram:0001a32c    ef20            movs        param_1,#0xef                           
ram:0001a32e    0240            ands        r2,param_1                              
ram:0001a330    0120            movs        param_1,#0x1                            
ram:0001a332    0243            orrs        r2,param_1                              
ram:0001a334    8a77            strb        r2,[r1,#local_2c+0x4a]                  
ram:0001a336    1421            movs        r1,#0x14                                
ram:0001a338    09a8            add         param_1,sp,#0x24                        
ram:0001a33a    fdf758ff        bl          FUN_000181ee                            ;undefined FUN_000181ee(undefined * p...
ram:0001a33e    08a8            add         param_1,sp,#0x20                        
ram:0001a340    0990            str         param_1,[sp,#local_24+0x48]             
ram:0001a342    07a8            add         param_1,sp,#0x1c                        
ram:0001a344    0a90            str         param_1,[sp,#local_20+0x48]             
ram:0001a346    6946            mov         r1,sp                                   
ram:0001a348    8c85            strh        r4,[r1,#local_1c+0x48]                  
ram:0001a34a    1420            movs        param_1,#0x14                           
ram:0001a34c    cc85            strh        r4,[r1,#local_1a+0x48]                  
ram:0001a34e    0886            strh        param_1,[r1,#local_18+0x48]             
ram:0001a350    0d94            str         r4,[sp,#local_14+0x48]                  
ram:0001a352    2b46            mov         r3,r5                                   
ram:0001a354    a888            ldrh        param_1,[r5,#0x4]                       
ram:0001a356    0833            adds        r3,#0x8                                 
ram:0001a358    09aa            add         r2,sp,#0x24                             
ram:0001a35a    a2df            svc         0xa2                                    
ram:0001a35c    0fb0            add         sp,#0x3c                                
ram:0001a35e    30bd            pop         {r4,r5,pc}                              
                            DAT_0001a360:                 ;XREF[1,0]:   0001a30c
ram:0001a360    32150000        undefined4  00001532h                               
                            ;************************************************************************************************
                            ;*                                           FUNCTION                                           *
                            ;************************************************************************************************
                            ;undefined8 FUN_0001a364(int param_1)
          ;param_1       int                 r0                      
          ;local_1c      undefined4         -1c                      ;XREF[1,0]:   0001a3dc
          ;local_20      undefined2         -20                      ;XREF[1,0]:   0001a3da
          ;local_22      undefined2         -22                      ;XREF[1,0]:   0001a3d8
          ;local_24      undefined2         -24                      ;XREF[1,0]:   0001a3d6
          ;local_28      undefined4         -28                      ;XREF[1,0]:   0001a3d2
          ;local_2c      undefined4         -2c                      ;XREF[1,0]:   0001a3ce
          ;local_2e      undefined1         -2e                      ;XREF[1,0]:   0001a38e
          ;local_30      undefined2         -30                      ;XREF[1,0]:   0001a394
          ;local_34      undefined4         -34                      ;XREF[2,3]:   0001a3a0,0001a3a2,0001a3aa,0001a3ac,0001a3c2
          ;local_38      undefined4         -38                      ;XREF[1,0]:   0001a388
          ;local_3c      undefined4         -3c                      ;XREF[1,0]:   0001a386
          ;local_40      undefined4         -40                      ;XREF[1,0]:   0001a384
          ;local_44      undefined4         -44                      ;XREF[1,0]:   0001a382
          ;local_4c      undefined4         -4c                      ;XREF[1,0]:   0001a380
          ;local_50      undefined1         -50                      ;XREF[2,0]:   0001a376,0001a37c
                                                          ;XREF[1,0]:   0001973a
ram:0001a364    f0b5            push        {r4,r5,r6,r7,lr}                        
ram:0001a366    8fb0            sub         sp,#0x3c                                
ram:0001a368    0f46            mov         r7,r1                                   
ram:0001a36a    0546            mov         r5,param_1                              
ram:0001a36c    1c21            movs        r1,#0x1c                                
ram:0001a36e    6846            mov         param_1,sp                              
ram:0001a370    fdf73dff        bl          FUN_000181ee                            ;undefined FUN_000181ee(undefined * p...
ram:0001a374    6846            mov         param_1,sp                              
ram:0001a376    0178            ldrb        r1,[param_1,#0x0]=>local_50             
ram:0001a378    0226            movs        r6,#0x2                                 
ram:0001a37a    3143            orrs        r1,r6                                   
ram:0001a37c    0170            strb        r1,[param_1,#0x0]=>local_50             
ram:0001a37e    0024            movs        r4,#0x0                                 
ram:0001a380    0194            str         r4,[sp,#local_4c+0x50]                  
ram:0001a382    0394            str         r4,[sp,#local_44+0x50]                  
ram:0001a384    0494            str         r4,[sp,#local_40+0x50]                  
ram:0001a386    0594            str         r4,[sp,#local_3c+0x50]                  
ram:0001a388    0694            str         r4,[sp,#local_38+0x50]                  
ram:0001a38a    a979            ldrb        r1,[r5,#0x6]                            
ram:0001a38c    08a8            add         param_1,sp,#0x20                        
ram:0001a38e    8170            strb        r1,[r0,#local_2e+0x30]                  
ram:0001a390    1749            ldr         r1,[DAT_0001a3f0]                       ;= 00001534h
ram:0001a392    6846            mov         param_1,sp                              
ram:0001a394    0184            strh        r1,[r0,#local_30+0x50]                  
ram:0001a396    601c            adds        param_1,r4,#0x1                         
ram:0001a398    0107            lsls        r1,param_1,#0x1c                        
ram:0001a39a    090f            lsrs        r1,r1,#0x1c                             
ram:0001a39c    6846            mov         param_1,sp                              
ram:0001a39e    1031            adds        r1,#0x10                                
ram:0001a3a0    0794            str         r4,[sp,#local_34+0x50]                  
ram:0001a3a2    0177            strb        r1,[r0,#local_34+0x50]                  
ram:0001a3a4    0020            movs        param_1,#0x0                            
ram:0001a3a6    0146            mov         r1,param_1                              
ram:0001a3a8    6846            mov         param_1,sp                              
ram:0001a3aa    4177            strb        r1,[r0,#local_34+0x51]                  
ram:0001a3ac    817f            ldrb        r1,[r0,#local_34+0x52]                  
ram:0001a3ae    f920            movs        param_1,#0xf9                           
ram:0001a3b0    0140            ands        r1,param_1                              
ram:0001a3b2    f720            movs        param_1,#0xf7                           
ram:0001a3b4    891c            adds        r1,r1,#0x2                              
ram:0001a3b6    0140            ands        r1,param_1                              
ram:0001a3b8    ef20            movs        param_1,#0xef                           
ram:0001a3ba    0140            ands        r1,param_1                              
ram:0001a3bc    0120            movs        param_1,#0x1                            
ram:0001a3be    0143            orrs        r1,param_1                              
ram:0001a3c0    6846            mov         param_1,sp                              
ram:0001a3c2    8177            strb        r1,[r0,#local_34+0x52]                  
ram:0001a3c4    1421            movs        r1,#0x14                                
ram:0001a3c6    09a8            add         param_1,sp,#0x24                        
ram:0001a3c8    fdf711ff        bl          FUN_000181ee                            ;undefined FUN_000181ee(undefined * p...
ram:0001a3cc    08a8            add         param_1,sp,#0x20                        
ram:0001a3ce    0990            str         param_1,[sp,#local_2c+0x50]             
ram:0001a3d0    07a8            add         param_1,sp,#0x1c                        
ram:0001a3d2    0a90            str         param_1,[sp,#local_28+0x50]             
ram:0001a3d4    6846            mov         param_1,sp                              
ram:0001a3d6    8685            strh        r6,[r0,#local_24+0x50]                  
ram:0001a3d8    c485            strh        r4,[r0,#local_22+0x50]                  
ram:0001a3da    0686            strh        r6,[r0,#local_20+0x50]                  
ram:0001a3dc    0d97            str         r7,[sp,#local_1c+0x50]                  
ram:0001a3de    2b46            mov         r3,r5                                   
ram:0001a3e0    a888            ldrh        param_1,[r5,#0x4]                       
ram:0001a3e2    2033            adds        r3,#0x20                                
ram:0001a3e4    09aa            add         r2,sp,#0x24                             
ram:0001a3e6    6946            mov         r1,sp                                   
ram:0001a3e8    a2df            svc         0xa2                                    
ram:0001a3ea    0fb0            add         sp,#0x3c                                
ram:0001a3ec    f0bd            pop         {r4,r5,r6,r7,pc}                        
ram:0001a3ee    0000            movs        r0,r0                                   
                            DAT_0001a3f0:                 ;XREF[1,0]:   0001a390
ram:0001a3f0    34150000        undefined4  00001534h                               
                            ;************************************************************************************************
                            ;*                                           FUNCTION                                           *
                            ;************************************************************************************************
                            ;undefined4 FUN_0001a3f4(void)
                                                          ;XREF[1,0]:   0001a238
ram:0001a3f4    0048            ldr         r0,[DAT_0001a3f8]                       ;= 00008091h
ram:0001a3f6    7047            bx          lr                                      
                            DAT_0001a3f8:                 ;XREF[1,0]:   0001a3f4
ram:0001a3f8    91800000        undefined4  00008091h                               
                            ;************************************************************************************************
                            ;*                                           FUNCTION                                           *
                            ;************************************************************************************************
                            ;int FUN_0001a3fc(char * param_1, int param_2)
          ;param_1       char *              r0                      
          ;param_2       int                 r1                      
                                                          ;XREF[1,0]:   0001a1b6
ram:0001a3fc    f0b5            push        {r4,r5,r6,r7,lr}                        
ram:0001a3fe    0646            mov         r6,param_1                              
ram:0001a400    2648            ldr         param_1,[DAT_0001a49c]                  ;= 200020ACh
ram:0001a402    0c46            mov         r4,param_2                              
ram:0001a404    0178            ldrb        param_2,[param_1,#0x0]=>DAT_200020ac    
ram:0001a406    2648            ldr         param_1,[DAT_0001a4a0]                  ;= 00008008h
ram:0001a408    89b0            sub         sp,#0x24                                
ram:0001a40a    0029            cmp         param_2,#0x0                            
ram:0001a40c    3fd0            beq         LAB_0001a48e                            
ram:0001a40e    811d            adds        param_2,param_1,#0x6                    
ram:0001a410    002e            cmp         r6,#0x0                                 
ram:0001a412    3ed0            beq         LAB_0001a492                            
ram:0001a414    002c            cmp         r4,#0x0                                 
ram:0001a416    3cd0            beq         LAB_0001a492                            
ram:0001a418    3178            ldrb        param_2,[r6,#0x0]                       
ram:0001a41a    0029            cmp         param_2,#0x0                            
ram:0001a41c    37d1            bne         LAB_0001a48e                            
ram:0001a41e    2149            ldr         param_2,[DAT_0001a4a4]                  ;= 200027D4h
ram:0001a420    0025            movs        r5,#0x0                                 
ram:0001a422    0968            ldr         param_2,[param_2,#0x0]=>DAT_200027d4    
ram:0001a424    0029            cmp         param_2,#0x0                            
ram:0001a426    32d0            beq         LAB_0001a48e                            
ram:0001a428    b078            ldrb        param_1,[r6,#0x2]                       
ram:0001a42a    0728            cmp         param_1,#0x7                            
ram:0001a42c    33d2            bcs         LAB_0001a496                            
ram:0001a42e    1c21            movs        param_2,#0x1c                           
ram:0001a430    1d4f            ldr         r7,[DAT_0001a4a8]                       ;= 200026C4h
ram:0001a432    4843            muls        param_1,param_2                         
ram:0001a434    c019            adds        param_1,param_1,r7                      
ram:0001a436    807e            ldrb        param_1,[param_1,#0x1a]                 
ram:0001a438    ff28            cmp         param_1,#0xff                           
ram:0001a43a    2cd0            beq         LAB_0001a496                            
ram:0001a43c    e560            str         r5,[r4,#0xc]                            
ram:0001a43e    b078            ldrb        param_1,[r6,#0x2]                       
ram:0001a440    6561            str         r5,[r4,#0x14]                           
ram:0001a442    4843            muls        param_1,param_2                         
ram:0001a444    c019            adds        param_1,param_1,r7                      
ram:0001a446    2061            str         param_1,[r4,#0x10]                      
ram:0001a448    1648            ldr         param_1,[DAT_0001a4a4]                  ;= 200027D4h
ram:0001a44a    a560            str         r5,[r4,#0x8]                            
ram:0001a44c    0c30            adds        param_1,#0xc                            
ram:0001a44e    6060            str         param_1,[r4,#0x4]                       
ram:0001a450    6846            mov         param_1,sp                              
ram:0001a452    2060            str         param_1,[r4,#0x0]                       
ram:0001a454    1148            ldr         param_1,[DAT_0001a49c]                  ;= 200020ACh
ram:0001a456    b178            ldrb        param_2,[r6,#0x2]                       
ram:0001a458    07aa            add         r2,sp,#0x1c                             
ram:0001a45a    1030            adds        param_1,#0x10                           
ram:0001a45c    00f06cff        bl          FUN_0001b338                            ;undefined4 FUN_0001b338(uint * param...
ram:0001a460    0028            cmp         param_1,#0x0                            
ram:0001a462    14d1            bne         LAB_0001a48e                            
ram:0001a464    1c23            movs        r3,#0x1c                                
ram:0001a466    1a46            mov         r2,r3                                   
ram:0001a468    07a9            add         param_2,sp,#0x1c                        
ram:0001a46a    6846            mov         param_1,sp                              
ram:0001a46c    01f022f8        bl          FUN_0001b4b4                            ;undefined4 FUN_0001b4b4(undefined4 *...
ram:0001a470    0028            cmp         param_1,#0x0                            
ram:0001a472    0cd1            bne         LAB_0001a48e                            
ram:0001a474    e560            str         r5,[r4,#0xc]                            
ram:0001a476    b178            ldrb        param_2,[r6,#0x2]                       
ram:0001a478    1c22            movs        r2,#0x1c                                
ram:0001a47a    5143            muls        param_2,r2                              
ram:0001a47c    c919            adds        param_2,param_2,r7                      
ram:0001a47e    6561            str         r5,[r4,#0x14]                           
ram:0001a480    2161            str         param_2,[r4,#0x10]                      
ram:0001a482    0849            ldr         param_2,[DAT_0001a4a4]                  ;= 200027D4h
ram:0001a484    a560            str         r5,[r4,#0x8]                            
ram:0001a486    0c31            adds        param_2,#0xc                            
ram:0001a488    6160            str         param_2,[r4,#0x4]                       
ram:0001a48a    6946            mov         param_2,sp                              
ram:0001a48c    2160            str         param_2,[r4,#0x0]                       
                            LAB_0001a48e:                 ;XREF[7,0]:   0001a40c,0001a41c,0001a426,0001a462
                                                          ;             0001a472,0001a494,0001a49a
ram:0001a48e    09b0            add         sp,#0x24                                
ram:0001a490    f0bd            pop         {r4,r5,r6,r7,pc}                        
                            LAB_0001a492:                 ;XREF[2,0]:   0001a412,0001a416
ram:0001a492    0846            mov         param_1,param_2                         
ram:0001a494    fbe7            b           LAB_0001a48e                            
                            LAB_0001a496:                 ;XREF[2,0]:   0001a42c,0001a43a
ram:0001a496    0248            ldr         param_1,[DAT_0001a4a0]                  ;= 00008008h
ram:0001a498    0830            adds        param_1,#0x8                            
ram:0001a49a    f8e7            b           LAB_0001a48e                            
                            DAT_0001a49c:                 ;XREF[2,0]:   0001a400,0001a454
ram:0001a49c    ac200020        undefined4  200020ACh                               
                            DAT_0001a4a0:                 ;XREF[2,0]:   0001a406,0001a496
ram:0001a4a0    08800000        undefined4  00008008h                               
                            DAT_0001a4a4:                 ;XREF[3,0]:   0001a41e,0001a448,0001a482
ram:0001a4a4    d4270020        undefined4  200027D4h                               
                            DAT_0001a4a8:                 ;XREF[1,0]:   0001a430
ram:0001a4a8    c4260020        undefined4  200026C4h                               
                            ;************************************************************************************************
                            ;*                                           FUNCTION                                           *
                            ;************************************************************************************************
                            ;int FUN_0001a4ac(uint param_1, char * param_2)
          ;param_1       uint                r0                      
          ;param_2       char *              r1                      
                                                          ;XREF[1,0]:   0001a1aa
ram:0001a4ac    30b5            push        {r4,r5,lr}                              
ram:0001a4ae    0446            mov         r4,param_1                              
ram:0001a4b0    0029            cmp         param_2,#0x0                            
ram:0001a4b2    03d0            beq         LAB_0001a4bc                            
ram:0001a4b4    0878            ldrb        param_1,[param_2,#0x0]                  
ram:0001a4b6    0028            cmp         param_1,#0x0                            
ram:0001a4b8    14d1            bne         LAB_0001a4e4                            
ram:0001a4ba    01e0            b           LAB_0001a4c0                            
                            LAB_0001a4bc:                 ;XREF[1,0]:   0001a4b2
ram:0001a4bc    0b48            ldr         param_1,[DAT_0001a4ec]                  ;= 0000800Eh
                            LAB_0001a4be:                 ;XREF[1,0]:   0001a4d8
ram:0001a4be    30bd            pop         {r4,r5,pc}                              
                            LAB_0001a4c0:                 ;XREF[1,0]:   0001a4ba
ram:0001a4c0    0b48            ldr         param_1,[DAT_0001a4f0]                  ;= 200027D4h
ram:0001a4c2    0023            movs        r3,#0x0                                 
ram:0001a4c4    0068            ldr         param_1,[param_1,#0x0]=>DAT_200027d4    
ram:0001a4c6    0028            cmp         param_1,#0x0                            
ram:0001a4c8    0cd0            beq         LAB_0001a4e4                            
ram:0001a4ca    094a            ldr         r2,[DAT_0001a4f0]                       ;= 200027D4h
ram:0001a4cc    ff20            movs        param_1,#0xff                           
ram:0001a4ce    8870            strb        param_1,[param_2,#0x2]                  
ram:0001a4d0    0c3a            subs        r2,#0xc                                 
ram:0001a4d2    1589            ldrh        r5,[r2,#0x8]=>DAT_200027d0              
ram:0001a4d4    0520            movs        param_1,#0x5                            
ram:0001a4d6    a542            cmp         r5,r4                                   
ram:0001a4d8    f1d1            bne         LAB_0001a4be                            
ram:0001a4da    4b70            strb        r3,[param_2,#0x1]                       
ram:0001a4dc    d07a            ldrb        param_1,[r2,#0xb]=>DAT_200027d3         
ram:0001a4de    8870            strb        param_1,[param_2,#0x2]                  
ram:0001a4e0    0020            movs        param_1,#0x0                            
ram:0001a4e2    30bd            pop         {r4,r5,pc}                              
                            LAB_0001a4e4:                 ;XREF[2,0]:   0001a4b8,0001a4c8
ram:0001a4e4    0148            ldr         param_1,[DAT_0001a4ec]                  ;= 0000800Eh
ram:0001a4e6    801f            subs        param_1,param_1,#0x6                    
ram:0001a4e8    30bd            pop         {r4,r5,pc}                              
ram:0001a4ea    0000            movs        r0,r0                                   
                            DAT_0001a4ec:                 ;XREF[2,0]:   0001a4bc,0001a4e4
ram:0001a4ec    0e800000        undefined4  0000800Eh                               
                            DAT_0001a4f0:                 ;XREF[2,0]:   0001a4c0,0001a4ca
ram:0001a4f0    d4270020        undefined4  200027D4h                               
                            ;************************************************************************************************
                            ;*                                           FUNCTION                                           *
                            ;************************************************************************************************
                            ;int FUN_0001a4f4(char * param_1, undefined4 * param_2)
          ;param_1       char *              r0                      
          ;param_2       undefined4 *        r1                      
                                                          ;XREF[1,0]:   0001a1c2
ram:0001a4f4    0b46            mov         r3,param_2                              
ram:0001a4f6    10b5            push        {r4,lr}                                 
ram:0001a4f8    1a49            ldr         param_2,[DAT_0001a564]                  ;= 200020ACh
ram:0001a4fa    1b4a            ldr         r2,[DAT_0001a568]                       ;= 00008008h
ram:0001a4fc    0978            ldrb        param_2,[param_2,#0x0]=>DAT_200020ac    
ram:0001a4fe    0029            cmp         param_2,#0x0                            
ram:0001a500    20d0            beq         LAB_0001a544                            
ram:0001a502    911d            adds        param_2,r2,#0x6                         
ram:0001a504    0028            cmp         param_1,#0x0                            
ram:0001a506    05d0            beq         LAB_0001a514                            
ram:0001a508    002b            cmp         r3,#0x0                                 
ram:0001a50a    03d0            beq         LAB_0001a514                            
ram:0001a50c    0178            ldrb        param_2,[param_1,#0x0]                  
ram:0001a50e    0029            cmp         param_2,#0x0                            
ram:0001a510    18d1            bne         LAB_0001a544                            
ram:0001a512    01e0            b           LAB_0001a518                            
                            LAB_0001a514:                 ;XREF[2,0]:   0001a506,0001a50a
ram:0001a514    0846            mov         param_1,param_2                         
ram:0001a516    10bd            pop         {r4,pc}                                 
                            LAB_0001a518:                 ;XREF[1,0]:   0001a512
ram:0001a518    1449            ldr         param_2,[DAT_0001a56c]                  ;= 200027D4h
ram:0001a51a    0968            ldr         param_2,[param_2,#0x0]=>DAT_200027d4    
ram:0001a51c    0029            cmp         param_2,#0x0                            
ram:0001a51e    11d0            beq         LAB_0001a544                            
ram:0001a520    114a            ldr         r2,[DAT_0001a568]                       ;= 00008008h
ram:0001a522    8178            ldrb        param_2,[param_1,#0x2]                  
ram:0001a524    d21e            subs        r2,r2,#0x3                              
ram:0001a526    ff29            cmp         param_2,#0xff                           
ram:0001a528    0ed0            beq         LAB_0001a548                            
ram:0001a52a    1c20            movs        param_1,#0x1c                           
ram:0001a52c    4143            muls        param_2,param_1                         
ram:0001a52e    1048            ldr         param_1,[DAT_0001a570]                  ;= 200026C4h
ram:0001a530    0918            adds        param_2,param_2,param_1                 
ram:0001a532    887e            ldrb        param_1,[param_2,#0x1a]                 
ram:0001a534    8007            lsls        param_1,param_1,#0x1e                   
ram:0001a536    05d4            bmi         LAB_0001a544                            
ram:0001a538    0722            movs        r2,#0x7                                 
ram:0001a53a    1846            mov         param_1,r3                              
ram:0001a53c    1031            adds        param_2,#0x10                           
                            LAB_0001a53e:                 ;XREF[1,0]:   0001a562
ram:0001a53e    fdf73dfe        bl          FUN_000181bc                            ;undefined FUN_000181bc(undefined4 * ...
ram:0001a542    0022            movs        r2,#0x0                                 
                            LAB_0001a544:                 ;XREF[6,0]:   0001a500,0001a510,0001a51e,0001a536
                                                          ;             0001a54c,0001a55c
ram:0001a544    1046            mov         param_1,r2                              
ram:0001a546    10bd            pop         {r4,pc}                                 
                            LAB_0001a548:                 ;XREF[1,0]:   0001a528
ram:0001a548    4078            ldrb        param_1,[param_1,#0x1]                  
ram:0001a54a    ff28            cmp         param_1,#0xff                           
ram:0001a54c    fad0            beq         LAB_0001a544                            
ram:0001a54e    0c21            movs        param_2,#0xc                            
ram:0001a550    4843            muls        param_1,param_2                         
ram:0001a552    0649            ldr         param_2,[DAT_0001a56c]                  ;= 200027D4h
ram:0001a554    0c39            subs        param_2,#0xc                            
ram:0001a556    4118            adds        param_2,param_1,param_2                 
ram:0001a558    887a            ldrb        param_1,[param_2,#0xa]                  
ram:0001a55a    8007            lsls        param_1,param_1,#0x1e                   
ram:0001a55c    f2d5            bpl         LAB_0001a544                            
ram:0001a55e    0722            movs        r2,#0x7                                 
ram:0001a560    1846            mov         param_1,r3                              
ram:0001a562    ece7            b           LAB_0001a53e                            
                            DAT_0001a564:                 ;XREF[1,0]:   0001a4f8
ram:0001a564    ac200020        undefined4  200020ACh                               
                            DAT_0001a568:                 ;XREF[2,0]:   0001a4fa,0001a520
ram:0001a568    08800000        undefined4  00008008h                               
                            DAT_0001a56c:                 ;XREF[2,0]:   0001a518,0001a552
ram:0001a56c    d4270020        undefined4  200027D4h                               
                            DAT_0001a570:                 ;XREF[1,0]:   0001a52e
ram:0001a570    c4260020        undefined4  200026C4h                               
                            ;************************************************************************************************
                            ;*                                           FUNCTION                                           *
                            ;************************************************************************************************
                            ;undefined4 FUN_0001a574(int * param_1)
          ;param_1       int *               r0                      
                                                          ;XREF[1,0]:   0001873a
ram:0001a574    10b5            push        {r4,lr}                                 
ram:0001a576    0e49            ldr         r1,[DAT_0001a5b0]                       ;= 20002114h
ram:0001a578    0023            movs        r3,#0x0                                 
ram:0001a57a    8a78            ldrb        r2,[r1,#0x2]=>DAT_20002116              
ram:0001a57c    cc78            ldrb        r4,[r1,#0x3]=>DAT_20002117              
ram:0001a57e    a242            cmp         r2,r4                                   
ram:0001a580    12d0            beq         LAB_0001a5a8                            
ram:0001a582    521c            adds        r2,r2,#0x1                              
ram:0001a584    d2b2            uxtb        r2,r2                                   
ram:0001a586    8a70            strb        r2,[r1,#0x2]=>DAT_20002116              
ram:0001a588    022a            cmp         r2,#0x2                                 
ram:0001a58a    00d1            bne         LAB_0001a58e                            
ram:0001a58c    8b70            strb        r3,[r1,#0x2]=>DAT_20002116              
                            LAB_0001a58e:                 ;XREF[1,0]:   0001a58a
ram:0001a58e    8a78            ldrb        r2,[r1,#0x2]=>DAT_20002116              
ram:0001a590    074b            ldr         r3,[DAT_0001a5b0]                       ;= 20002114h
ram:0001a592    9200            lsls        r2,r2,#0x2                              
ram:0001a594    1c33            adds        r3,#0x1c                                
ram:0001a596    9a58            ldr         r2,[r3,r2]=>DAT_20002130                
ram:0001a598    0260            str         r2,[param_1,#0x0]                       
ram:0001a59a    4869            ldr         param_1,[r1,#0x14]=>DAT_20002128        
ram:0001a59c    1018            adds        param_1,r2,param_1                      
ram:0001a59e    0002            lsls        param_1,param_1,#0x8                    
ram:0001a5a0    000a            lsrs        param_1,param_1,#0x8                    
ram:0001a5a2    4861            str         param_1,[r1,#0x14]=>DAT_20002128        
ram:0001a5a4    0120            movs        param_1,#0x1                            
ram:0001a5a6    10bd            pop         {r4,pc}                                 
                            LAB_0001a5a8:                 ;XREF[1,0]:   0001a580
ram:0001a5a8    0360            str         r3,[param_1,#0x0]                       
ram:0001a5aa    0020            movs        param_1,#0x0                            
ram:0001a5ac    10bd            pop         {r4,pc}                                 
ram:0001a5ae    0000            movs        r0,r0                                   
                            DAT_0001a5b0:                 ;XREF[2,0]:   0001a576,0001a590
ram:0001a5b0    14210020        undefined4  20002114h                               
                            ;************************************************************************************************
                            ;*                                           FUNCTION                                           *
                            ;************************************************************************************************
                            ;undefined FUN_0001a5b4(uint param_1, int param_2, int * param_3)
          ;param_1       uint                r0                      
          ;param_2       int                 r1                      
          ;param_3       int *               r2                      
          ;local_1c      undefined4         -1c                      ;XREF[1,0]:   0001a5e8
                                                          ;XREF[1,0]:   00018750
ram:0001a5b4    f7b5            push        {param_1,param_2,param_3,r4,r5,r6,r7,lr}
ram:0001a5b6    144c            ldr         r4,[DAT_0001a608]                       ;= 20002114h
ram:0001a5b8    0025            movs        r5,#0x0                                 
ram:0001a5ba    a768            ldr         r7,[r4,#0x8]=>DAT_2000211c              
ram:0001a5bc    2369            ldr         r3,[r4,#0x10]=>DAT_20002124             
ram:0001a5be    1ee0            b           LAB_0001a5fe                            
                            LAB_0001a5c0:                 ;XREF[1,0]:   0001a600
ram:0001a5c0    2421            movs        param_2,#0x24                           
ram:0001a5c2    5943            muls        param_2,r3                              
ram:0001a5c4    c919            adds        param_2,param_2,r7                      
ram:0001a5c6    4e68            ldr         r6,[param_2,#0x4]                       
ram:0001a5c8    8642            cmp         r6,param_1                              
ram:0001a5ca    02d9            bls         LAB_0001a5d2                            
ram:0001a5cc    301a            subs        param_1,r6,param_1                      
ram:0001a5ce    4860            str         param_1,[param_2,#0x4]                  
ram:0001a5d0    17e0            b           LAB_0001a602                            
                            LAB_0001a5d2:                 ;XREF[1,0]:   0001a5ca
ram:0001a5d2    801b            subs        param_1,param_1,r6                      
ram:0001a5d4    7519            adds        r5,r6,r5                                
ram:0001a5d6    0026            movs        r6,#0x0                                 
ram:0001a5d8    4e60            str         r6,[param_2,#0x4]                       
ram:0001a5da    0e75            strb        r6,[param_2,#0x14]                      
ram:0001a5dc    0e69            ldr         r6,[param_2,#0x10]                      
ram:0001a5de    9c46            mov         r12,r3                                  
ram:0001a5e0    0b6a            ldr         r3,[param_2,#0x20]                      
ram:0001a5e2    b646            mov         lr,r6                                   
ram:0001a5e4    002e            cmp         r6,#0x0                                 
ram:0001a5e6    0ad0            beq         LAB_0001a5fe                            
ram:0001a5e8    019e            ldr         r6,[sp,#local_1c+0x20]                  
ram:0001a5ea    7619            adds        r6,r6,r5                                
ram:0001a5ec    3602            lsls        r6,r6,#0x8                              
ram:0001a5ee    360a            lsrs        r6,r6,#0x8                              
ram:0001a5f0    8e60            str         r6,[param_2,#0x8]                       
ram:0001a5f2    7646            mov         r6,lr                                   
ram:0001a5f4    ce60            str         r6,[param_2,#0xc]                       
ram:0001a5f6    1668            ldr         r6,[param_3,#0x0]                       
ram:0001a5f8    0e62            str         r6,[param_2,#0x20]                      
ram:0001a5fa    6146            mov         param_2,r12                             
ram:0001a5fc    1160            str         param_2,[param_3,#0x0]                  
                            LAB_0001a5fe:                 ;XREF[2,0]:   0001a5be,0001a5e6
ram:0001a5fe    591c            adds        param_2,r3,#0x1                         
ram:0001a600    ded1            bne         LAB_0001a5c0                            
                            LAB_0001a602:                 ;XREF[1,0]:   0001a5d0
ram:0001a602    2361            str         r3,[r4,#0x10]=>DAT_20002124             
ram:0001a604    febd            pop         {param_2,param_3,r3,r4,r5,r6,r7,pc}     
ram:0001a606    0000            movs        r0,r0                                   
                            DAT_0001a608:                 ;XREF[1,0]:   0001a5b6
ram:0001a608    14210020        undefined4  20002114h                               
                            ;************************************************************************************************
                            ;*                                           FUNCTION                                           *
                            ;************************************************************************************************
                            ;undefined FUN_0001a60c(void)
ram:0001a60c    10b5            push        {r4,lr}                                 
ram:0001a60e    0248            ldr         r0,[DAT_0001a618]                       ;= 20002000h
ram:0001a610    0079            ldrb        r0,[r0,#offset DAT_20002004 &0xff]      
ram:0001a612    00f0dbfc        bl          FUN_0001afcc                            ;undefined FUN_0001afcc(int param_1)
ram:0001a616    10bd            pop         {r4,pc}                                 
                            DAT_0001a618:                 ;XREF[1,0]:   0001a60e
ram:0001a618    00200020        undefined4  20002000h                               
                            ;************************************************************************************************
                            ;*                                           FUNCTION                                           *
                            ;************************************************************************************************
                            ;undefined FUN_0001a61c(int param_1)
          ;param_1       int                 r0                      
                                                          ;XREF[5,0]:   000193ae,000194c4,00019574,0001957c
                                                          ;             0001c08a
ram:0001a61c    10b5            push        {r4,lr}                                 
ram:0001a61e    0028            cmp         param_1,#0x0                            
ram:0001a620    23d0            beq         LAB_0001a66a                            
ram:0001a622    124b            ldr         r3,[DAT_0001a66c]                       ;= 20002154h
ram:0001a624    0022            movs        r2,#0x0                                 
ram:0001a626    001f            subs        param_1,param_1,#0x4                    
ram:0001a628    1968            ldr         r1,[r3,#0x0]=>DAT_20002154              
ram:0001a62a    03e0            b           LAB_0001a634                            
                            LAB_0001a62c:                 ;XREF[1,0]:   0001a636
ram:0001a62c    8142            cmp         r1,param_1                              
ram:0001a62e    03d8            bhi         LAB_0001a638                            
ram:0001a630    0a46            mov         r2,r1                                   
ram:0001a632    4968            ldr         r1,[r1,#0x4]                            
                            LAB_0001a634:                 ;XREF[1,0]:   0001a62a
ram:0001a634    0029            cmp         r1,#0x0                                 
ram:0001a636    f9d1            bne         LAB_0001a62c                            
                            LAB_0001a638:                 ;XREF[1,0]:   0001a62e
ram:0001a638    002a            cmp         r2,#0x0                                 
ram:0001a63a    0ad0            beq         LAB_0001a652                            
ram:0001a63c    1368            ldr         r3,[r2,#0x0]                            
ram:0001a63e    841a            subs        r4,param_1,r2                           
ram:0001a640    9c42            cmp         r4,r3                                   
ram:0001a642    04d1            bne         LAB_0001a64e                            
ram:0001a644    0068            ldr         param_1,[param_1,#0x0]                  
ram:0001a646    1818            adds        param_1,r3,param_1                      
ram:0001a648    1060            str         param_1,[r2,#0x0]                       
ram:0001a64a    1046            mov         param_1,r2                              
ram:0001a64c    02e0            b           LAB_0001a654                            
                            LAB_0001a64e:                 ;XREF[1,0]:   0001a642
ram:0001a64e    5060            str         param_1,[r2,#DAT_00000004]              
ram:0001a650    00e0            b           LAB_0001a654                            
                            LAB_0001a652:                 ;XREF[1,0]:   0001a63a
ram:0001a652    1860            str         param_1,[r3,#0x0]=>DAT_20002154         
                            LAB_0001a654:                 ;XREF[2,0]:   0001a64c,0001a650
ram:0001a654    0029            cmp         r1,#0x0                                 
ram:0001a656    07d0            beq         LAB_0001a668                            
ram:0001a658    0268            ldr         r2,[param_1,#0x0]                       
ram:0001a65a    0b1a            subs        r3,r1,param_1                           
ram:0001a65c    9342            cmp         r3,r2                                   
ram:0001a65e    03d1            bne         LAB_0001a668                            
ram:0001a660    0b68            ldr         r3,[r1,#0x0]                            
ram:0001a662    d218            adds        r2,r2,r3                                
ram:0001a664    0260            str         r2,[param_1,#0x0]                       
ram:0001a666    4968            ldr         r1,[r1,#0x4]                            
                            LAB_0001a668:                 ;XREF[2,0]:   0001a656,0001a65e
ram:0001a668    4160            str         r1,[param_1,#DAT_00000004]              
                            LAB_0001a66a:                 ;XREF[1,0]:   0001a620
ram:0001a66a    10bd            pop         {r4,pc}                                 
                            DAT_0001a66c:                 ;XREF[1,0]:   0001a622
ram:0001a66c    54210020        undefined4  20002154h                               
                            ;************************************************************************************************
                            ;*                                           FUNCTION                                           *
                            ;************************************************************************************************
                            ;undefined FUN_0001a670(int param_1)
          ;param_1       int                 r0                      
                                                          ;XREF[1,0]:   0001aac0
ram:0001a670    10b5            push        {r4,lr}                                 
ram:0001a672    0949            ldr         r1,[DAT_0001a698]                       ;= 10000040h
ram:0001a674    096a            ldr         r1,[r1,#0x20]=>DAT_10000060             
ram:0001a676    0918            adds        r1,r1,param_1                           
ram:0001a678    4803            lsls        param_1,r1,#0xd                         
ram:0001a67a    4840            eors        param_1,r1                              
ram:0001a67c    420c            lsrs        r2,param_1,#0x11                        
ram:0001a67e    4240            eors        r2,param_1                              
ram:0001a680    5301            lsls        r3,r2,#0x5                              
ram:0001a682    5340            eors        r3,r2                                   
ram:0001a684    054a            ldr         r2,[DAT_0001a69c]                       ;= 2000200Ch
ram:0001a686    0020            movs        param_1,#0x0                            
                            LAB_0001a688:                 ;XREF[1,0]:   0001a694
ram:0001a688    c400            lsls        r4,param_1,#0x3                         
ram:0001a68a    1946            mov         r1,r3                                   
ram:0001a68c    e140            lsrs        r1,r4                                   
                                                          ; FWD[2,0]:   2000200c,2000200d
ram:0001a68e    1154            strb        r1,[r2,param_1]=>DAT_2000200c           
ram:0001a690    401c            adds        param_1,param_1,#0x1                    
ram:0001a692    0428            cmp         param_1,#0x4                            
ram:0001a694    f8db            blt         LAB_0001a688                            
ram:0001a696    10bd            pop         {r4,pc}                                 
                            DAT_0001a698:                 ;XREF[1,0]:   0001a672
ram:0001a698    40000010        undefined4  10000040h                               
                            DAT_0001a69c:                 ;XREF[1,0]:   0001a684
ram:0001a69c    0c200020        undefined4  2000200Ch                               
                            ;************************************************************************************************
                            ;*                                           FUNCTION                                           *
                            ;************************************************************************************************
                            ;uint FUN_0001a6a0(void)
                                                          ;XREF[1,0]:   00018ae4
ram:0001a6a0    10b5            push        {r4,lr}                                 
ram:0001a6a2    1348            ldr         r0,[DAT_0001a6f0]                       ;= 20002020h
ram:0001a6a4    0168            ldr         r1,[r0,#0x0]=>DAT_20002020              
ram:0001a6a6    8907            lsls        r1,r1,#0x1e                             
ram:0001a6a8    c90f            lsrs        r1,r1,#0x1f                             
ram:0001a6aa    cb00            lsls        r3,r1,#0x3                              
ram:0001a6ac    011d            adds        r1,r0,#0x4                              
ram:0001a6ae    0a68            ldr         r2,[r1,#0x0]=>DAT_20002024              
ram:0001a6b0    0824            movs        r4,#0x8                                 
ram:0001a6b2    a243            bics        r2,r4                                   
ram:0001a6b4    1a43            orrs        r2,r3                                   
ram:0001a6b6    0a60            str         r2,[r1,#0x0]=>DAT_20002024              
ram:0001a6b8    0268            ldr         r2,[r0,#0x0]=>DAT_20002020              
ram:0001a6ba    0368            ldr         r3,[r0,#0x0]=>DAT_20002020              
ram:0001a6bc    5207            lsls        r2,r2,#0x1d                             
ram:0001a6be    9b07            lsls        r3,r3,#0x1e                             
ram:0001a6c0    5a40            eors        r2,r3                                   
ram:0001a6c2    0968            ldr         r1,[r1,#0x0]=>DAT_20002024              
ram:0001a6c4    d20f            lsrs        r2,r2,#0x1f                             
ram:0001a6c6    4907            lsls        r1,r1,#0x1d                             
ram:0001a6c8    0b0f            lsrs        r3,r1,#0x1c                             
ram:0001a6ca    0146            mov         r1,r0                                   
ram:0001a6cc    1131            adds        r1,#0x11                                
ram:0001a6ce    c978            ldrb        r1,[r1,#0x3]=>DAT_20002034              
ram:0001a6d0    1343            orrs        r3,r2                                   
ram:0001a6d2    c906            lsls        r1,r1,#0x1b                             
ram:0001a6d4    c90e            lsrs        r1,r1,#0x1b                             
ram:0001a6d6    0e29            cmp         r1,#0xe                                 
ram:0001a6d8    01d3            bcc         LAB_0001a6de                            
ram:0001a6da    0121            movs        r1,#0x1                                 
ram:0001a6dc    00e0            b           LAB_0001a6e0                            
                            LAB_0001a6de:                 ;XREF[1,0]:   0001a6d8
ram:0001a6de    0021            movs        r1,#0x0                                 
                            LAB_0001a6e0:                 ;XREF[1,0]:   0001a6dc
ram:0001a6e0    0901            lsls        r1,r1,#0x4                              
ram:0001a6e2    0068            ldr         r0,[r0,#0x0]=>DAT_20002020              
ram:0001a6e4    1943            orrs        r1,r3                                   
ram:0001a6e6    8007            lsls        r0,r0,#0x1e                             
ram:0001a6e8    c00f            lsrs        r0,r0,#0x1f                             
ram:0001a6ea    4001            lsls        r0,r0,#0x5                              
ram:0001a6ec    0843            orrs        r0,r1                                   
ram:0001a6ee    10bd            pop         {r4,pc}                                 
                            DAT_0001a6f0:                 ;XREF[1,0]:   0001a6a2
ram:0001a6f0    20200020        undefined4  20002020h                               
                            ;************************************************************************************************
                            ;*                                           FUNCTION                                           *
                            ;************************************************************************************************
                            ;int FUN_0001a6f4(uint param_1, uint param_2, undefined4 param_3, uint param_4)
          ;param_1       uint                r0                      
          ;param_2       uint                r1                      
          ;param_3       undefined4          r2                      
          ;param_4       uint                r3                      
                                                          ;XREF[0,2]:   00018c5c,00018c80
ram:0001a6f4    70b5            push        {r4,r5,r6,lr}                           
ram:0001a6f6    094d            ldr         r5,[DAT_0001a71c]                       ;= 200020E0h
ram:0001a6f8    0446            mov         r4,param_1                              
ram:0001a6fa    0e46            mov         r6,param_2                              
ram:0001a6fc    e868            ldr         param_1,[r5,#0xc]=>DAT_200020ec         
ram:0001a6fe    fef7b7fd        bl          FUN_00019270                            ;undefined4 FUN_00019270(uint param_1...
ram:0001a702    0028            cmp         param_1,#0x0                            
ram:0001a704    09d1            bne         LAB_0001a71a                            
ram:0001a706    2846            mov         param_1,r5                              
ram:0001a708    1030            adds        param_1,#0x10                           
ram:0001a70a    0660            str         r6,[param_1,#0x0]=>DAT_200020f0         
ram:0001a70c    4460            str         r4,[param_1,#0x4]=>DAT_200020f4         
ram:0001a70e    3443            orrs        r4,r6                                   
ram:0001a710    2246            mov         param_3,r4                              
ram:0001a712    a968            ldr         param_2,[r5,#0x8]=>DAT_200020e8         
ram:0001a714    e868            ldr         param_1,[r5,#0xc]=>DAT_200020ec         
ram:0001a716    fef769fd        bl          FUN_000191ec                            ;longlong FUN_000191ec(uint param_1, ...
                            LAB_0001a71a:                 ;XREF[1,0]:   0001a704
ram:0001a71a    70bd            pop         {r4,r5,r6,pc}                           
                            DAT_0001a71c:                 ;XREF[1,0]:   0001a6f6
ram:0001a71c    e0200020        undefined4  200020E0h                               
                            ;************************************************************************************************
                            ;*                                           FUNCTION                                           *
                            ;************************************************************************************************
                            ;undefined8 FUN_0001a720(ushort * param_1)
          ;param_1       ushort *            r0                      
          ;local_18      undefined4         -18                      ;XREF[1,0]:   0001a7ce
          ;local_1c      undefined2         -1c                      ;XREF[1,0]:   0001a7ca
          ;local_1e      undefined2         -1e                      ;XREF[1,0]:   0001a7c0
          ;local_20      undefined2         -20                      ;XREF[1,0]:   0001a7be
          ;local_24      undefined4         -24                      ;XREF[1,0]:   0001a7b4
          ;local_28      undefined4         -28                      ;XREF[1,0]:   0001a7b0
          ;local_2a      undefined1         -2a                      ;XREF[1,0]:   0001a776
          ;local_2c      undefined2         -2c                      ;XREF[1,0]:   0001a77c
          ;local_30      undefined4         -30                      ;XREF[2,3]:   0001a732,0001a734,0001a73e,0001a740,0001a748
          ;local_34      undefined4         -34                      ;XREF[1,0]:   0001a76e
          ;local_38      undefined4         -38                      ;XREF[1,0]:   0001a768
          ;local_3c      undefined4         -3c                      ;XREF[1,0]:   0001a76c
          ;local_40      undefined4         -40                      ;XREF[1,0]:   0001a76a
          ;local_48      undefined4         -48                      ;XREF[1,0]:   0001a766
          ;local_4c      undefined1         -4c                      ;XREF[2,0]:   0001a754,0001a762
          ;local_50      undefined4         -50                      ;XREF[2,3]:   0001a786,0001a788,0001a792,0001a794,0001a7a4
                                                          ;XREF[1,0]:   000198dc
ram:0001a720    70b5            push        {r4,r5,r6,lr}                           
ram:0001a722    0024            movs        r4,#0x0                                 
ram:0001a724    0546            mov         r5,param_1                              
ram:0001a726    601c            adds        param_1,r4,#0x1                         
ram:0001a728    90b0            sub         sp,#0x40                                
ram:0001a72a    0007            lsls        param_1,param_1,#0x1c                   
ram:0001a72c    000f            lsrs        param_1,param_1,#0x1c                   
ram:0001a72e    08a9            add         r1,sp,#0x20                             
ram:0001a730    1030            adds        param_1,#0x10                           
ram:0001a732    0894            str         r4,[sp,#local_30+0x50]                  
ram:0001a734    0870            strb        param_1,[r1,#0x0]=>local_30             
ram:0001a736    601c            adds        param_1,r4,#0x1                         
ram:0001a738    0007            lsls        param_1,param_1,#0x1c                   
ram:0001a73a    000f            lsrs        param_1,param_1,#0x1c                   
ram:0001a73c    1030            adds        param_1,#0x10                           
ram:0001a73e    4870            strb        param_1,[r1,#local_30+0x31]             
ram:0001a740    8878            ldrb        param_1,[r1,#local_30+0x32]             
ram:0001a742    f926            movs        r6,#0xf9                                
ram:0001a744    3040            ands        param_1,r6                              
ram:0001a746    801c            adds        param_1,param_1,#0x2                    
ram:0001a748    8870            strb        param_1,[r1,#local_30+0x32]             
ram:0001a74a    1c21            movs        r1,#0x1c                                
ram:0001a74c    01a8            add         param_1,sp,#0x4                         
ram:0001a74e    fdf74efd        bl          FUN_000181ee                            ;undefined FUN_000181ee(undefined * p...
ram:0001a752    6946            mov         r1,sp                                   
ram:0001a754    0b79            ldrb        r3,[r1,#local_4c+0x50]                  
ram:0001a756    0220            movs        param_1,#0x2                            
ram:0001a758    0343            orrs        r3,param_1                              
ram:0001a75a    f720            movs        param_1,#0xf7                           
ram:0001a75c    0340            ands        r3,param_1                              
ram:0001a75e    ef22            movs        r2,#0xef                                
ram:0001a760    1340            ands        r3,r2                                   
ram:0001a762    0b71            strb        r3,[r1,#local_4c+0x50]                  
ram:0001a764    08a9            add         r1,sp,#0x20                             
ram:0001a766    0294            str         r4,[sp,#local_48+0x50]                  
ram:0001a768    0691            str         r1,[sp,#local_38+0x50]                  
ram:0001a76a    0494            str         r4,[sp,#local_40+0x50]                  
ram:0001a76c    0594            str         r4,[sp,#local_3c+0x50]                  
ram:0001a76e    0794            str         r4,[sp,#local_34+0x50]                  
ram:0001a770    3221            movs        r1,#0x32                                
ram:0001a772    4b5d            ldrb        r3,[r1,r5]                              
ram:0001a774    08a9            add         r1,sp,#0x20                             
ram:0001a776    8b71            strb        r3,[r1,#local_2a+0x30]                  
ram:0001a778    194b            ldr         r3,[DAT_0001a7e0]                       ;= 00001528h
ram:0001a77a    6946            mov         r1,sp                                   
ram:0001a77c    8b84            strh        r3,[r1,#local_2c+0x50]                  
ram:0001a77e    0121            movs        r1,#0x1                                 
ram:0001a780    0b46            mov         r3,r1                                   
ram:0001a782    6946            mov         r1,sp                                   
ram:0001a784    1033            adds        r3,#0x10                                
ram:0001a786    0094            str         r4,[sp,#0x0]=>local_50                  
ram:0001a788    0b70            strb        r3,[r1,#0x0]=>local_50                  
ram:0001a78a    0121            movs        r1,#0x1                                 
ram:0001a78c    0b46            mov         r3,r1                                   
ram:0001a78e    6946            mov         r1,sp                                   
ram:0001a790    1033            adds        r3,#0x10                                
ram:0001a792    4b70            strb        r3,[r1,#local_50+0x51]                  
ram:0001a794    8978            ldrb        r1,[r1,#local_50+0x52]                  
ram:0001a796    3140            ands        r1,r6                                   
ram:0001a798    891c            adds        r1,r1,#0x2                              
ram:0001a79a    0140            ands        r1,param_1                              
ram:0001a79c    1140            ands        r1,r2                                   
ram:0001a79e    4808            lsrs        param_1,r1,#0x1                         
ram:0001a7a0    4000            lsls        param_1,param_1,#0x1                    
ram:0001a7a2    6946            mov         r1,sp                                   
ram:0001a7a4    8870            strb        param_1,[r1,#local_50+0x52]             
ram:0001a7a6    1421            movs        r1,#0x14                                
ram:0001a7a8    0aa8            add         param_1,sp,#0x28                        
ram:0001a7aa    fdf720fd        bl          FUN_000181ee                            ;undefined FUN_000181ee(undefined * p...
ram:0001a7ae    09a8            add         param_1,sp,#0x24                        
ram:0001a7b0    0a90            str         param_1,[sp,#local_28+0x50]             
ram:0001a7b2    6846            mov         param_1,sp                              
ram:0001a7b4    0b90            str         param_1,[sp,#local_24+0x50]             
ram:0001a7b6    0b48            ldr         param_1=>s_SMv2....,[PTR_s_SMv2.32.3_...;= "SMv2.32.3"
                                                                                    ;= 0001c570
ram:0001a7b8    fdf724fd        bl          FUN_00018204                            ;int FUN_00018204(char * param_1)
ram:0001a7bc    6946            mov         r1,sp                                   
ram:0001a7be    0886            strh        param_1,[r1,#local_20+0x50]             
ram:0001a7c0    4c86            strh        r4,[r1,#local_1e+0x50]                  
ram:0001a7c2    0848            ldr         param_1=>s_SMv2....,[PTR_s_SMv2.32.3_...;= "SMv2.32.3"
                                                                                    ;= 0001c570
ram:0001a7c4    fdf71efd        bl          FUN_00018204                            ;int FUN_00018204(char * param_1)
ram:0001a7c8    6946            mov         r1,sp                                   
ram:0001a7ca    8886            strh        param_1,[r1,#local_1c+0x50]             
ram:0001a7cc    0548            ldr         param_1,[PTR_s_SMv2.32.3_0001a7e4]      ;= 0001c570
ram:0001a7ce    0e90            str         param_1=>s_SMv2....,[sp,#local_18+0x50] ;= "SMv2.32.3"
ram:0001a7d0    2b46            mov         r3,r5                                   
ram:0001a7d2    2888            ldrh        param_1,[r5,#0x0]                       
ram:0001a7d4    1a33            adds        r3,#0x1a                                
ram:0001a7d6    0aaa            add         r2,sp,#0x28                             
ram:0001a7d8    01a9            add         r1,sp,#0x4                              
ram:0001a7da    a2df            svc         0xa2                                    
ram:0001a7dc    10b0            add         sp,#0x40                                
ram:0001a7de    70bd            pop         {r4,r5,r6,pc}                           
                            DAT_0001a7e0:                 ;XREF[1,0]:   0001a778
ram:0001a7e0    28150000        undefined4  00001528h                               
                            PTR_s_SMv2.32.3_0001a7e4:     ;XREF[3,0]:   0001a7b6,0001a7c2,0001a7cc
ram:0001a7e4    70c50100        addr        s_SMv2.32.3_0001c570                    ;= "SMv2.32.3"
                            ;************************************************************************************************
                            ;*                                           FUNCTION                                           *
                            ;************************************************************************************************
                            ;undefined FUN_0001a7e8(void)
          ;local_18      undefined4         -18                      ;XREF[2,0]:   0001a82c,0001a838
                                                          ;XREF[1,0]:   00018796
ram:0001a7e8    f8b5            push        {r3,r4,r5,r6,r7,lr}                     
ram:0001a7ea    1e4c            ldr         r4,[DAT_0001a864]                       ;= 20002140h
ram:0001a7ec    2078            ldrb        r0,[r4,#0x0]=>DAT_20002140              
ram:0001a7ee    0028            cmp         r0,#0x0                                 
ram:0001a7f0    37d0            beq         LAB_0001a862                            
ram:0001a7f2    2069            ldr         r0,[r4,#0x10]=>DAT_20002150             
ram:0001a7f4    0028            cmp         r0,#0x0                                 
ram:0001a7f6    07d0            beq         LAB_0001a808                            
ram:0001a7f8    0026            movs        r6,#0x0                                 
                            LAB_0001a7fa:                 ;XREF[1,0]:   0001a80a
ram:0001a7fa    e068            ldr         r0,[r4,#0xc]=>DAT_2000214c              
ram:0001a7fc    0028            cmp         r0,#0x0                                 
ram:0001a7fe    05d0            beq         LAB_0001a80c                            
ram:0001a800    0025            movs        r5,#0x0                                 
                            LAB_0001a802:                 ;XREF[2,0]:   0001a80e,0001a860
ram:0001a802    002e            cmp         r6,#0x0                                 
ram:0001a804    04d0            beq         LAB_0001a810                            
ram:0001a806    13e0            b           LAB_0001a830                            
                            LAB_0001a808:                 ;XREF[1,0]:   0001a7f6
ram:0001a808    0126            movs        r6,#0x1                                 
ram:0001a80a    f6e7            b           LAB_0001a7fa                            
                            LAB_0001a80c:                 ;XREF[1,0]:   0001a7fe
ram:0001a80c    0125            movs        r5,#0x1                                 
ram:0001a80e    f8e7            b           LAB_0001a802                            
                            LAB_0001a810:                 ;XREF[2,0]:   0001a804,0001a85c
ram:0001a810    6846            mov         r0,sp                                   
ram:0001a812    51df            svc         0x51                                    
ram:0001a814    0528            cmp         r0,#0x5                                 
ram:0001a816    06d0            beq         LAB_0001a826                            
ram:0001a818    0028            cmp         r0,#0x0                                 
ram:0001a81a    06d0            beq         LAB_0001a82a                            
ram:0001a81c    0022            movs        r2,#0x0                                 
ram:0001a81e    1146            mov         r1,r2                                   
ram:0001a820    fef732fa        bl          FUN_00018c88                            ;undefined FUN_00018c88(void)
ram:0001a824    04e0            b           LAB_0001a830                            
                            LAB_0001a826:                 ;XREF[1,0]:   0001a816
ram:0001a826    0126            movs        r6,#0x1                                 
ram:0001a828    02e0            b           LAB_0001a830                            
                            LAB_0001a82a:                 ;XREF[1,0]:   0001a81a
ram:0001a82a    2169            ldr         r1,[r4,#0x10]=>DAT_20002150             
ram:0001a82c    0098            ldr         r0=>local_18,[sp,#0x0]                  
ram:0001a82e    8847            blx         r1                                      
                            LAB_0001a830:                 ;XREF[3,0]:   0001a806,0001a824,0001a828
ram:0001a830    002d            cmp         r5,#0x0                                 
ram:0001a832    12d1            bne         LAB_0001a85a                            
ram:0001a834    6088            ldrh        r0,[r4,#0x2]=>DAT_20002142              
ram:0001a836    6946            mov         r1,sp                                   
ram:0001a838    0880            strh        r0,[r1,#0x0]=>local_18                  
ram:0001a83a    a068            ldr         r0,[r4,#0x8]=>DAT_20002148              
ram:0001a83c    61df            svc         0x61                                    
ram:0001a83e    0528            cmp         r0,#0x5                                 
ram:0001a840    06d0            beq         LAB_0001a850                            
ram:0001a842    0028            cmp         r0,#0x0                                 
ram:0001a844    06d0            beq         LAB_0001a854                            
ram:0001a846    0022            movs        r2,#0x0                                 
ram:0001a848    1146            mov         r1,r2                                   
ram:0001a84a    fef71dfa        bl          FUN_00018c88                            ;undefined FUN_00018c88(void)
ram:0001a84e    04e0            b           LAB_0001a85a                            
                            LAB_0001a850:                 ;XREF[1,0]:   0001a840
ram:0001a850    0125            movs        r5,#0x1                                 
ram:0001a852    02e0            b           LAB_0001a85a                            
                            LAB_0001a854:                 ;XREF[1,0]:   0001a844
ram:0001a854    e168            ldr         r1,[r4,#0xc]=>DAT_2000214c              
ram:0001a856    a068            ldr         r0,[r4,#0x8]=>DAT_20002148              
ram:0001a858    8847            blx         r1                                      
                            LAB_0001a85a:                 ;XREF[3,0]:   0001a832,0001a84e,0001a852
ram:0001a85a    002e            cmp         r6,#0x0                                 
ram:0001a85c    d8d0            beq         LAB_0001a810                            
ram:0001a85e    002d            cmp         r5,#0x0                                 
ram:0001a860    cfd0            beq         LAB_0001a802                            
                            LAB_0001a862:                 ;XREF[1,0]:   0001a7f0
ram:0001a862    f8bd            pop         {r3,r4,r5,r6,r7,pc}                     
                            DAT_0001a864:                 ;XREF[1,0]:   0001a7ea
ram:0001a864    40210020        undefined4  20002140h                               
                            ;************************************************************************************************
                            ;*                                           FUNCTION                                           *
                            ;************************************************************************************************
                            ;undefined4 FUN_0001a868(int param_1)
          ;param_1       int                 r0                      
                                                          ;XREF[1,0]:   00019ea4
ram:0001a868    4188            ldrh        r1,[param_1,#0x2]                       
ram:0001a86a    0548            ldr         param_1,[DAT_0001a880]                  ;= 20002094h
ram:0001a86c    0288            ldrh        r2,[param_1,#0x0]=>DAT_20002094         
ram:0001a86e    9142            cmp         r1,r2                                   
ram:0001a870    04d3            bcc         LAB_0001a87c                            
ram:0001a872    4088            ldrh        param_1,[param_1,#0x2]=>DAT_20002096    
ram:0001a874    8142            cmp         r1,param_1                              
ram:0001a876    01d8            bhi         LAB_0001a87c                            
ram:0001a878    0120            movs        param_1,#0x1                            
ram:0001a87a    7047            bx          lr                                      
                            LAB_0001a87c:                 ;XREF[2,0]:   0001a870,0001a876
ram:0001a87c    0020            movs        param_1,#0x0                            
ram:0001a87e    7047            bx          lr                                      
                            DAT_0001a880:                 ;XREF[1,0]:   0001a86a
ram:0001a880    94200020        undefined4  20002094h                               
                            ;************************************************************************************************
                            ;*                                           FUNCTION                                           *
                            ;************************************************************************************************
                            ;undefined4 FUN_0001a884(void)
                                                          ;XREF[1,0]:   000187a2
ram:0001a884    1048            ldr         r0,[DAT_0001a8c8]                       ;= F0000FC0h
ram:0001a886    018c            ldrh        r1,[r0,#0x20]=>DAT_f0000fe0             
ram:0001a888    c9b2            uxtb        r1,r1                                   
ram:0001a88a    0129            cmp         r1,#0x1                                 
ram:0001a88c    17d1            bne         LAB_0001a8be                            
ram:0001a88e    818c            ldrh        r1,[r0,#0x24]=>DAT_f0000fe4             
ram:0001a890    0907            lsls        r1,r1,#0x1c                             
ram:0001a892    14d1            bne         LAB_0001a8be                            
ram:0001a894    018d            ldrh        r1,[r0,#0x28]=>DAT_f0000fe8             
ram:0001a896    0906            lsls        r1,r1,#0x18                             
ram:0001a898    0a0f            lsrs        r2,r1,#0x1c                             
ram:0001a89a    03d1            bne         LAB_0001a8a4                            
ram:0001a89c    828d            ldrh        r2,[r0,#0x2c]=>DAT_f0000fec             
ram:0001a89e    1206            lsls        r2,r2,#0x18                             
ram:0001a8a0    120f            lsrs        r2,r2,#0x1c                             
ram:0001a8a2    0ed0            beq         LAB_0001a8c2                            
                            LAB_0001a8a4:                 ;XREF[1,0]:   0001a89a
ram:0001a8a4    090f            lsrs        r1,r1,#0x1c                             
ram:0001a8a6    0129            cmp         r1,#0x1                                 
ram:0001a8a8    03d1            bne         LAB_0001a8b2                            
ram:0001a8aa    828d            ldrh        r2,[r0,#0x2c]=>DAT_f0000fec             
ram:0001a8ac    1206            lsls        r2,r2,#0x18                             
ram:0001a8ae    120f            lsrs        r2,r2,#0x1c                             
ram:0001a8b0    07d0            beq         LAB_0001a8c2                            
                            LAB_0001a8b2:                 ;XREF[1,0]:   0001a8a8
ram:0001a8b2    0329            cmp         r1,#0x3                                 
ram:0001a8b4    03d1            bne         LAB_0001a8be                            
ram:0001a8b6    808d            ldrh        r0,[r0,#0x2c]=>DAT_f0000fec             
ram:0001a8b8    0006            lsls        r0,r0,#0x18                             
ram:0001a8ba    000f            lsrs        r0,r0,#0x1c                             
ram:0001a8bc    01d0            beq         LAB_0001a8c2                            
                            LAB_0001a8be:                 ;XREF[3,0]:   0001a88c,0001a892,0001a8b4
ram:0001a8be    0020            movs        r0,#0x0                                 
ram:0001a8c0    7047            bx          lr                                      
                            LAB_0001a8c2:                 ;XREF[3,0]:   0001a8a2,0001a8b0,0001a8bc
ram:0001a8c2    0120            movs        r0,#0x1                                 
ram:0001a8c4    7047            bx          lr                                      
ram:0001a8c6    0000            movs        r0,r0                                   
                            DAT_0001a8c8:                 ;XREF[1,0]:   0001a884
ram:0001a8c8    c00f00f0        undefined4  F0000FC0h                               
                            ;************************************************************************************************
                            ;*                                           FUNCTION                                           *
                            ;************************************************************************************************
                            ;undefined4 FUN_0001a8cc(uint param_1)
          ;param_1       uint                r0                      
                                                          ;XREF[7,0]:   0001b3c0,0001b510,0001b51a,0001b524
                                                          ;             0001b69c,0001b6a6,0001b6b0
ram:0001a8cc    8007            lsls        param_1,param_1,#0x1e                   
ram:0001a8ce    01d0            beq         LAB_0001a8d4                            
ram:0001a8d0    0020            movs        param_1,#0x0                            
ram:0001a8d2    7047            bx          lr                                      
                            LAB_0001a8d4:                 ;XREF[1,0]:   0001a8ce
ram:0001a8d4    0120            movs        param_1,#0x1                            
ram:0001a8d6    7047            bx          lr                                      
                            ;************************************************************************************************
                            ;*                                           FUNCTION                                           *
                            ;************************************************************************************************
                            ;undefined4 FUN_0001a8d8(void)
          ;local_18      undefined4         -18                      ;XREF[2,0]:   0001a8de,0001a95a
                                                          ;XREF[1,0]:   00018740
ram:0001a8d8    f8b5            push        {r3,r4,r5,r6,r7,lr}                     
ram:0001a8da    2348            ldr         r0,[DAT_0001a968]                       ;= 20002114h
ram:0001a8dc    0169            ldr         r1,[r0,#0x10]=>DAT_20002124             
ram:0001a8de    0091            str         r1,[sp,#0x0]=>local_18                  
ram:0001a8e0    4578            ldrb        r5,[r0,#0x1]=>DAT_20002115              
ram:0001a8e2    33e0            b           LAB_0001a94c                            
                            LAB_0001a8e4:                 ;XREF[1,0]:   0001a954
ram:0001a8e4    2048            ldr         r0,[DAT_0001a968]                       ;= 20002114h
ram:0001a8e6    e900            lsls        r1,r5,#0x3                              
ram:0001a8e8    c068            ldr         r0,[r0,#0xc]=>DAT_20002120              
ram:0001a8ea    0e18            adds        r6,r1,r0                                
ram:0001a8ec    3478            ldrb        r4,[r6,#0x0]                            
ram:0001a8ee    2ae0            b           LAB_0001a946                            
                            LAB_0001a8f0:                 ;XREF[1,0]:   0001a94a
ram:0001a8f0    1820            movs        r0,#0x18                                
ram:0001a8f2    6043            muls        r0,r4                                   
ram:0001a8f4    7168            ldr         r1,[r6,#0x4]                            
ram:0001a8f6    641c            adds        r4,r4,#0x1                              
ram:0001a8f8    0818            adds        r0,r1,r0                                
ram:0001a8fa    b178            ldrb        r1,[r6,#0x2]                            
ram:0001a8fc    e4b2            uxtb        r4,r4                                   
ram:0001a8fe    a142            cmp         r1,r4                                   
ram:0001a900    00d1            bne         LAB_0001a904                            
ram:0001a902    0024            movs        r4,#0x0                                 
                            LAB_0001a904:                 ;XREF[1,0]:   0001a900
ram:0001a904    0178            ldrb        r1,[r0,#0x0]                            
ram:0001a906    0229            cmp         r1,#0x2                                 
ram:0001a908    02d0            beq         LAB_0001a910                            
ram:0001a90a    0329            cmp         r1,#0x3                                 
ram:0001a90c    1bd1            bne         LAB_0001a946                            
ram:0001a90e    13e0            b           LAB_0001a938                            
                            LAB_0001a910:                 ;XREF[1,0]:   0001a908
ram:0001a910    154a            ldr         r2,[DAT_0001a968]                       ;= 20002114h
ram:0001a912    4068            ldr         r0,[r0,#0x4]                            
ram:0001a914    2421            movs        r1,#0x24                                
ram:0001a916    9268            ldr         r2,[r2,#0x8]=>DAT_2000211c              
ram:0001a918    4143            muls        r1,r0                                   
ram:0001a91a    8f18            adds        r7,r1,r2                                
ram:0001a91c    397d            ldrb        r1,[r7,#0x14]                           
ram:0001a91e    0029            cmp         r1,#0x0                                 
ram:0001a920    11d0            beq         LAB_0001a946                            
ram:0001a922    01f013fc        bl          FUN_0001c14c                            ;undefined FUN_0001c14c(int param_1)
ram:0001a926    0020            movs        r0,#0x0                                 
ram:0001a928    3875            strb        r0,[r7,#0x14]                           
ram:0001a92a    0ce0            b           LAB_0001a946                            
                            LAB_0001a92c:                 ;XREF[1,0]:   0001a942
ram:0001a92c    2427            movs        r7,#0x24                                
ram:0001a92e    7843            muls        r0,r7                                   
ram:0001a930    c018            adds        r0,r0,r3                                
ram:0001a932    0275            strb        r2,[r0,#0x14]                           
ram:0001a934    006a            ldr         r0,[r0,#0x20]                           
ram:0001a936    03e0            b           LAB_0001a940                            
                            LAB_0001a938:                 ;XREF[1,0]:   0001a90e
ram:0001a938    0b49            ldr         r1,[DAT_0001a968]                       ;= 20002114h
ram:0001a93a    0022            movs        r2,#0x0                                 
ram:0001a93c    8b68            ldr         r3,[r1,#0x8]=>DAT_2000211c              
ram:0001a93e    0869            ldr         r0,[r1,#0x10]=>DAT_20002124             
                            LAB_0001a940:                 ;XREF[1,0]:   0001a936
ram:0001a940    471c            adds        r7,r0,#0x1                              
ram:0001a942    f3d1            bne         LAB_0001a92c                            
ram:0001a944    0861            str         r0,[r1,#0x10]=>DAT_20002124             
                            LAB_0001a946:                 ;XREF[4,0]:   0001a8ee,0001a90c,0001a920,0001a92a
ram:0001a946    7078            ldrb        r0,[r6,#0x1]                            
ram:0001a948    a042            cmp         r0,r4                                   
ram:0001a94a    d1d1            bne         LAB_0001a8f0                            
                            LAB_0001a94c:                 ;XREF[1,0]:   0001a8e2
ram:0001a94c    2846            mov         r0,r5                                   
ram:0001a94e    6d1e            subs        r5,r5,#0x1                              
ram:0001a950    edb2            uxtb        r5,r5                                   
ram:0001a952    0028            cmp         r0,#0x0                                 
ram:0001a954    c6d1            bne         LAB_0001a8e4                            
ram:0001a956    0448            ldr         r0,[DAT_0001a968]                       ;= 20002114h
ram:0001a958    0169            ldr         r1,[r0,#0x10]=>DAT_20002124             
ram:0001a95a    0098            ldr         r0,[sp,#0x0]=>local_18                  
ram:0001a95c    8142            cmp         r1,r0                                   
ram:0001a95e    01d0            beq         LAB_0001a964                            
ram:0001a960    0120            movs        r0,#0x1                                 
ram:0001a962    f8bd            pop         {r3,r4,r5,r6,r7,pc}                     
                            LAB_0001a964:                 ;XREF[1,0]:   0001a95e
ram:0001a964    0020            movs        r0,#0x0                                 
ram:0001a966    f8bd            pop         {r3,r4,r5,r6,r7,pc}                     
                            DAT_0001a968:                 ;XREF[5,0]:   0001a8da,0001a8e4,0001a910,0001a938
                                                          ;             0001a956
ram:0001a968    14210020        undefined4  20002114h                               
                            ;************************************************************************************************
                            ;*                                           FUNCTION                                           *
                            ;************************************************************************************************
                            ;undefined4 FUN_0001a96c(int param_1)
          ;param_1       int                 r0                      
          ;local_18      undefined4         -18                      ;XREF[2,0]:   0001a976,0001aa44
                                                          ;XREF[2,0]:   00018756,0001875e
ram:0001a96c    f8b5            push        {r3,r4,r5,r6,r7,lr}                     
ram:0001a96e    0446            mov         r4,param_1                              
ram:0001a970    3848            ldr         param_1,[DAT_0001aa54]                  ;= 20002114h
ram:0001a972    0027            movs        r7,#0x0                                 
ram:0001a974    0169            ldr         r1,[param_1,#0x10]=>DAT_20002124        
ram:0001a976    0091            str         r1,[sp,#0x0]=>local_18                  
ram:0001a978    4678            ldrb        r6,[param_1,#0x1]=>DAT_20002115         
ram:0001a97a    5ce0            b           LAB_0001aa36                            
                            LAB_0001a97c:                 ;XREF[1,0]:   0001aa3e
ram:0001a97c    3548            ldr         param_1,[DAT_0001aa54]                  ;= 20002114h
ram:0001a97e    f100            lsls        r1,r6,#0x3                              
ram:0001a980    c268            ldr         r2,[param_1,#0xc]=>DAT_20002120         
ram:0001a982    8d18            adds        r5,r1,r2                                
ram:0001a984    51e0            b           LAB_0001aa2a                            
                            LAB_0001a986:                 ;XREF[2,0]:   0001aa2c,0001aa34
ram:0001a986    601c            adds        param_1,r4,#0x1                         
ram:0001a988    07d0            beq         LAB_0001a99a                            
ram:0001a98a    324a            ldr         r2,[DAT_0001aa54]                       ;= 20002114h
ram:0001a98c    2420            movs        param_1,#0x24                           
ram:0001a98e    9268            ldr         r2,[r2,#0x8]=>DAT_2000211c              
ram:0001a990    6043            muls        param_1,r4                              
ram:0001a992    2146            mov         r1,r4                                   
ram:0001a994    8018            adds        param_1,param_1,r2                      
ram:0001a996    046a            ldr         r4,[param_1,#0x20]                      
ram:0001a998    24e0            b           LAB_0001a9e4                            
                            LAB_0001a99a:                 ;XREF[1,0]:   0001a988
ram:0001a99a    2878            ldrb        param_1,[r5,#0x0]                       
ram:0001a99c    1821            movs        r1,#0x18                                
ram:0001a99e    4143            muls        r1,param_1                              
ram:0001a9a0    6a68            ldr         r2,[r5,#0x4]                            
ram:0001a9a2    401c            adds        param_1,param_1,#0x1                    
ram:0001a9a4    c0b2            uxtb        param_1,param_1                         
ram:0001a9a6    5218            adds        r2,r2,r1                                
ram:0001a9a8    2870            strb        param_1,[r5,#0x0]                       
ram:0001a9aa    a978            ldrb        r1,[r5,#0x2]                            
ram:0001a9ac    8842            cmp         param_1,r1                              
ram:0001a9ae    00d1            bne         LAB_0001a9b2                            
ram:0001a9b0    2f70            strb        r7,[r5,#0x0]                            
                            LAB_0001a9b2:                 ;XREF[1,0]:   0001a9ae
ram:0001a9b2    284b            ldr         r3,[DAT_0001aa54]                       ;= 20002114h
ram:0001a9b4    5168            ldr         r1,[r2,#0x4]                            
ram:0001a9b6    2420            movs        param_1,#0x24                           
ram:0001a9b8    9b68            ldr         r3,[r3,#0x8]=>DAT_2000211c              
ram:0001a9ba    4843            muls        param_1,r1                              
ram:0001a9bc    c018            adds        param_1,param_1,r3                      
ram:0001a9be    1378            ldrb        r3,[r2,#0x0]                            
ram:0001a9c0    012b            cmp         r3,#0x1                                 
ram:0001a9c2    34d1            bne         LAB_0001aa2e                            
ram:0001a9c4    037d            ldrb        r3,[param_1,#0x14]                      
ram:0001a9c6    002b            cmp         r3,#0x0                                 
ram:0001a9c8    31d1            bne         LAB_0001aa2e                            
ram:0001a9ca    9368            ldr         r3,[r2,#0x8]                            
ram:0001a9cc    8360            str         r3,[param_1,#0x8]                       
ram:0001a9ce    d368            ldr         r3,[r2,#0xc]                            
ram:0001a9d0    c360            str         r3,[param_1,#0xc]                       
ram:0001a9d2    1369            ldr         r3,[r2,#0x10]                           
ram:0001a9d4    0361            str         r3,[param_1,#0x10]                      
ram:0001a9d6    5269            ldr         r2,[r2,#0x14]                           
ram:0001a9d8    c261            str         r2,[param_1,#0x1c]                      
ram:0001a9da    1e4a            ldr         r2,[DAT_0001aa54]                       ;= 20002114h
ram:0001a9dc    5279            ldrb        r2,[r2,#0x5]=>DAT_20002119              
ram:0001a9de    002a            cmp         r2,#0x0                                 
ram:0001a9e0    00d0            beq         LAB_0001a9e4                            
ram:0001a9e2    8760            str         r7,[param_1,#0x8]                       
                            LAB_0001a9e4:                 ;XREF[2,0]:   0001a998,0001a9e0
ram:0001a9e4    1b4b            ldr         r3,[DAT_0001aa54]                       ;= 20002114h
ram:0001a9e6    8268            ldr         r2,[param_1,#0x8]                       
ram:0001a9e8    5b69            ldr         r3,[r3,#0x14]=>DAT_20002128             
ram:0001a9ea    9646            mov         lr,r2                                   
ram:0001a9ec    9c46            mov         r12,r3                                  
ram:0001a9ee    d31a            subs        r3,r2,r3                                
ram:0001a9f0    1a02            lsls        r2,r3,#0x8                              
ram:0001a9f2    194b            ldr         r3,[DAT_0001aa58]                       ;= 007FFFFFh
ram:0001a9f4    120a            lsrs        r2,r2,#0x8                              
ram:0001a9f6    9a42            cmp         r2,r3                                   
ram:0001a9f8    02d2            bcs         LAB_0001aa00                            
ram:0001a9fa    c368            ldr         r3,[param_1,#0xc]                       
ram:0001a9fc    d218            adds        r2,r2,r3                                
ram:0001a9fe    08e0            b           LAB_0001aa12                            
                            LAB_0001aa00:                 ;XREF[1,0]:   0001a9f8
ram:0001aa00    7246            mov         r2,lr                                   
ram:0001aa02    6346            mov         r3,r12                                  
ram:0001aa04    9a1a            subs        r2,r3,r2                                
ram:0001aa06    1202            lsls        r2,r2,#0x8                              
ram:0001aa08    c368            ldr         r3,[param_1,#0xc]                       
ram:0001aa0a    120a            lsrs        r2,r2,#0x8                              
ram:0001aa0c    9342            cmp         r3,r2                                   
ram:0001aa0e    02d9            bls         LAB_0001aa16                            
ram:0001aa10    9a1a            subs        r2,r3,r2                                
                            LAB_0001aa12:                 ;XREF[1,0]:   0001a9fe
ram:0001aa12    4260            str         r2,[param_1,#0x4]                       
ram:0001aa14    00e0            b           LAB_0001aa18                            
                            LAB_0001aa16:                 ;XREF[1,0]:   0001aa0e
ram:0001aa16    4760            str         r7,[param_1,#0x4]                       
                            LAB_0001aa18:                 ;XREF[1,0]:   0001aa14
ram:0001aa18    8760            str         r7,[param_1,#0x8]                       
ram:0001aa1a    0122            movs        r2,#0x1                                 
ram:0001aa1c    c760            str         r7,[param_1,#0xc]                       
ram:0001aa1e    0275            strb        r2,[param_1,#0x14]                      
ram:0001aa20    921e            subs        r2,r2,#0x2                              
ram:0001aa22    0262            str         r2,[param_1,#0x20]                      
ram:0001aa24    0846            mov         param_1,r1                              
ram:0001aa26    01f05ffb        bl          FUN_0001c0e8                            ;undefined FUN_0001c0e8(int param_1)
                            LAB_0001aa2a:                 ;XREF[1,0]:   0001a984
ram:0001aa2a    601c            adds        param_1,r4,#0x1                         
ram:0001aa2c    abd1            bne         LAB_0001a986                            
                            LAB_0001aa2e:                 ;XREF[2,0]:   0001a9c2,0001a9c8
ram:0001aa2e    2878            ldrb        param_1,[r5,#0x0]                       
ram:0001aa30    6978            ldrb        r1,[r5,#0x1]                            
ram:0001aa32    8842            cmp         param_1,r1                              
ram:0001aa34    a7d1            bne         LAB_0001a986                            
                            LAB_0001aa36:                 ;XREF[1,0]:   0001a97a
ram:0001aa36    3046            mov         param_1,r6                              
ram:0001aa38    761e            subs        r6,r6,#0x1                              
ram:0001aa3a    f6b2            uxtb        r6,r6                                   
ram:0001aa3c    0028            cmp         param_1,#0x0                            
ram:0001aa3e    9dd1            bne         LAB_0001a97c                            
ram:0001aa40    0448            ldr         param_1,[DAT_0001aa54]                  ;= 20002114h
ram:0001aa42    0169            ldr         r1,[param_1,#0x10]=>DAT_20002124        
ram:0001aa44    0098            ldr         param_1,[sp,#0x0]=>local_18             
ram:0001aa46    8142            cmp         r1,param_1                              
ram:0001aa48    01d0            beq         LAB_0001aa4e                            
ram:0001aa4a    0120            movs        param_1,#0x1                            
ram:0001aa4c    f8bd            pop         {r3,r4,r5,r6,r7,pc}                     
                            LAB_0001aa4e:                 ;XREF[1,0]:   0001aa48
ram:0001aa4e    0020            movs        param_1,#0x0                            
ram:0001aa50    f8bd            pop         {r3,r4,r5,r6,r7,pc}                     
ram:0001aa52    0000            movs        r0,r0                                   
                            DAT_0001aa54:                 ;XREF[7,0]:   0001a970,0001a97c,0001a98a,0001a9b2
                                                          ;             0001a9da,0001a9e4,0001aa40
ram:0001aa54    14210020        undefined4  20002114h                               
                            DAT_0001aa58:                 ;XREF[1,0]:   0001a9f2
ram:0001aa58    ffff7f00        undefined4  007FFFFFh                               
                            ;************************************************************************************************
                            ;*                                           FUNCTION                                           *
                            ;************************************************************************************************
                            ;undefined FUN_0001aa5c(void)
ram:0001aa5c    10b5            push        {r4,lr}                                 
ram:0001aa5e    0b48            ldr         r0=>DAT_20002000,[DAT_0001aa8c]         ;= 20002000h
ram:0001aa60    c178            ldrb        r1,[r0,#offset DAT_20002003 &0xff]      
ram:0001aa62    491c            adds        r1,r1,#0x1                              
ram:0001aa64    c170            strb        r1,[r0,#offset DAT_20002003 &0xff]      
ram:0001aa66    c378            ldrb        r3,[r0,#offset DAT_20002003 &0xff]      
ram:0001aa68    0146            mov         r1,r0                                   
ram:0001aa6a    8978            ldrb        r1,[r1,#offset DAT_20002002 &0xff]      
ram:0001aa6c    0222            movs        r2,#0x2                                 
ram:0001aa6e    1143            orrs        r1,r2                                   
ram:0001aa70    032b            cmp         r3,#0x3                                 
ram:0001aa72    09d0            beq         LAB_0001aa88                            
ram:0001aa74    c278            ldrb        r2,[r0,#offset DAT_20002003 &0xff]      
ram:0001aa76    1e2a            cmp         r2,#0x1e                                
ram:0001aa78    05d3            bcc         LAB_0001aa86                            
ram:0001aa7a    0022            movs        r2,#0x0                                 
ram:0001aa7c    c270            strb        r2,[r0,#offset DAT_20002003 &0xff]      
ram:0001aa7e    8170            strb        r1,[r0,#offset DAT_20002002 &0xff]      
ram:0001aa80    4069            ldr         r0,[r0,#offset DAT_20002014 &0xff]      
ram:0001aa82    fef7f5fb        bl          FUN_00019270                            ;undefined4 FUN_00019270(uint param_1...
                            LAB_0001aa86:                 ;XREF[1,0]:   0001aa78
ram:0001aa86    10bd            pop         {r4,pc}                                 
                            LAB_0001aa88:                 ;XREF[1,0]:   0001aa72
ram:0001aa88    8170            strb        r1,[r0,#offset DAT_20002002 &0xff]      
ram:0001aa8a    10bd            pop         {r4,pc}                                 
                            DAT_0001aa8c:                 ;XREF[1,0]:   0001aa5e
ram:0001aa8c    00200020        undefined4  20002000h                               
                            ;************************************************************************************************
                            ;*                                           FUNCTION                                           *
                            ;************************************************************************************************
                            ;undefined FUN_0001aa90(void)
          ;local_8       undefined4          -8                      ;XREF[1,0]:   0001ac08
          ;local_c       undefined4          -c                      ;XREF[1,0]:   0001ac04
          ;local_10      undefined1         -10                      ;XREF[1,0]:   0001ac00
          ;local_12      undefined2         -12                      ;XREF[1,0]:   0001abfc
          ;local_14      undefined1         -14                      ;XREF[1,0]:   0001abfa
          ;local_18      undefined4         -18                      ;XREF[1,0]:   0001abf2
          ;local_1c      undefined4         -1c                      ;XREF[1,0]:   0001abee
          ;local_20      undefined4         -20                      ;XREF[1,0]:   0001abf4
          ;local_28      undefined1         -28                      ;XREF[1,0]:   0001ab5a
          ;local_2c      undefined4         -2c                      ;XREF[3,2]:   0001ab34,0001ab76,0001ab80,0001ab36,0001ab84
          ;local_30      undefined4         -30                      ;XREF[4,1]:   0001ab3c,0001ab70,0001ab78,0001ac3e,0001ab7c
                                                          ;XREF[1,0]:   000180ca
ram:0001aa90    0020            movs        r0,#0x0                                 
ram:0001aa92    a349            ldr         r1=>DAT_50000700,[DAT_0001ad20]         ;= 50000700h
ram:0001aa94    8cb0            sub         sp,#0x30                                
ram:0001aa96    0226            movs        r6,#0x2                                 
                            LAB_0001aa98:                 ;XREF[1,0]:   0001aaa2
ram:0001aa98    8200            lsls        r2,r0,#0x2                              
ram:0001aa9a    5218            adds        r2=>DAT_50000700,r2,r1                  
                                                          ; FWD[2,0]:   50000700,50000704
ram:0001aa9c    1660            str         r6,[r2,#0x0]=>DAT_50000700              
ram:0001aa9e    401c            adds        r0,r0,#0x1                              
ram:0001aaa0    2028            cmp         r0,#0x20                                
ram:0001aaa2    f9d3            bcc         LAB_0001aa98                            
ram:0001aaa4    9f4c            ldr         r4,[DAT_0001ad24]                       ;= 4000D000h
ram:0001aaa6    0125            movs        r5,#0x1                                 
ram:0001aaa8    2560            str         r5,[r4,#0x0]=>DAT_4000d000              
ram:0001aaaa    c820            movs        r0,#0xc8                                
ram:0001aaac    00f0f8f9        bl          FUN_0001aea0                            ;undefined FUN_0001aea0(int param_1)
ram:0001aab0    0027            movs        r7,#0x0                                 
ram:0001aab2    2760            str         r7,[r4,#0x0]=>DAT_4000d000              
ram:0001aab4    6560            str         r5,[r4,#offset DAT_4000d004 &0xff]      
ram:0001aab6    9c4c            ldr         r4,[DAT_0001ad28]                       ;= 20002000h
ram:0001aab8    9c48            ldr         r0,[DAT_0001ad2c]                       ;= 4000D500h
ram:0001aaba    a770            strb        r7,[r4,#offset DAT_20002002 &0xff]      
ram:0001aabc    8068            ldr         r0,[r0,#offset DAT_4000d508 &0xff]      
ram:0001aabe    c0b2            uxtb        r0,r0                                   
ram:0001aac0    fff7d6fd        bl          FUN_0001a670                            ;undefined FUN_0001a670(int param_1)
ram:0001aac4    01f0bafb        bl          FUN_0001c23c                            ;undefined FUN_0001c23c(void)
ram:0001aac8    9949            ldr         r1,[DAT_0001ad30]                       ;= 200025C8h
ram:0001aaca    0320            movs        r0,#0x3                                 
ram:0001aacc    fef7eaf8        bl          FUN_00018ca4                            ;undefined4 FUN_00018ca4(int param_1,...
ram:0001aad0    0028            cmp         r0,#0x0                                 
ram:0001aad2    03d0            beq         LAB_0001aadc                            
ram:0001aad4    0022            movs        r2,#0x0                                 
ram:0001aad6    1146            mov         r1,r2                                   
ram:0001aad8    fef7d6f8        bl          FUN_00018c88                            ;undefined FUN_00018c88(void)
                            LAB_0001aadc:                 ;XREF[1,0]:   0001aad2
ram:0001aadc    fef74aff        bl          FUN_00019974                            ;undefined FUN_00019974(void)
ram:0001aae0    9148            ldr         r0,[DAT_0001ad28]                       ;= 20002000h
ram:0001aae2    5b22            movs        r2,#0x5b                                
ram:0001aae4    0121            movs        r1,#0x1                                 
ram:0001aae6    3c30            adds        r0,#0x3c                                
ram:0001aae8    fef79af8        bl          FUN_00018c20                            ;int FUN_00018c20(int param_1, uint p...
ram:0001aaec    0028            cmp         r0,#0x0                                 
ram:0001aaee    03d0            beq         LAB_0001aaf8                            
ram:0001aaf0    0022            movs        r2,#0x0                                 
ram:0001aaf2    1146            mov         r1,r2                                   
ram:0001aaf4    fef7c8f8        bl          FUN_00018c88                            ;undefined FUN_00018c88(void)
                            LAB_0001aaf8:                 ;XREF[1,0]:   0001aaee
ram:0001aaf8    fef784f8        bl          FUN_00018c04                            ;undefined4 FUN_00018c04(void)
ram:0001aafc    0028            cmp         r0,#0x0                                 
ram:0001aafe    03d0            beq         LAB_0001ab08                            
ram:0001ab00    0022            movs        r2,#0x0                                 
ram:0001ab02    1146            mov         r1,r2                                   
ram:0001ab04    fef7c0f8        bl          FUN_00018c88                            ;undefined FUN_00018c88(void)
                            LAB_0001ab08:                 ;XREF[1,0]:   0001aafe
ram:0001ab08    894a            ldr         r2,[DAT_0001ad30]                       ;= 200025C8h
ram:0001ab0a    0a21            movs        r1,#0xa                                 
ram:0001ab0c    b03a            subs        r2,#0xb0                                
ram:0001ab0e    0820            movs        r0,#0x8                                 
ram:0001ab10    fef7b2fa        bl          FUN_00019078                            ;undefined4 FUN_00019078(undefined2 p...
ram:0001ab14    0028            cmp         r0,#0x0                                 
ram:0001ab16    03d0            beq         LAB_0001ab20                            
ram:0001ab18    0022            movs        r2,#0x0                                 
ram:0001ab1a    1146            mov         r1,r2                                   
ram:0001ab1c    fef7b4f8        bl          FUN_00018c88                            ;undefined FUN_00018c88(void)
                            LAB_0001ab20:                 ;XREF[1,0]:   0001ab16
ram:0001ab20    00f08afc        bl          FUN_0001b438                            ;undefined FUN_0001b438(void)
ram:0001ab24    0028            cmp         r0,#0x0                                 
ram:0001ab26    03d0            beq         LAB_0001ab30                            
ram:0001ab28    0022            movs        r2,#0x0                                 
ram:0001ab2a    1146            mov         r1,r2                                   
ram:0001ab2c    fef7acf8        bl          FUN_00018c88                            ;undefined FUN_00018c88(void)
                            LAB_0001ab30:                 ;XREF[1,0]:   0001ab26
ram:0001ab30    0821            movs        r1,#0x8                                 
ram:0001ab32    6846            mov         r0,sp                                   
ram:0001ab34    8180            strh        r1,[r0,#local_2c+0x30]                  
ram:0001ab36    c580            strh        r5,[r0,#local_2c+0x32]                  
ram:0001ab38    7e48            ldr         r0,[PTR_LAB_000190a4+1+1_0001ad34]      ;= 000190a5
ram:0001ab3a    7b49            ldr         r1,[DAT_0001ad28]                       ;= 20002000h
ram:0001ab3c    0090            str         r0=>LAB_000190a4+1+1,[sp,#0x0]=>local_30
ram:0001ab3e    4431            adds        r1,#0x44                                
ram:0001ab40    6846            mov         r0,sp                                   
ram:0001ab42    00f00bfd        bl          FUN_0001b55c                            ;undefined4 FUN_0001b55c(int * param_...
ram:0001ab46    0028            cmp         r0,#0x0                                 
ram:0001ab48    03d0            beq         LAB_0001ab52                            
ram:0001ab4a    0022            movs        r2,#0x0                                 
ram:0001ab4c    1146            mov         r1,r2                                   
ram:0001ab4e    fef79bf8        bl          FUN_00018c88                            ;undefined FUN_00018c88(void)
                            LAB_0001ab52:                 ;XREF[1,0]:   0001ab48
ram:0001ab52    fef763f9        bl          FUN_00018e1c                            ;undefined FUN_00018e1c(void)
ram:0001ab56    1120            movs        r0,#0x11                                
ram:0001ab58    6946            mov         r1,sp                                   
ram:0001ab5a    0872            strb        r0,[r1,#local_28+0x30]                  
ram:0001ab5c    0622            movs        r2,#0x6                                 
ram:0001ab5e    76a1            adr         r1,[s_beacon_0001ad38]                  ;= "beacon"
ram:0001ab60    02a8            add         r0,sp,#0x8                              
ram:0001ab62    7cdf            svc         0x7c                                    
ram:0001ab64    0028            cmp         r0,#0x0                                 
ram:0001ab66    03d0            beq         LAB_0001ab70                            
ram:0001ab68    0022            movs        r2,#0x0                                 
ram:0001ab6a    1146            mov         r1,r2                                   
ram:0001ab6c    fef78cf8        bl          FUN_00018c88                            ;undefined FUN_00018c88(void)
                            LAB_0001ab70:                 ;XREF[1,0]:   0001ab66
ram:0001ab70    0097            str         r7,[sp,#0x0]=>local_30                  
ram:0001ab72    1121            movs        r1,#0x11                                
ram:0001ab74    6846            mov         r0,sp                                   
ram:0001ab76    0197            str         r7,[sp,#local_2c+0x30]                  
ram:0001ab78    0180            strh        r1,[r0,#0x0]=>local_30                  
ram:0001ab7a    2421            movs        r1,#0x24                                
ram:0001ab7c    4180            strh        r1,[r0,#local_30+0x32]                  
ram:0001ab7e    ff21            movs        r1,#0xff                                
ram:0001ab80    8780            strh        r7,[r0,#local_2c+0x30]                  
ram:0001ab82    9131            adds        r1,#0x91                                
ram:0001ab84    c180            strh        r1,[r0,#local_2c+0x32]                  
ram:0001ab86    7adf            svc         0x7a                                    
ram:0001ab88    0028            cmp         r0,#0x0                                 
ram:0001ab8a    03d0            beq         LAB_0001ab94                            
ram:0001ab8c    0022            movs        r2,#0x0                                 
ram:0001ab8e    1146            mov         r1,r2                                   
ram:0001ab90    fef77af8        bl          FUN_00018c88                            ;undefined FUN_00018c88(void)
                            LAB_0001ab94:                 ;XREF[1,0]:   0001ab8a
ram:0001ab94    00f06cff        bl          FUN_0001ba70                            ;undefined FUN_0001ba70(void)
ram:0001ab98    03a8            add         r0,sp,#0xc                              
ram:0001ab9a    39df            svc         0x39                                    
ram:0001ab9c    6248            ldr         r0,[DAT_0001ad28]                       ;= 20002000h
ram:0001ab9e    2430            adds        r0,#0x24                                
ram:0001aba0    0168            ldr         r1,[r0,#0x0]=>DAT_20002024              
ram:0001aba2    c908            lsrs        r1,r1,#0x3                              
ram:0001aba4    c900            lsls        r1,r1,#0x3                              
ram:0001aba6    0160            str         r1,[r0,#0x0]=>DAT_20002024              
ram:0001aba8    6548            ldr         r0,[DAT_0001ad40]                       ;= 40007300h
ram:0001abaa    4560            str         r5,[r0,#offset DAT_40007304 &0xff]      
ram:0001abac    0321            movs        r1,#0x3                                 
ram:0001abae    0720            movs        r0,#0x7                                 
ram:0001abb0    33df            svc         0x33                                    
ram:0001abb2    0720            movs        r0,#0x7                                 
ram:0001abb4    2edf            svc         0x2e                                    
ram:0001abb6    6348            ldr         r0=>DAT_40007500,[DAT_0001ad44]         ;= 40007500h
ram:0001abb8    4760            str         r7,[r0,#offset DAT_40007504 &0xff]      
ram:0001abba    4168            ldr         r1,[r0,#offset DAT_40007504 &0xff]      
ram:0001abbc    1822            movs        r2,#0x18                                
ram:0001abbe    1143            orrs        r1,r2                                   
ram:0001abc0    4160            str         r1,[r0,#offset DAT_40007504 &0xff]      
ram:0001abc2    4168            ldr         r1,[r0,#offset DAT_40007504 &0xff]      
ram:0001abc4    4160            str         r1,[r0,#offset DAT_40007504 &0xff]      
ram:0001abc6    fdf7cbfe        bl          FUN_00018960                            ;undefined FUN_00018960(void)
ram:0001abca    5748            ldr         r0,[DAT_0001ad28]                       ;= 20002000h
ram:0001abcc    3130            adds        r0,#0x31                                
ram:0001abce    fdf7fcff        bl          FUN_00018bca                            ;undefined FUN_00018bca(undefined * p...
ram:0001abd2    5748            ldr         r0,[DAT_0001ad30]                       ;= 200025C8h
ram:0001abd4    b030            adds        r0,#0xb0                                
ram:0001abd6    fef709f8        bl          FUN_00018bec                            ;undefined FUN_00018bec(int param_1)
ram:0001abda    0a20            movs        r0,#0xa                                 
ram:0001abdc    00f060f9        bl          FUN_0001aea0                            ;undefined FUN_0001aea0(int param_1)
ram:0001abe0    fdf76eff        bl          FUN_00018ac0                            ;undefined FUN_00018ac0(undefined4 pa...
ram:0001abe4    1c21            movs        r1,#0x1c                                
ram:0001abe6    04a8            add         r0,sp,#0x10                             
ram:0001abe8    fdf701fb        bl          FUN_000181ee                            ;undefined FUN_000181ee(undefined * p...
ram:0001abec    5648            ldr         r0,[DAT_0001ad48]                       ;= 00011C72h
ram:0001abee    0590            str         r0,[sp,#local_1c+0x30]                  
ram:0001abf0    8010            asrs        r0,r0,#0x2                              
ram:0001abf2    0690            str         r0,[sp,#local_18+0x30]                  
ram:0001abf4    0497            str         r7,[sp,#local_20+0x30]                  
ram:0001abf6    0321            movs        r1,#0x3                                 
ram:0001abf8    6846            mov         r0,sp                                   
ram:0001abfa    0177            strb        r1,[r0,#local_14+0x30]                  
ram:0001abfc    c783            strh        r7,[r0,#local_12+0x30]                  
ram:0001abfe    08a8            add         r0,sp,#0x20                             
ram:0001ac00    0770            strb        r7,[r0,#0x0]=>local_10                  
ram:0001ac02    5248            ldr         r0,[PTR_LAB_0001b15c+1+1_0001ad4c]      ;= 0001b15d
ram:0001ac04    0990            str         r0=>LAB_0001b15c+1+1,[sp,#local_c+0x30] 
ram:0001ac06    5248            ldr         r0,[PTR_LAB_00019e94+1+1_0001ad50]      ;= 00019e95
ram:0001ac08    0a90            str         r0=>LAB_00019e94+1+1,[sp,#local_8+0x30] 
ram:0001ac0a    04a8            add         r0,sp,#0x10                             
ram:0001ac0c    fef7ecfc        bl          FUN_000195e8                            ;undefined FUN_000195e8(undefined4 * ...
ram:0001ac10    0028            cmp         r0,#0x0                                 
ram:0001ac12    03d0            beq         LAB_0001ac1c                            
ram:0001ac14    0022            movs        r2,#0x0                                 
ram:0001ac16    1146            mov         r1,r2                                   
ram:0001ac18    fef736f8        bl          FUN_00018c88                            ;undefined FUN_00018c88(void)
                            LAB_0001ac1c:                 ;XREF[1,0]:   0001ac12
ram:0001ac1c    4249            ldr         r1,[DAT_0001ad28]                       ;= 20002000h
ram:0001ac1e    e122            movs        r2,#0xe1                                
ram:0001ac20    2c31            adds        r1,#0x2c                                
ram:0001ac22    0878            ldrb        r0,[r1,#0x0]=>DAT_2000202c              
ram:0001ac24    6b46            mov         r3,sp                                   
ram:0001ac26    2843            orrs        r0,r5                                   
ram:0001ac28    1040            ands        r0,r2                                   
ram:0001ac2a    df22            movs        r2,#0xdf                                
ram:0001ac2c    0c30            adds        r0,#0xc                                 
ram:0001ac2e    1040            ands        r0,r2                                   
ram:0001ac30    0870            strb        r0,[r1,#0x0]=>DAT_2000202c              
ram:0001ac32    0720            movs        r0,#0x7                                 
ram:0001ac34    4870            strb        r0,[r1,#0x1]=>DAT_2000202d              
ram:0001ac36    1020            movs        r0,#0x10                                
ram:0001ac38    464a            ldr         r2,[PTR_DAT_0001ad54]                   ;= 0001c564
ram:0001ac3a    8870            strb        r0,[r1,#0x2]=>DAT_2000202e              
                                                          ; FWD[3,0]:   0001c564,0001c568,0001c56c
ram:0001ac3c    07ca            ldmia       r2,{r0,r1,r2}=>DAT_0001c564             ;= 00000001h
                                                                                    ;= 0000EA60h
ram:0001ac3e    07c3            stmia       r3!=>local_30,{r0,r1,r2}                
ram:0001ac40    4549            ldr         r1=>LAB_0001c55e...,[PTR_LAB_0001c55e...;= 0001c55f
ram:0001ac42    6846            mov         r0,sp                                   
ram:0001ac44    00f0dcf9        bl          FUN_0001b000                            ;undefined4 FUN_0001b000(byte * param...
ram:0001ac48    0028            cmp         r0,#0x0                                 
ram:0001ac4a    03d0            beq         LAB_0001ac54                            
ram:0001ac4c    0022            movs        r2,#0x0                                 
ram:0001ac4e    1146            mov         r1,r2                                   
ram:0001ac50    fef71af8        bl          FUN_00018c88                            ;undefined FUN_00018c88(void)
                            LAB_0001ac54:                 ;XREF[1,0]:   0001ac4a
ram:0001ac54    3448            ldr         r0,[DAT_0001ad28]                       ;= 20002000h
ram:0001ac56    001d            adds        r0=>DAT_20002004,r0,#0x4                
ram:0001ac58    00f060f9        bl          FUN_0001af1c                            ;undefined4 FUN_0001af1c(undefined * ...
ram:0001ac5c    0028            cmp         r0,#0x0                                 
ram:0001ac5e    03d0            beq         LAB_0001ac68                            
ram:0001ac60    0022            movs        r2,#0x0                                 
ram:0001ac62    1146            mov         r1,r2                                   
ram:0001ac64    fef710f8        bl          FUN_00018c88                            ;undefined FUN_00018c88(void)
                            LAB_0001ac68:                 ;XREF[1,0]:   0001ac5e
ram:0001ac68    00f0baf9        bl          FUN_0001afe0                            ;undefined FUN_0001afe0(void)
ram:0001ac6c    0022            movs        r2,#0x0                                 
ram:0001ac6e    3b49            ldr         r1,[DAT_0001ad5c]                       ;= 00035555h
ram:0001ac70    2069            ldr         r0,[r4,#offset DAT_20002010 &0xff]      
ram:0001ac72    fef7bbfa        bl          FUN_000191ec                            ;longlong FUN_000191ec(uint param_1, ...
ram:0001ac76    0028            cmp         r0,#0x0                                 
ram:0001ac78    03d0            beq         LAB_0001ac82                            
ram:0001ac7a    0022            movs        r2,#0x0                                 
ram:0001ac7c    1146            mov         r1,r2                                   
ram:0001ac7e    fef703f8        bl          FUN_00018c88                            ;undefined FUN_00018c88(void)
                            LAB_0001ac82:                 ;XREF[1,0]:   0001ac78
ram:0001ac82    0022            movs        r2,#0x0                                 
ram:0001ac84    3649            ldr         r1,[DAT_0001ad60]                       ;= 00000E39h
ram:0001ac86    a06a            ldr         r0,[r4,#offset DAT_20002028 &0xff]      
ram:0001ac88    fef7b0fa        bl          FUN_000191ec                            ;longlong FUN_000191ec(uint param_1, ...
ram:0001ac8c    0028            cmp         r0,#0x0                                 
ram:0001ac8e    03d0            beq         LAB_0001ac98                            
ram:0001ac90    0022            movs        r2,#0x0                                 
ram:0001ac92    1146            mov         r1,r2                                   
ram:0001ac94    fdf7f8ff        bl          FUN_00018c88                            ;undefined FUN_00018c88(void)
                            LAB_0001ac98:                 ;XREF[1,0]:   0001ac8e
ram:0001ac98    fdf77eff        bl          FUN_00018b98                            ;undefined FUN_00018b98(void)
ram:0001ac9c    224d            ldr         r5,[DAT_0001ad28]                       ;= 20002000h
ram:0001ac9e    2035            adds        r5,#0x20                                
ram:0001aca0    2868            ldr         r0,[r5,#0x0]=>DAT_20002020              
ram:0001aca2    0121            movs        r1,#0x1                                 
ram:0001aca4    8904            lsls        r1,r1,#0x12                             
ram:0001aca6    8843            bics        r0,r1                                   
ram:0001aca8    2860            str         r0,[r5,#0x0]=>DAT_20002020              
ram:0001acaa    2868            ldr         r0,[r5,#0x0]=>DAT_20002020              
ram:0001acac    4008            lsrs        r0,r0,#0x1                              
ram:0001acae    4000            lsls        r0,r0,#0x1                              
ram:0001acb0    2860            str         r0,[r5,#0x0]=>DAT_20002020              
ram:0001acb2    1f48            ldr         r0,[DAT_0001ad30]                       ;= 200025C8h
ram:0001acb4    d030            adds        r0=>DAT_20002698,#0xd0                  
ram:0001acb6    8168            ldr         r1,[r0,#0x8]=>DAT_200026a0              
ram:0001acb8    b143            bics        r1,r6                                   
ram:0001acba    8160            str         r1,[r0,#0x8]=>DAT_200026a0              
ram:0001acbc    0168            ldr         r1,[r0,#0x0]=>DAT_20002698              
ram:0001acbe    4908            lsrs        r1,r1,#0x1                              
ram:0001acc0    4900            lsls        r1,r1,#0x1                              
ram:0001acc2    0160            str         r1,[r0,#0x0]=>DAT_20002698              
ram:0001acc4    8168            ldr         r1,[r0,#0x8]=>DAT_200026a0              
ram:0001acc6    4908            lsrs        r1,r1,#0x1                              
ram:0001acc8    4900            lsls        r1,r1,#0x1                              
ram:0001acca    8160            str         r1,[r0,#0x8]=>DAT_200026a0              
ram:0001accc    4760            str         r7,[r0,#0x4]=>DAT_2000269c              
ram:0001acce    fdf78bfc        bl          FUN_000185e8                            ;undefined FUN_000185e8(void)
                            LAB_0001acd2:                 ;XREF[1,0]:   0001ad1c
ram:0001acd2    a078            ldrb        r0,[r4,#offset DAT_20002002 &0xff]      
ram:0001acd4    0028            cmp         r0,#0x0                                 
ram:0001acd6    1dd0            beq         LAB_0001ad14                            
ram:0001acd8    c107            lsls        r1,r0,#0x1f                             
ram:0001acda    13d0            beq         LAB_0001ad04                            
ram:0001acdc    4008            lsrs        r0,r0,#0x1                              
ram:0001acde    4000            lsls        r0,r0,#0x1                              
ram:0001ace0    a070            strb        r0,[r4,#offset DAT_20002002 &0xff]      
ram:0001ace2    2868            ldr         r0,[r5,#0x0]=>DAT_20002020              
ram:0001ace4    2968            ldr         r1,[r5,#0x0]=>DAT_20002020              
ram:0001ace6    4004            lsls        r0,r0,#0x11                             
ram:0001ace8    020f            lsrs        r2,r0,#0x1c                             
ram:0001acea    0420            movs        r0,#0x4                                 
ram:0001acec    0240            ands        r2,r0                                   
ram:0001acee    8143            bics        r1,r0                                   
ram:0001acf0    1143            orrs        r1,r2                                   
ram:0001acf2    2960            str         r1,[r5,#0x0]=>DAT_20002020              
ram:0001acf4    2868            ldr         r0,[r5,#0x0]=>DAT_20002020              
ram:0001acf6    4007            lsls        r0,r0,#0x1d                             
ram:0001acf8    c00f            lsrs        r0,r0,#0x1f                             
ram:0001acfa    fdf7bdfc        bl          FUN_00018678                            ;undefined FUN_00018678(int param_1)
ram:0001acfe    a078            ldrb        r0,[r4,#offset DAT_20002002 &0xff]      
ram:0001ad00    3043            orrs        r0,r6                                   
ram:0001ad02    a070            strb        r0,[r4,#offset DAT_20002002 &0xff]      
                            LAB_0001ad04:                 ;XREF[1,0]:   0001acda
ram:0001ad04    c0b2            uxtb        r0,r0                                   
ram:0001ad06    8107            lsls        r1,r0,#0x1e                             
ram:0001ad08    04d5            bpl         LAB_0001ad14                            
ram:0001ad0a    fd21            movs        r1,#0xfd                                
ram:0001ad0c    0840            ands        r0,r1                                   
ram:0001ad0e    a070            strb        r0,[r4,#offset DAT_20002002 &0xff]      
ram:0001ad10    fdf7d6fe        bl          FUN_00018ac0                            ;undefined FUN_00018ac0(undefined4 pa...
                            LAB_0001ad14:                 ;XREF[2,0]:   0001acd6,0001ad08
ram:0001ad14    fef7a0f9        bl          FUN_00019058                            ;undefined FUN_00019058(undefined4 pa...
ram:0001ad18    00f004fb        bl          FUN_0001b324                            ;undefined FUN_0001b324(int param_1)
ram:0001ad1c    d9e7            b           LAB_0001acd2                            
ram:0001ad1e    0000            movs        r0,r0                                   
                            DAT_0001ad20:                 ;XREF[1,0]:   0001aa92
ram:0001ad20    00070050        undefined4  50000700h                               
                            DAT_0001ad24:                 ;XREF[1,0]:   0001aaa4
ram:0001ad24    00d00040        undefined4  4000D000h                               
                            DAT_0001ad28:                 ;XREF[8,0]:   0001aab6,0001aae0,0001ab3a,0001ab9c
                                                          ;             0001abca,0001ac1c,0001ac54,0001ac9c
ram:0001ad28    00200020        undefined4  20002000h                               
                            DAT_0001ad2c:                 ;XREF[1,0]:   0001aab8
ram:0001ad2c    00d50040        undefined4  4000D500h                               
                            DAT_0001ad30:                 ;XREF[4,0]:   0001aac8,0001ab08,0001abd2,0001acb2
ram:0001ad30    c8250020        undefined4  200025C8h                               
                            PTR_LAB_000190a4+1+1_0001ad34:;XREF[1,0]:   0001ab38
ram:0001ad34    a5900100        addr        LAB_000190a4+1+1                        
                            s_beacon_0001ad38:            ;XREF[1,0]:   0001ab5e
ram:0001ad38    626561636...    ds          "beacon"                                
ram:0001ad3f    00              ??          00h                                     
                            DAT_0001ad40:                 ;XREF[1,0]:   0001aba8
ram:0001ad40    00730040        undefined4  40007300h                               
                            DAT_0001ad44:                 ;XREF[1,0]:   0001abb6
ram:0001ad44    00750040        undefined4  40007500h                               
                            DAT_0001ad48:                 ;XREF[1,0]:   0001abec
ram:0001ad48    721c0100        undefined4  00011C72h                               
                            PTR_LAB_0001b15c+1+1_0001ad4c:;XREF[1,0]:   0001ac02
ram:0001ad4c    5db10100        addr        LAB_0001b15c+1+1                        
                            PTR_LAB_00019e94+1+1_0001ad50:;XREF[1,0]:   0001ac06
ram:0001ad50    959e0100        addr        LAB_00019e94+1+1                        
                            PTR_DAT_0001ad54:             ;XREF[1,0]:   0001ac38
ram:0001ad54    64c50100        addr        DAT_0001c564                            ;= 00000001h
                            PTR_LAB_0001c55e+1+1_0001ad58:;XREF[1,0]:   0001ac40
ram:0001ad58    5fc50100        addr        LAB_0001c55e+1+1                        
                            DAT_0001ad5c:                 ;XREF[1,0]:   0001ac6e
ram:0001ad5c    55550300        undefined4  00035555h                               
                            DAT_0001ad60:                 ;XREF[1,0]:   0001ac84
ram:0001ad60    390e0000        undefined4  00000E39h                               
                            ;************************************************************************************************
                            ;*                                           FUNCTION                                           *
                            ;************************************************************************************************
                            ;uint * FUN_0001ad64(int param_1)
          ;param_1       int                 r0                      
                                                          ;XREF[4,0]:   0001937c,0001948c,0001951c,0001bfba
ram:0001ad64    f0b5            push        {r4,r5,r6,r7,lr}                        
ram:0001ad66    0b30            adds        param_1,#0xb                            
ram:0001ad68    c108            lsrs        r1,param_1,#0x3                         
ram:0001ad6a    c900            lsls        r1,r1,#0x3                              
ram:0001ad6c    144f            ldr         r7,[DAT_0001adc0]                       ;= 20002158h
ram:0001ad6e    0026            movs        r6,#0x0                                 
                            LAB_0001ad70:                 ;XREF[1,0]:   0001adbe
ram:0001ad70    144a            ldr         r2,[DAT_0001adc4]                       ;= 20002154h
ram:0001ad72    0fe0            b           LAB_0001ad94                            
                            LAB_0001ad74:                 ;XREF[1,0]:   0001ad98
ram:0001ad74    0368            ldr         r3,[param_1,#0x0]                       
ram:0001ad76    8b42            cmp         r3,r1                                   
ram:0001ad78    0bd3            bcc         LAB_0001ad92                            
ram:0001ad7a    8b42            cmp         r3,r1                                   
ram:0001ad7c    05d9            bls         LAB_0001ad8a                            
ram:0001ad7e    5c1a            subs        r4,r3,r1                                
ram:0001ad80    4318            adds        r3,param_1,r1                           
ram:0001ad82    4568            ldr         r5,[param_1,#0x4]                       
ram:0001ad84    30c3            stmia       r3!,{r4,r5}                             
ram:0001ad86    083b            subs        r3,#0x8                                 
ram:0001ad88    00e0            b           LAB_0001ad8c                            
                            LAB_0001ad8a:                 ;XREF[1,0]:   0001ad7c
ram:0001ad8a    4368            ldr         r3,[param_1,#0x4]                       
                            LAB_0001ad8c:                 ;XREF[1,0]:   0001ad88
ram:0001ad8c    1360            str         r3,[r2,#0x0]=>DAT_20002154              
ram:0001ad8e    02c0            stmia       param_1!,{r1}                           
ram:0001ad90    04e0            b           LAB_0001ad9c                            
                            LAB_0001ad92:                 ;XREF[1,0]:   0001ad78
ram:0001ad92    021d            adds        r2,param_1,#0x4                         
                            LAB_0001ad94:                 ;XREF[1,0]:   0001ad72
ram:0001ad94    1068            ldr         param_1,[r2,#0x0]=>DAT_20002154         
ram:0001ad96    0028            cmp         param_1,#0x0                            
ram:0001ad98    ecd1            bne         LAB_0001ad74                            
ram:0001ad9a    3046            mov         param_1,r6                              
                            LAB_0001ad9c:                 ;XREF[1,0]:   0001ad90
ram:0001ad9c    0028            cmp         param_1,#0x0                            
ram:0001ad9e    03d1            bne         LAB_0001ada8                            
ram:0001ada0    3868            ldr         param_1,[r7,#0x0]=>DAT_20002158         
ram:0001ada2    0028            cmp         param_1,#0x0                            
ram:0001ada4    01d0            beq         LAB_0001adaa                            
ram:0001ada6    0020            movs        param_1,#0x0                            
                            LAB_0001ada8:                 ;XREF[1,0]:   0001ad9e
ram:0001ada8    f0bd            pop         {r4,r5,r6,r7,pc}                        
                            LAB_0001adaa:                 ;XREF[1,0]:   0001ada4
ram:0001adaa    064a            ldr         r2,[DAT_0001adc4]                       ;= 20002154h
ram:0001adac    0648            ldr         param_1,[DAT_0001adc8]                  ;= 20002924h
ram:0001adae    1060            str         param_1=>DAT_200...,[r2,#0x0]=>DAT_20...
ram:0001adb0    064a            ldr         r2,[DAT_0001adcc]                       ;= 20003120h
ram:0001adb2    121a            subs        r2,r2,param_1                           
ram:0001adb4    d208            lsrs        r2,r2,#0x3                              
ram:0001adb6    d200            lsls        r2,r2,#0x3                              
ram:0001adb8    44c0            stmia       param_1!=>DAT_20...,{r2,r6}=>DAT_2000...
ram:0001adba    0120            movs        param_1,#0x1                            
ram:0001adbc    3860            str         param_1,[r7,#0x0]=>DAT_20002158         
ram:0001adbe    d7e7            b           LAB_0001ad70                            
                            DAT_0001adc0:                 ;XREF[1,0]:   0001ad6c
ram:0001adc0    58210020        undefined4  20002158h                               
                            DAT_0001adc4:                 ;XREF[2,0]:   0001ad70,0001adaa
ram:0001adc4    54210020        undefined4  20002154h                               
                            DAT_0001adc8:                 ;XREF[1,0]:   0001adac
ram:0001adc8    24290020        undefined4  20002924h                               
                            DAT_0001adcc:                 ;XREF[1,0]:   0001adb0
ram:0001adcc    20310020        undefined4  20003120h                               
                            ;************************************************************************************************
                            ;*                                           FUNCTION                                           *
                            ;************************************************************************************************
                            ;undefined4 FUN_0001add0(ushort * param_1, int param_2, byte * param_3)
          ;param_1       ushort *            r0                      
          ;param_2       int                 r1                      
          ;param_3       byte *              r2                      
                                                          ;XREF[1,0]:   00018a9c
ram:0001add0    70b5            push        {r4,r5,r6,lr}                           
ram:0001add2    0546            mov         r5,param_1                              
ram:0001add4    0079            ldrb        param_1,[param_1,#0x4]                  
ram:0001add6    0e46            mov         r6,param_2                              
ram:0001add8    801c            adds        param_1,param_1,#0x2                    
ram:0001adda    1446            mov         r4,param_3                              
ram:0001addc    c0b2            uxtb        param_1,param_1                         
ram:0001adde    1178            ldrb        param_2,[param_3,#0x0]                  
ram:0001ade0    821c            adds        param_3,param_1,#0x2                    
ram:0001ade2    8a18            adds        param_3,param_2,param_3                 
ram:0001ade4    1f2a            cmp         param_3,#0x1f                           
ram:0001ade6    01d9            bls         LAB_0001adec                            
ram:0001ade8    0c20            movs        param_1,#0xc                            
ram:0001adea    70bd            pop         {r4,r5,r6,pc}                           
                            LAB_0001adec:                 ;XREF[1,0]:   0001ade6
ram:0001adec    0a46            mov         param_3,param_2                         
ram:0001adee    491c            adds        param_2,param_2,#0x1                    
ram:0001adf0    2170            strb        param_2,[r4,#0x0]                       
ram:0001adf2    401c            adds        param_1,param_1,#0x1                    
ram:0001adf4    b054            strb        param_1,[r6,param_3]                    
ram:0001adf6    2078            ldrb        param_1,[r4,#0x0]                       
ram:0001adf8    ff22            movs        param_3,#0xff                           
ram:0001adfa    411c            adds        param_2,param_1,#0x1                    
ram:0001adfc    2170            strb        param_2,[r4,#0x0]                       
ram:0001adfe    3254            strb        param_3,[r6,param_1]                    
ram:0001ae00    2078            ldrb        param_1,[r4,#0x0]                       
ram:0001ae02    8119            adds        param_2,param_1,r6                      
ram:0001ae04    2888            ldrh        param_1,[r5,#0x0]                       
ram:0001ae06    01f092fa        bl          FUN_0001c32e                            ;undefined4 FUN_0001c32e(undefined4 p...
ram:0001ae0a    2178            ldrb        param_2,[r4,#0x0]                       
ram:0001ae0c    4018            adds        param_1,param_1,param_2                 
ram:0001ae0e    c0b2            uxtb        param_1,param_1                         
ram:0001ae10    2070            strb        param_1,[r4,#0x0]                       
ram:0001ae12    aa88            ldrh        param_3,[r5,#0x4]                       
ram:0001ae14    002a            cmp         param_3,#0x0                            
ram:0001ae16    09d0            beq         LAB_0001ae2c                            
ram:0001ae18    a968            ldr         param_2,[r5,#0x8]                       
ram:0001ae1a    0029            cmp         param_2,#0x0                            
ram:0001ae1c    08d0            beq         LAB_0001ae30                            
ram:0001ae1e    8019            adds        param_1,param_1,r6                      
ram:0001ae20    fdf7ccf9        bl          FUN_000181bc                            ;undefined FUN_000181bc(undefined4 * ...
ram:0001ae24    2078            ldrb        param_1,[r4,#0x0]                       
ram:0001ae26    2979            ldrb        param_2,[r5,#0x4]                       
ram:0001ae28    4018            adds        param_1,param_1,param_2                 
ram:0001ae2a    2070            strb        param_1,[r4,#0x0]                       
                            LAB_0001ae2c:                 ;XREF[1,0]:   0001ae16
ram:0001ae2c    0020            movs        param_1,#0x0                            
ram:0001ae2e    70bd            pop         {r4,r5,r6,pc}                           
                            LAB_0001ae30:                 ;XREF[1,0]:   0001ae1c
ram:0001ae30    0720            movs        param_1,#0x7                            
ram:0001ae32    70bd            pop         {r4,r5,r6,pc}                           
                            ;************************************************************************************************
                            ;*                                           FUNCTION                                           *
                            ;************************************************************************************************
                            ;int FUN_0001ae34(char * param_1, int param_2, byte * param_3)
          ;param_1       char *              r0                      
          ;param_2       int                 r1                      
          ;param_3       byte *              r2                      
          ;local_18      undefined2         -18                      ;XREF[3,0]:   0001ae5a,0001ae6e,0001ae86
                                                          ;XREF[1,0]:   0001898a
ram:0001ae34    f8b5            push        {r3,r4,r5,r6,r7,lr}                     
ram:0001ae36    1478            ldrb        r4,[param_3,#0x0]                       
ram:0001ae38    0746            mov         r7,param_1                              
ram:0001ae3a    a01c            adds        param_1,r4,#0x2                         
ram:0001ae3c    1546            mov         r5,param_3                              
ram:0001ae3e    0e46            mov         r6,param_2                              
ram:0001ae40    1f28            cmp         param_1,#0x1f                           
ram:0001ae42    03d8            bhi         LAB_0001ae4c                            
ram:0001ae44    7878            ldrb        param_1,[r7,#0x1]                       
ram:0001ae46    801c            adds        param_1,param_1,#0x2                    
ram:0001ae48    1f28            cmp         param_1,#0x1f                           
ram:0001ae4a    01d9            bls         LAB_0001ae50                            
                            LAB_0001ae4c:                 ;XREF[1,0]:   0001ae42
ram:0001ae4c    0c20            movs        param_1,#0xc                            
                            LAB_0001ae4e:                 ;XREF[1,0]:   0001ae64
ram:0001ae4e    f8bd            pop         {r3,r4,r5,r6,r7,pc}                     
                            LAB_0001ae50:                 ;XREF[1,0]:   0001ae4a
ram:0001ae50    1d20            movs        param_1,#0x1d                           
ram:0001ae52    001b            subs        param_1,param_1,r4                      
ram:0001ae54    80b2            uxth        param_1,param_1                         
ram:0001ae56    6946            mov         param_2,sp                              
ram:0001ae58    8646            mov         lr,param_1                              
ram:0001ae5a    0880            strh        param_1,[param_2,#0x0]=>local_18        
ram:0001ae5c    3019            adds        param_1,r6,r4                           
ram:0001ae5e    801c            adds        param_1,param_1,#0x2                    
ram:0001ae60    7ddf            svc         0x7d                                    
ram:0001ae62    0028            cmp         param_1,#0x0                            
ram:0001ae64    f3d1            bne         LAB_0001ae4e                            
ram:0001ae66    3878            ldrb        param_1,[r7,#0x0]                       
ram:0001ae68    0228            cmp         param_1,#0x2                            
ram:0001ae6a    05d1            bne         LAB_0001ae78                            
ram:0001ae6c    6846            mov         param_1,sp                              
ram:0001ae6e    0088            ldrh        param_1=>local_18,[param_1,#0x0]        
ram:0001ae70    7045            cmp         param_1,lr                              
ram:0001ae72    01d8            bhi         LAB_0001ae78                            
ram:0001ae74    0921            movs        param_2,#0x9                            
ram:0001ae76    07e0            b           LAB_0001ae88                            
                            LAB_0001ae78:                 ;XREF[2,0]:   0001ae6a,0001ae72
ram:0001ae78    7878            ldrb        param_1,[r7,#0x1]                       
ram:0001ae7a    0821            movs        param_2,#0x8                            
ram:0001ae7c    0028            cmp         param_1,#0x0                            
ram:0001ae7e    01d0            beq         LAB_0001ae84                            
ram:0001ae80    7045            cmp         param_1,lr                              
ram:0001ae82    01d9            bls         LAB_0001ae88                            
                            LAB_0001ae84:                 ;XREF[1,0]:   0001ae7e
ram:0001ae84    6846            mov         param_1,sp                              
ram:0001ae86    0088            ldrh        param_1=>local_18,[param_1,#0x0]        
                            LAB_0001ae88:                 ;XREF[2,0]:   0001ae76,0001ae82
ram:0001ae88    421c            adds        param_3,param_1,#0x1                    
ram:0001ae8a    3255            strb        param_3,[r6,r4]                         
ram:0001ae8c    641c            adds        r4,r4,#0x1                              
ram:0001ae8e    e2b2            uxtb        param_3,r4                              
ram:0001ae90    b154            strb        param_2,[r6,param_3]                    
ram:0001ae92    2978            ldrb        param_2,[r5,#0x0]                       
ram:0001ae94    801c            adds        param_1,param_1,#0x2                    
ram:0001ae96    0818            adds        param_1,param_2,param_1                 
ram:0001ae98    2870            strb        param_1,[r5,#0x0]                       
ram:0001ae9a    0020            movs        param_1,#0x0                            
ram:0001ae9c    f8bd            pop         {r3,r4,r5,r6,r7,pc}                     
ram:0001ae9e    0000            movs        r0,r0                                   
                            ;************************************************************************************************
                            ;*                                           FUNCTION                                           *
                            ;************************************************************************************************
                            ;undefined FUN_0001aea0(int param_1)
          ;param_1       int                 r0                      
          ;local_10      undefined4         -10                      ;XREF[2,0]:   0001aea8,0001aeb0
                                                          ;XREF[3,0]:   0001aaac,0001abdc,0001b920
ram:0001aea0    31b5            push        {param_1,r4,r5,lr}                      
ram:0001aea2    054c            ldr         r4,[DAT_0001aeb8]                       ;= 000003E7h
ram:0001aea4    04e0            b           LAB_0001aeb0                            
                            LAB_0001aea6:                 ;XREF[1,0]:   0001aeb4
ram:0001aea6    401e            subs        param_1,param_1,#0x1                    
ram:0001aea8    0090            str         param_1,[sp,#0x0]=>local_10             
ram:0001aeaa    2046            mov         param_1,r4                              
ram:0001aeac    fdf712f9        bl          FUN_000180d4                            ;undefined FUN_000180d4(int param_1)
                            LAB_0001aeb0:                 ;XREF[1,0]:   0001aea4
ram:0001aeb0    0098            ldr         param_1,[sp,#0x0]=>local_10             
ram:0001aeb2    0028            cmp         param_1,#0x0                            
ram:0001aeb4    f7d1            bne         LAB_0001aea6                            
ram:0001aeb6    38bd            pop         {r3,r4,r5,pc}                           
                            DAT_0001aeb8:                 ;XREF[1,0]:   0001aea2
ram:0001aeb8    e7030000        undefined4  000003E7h                               
                            ;************************************************************************************************
                            ;*                                           FUNCTION                                           *
                            ;************************************************************************************************
                            ;undefined FUN_0001aebc(uint param_1, int param_2)
          ;param_1       uint                r0                      
          ;param_2       int                 r1                      
                                                          ;XREF[1,0]:   0001b034
ram:0001aebc    8207            lsls        r2,param_1,#0x1e                        
ram:0001aebe    d30e            lsrs        r3,r2,#0x1b                             
ram:0001aec0    ff22            movs        r2,#0xff                                
ram:0001aec2    9a40            lsls        r2,r3                                   
ram:0001aec4    8907            lsls        param_2,param_2,#0x1e                   
ram:0001aec6    090e            lsrs        param_2,param_2,#0x18                   
ram:0001aec8    10b5            push        {r4,lr}                                 
ram:0001aeca    9940            lsls        param_2,r3                              
ram:0001aecc    0028            cmp         param_1,#0x0                            
ram:0001aece    0bda            bge         LAB_0001aee8                            
ram:0001aed0    0307            lsls        r3,param_1,#0x1c                        
ram:0001aed2    1b0f            lsrs        r3,r3,#0x1c                             
ram:0001aed4    083b            subs        r3,#0x8                                 
ram:0001aed6    9c08            lsrs        r4,r3,#0x2                              
ram:0001aed8    0c4b            ldr         r3,[DAT_0001af0c]                       ;= E000ED00h
ram:0001aeda    a400            lsls        r4,r4,#0x2                              
ram:0001aedc    e318            adds        r3,r4,r3                                
ram:0001aede    dc69            ldr         r4,[r3,#0x1c]                           
ram:0001aee0    9443            bics        r4,r2                                   
ram:0001aee2    0c43            orrs        r4,param_2                              
ram:0001aee4    dc61            str         r4,[r3,#0x1c]                           
ram:0001aee6    07e0            b           LAB_0001aef8                            
                            LAB_0001aee8:                 ;XREF[1,0]:   0001aece
ram:0001aee8    8408            lsrs        r4,param_1,#0x2                         
ram:0001aeea    094b            ldr         r3,[DAT_0001af10]                       ;= E000E400h
ram:0001aeec    a400            lsls        r4,r4,#0x2                              
ram:0001aeee    e418            adds        r4,r4,r3                                
ram:0001aef0    2368            ldr         r3,[r4,#0x0]                            
ram:0001aef2    9343            bics        r3,r2                                   
ram:0001aef4    0b43            orrs        r3,param_2                              
ram:0001aef6    2360            str         r3,[r4,#0x0]                            
                            LAB_0001aef8:                 ;XREF[1,0]:   0001aee6
ram:0001aef8    c106            lsls        param_2,param_1,#0x1b                   
ram:0001aefa    c90e            lsrs        param_2,param_2,#0x1b                   
ram:0001aefc    0120            movs        param_1,#0x1                            
ram:0001aefe    8840            lsls        param_1,param_2                         
ram:0001af00    0449            ldr         param_2,[DAT_0001af14]                  ;= E000E280h
ram:0001af02    0860            str         param_1,[param_2,#0x0]=>DAT_e000e280    
ram:0001af04    0449            ldr         param_2,[DAT_0001af18]                  ;= E000E100h
ram:0001af06    0860            str         param_1,[param_2,#0x0]=>DAT_e000e100    
ram:0001af08    10bd            pop         {r4,pc}                                 
ram:0001af0a    0000            movs        r0,r0                                   
                            DAT_0001af0c:                 ;XREF[1,0]:   0001aed8
ram:0001af0c    00ed00e0        undefined4  E000ED00h                               
                            DAT_0001af10:                 ;XREF[1,0]:   0001aeea
ram:0001af10    00e400e0        undefined4  E000E400h                               
                            DAT_0001af14:                 ;XREF[1,0]:   0001af00
ram:0001af14    80e200e0        undefined4  E000E280h                               
                            DAT_0001af18:                 ;XREF[1,0]:   0001af04
ram:0001af18    00e100e0        undefined4  E000E100h                               
                            ;************************************************************************************************
                            ;*                                           FUNCTION                                           *
                            ;************************************************************************************************
                            ;undefined4 FUN_0001af1c(undefined * param_1)
          ;param_1       undefined *         r0                      
          ;local_10      undefined1         -10                      ;XREF[2,0]:   0001af24,0001afa4
                                                          ;XREF[1,0]:   0001ac58
ram:0001af1c    38b5            push        {r3,r4,r5,lr}                           
ram:0001af1e    0546            mov         r5,param_1                              
ram:0001af20    0020            movs        param_1,#0x0                            
ram:0001af22    6946            mov         r1,sp                                   
ram:0001af24    0870            strb        param_1,[r1,#0x0]=>local_10             
ram:0001af26    2549            ldr         r1,[DAT_0001afbc]                       ;= E000ED00h
ram:0001af28    4868            ldr         param_1,[r1,#offset DAT_e000ed04 &0xff] 
ram:0001af2a    c005            lsls        param_1,param_1,#0x17                   
ram:0001af2c    c00d            lsrs        param_1,param_1,#0x17                   
ram:0001af2e    18d0            beq         LAB_0001af62                            
ram:0001af30    1038            subs        param_1,#0x10                           
ram:0001af32    40b2            sxtb        param_1,param_1                         
ram:0001af34    0028            cmp         param_1,#0x0                            
ram:0001af36    07da            bge         LAB_0001af48                            
ram:0001af38    0207            lsls        r2,param_1,#0x1c                        
ram:0001af3a    120f            lsrs        r2,r2,#0x1c                             
ram:0001af3c    083a            subs        r2,#0x8                                 
ram:0001af3e    9208            lsrs        r2,r2,#0x2                              
ram:0001af40    9200            lsls        r2,r2,#0x2                              
ram:0001af42    5118            adds        r1,r2,r1                                
ram:0001af44    c969            ldr         r1,[r1,#0x1c]                           
ram:0001af46    04e0            b           LAB_0001af52                            
                            LAB_0001af48:                 ;XREF[1,0]:   0001af36
ram:0001af48    8108            lsrs        r1,param_1,#0x2                         
ram:0001af4a    1d4a            ldr         r2,[DAT_0001afc0]                       ;= E000E400h
ram:0001af4c    8900            lsls        r1,r1,#0x2                              
ram:0001af4e    8918            adds        r1,r1,r2                                
ram:0001af50    0968            ldr         r1,[r1,#0x0]                            
                            LAB_0001af52:                 ;XREF[1,0]:   0001af46
ram:0001af52    8007            lsls        param_1,param_1,#0x1e                   
ram:0001af54    c00e            lsrs        param_1,param_1,#0x1b                   
ram:0001af56    c140            lsrs        r1,param_1                              
ram:0001af58    0806            lsls        param_1,r1,#0x18                        
ram:0001af5a    840f            lsrs        r4,param_1,#0x1e                        
ram:0001af5c    012c            cmp         r4,#0x1                                 
ram:0001af5e    01d1            bne         LAB_0001af64                            
ram:0001af60    0ae0            b           LAB_0001af78                            
                            LAB_0001af62:                 ;XREF[1,0]:   0001af2e
ram:0001af62    0424            movs        r4,#0x4                                 
                            LAB_0001af64:                 ;XREF[1,0]:   0001af5e
ram:0001af64    6846            mov         param_1,sp                              
ram:0001af66    36df            svc         0x36                                    
ram:0001af68    0228            cmp         param_1,#0x2                            
ram:0001af6a    14d0            beq         LAB_0001af96                            
ram:0001af6c    0028            cmp         param_1,#0x0                            
ram:0001af6e    03d0            beq         LAB_0001af78                            
ram:0001af70    0022            movs        r2,#0x0                                 
ram:0001af72    1146            mov         r1,r2                                   
ram:0001af74    fdf788fe        bl          FUN_00018c88                            ;undefined FUN_00018c88(void)
                            LAB_0001af78:                 ;XREF[3,0]:   0001af60,0001af6e,0001af98
ram:0001af78    1248            ldr         param_1,[DAT_0001afc4]                  ;= 2000207Ch
ram:0001af7a    8168            ldr         r1,[param_1,#0x8]=>DAT_20002084         
ram:0001af7c    0829            cmp         r1,#0x8                                 
ram:0001af7e    0cd2            bcs         LAB_0001af9a                            
ram:0001af80    2970            strb        r1,[r5,#0x0]                            
ram:0001af82    4a1c            adds        r2,r1,#0x1                              
ram:0001af84    8260            str         r2,[param_1,#0x8]=>DAT_20002084         
ram:0001af86    1048            ldr         param_1,[DAT_0001afc8]                  ;= 40010500h
ram:0001af88    8268            ldr         r2,[param_1,#offset DAT_40010508 &0xff] 
ram:0001af8a    0123            movs        r3,#0x1                                 
ram:0001af8c    8b40            lsls        r3,r1                                   
ram:0001af8e    1a43            orrs        r2,r3                                   
ram:0001af90    8260            str         r2,[param_1,#offset DAT_40010508 &0xff] 
ram:0001af92    0025            movs        r5,#0x0                                 
ram:0001af94    02e0            b           LAB_0001af9c                            
                            LAB_0001af96:                 ;XREF[1,0]:   0001af6a
ram:0001af96    72b6            cpsid       i                                       
ram:0001af98    eee7            b           LAB_0001af78                            
                            LAB_0001af9a:                 ;XREF[1,0]:   0001af7e
ram:0001af9a    0425            movs        r5,#0x4                                 
                            LAB_0001af9c:                 ;XREF[1,0]:   0001af94
ram:0001af9c    012c            cmp         r4,#0x1                                 
ram:0001af9e    0bd0            beq         LAB_0001afb8                            
ram:0001afa0    62b6            cpsie       i                                       
ram:0001afa2    6846            mov         param_1,sp                              
ram:0001afa4    0078            ldrb        param_1=>local_10,[param_1,#0x0]        
ram:0001afa6    37df            svc         0x37                                    
ram:0001afa8    0228            cmp         param_1,#0x2                            
ram:0001afaa    05d0            beq         LAB_0001afb8                            
ram:0001afac    0028            cmp         param_1,#0x0                            
ram:0001afae    03d0            beq         LAB_0001afb8                            
ram:0001afb0    0022            movs        r2,#0x0                                 
ram:0001afb2    1146            mov         r1,r2                                   
ram:0001afb4    fdf768fe        bl          FUN_00018c88                            ;undefined FUN_00018c88(void)
                            LAB_0001afb8:                 ;XREF[3,0]:   0001af9e,0001afaa,0001afae
ram:0001afb8    2846            mov         param_1,r5                              
ram:0001afba    38bd            pop         {r3,r4,r5,pc}                           
                            DAT_0001afbc:                 ;XREF[1,0]:   0001af26
ram:0001afbc    00ed00e0        undefined4  E000ED00h                               
                            DAT_0001afc0:                 ;XREF[1,0]:   0001af4a
ram:0001afc0    00e400e0        undefined4  E000E400h                               
                            DAT_0001afc4:                 ;XREF[1,0]:   0001af78
ram:0001afc4    7c200020        undefined4  2000207Ch                               
                            DAT_0001afc8:                 ;XREF[1,0]:   0001af86
ram:0001afc8    00050140        undefined4  40010500h                               
                            ;************************************************************************************************
                            ;*                                           FUNCTION                                           *
                            ;************************************************************************************************
                            ;undefined FUN_0001afcc(int param_1)
          ;param_1       int                 r0                      
                                                          ;XREF[2,0]:   0001986a,0001a612
ram:0001afcc    034a            ldr         r2,[DAT_0001afdc]                       ;= 40010600h
ram:0001afce    8000            lsls        param_1,param_1,#0x2                    
ram:0001afd0    0149            ldr         r1,[DAT_0001afd8]                       ;= 6E524635h
ram:0001afd2    8018            adds        param_1,param_1,r2                      
ram:0001afd4    0160            str         r1,[param_1,#0x0]                       
ram:0001afd6    7047            bx          lr                                      
                            DAT_0001afd8:                 ;XREF[1,0]:   0001afd0
ram:0001afd8    3546526e        undefined4  6E524635h                               
                            DAT_0001afdc:                 ;XREF[1,0]:   0001afcc
ram:0001afdc    00060140        undefined4  40010600h                               
                            ;************************************************************************************************
                            ;*                                           FUNCTION                                           *
                            ;************************************************************************************************
                            ;undefined FUN_0001afe0(void)
                                                          ;XREF[1,0]:   0001ac68
ram:0001afe0    0449            ldr         r1,[DAT_0001aff4]                       ;= 40010300h
ram:0001afe2    0120            movs        r0,#0x1                                 
ram:0001afe4    4860            str         r0,[r1,#offset DAT_40010304 &0xff]      
ram:0001afe6    0146            mov         r1,r0                                   
ram:0001afe8    0348            ldr         r0,[DAT_0001aff8]                       ;= 40010000h
ram:0001afea    0160            str         r1,[r0,#0x0]=>DAT_40010000              
ram:0001afec    0349            ldr         r1,[DAT_0001affc]                       ;= 2000207Ch
ram:0001afee    0220            movs        r0,#0x2                                 
ram:0001aff0    0870            strb        r0,[r1,#0x0]=>DAT_2000207c              
ram:0001aff2    7047            bx          lr                                      
                            DAT_0001aff4:                 ;XREF[1,0]:   0001afe0
ram:0001aff4    00030140        undefined4  40010300h                               
                            DAT_0001aff8:                 ;XREF[1,0]:   0001afe8
ram:0001aff8    00000140        undefined4  40010000h                               
                            DAT_0001affc:                 ;XREF[1,0]:   0001afec
ram:0001affc    7c200020        undefined4  2000207Ch                               
                            ;************************************************************************************************
                            ;*                                           FUNCTION                                           *
                            ;************************************************************************************************
                            ;undefined4 FUN_0001b000(byte * param_1, undefined4 param_2)
          ;param_1       byte *              r0                      
          ;param_2       undefined4          r1                      
                                                          ;XREF[1,0]:   0001ac44
ram:0001b000    70b5            push        {r4,r5,r6,lr}                           
ram:0001b002    0446            mov         r4,param_1                              
ram:0001b004    0d48            ldr         param_1,[DAT_0001b03c]                  ;= 2000207Ch
ram:0001b006    4160            str         param_2,[param_1,#0x4]=>DAT_20002080    
ram:0001b008    0178            ldrb        param_2,[param_1,#0x0]=>DAT_2000207c    
ram:0001b00a    0029            cmp         param_2,#0x0                            
ram:0001b00c    01d0            beq         LAB_0001b012                            
ram:0001b00e    0820            movs        param_1,#0x8                            
ram:0001b010    70bd            pop         {r4,r5,r6,pc}                           
                            LAB_0001b012:                 ;XREF[1,0]:   0001b00c
ram:0001b012    0121            movs        param_2,#0x1                            
ram:0001b014    0170            strb        param_2,[param_1,#0x0]=>DAT_2000207c    
ram:0001b016    002c            cmp         r4,#0x0                                 
ram:0001b018    00d1            bne         LAB_0001b01c                            
ram:0001b01a    094c            ldr         r4,[PTR_DAT_0001b040]                   ;= 0001c58c
                            LAB_0001b01c:                 ;XREF[1,0]:   0001b018
ram:0001b01c    094d            ldr         r5,[DAT_0001b044]                       ;= 40010500h
ram:0001b01e    2078            ldrb        param_1,[r4,#0x0]=>DAT_0001c58c         ;= 01h
ram:0001b020    e860            str         param_1,[r5,#offset DAT_4001050c &0xff] 
ram:0001b022    6068            ldr         param_1,[r4,#0x4]=>DAT_0001c590         ;= 000007D0h
ram:0001b024    7d21            movs        param_2,#0x7d                           
ram:0001b026    c003            lsls        param_1,param_1,#0xf                    
ram:0001b028    c900            lsls        param_2,param_2,#0x3                    
ram:0001b02a    fdf7b1f8        bl          FUN_00018190                            ;int FUN_00018190(uint param_1, uint ...
ram:0001b02e    6860            str         param_1,[r5,#offset DAT_40010504 &0xff] 
ram:0001b030    217a            ldrb        param_2,[r4,#0x8]=>DAT_0001c594         ;= 01h
ram:0001b032    1020            movs        param_1,#0x10                           
ram:0001b034    fff742ff        bl          FUN_0001aebc                            ;undefined FUN_0001aebc(uint param_1,...
ram:0001b038    0020            movs        param_1,#0x0                            
ram:0001b03a    70bd            pop         {r4,r5,r6,pc}                           
                            DAT_0001b03c:                 ;XREF[1,0]:   0001b004
ram:0001b03c    7c200020        undefined4  2000207Ch                               
                            PTR_DAT_0001b040:             ;XREF[1,0]:   0001b01a
ram:0001b040    8cc50100        addr        DAT_0001c58c                            ;= 01h
                            DAT_0001b044:                 ;XREF[1,0]:   0001b01c
ram:0001b044    00050140        undefined4  40010500h                               
                            ;************************************************************************************************
                            ;*                                           FUNCTION                                           *
                            ;************************************************************************************************
                            ;undefined FUN_0001b048(int param_1, int param_2)
          ;param_1       int                 r0                      
          ;param_2       int                 r1                      
                                                          ;XREF[4,0]:   00018616,0001861e,00019faa,00019fb2
ram:0001b048    024a            ldr         r2,[DAT_0001b054]                       ;= 50000700h
ram:0001b04a    8900            lsls        param_2,param_2,#0x2                    
ram:0001b04c    8000            lsls        param_1,param_1,#0x2                    
ram:0001b04e    8018            adds        param_1,param_1,r2                      
ram:0001b050    0160            str         param_2,[param_1,#0x0]=>DAT_50000700    
ram:0001b052    7047            bx          lr                                      
                            DAT_0001b054:                 ;XREF[1,0]:   0001b048
ram:0001b054    00070050        undefined4  50000700h                               
                            ;************************************************************************************************
                            ;*                                           FUNCTION                                           *
                            ;************************************************************************************************
                            ;undefined FUN_0001b058(int param_1)
          ;param_1       int                 r0                      
                                                          ;XREF[3,0]:   000185c8,000185ce,000185d4
ram:0001b058    024a            ldr         r2,[DAT_0001b064]                       ;= 50000700h
ram:0001b05a    0321            movs        r1,#0x3                                 
ram:0001b05c    8000            lsls        param_1,param_1,#0x2                    
ram:0001b05e    8018            adds        param_1,param_1,r2                      
ram:0001b060    0160            str         r1,[param_1,#0x0]=>DAT_50000700         
ram:0001b062    7047            bx          lr                                      
                            DAT_0001b064:                 ;XREF[1,0]:   0001b058
ram:0001b064    00070050        undefined4  50000700h                               
                            ;************************************************************************************************
                            ;*                                           FUNCTION                                           *
                            ;************************************************************************************************
                            ;undefined FUN_0001b068(uint param_1)
          ;param_1       uint                r0                      
                                                          ;XREF[4,0]:   000184f8,000184fe,00018504,0001b098
ram:0001b068    0121            movs        r1,#0x1                                 
ram:0001b06a    8140            lsls        r1,param_1                              
ram:0001b06c    0148            ldr         param_1,[DAT_0001b074]                  ;= 50000500h
ram:0001b06e    c160            str         r1,[param_1,#offset DAT_5000050c &0xff] 
ram:0001b070    7047            bx          lr                                      
ram:0001b072    0000            movs        r0,r0                                   
                            DAT_0001b074:                 ;XREF[1,0]:   0001b06c
ram:0001b074    00050050        undefined4  50000500h                               
                            ;************************************************************************************************
                            ;*                                           FUNCTION                                           *
                            ;************************************************************************************************
                            ;uint FUN_0001b078(uint param_1)
          ;param_1       uint                r0                      
                                                          ;XREF[6,0]:   00018634,00018646,00019afc,00019b04
                                                          ;             00019f40,00019f54
ram:0001b078    0249            ldr         r1,[DAT_0001b084]                       ;= 50000500h
ram:0001b07a    0969            ldr         r1,[r1,#offset DAT_50000510 &0xff]      
ram:0001b07c    c140            lsrs        r1,param_1                              
ram:0001b07e    c807            lsls        param_1,r1,#0x1f                        
ram:0001b080    c00f            lsrs        param_1,param_1,#0x1f                   
ram:0001b082    7047            bx          lr                                      
                            DAT_0001b084:                 ;XREF[1,0]:   0001b078
ram:0001b084    00050050        undefined4  50000500h                               
                            ;************************************************************************************************
                            ;*                                           FUNCTION                                           *
                            ;************************************************************************************************
                            ;undefined FUN_0001b088(uint param_1, int param_2)
          ;param_1       uint                r0                      
          ;param_2       int                 r1                      
                                                          ;XREF[2,0]:   000184e4,000184ee
ram:0001b088    10b5            push        {r4,lr}                                 
ram:0001b08a    0029            cmp         param_2,#0x0                            
ram:0001b08c    04d0            beq         LAB_0001b098                            
ram:0001b08e    0121            movs        param_2,#0x1                            
ram:0001b090    8140            lsls        param_2,param_1                         
ram:0001b092    0348            ldr         param_1,[DAT_0001b0a0]                  ;= 50000500h
ram:0001b094    8160            str         param_2,[param_1,#offset DAT_50000508...
ram:0001b096    10bd            pop         {r4,pc}                                 
                            LAB_0001b098:                 ;XREF[1,0]:   0001b08c
ram:0001b098    fff7e6ff        bl          FUN_0001b068                            ;undefined FUN_0001b068(uint param_1)
ram:0001b09c    10bd            pop         {r4,pc}                                 
ram:0001b09e    0000            movs        r0,r0                                   
                            DAT_0001b0a0:                 ;XREF[1,0]:   0001b092
ram:0001b0a0    00050050        undefined4  50000500h                               
                            ;************************************************************************************************
                            ;*                                           FUNCTION                                           *
                            ;************************************************************************************************
                            ;undefined FUN_0001b0a4(ushort * param_1)
          ;param_1       ushort *            r0                      
                                                          ;XREF[1,0]:   00019854
ram:0001b0a4    70b5            push        {r4,r5,r6,lr}                           
ram:0001b0a6    2b4c            ldr         r4,[DAT_0001b154]                       ;= 20002000h
ram:0001b0a8    0188            ldrh        r1,[param_1,#0x0]                       
ram:0001b0aa    e588            ldrh        r5,[r4,#offset DAT_20002006 &0xff]      
ram:0001b0ac    1429            cmp         r1,#0x14                                
ram:0001b0ae    30d0            beq         LAB_0001b112                            
ram:0001b0b0    0ddc            bgt         LAB_0001b0ce                            
ram:0001b0b2    1029            cmp         r1,#0x10                                
ram:0001b0b4    1dd0            beq         LAB_0001b0f2                            
ram:0001b0b6    1129            cmp         r1,#0x11                                
ram:0001b0b8    1ed0            beq         LAB_0001b0f8                            
ram:0001b0ba    1329            cmp         r1,#0x13                                
ram:0001b0bc    18d1            bne         LAB_0001b0f0                            
ram:0001b0be    2346            mov         r3,r4                                   
ram:0001b0c0    6433            adds        r3,#0x64                                
ram:0001b0c2    1a46            mov         r2,r3                                   
ram:0001b0c4    383a            subs        r2,#0x38                                
ram:0001b0c6    0021            movs        r1,#0x0                                 
ram:0001b0c8    2846            mov         param_1,r5                              
ram:0001b0ca    7fdf            svc         0x7f                                    
ram:0001b0cc    0ae0            b           LAB_0001b0e4                            
                            LAB_0001b0ce:                 ;XREF[1,0]:   0001b0b0
ram:0001b0ce    1729            cmp         r1,#0x17                                
ram:0001b0d0    18d0            beq         LAB_0001b104                            
ram:0001b0d2    1929            cmp         r1,#0x19                                
ram:0001b0d4    0cd0            beq         LAB_0001b0f0                            
ram:0001b0d6    5229            cmp         r1,#0x52                                
ram:0001b0d8    0ad1            bne         LAB_0001b0f0                            
ram:0001b0da    0323            movs        r3,#0x3                                 
ram:0001b0dc    0022            movs        r2,#0x0                                 
ram:0001b0de    1146            mov         r1,r2                                   
ram:0001b0e0    2846            mov         param_1,r5                              
ram:0001b0e2    a9df            svc         0xa9                                    
                            LAB_0001b0e4:                 ;XREF[2,0]:   0001b0cc,0001b14e
ram:0001b0e4    0028            cmp         param_1,#0x0                            
ram:0001b0e6    03d0            beq         LAB_0001b0f0                            
ram:0001b0e8    0022            movs        r2,#0x0                                 
ram:0001b0ea    1146            mov         r1,r2                                   
ram:0001b0ec    fdf7ccfd        bl          FUN_00018c88                            ;undefined FUN_00018c88(void)
                            LAB_0001b0f0:                 ;XREF[4,0]:   0001b0bc,0001b0d4,0001b0d8,0001b0e6
ram:0001b0f0    70bd            pop         {r4,r5,r6,pc}                           
                            LAB_0001b0f2:                 ;XREF[1,0]:   0001b0b4
ram:0001b0f2    8088            ldrh        param_1,[param_1,#0x4]                  
ram:0001b0f4    e080            strh        param_1,[r4,#offset DAT_20002006 &0xff] 
ram:0001b0f6    70bd            pop         {r4,r5,r6,pc}                           
                            LAB_0001b0f8:                 ;XREF[1,0]:   0001b0b8
ram:0001b0f8    0020            movs        param_1,#0x0                            
ram:0001b0fa    c043            mvns        param_1,param_1                         
ram:0001b0fc    e080            strh        param_1,[r4,#offset DAT_20002006 &0xff] 
ram:0001b0fe    fdf74bfd        bl          FUN_00018b98                            ;undefined FUN_00018b98(void)
ram:0001b102    70bd            pop         {r4,r5,r6,pc}                           
                            LAB_0001b104:                 ;XREF[1,0]:   0001b0d0
ram:0001b104    811d            adds        r1,param_1,#0x6                         
ram:0001b106    1348            ldr         param_1,[DAT_0001b154]                  ;= 20002000h
ram:0001b108    0622            movs        r2,#0x6                                 
ram:0001b10a    3630            adds        param_1,#0x36                           
ram:0001b10c    fdf756f8        bl          FUN_000181bc                            ;undefined FUN_000181bc(undefined4 * ...
ram:0001b110    70bd            pop         {r4,r5,r6,pc}                           
                            LAB_0001b112:                 ;XREF[1,0]:   0001b0ae
ram:0001b112    0a22            movs        r2,#0xa                                 
ram:0001b114    1049            ldr         r1,[DAT_0001b158]                       ;= 2000249Eh
ram:0001b116    0e30            adds        param_1,#0xe                            
ram:0001b118    fdf77bf8        bl          FUN_00018212                            ;undefined FUN_00018212(int param_1, ...
ram:0001b11c    0028            cmp         param_1,#0x0                            
ram:0001b11e    17d0            beq         LAB_0001b150                            
ram:0001b120    0020            movs        param_1,#0x0                            
                            LAB_0001b122:                 ;XREF[1,0]:   0001b152
ram:0001b122    0c49            ldr         r1,[DAT_0001b154]                       ;= 20002000h
ram:0001b124    3631            adds        r1,#0x36                                
ram:0001b126    0b79            ldrb        r3,[r1,#0x4]=>DAT_2000203a              
ram:0001b128    1946            mov         r1,r3                                   
ram:0001b12a    0140            ands        r1,param_1                              
ram:0001b12c    01d0            beq         LAB_0001b132                            
ram:0001b12e    0a49            ldr         r1,[DAT_0001b158]                       ;= 2000249Eh
ram:0001b130    1239            subs        r1,#0x12                                
                            LAB_0001b132:                 ;XREF[1,0]:   0001b12c
ram:0001b132    9a07            lsls        r2,r3,#0x1e                             
ram:0001b134    d20f            lsrs        r2,r2,#0x1f                             
ram:0001b136    0240            ands        r2,param_1                              
ram:0001b138    01d0            beq         LAB_0001b13e                            
ram:0001b13a    074a            ldr         r2,[DAT_0001b158]                       ;= 2000249Eh
ram:0001b13c    0a32            adds        r2,#0xa                                 
                            LAB_0001b13e:                 ;XREF[1,0]:   0001b138
ram:0001b13e    5b07            lsls        r3,r3,#0x1d                             
ram:0001b140    db0f            lsrs        r3,r3,#0x1f                             
ram:0001b142    0340            ands        r3,param_1                              
ram:0001b144    01d0            beq         LAB_0001b14a                            
ram:0001b146    044b            ldr         r3,[DAT_0001b158]                       ;= 2000249Eh
ram:0001b148    2133            adds        r3,#0x21                                
                            LAB_0001b14a:                 ;XREF[1,0]:   0001b144
ram:0001b14a    e088            ldrh        param_1,[r4,#offset DAT_20002006 &0xff] 
ram:0001b14c    82df            svc         0x82                                    
ram:0001b14e    c9e7            b           LAB_0001b0e4                            
                            LAB_0001b150:                 ;XREF[1,0]:   0001b11e
ram:0001b150    0120            movs        param_1,#0x1                            
ram:0001b152    e6e7            b           LAB_0001b122                            
                            DAT_0001b154:                 ;XREF[3,0]:   0001b0a6,0001b106,0001b122
ram:0001b154    00200020        undefined4  20002000h                               
                            DAT_0001b158:                 ;XREF[4,0]:   0001b114,0001b12e,0001b13a,0001b146
ram:0001b158    9e240020        undefined4  2000249Eh                               
                            ;************************************************************************************************
                            ;*                                           FUNCTION                                           *
                            ;************************************************************************************************
                            ;undefined LAB_0001b15c+1(char * param_1)
          ;param_1       char *              r0                      
                                                          ;XREF[0,2]:   0001ac04,0001ad4c
ram:0001b15c    10b5            push        {r4,lr}                                 
ram:0001b15e    0078            ldrb        param_1,[param_1,#0x0]                  
ram:0001b160    0028            cmp         param_1,#0x0                            
ram:0001b162    09d1            bne         LAB_0001b178                            
ram:0001b164    0548            ldr         param_1,[DAT_0001b17c]                  ;= 20002000h
ram:0001b166    3b21            movs        r1,#0x3b                                
ram:0001b168    c088            ldrh        param_1,[param_1,#offset DAT_20002006...
ram:0001b16a    76df            svc         0x76                                    
ram:0001b16c    0028            cmp         param_1,#0x0                            
ram:0001b16e    03d0            beq         LAB_0001b178                            
ram:0001b170    0022            movs        r2,#0x0                                 
ram:0001b172    1146            mov         r1,r2                                   
ram:0001b174    fdf788fd        bl          FUN_00018c88                            ;undefined FUN_00018c88(void)
                            LAB_0001b178:                 ;XREF[2,0]:   0001b162,0001b16e
ram:0001b178    10bd            pop         {r4,pc}                                 
ram:0001b17a    0000            movs        r0,r0                                   
                            DAT_0001b17c:                 ;XREF[1,0]:   0001b164
ram:0001b17c    00200020        undefined4  20002000h                               
                            ;************************************************************************************************
                            ;*                                           FUNCTION                                           *
                            ;************************************************************************************************
                            ;undefined8 FUN_0001b180(ushort * param_1, int param_2)
          ;param_1       ushort *            r0                      
          ;param_2       int                 r1                      
          ;local_18      undefined4         -18                      ;XREF[1,0]:   0001b196
          ;local_1c      undefined4         -1c                      ;XREF[2,1]:   0001b18e,0001b190,0001b192
          ;local_20      undefined2         -20                      ;XREF[1,0]:   0001b1b2
          ;local_30      undefined2         -30                      ;XREF[2,0]:   0001b1bc,0001b1e8
          ;local_34      undefined1         -34                      ;XREF[1,0]:   0001b18a
                                                          ;XREF[1,0]:   000197b4
ram:0001b180    f0b5            push        {r4,r5,r6,r7,lr}                        
ram:0001b182    8bb0            sub         sp,#0x2c                                
ram:0001b184    0446            mov         r4,param_1                              
ram:0001b186    0227            movs        r7,#0x2                                 
ram:0001b188    6846            mov         param_1,sp                              
ram:0001b18a    0773            strb        r7,[r0,#local_34+0x40]                  
ram:0001b18c    0026            movs        r6,#0x0                                 
ram:0001b18e    0996            str         r6,[sp,#local_1c+0x40]                  
ram:0001b190    8784            strh        r7,[r0,#local_1c+0x40]                  
ram:0001b192    c684            strh        r6,[r0,#local_1c+0x42]                  
ram:0001b194    08a8            add         param_1,sp,#0x20                        
ram:0001b196    0a90            str         param_1,[sp,#local_18+0x40]             
ram:0001b198    0d46            mov         r5,param_2                              
ram:0001b19a    a18a            ldrh        param_2,[r4,#0x14]                      
ram:0001b19c    2088            ldrh        param_1,[r4,#0x0]                       
ram:0001b19e    09aa            add         r2,sp,#0x24                             
ram:0001b1a0    a5df            svc         0xa5                                    
ram:0001b1a2    0028            cmp         param_1,#0x0                            
ram:0001b1a4    04d0            beq         LAB_0001b1b0                            
ram:0001b1a6    e16a            ldr         param_2,[r4,#0x2c]                      
ram:0001b1a8    0029            cmp         param_2,#0x0                            
ram:0001b1aa    1ad0            beq         LAB_0001b1e2                            
ram:0001b1ac    8847            blx         param_2                                 
ram:0001b1ae    18e0            b           LAB_0001b1e2                            
                            LAB_0001b1b0:                 ;XREF[1,0]:   0001b1a4
ram:0001b1b0    6846            mov         param_1,sp                              
ram:0001b1b2    008c            ldrh        param_1,[r0,#local_20+0x40]             
ram:0001b1b4    c007            lsls        param_1,param_1,#0x1f                   
ram:0001b1b6    c00f            lsrs        param_1,param_1,#0x1f                   
ram:0001b1b8    13d0            beq         LAB_0001b1e2                            
ram:0001b1ba    6846            mov         param_1,sp                              
ram:0001b1bc    0682            strh        r6,[r0,#local_30+0x40]                  
ram:0001b1be    2088            ldrh        param_1,[r4,#0x0]                       
ram:0001b1c0    03a9            add         param_2,sp,#0xc                         
ram:0001b1c2    a8df            svc         0xa8                                    
ram:0001b1c4    0028            cmp         param_1,#0x0                            
ram:0001b1c6    13d1            bne         LAB_0001b1f0                            
ram:0001b1c8    a97e            ldrb        param_2,[r5,#0x1a]                      
ram:0001b1ca    2846            mov         param_1,r5                              
ram:0001b1cc    1b30            adds        param_1,#0x1b                           
ram:0001b1ce    0122            movs        r2,#0x1                                 
ram:0001b1d0    0b00            movs        r3,param_2                              
                                                          ; FWD[2,0]:   000188e2,0001b1d6
ram:0001b1d2    fdf786fb        bl          __ARM_common_switch8                    ;undefined __ARM_common_switch8(void)
                                                                                    ;= 09h
                            DAT_0001b1d6:                 ;XREF[1,0]:   0001b1d2
ram:0001b1d6    09              undefined1  09h                                     
ram:0001b1d7    46              ??          46h    F                                
ram:0001b1d8    0f              ??          0Fh                                     
ram:0001b1d9    1c              ??          1Ch                                     
ram:0001b1da    22              ??          22h    "                                
ram:0001b1db    27              ??          27h    '                                
ram:0001b1dc    29              ??          29h    )                                
ram:0001b1dd    2c              ??          2Ch    ,                                
ram:0001b1de    44              ??          44h    D                                
ram:0001b1df    2e              ??          2Eh    .                                
ram:0001b1e0    46              ??          46h    F                                
ram:0001b1e1    00              ??          00h                                     
                            LAB_0001b1e2:                 ;XREF[3,0]:   0001b1aa,0001b1ae,0001b1b8
ram:0001b1e2    ff20            movs        param_1,#0xff                           
ram:0001b1e4    fe30            adds        param_1,#0xfe                           
ram:0001b1e6    6946            mov         param_2,sp                              
ram:0001b1e8    0882            strh        param_1,[r1,#local_30+0x40]             
ram:0001b1ea    2088            ldrh        param_1,[r4,#0x0]                       
ram:0001b1ec    03a9            add         param_2,sp,#0xc                         
ram:0001b1ee    a8df            svc         0xa8                                    
                            LAB_0001b1f0:                 ;XREF[3,0]:   0001b1c6,0001b20c,0001b242
ram:0001b1f0    0bb0            add         sp,#0x2c                                
ram:0001b1f2    f0bd            pop         {r4,r5,r6,r7,pc}                        
ram:0001b1f4    6b46            mov         r3,sp                                   
ram:0001b1f6    1e70            strb        r6,[r3,#0x0]                            
ram:0001b1f8    0be0            b           FUN_0001b212                            
                            ;************************************************************************************************
                            ;*                                           FUNCTION                                           *
                            ;************************************************************************************************
                            ;undefined8 FUN_0001b1fa(undefined4 param_1, undefined * param_2)
          ;param_1       undefined4          r0                      
          ;param_2       undefined *         r1                      
                                                          ;XREF[1,0]:   0001b218
ram:0001b1fa    0622            movs        r2,#0x6                                 
ram:0001b1fc    1ee0            b           LAB_0001b23c                            
                            ;************************************************************************************************
                            ;*                                           FUNCTION                                           *
                            ;************************************************************************************************
                            ;undefined4 FUN_0001b1fe(undefined4 param_1, undefined4 param_2, undefined param_3, undefined param_4, undefined param_5, undefined1 param_6, undefined4 param_7)
          ;param_1       undefined4          r0                      
          ;param_2       undefined4          r1                      
          ;param_3       undefined           r2                      
          ;param_4       undefined           r3                      
          ;param_5       undefined            0                      
          ;param_6       undefined1           4                      ;XREF[1,0]:   0001b200
          ;param_7       undefined4           8                      ;XREF[1,0]:   0001b202
                                                          ;XREF[1,0]:   0001b216
ram:0001b1fe    6946            mov         param_2,sp                              
ram:0001b200    0a71            strb        param_3,[r1,#param_6]                   
ram:0001b202    0290            str         param_1,[sp,#param_7]                   
ram:0001b204    27e0            b           LAB_0001b256                            
                            LAB_0001b206:                 ;XREF[2,0]:   0001b222,0001b258
ram:0001b206    2046            mov         param_1,r4                              
ram:0001b208    9047            blx         param_3                                 
ram:0001b20a    0020            movs        param_1,#0x0                            
ram:0001b20c    f0e7            b           LAB_0001b1f0                            
ram:0001b20e    6b46            mov         r3,sp                                   
ram:0001b210    1a70            strb        r2,[r3,#0x0]                            
                            ;************************************************************************************************
                            ;*                                           FUNCTION                                           *
                            ;************************************************************************************************
                            ;longlong FUN_0001b212(undefined4 param_1, undefined * param_2)
          ;param_1       undefined4          r0                      
          ;param_2       undefined *         r1                      
                                                          ;XREF[1,0]:   0001b1f8
ram:0001b212    2b8b            ldrh        r3,[r5,#0x18]                           
ram:0001b214    022b            cmp         r3,#0x2                                 
ram:0001b216    f2d2            bcs         FUN_0001b1fe                            
ram:0001b218    efe7            b           FUN_0001b1fa                            ;undefined8 FUN_0001b1fa(undefined4 p...
ram:0001b21a    6846            mov         r0,sp                                   
ram:0001b21c    0770            strb        r7,[r0,#0x0]                            
ram:0001b21e    6946            mov         r1,sp                                   
ram:0001b220    a26a            ldr         r2,[r4,#0x28]                           
ram:0001b222    f0e7            b           LAB_0001b206                            
ram:0001b224    0320            movs        r0,#0x3                                 
ram:0001b226    00e0            b           LAB_0001b22a                            
ram:0001b228    0420            movs        r0,#0x4                                 
                            LAB_0001b22a:                 ;XREF[3,0]:   0001b226,0001b230,0001b260
ram:0001b22a    6946            mov         r1,sp                                   
ram:0001b22c    12e0            b           FUN_0001b254                            
ram:0001b22e    0520            movs        r0,#0x5                                 
ram:0001b230    fbe7            b           LAB_0001b22a                            
ram:0001b232    298b            ldrh        r1,[r5,#0x18]                           
ram:0001b234    0329            cmp         r1,#0x3                                 
ram:0001b236    05d2            bcs         LAB_0001b244                            
ram:0001b238    0322            movs        r2,#0x3                                 
ram:0001b23a    0821            movs        r1,#0x8                                 
                            LAB_0001b23c:                 ;XREF[2,0]:   0001b1fc,0001b264
ram:0001b23c    2046            mov         param_1,r4                              
ram:0001b23e    fef7d7fa        bl          FUN_000197f0                            ;undefined8 FUN_000197f0(ushort * par...
ram:0001b242    d5e7            b           LAB_0001b1f0                            
                            LAB_0001b244:                 ;XREF[1,0]:   0001b236
ram:0001b244    4178            ldrb        r1,[r0,#0x1]                            
ram:0001b246    0278            ldrb        r2,[r0,#0x0]                            
ram:0001b248    0802            lsls        r0,r1,#0x8                              
ram:0001b24a    1043            orrs        r0,r2                                   
ram:0001b24c    6946            mov         r1,sp                                   
ram:0001b24e    8880            strh        r0,[r1,#0x4]                            
ram:0001b250    03d0            beq         FUN_0001b25a                            
ram:0001b252    0620            movs        r0,#0x6                                 
                            ;************************************************************************************************
                            ;*                                           FUNCTION                                           *
                            ;************************************************************************************************
                            ;undefined4 FUN_0001b254(undefined param_1, undefined * param_2)
          ;param_1       undefined           r0                      
          ;param_2       undefined *         r1                      
                                                          ;XREF[2,0]:   0001b22c,0001b25c
ram:0001b254    0870            strb        param_1,[param_2,#0x0]                  
                            LAB_0001b256:                 ;XREF[1,0]:   0001b204
ram:0001b256    a26a            ldr         param_3,[r4,#0x28]                      
ram:0001b258    d5e7            b           LAB_0001b206                            
                            ;************************************************************************************************
                            ;*                                           FUNCTION                                           *
                            ;************************************************************************************************
                            ;undefined4 FUN_0001b25a(undefined4 param_1, undefined * param_2)
          ;param_1       undefined4          r0                      
          ;param_2       undefined *         r1                      
                                                          ;XREF[1,0]:   0001b250
ram:0001b25a    0720            movs        param_1,#0x7                            
ram:0001b25c    fae7            b           FUN_0001b254                            
ram:0001b25e    0920            movs        r0,#0x9                                 
ram:0001b260    e3e7            b           LAB_0001b22a                            
ram:0001b262    0322            movs        r2,#0x3                                 
ram:0001b264    eae7            b           LAB_0001b23c                            
ram:0001b266    0000            movs        r0,r0                                   
                            ;************************************************************************************************
                            ;*                                           FUNCTION                                           *
                            ;************************************************************************************************
                            ;undefined FUN_0001b268(uint param_1)
          ;param_1       uint                r0                      
                                                          ;XREF[1,0]:   00018852
ram:0001b268    70b5            push        {r4,r5,r6,lr}                           
ram:0001b26a    0224            movs        r4,#0x2                                 
ram:0001b26c    0122            movs        r2,#0x1                                 
ram:0001b26e    1b4d            ldr         r5,[DAT_0001b2dc]                       ;= 40002500h
ram:0001b270    1b4e            ldr         r6,[DAT_0001b2e0]                       ;= 40002000h
ram:0001b272    1c49            ldr         r1,[DAT_0001b2e4]                       ;= 200020C4h
ram:0001b274    0300            movs        r3,param_1                              
                                                          ; FWD[2,0]:   000188e2,0001b27a
ram:0001b276    fdf734fb        bl          __ARM_common_switch8                    ;undefined __ARM_common_switch8(void)
                                                                                    ;= 05h
                            DAT_0001b27a:                 ;XREF[1,0]:   0001b276
ram:0001b27a    05              undefined1  05h                                     
ram:0001b27b    04              ??          04h                                     
ram:0001b27c    0c              ??          0Ch                                     
ram:0001b27d    26              ??          26h    &                                
ram:0001b27e    19              ??          19h                                     
ram:0001b27f    20              ??          20h                                     
ram:0001b280    0b              ??          0Bh                                     
ram:0001b281    00              ??          00h                                     
ram:0001b282    48              ??          48h    H                                
ram:0001b283    78              ??          78h    x                                
ram:0001b284    01              ??          01h                                     
ram:0001b285    28              ??          28h    (                                
ram:0001b286    18              ??          18h                                     
ram:0001b287    d0              ??          D0h                                     
ram:0001b288    02              ??          02h                                     
ram:0001b289    28              ??          28h    (                                
ram:0001b28a    01              ??          01h                                     
ram:0001b28b    d1              ??          D1h                                     
ram:0001b28c    03              ??          03h                                     
ram:0001b28d    20              ??          20h                                     
ram:0001b28e    48              ??          48h    H                                
ram:0001b28f    70              ??          70h    p                                
ram:0001b290    70              ??          70h    p                                
ram:0001b291    bd              ??          BDh                                     
ram:0001b292    48              ??          48h    H                                
ram:0001b293    78              ??          78h    x                                
ram:0001b294    00              ??          00h                                     
ram:0001b295    28              ??          28h    (                                
ram:0001b296    02              ??          02h                                     
ram:0001b297    d0              ??          D0h                                     
ram:0001b298    03              ??          03h                                     
ram:0001b299    28              ??          28h    (                                
ram:0001b29a    f9              ??          F9h                                     
ram:0001b29b    d1              ??          D1h                                     
ram:0001b29c    04              ??          04h                                     
ram:0001b29d    e0              ??          E0h                                     
ram:0001b29e    04              ??          04h                                     
ram:0001b29f    20              ??          20h                                     
ram:0001b2a0    28              ??          28h    (                                
ram:0001b2a1    60              ??          60h    `                                
ram:0001b2a2    32              ??          32h    2                                
ram:0001b2a3    60              ??          60h    `                                
ram:0001b2a4    4a              ??          4Ah    J                                
ram:0001b2a5    70              ??          70h    p                                
ram:0001b2a6    70              ??          70h    p                                
ram:0001b2a7    bd              ??          BDh                                     
ram:0001b2a8    4c              ??          4Ch    L                                
ram:0001b2a9    70              ??          70h    p                                
ram:0001b2aa    70              ??          70h    p                                
ram:0001b2ab    bd              ??          BDh                                     
ram:0001b2ac    48              ??          48h    H                                
ram:0001b2ad    78              ??          78h    x                                
ram:0001b2ae    01              ??          01h                                     
ram:0001b2af    28              ??          28h    (                                
ram:0001b2b0    06              ??          06h                                     
ram:0001b2b1    d0              ??          D0h                                     
ram:0001b2b2    02              ??          02h                                     
ram:0001b2b3    28              ??          28h    (                                
ram:0001b2b4    04              ??          04h                                     
ram:0001b2b5    d0              ??          D0h                                     
ram:0001b2b6    03              ??          03h                                     
ram:0001b2b7    28              ??          28h    (                                
ram:0001b2b8    f7              ??          F7h                                     
ram:0001b2b9    d1              ??          D1h                                     
ram:0001b2ba    fd              ??          FDh                                     
ram:0001b2bb    f7              ??          F7h                                     
ram:0001b2bc    41              ??          41h    A                                
ram:0001b2bd    fb              ??          FBh                                     
ram:0001b2be    70              ??          70h    p                                
ram:0001b2bf    bd              ??          BDh                                     
ram:0001b2c0    fd              ??          FDh                                     
ram:0001b2c1    f7              ??          F7h                                     
ram:0001b2c2    2c              ??          2Ch    ,                                
ram:0001b2c3    fb              ??          FBh                                     
ram:0001b2c4    70              ??          70h    p                                
ram:0001b2c5    bd              ??          BDh                                     
ram:0001b2c6    48              ??          48h    H                                
ram:0001b2c7    78              ??          78h    x                                
ram:0001b2c8    01              ??          01h                                     
ram:0001b2c9    28              ??          28h    (                                
ram:0001b2ca    fb              ??          FBh                                     
ram:0001b2cb    d1              ??          D1h                                     
ram:0001b2cc    48              ??          48h    H                                
ram:0001b2cd    78              ??          78h    x                                
ram:0001b2ce    02              ??          02h                                     
ram:0001b2cf    28              ??          28h    (                                
ram:0001b2d0    00              ??          00h                                     
ram:0001b2d1    d0              ??          D0h                                     
ram:0001b2d2    b2              ??          B2h                                     
ram:0001b2d3    60              ??          60h    `                                
ram:0001b2d4    88              ??          88h                                     
ram:0001b2d5    78              ??          78h    x                                
ram:0001b2d6    e8              ??          E8h                                     
ram:0001b2d7    61              ??          61h    a                                
ram:0001b2d8    e6              ??          E6h                                     
ram:0001b2d9    e7              ??          E7h                                     
ram:0001b2da    00              ??          00h                                     
ram:0001b2db    00              ??          00h                                     
                            DAT_0001b2dc:                 ;XREF[1,0]:   0001b26e
ram:0001b2dc    00250040        undefined4  40002500h                               
                            DAT_0001b2e0:                 ;XREF[1,0]:   0001b270
ram:0001b2e0    00200040        undefined4  40002000h                               
                            DAT_0001b2e4:                 ;XREF[1,0]:   0001b272
ram:0001b2e4    c4200020        undefined4  200020C4h                               
                            ;************************************************************************************************
                            ;*                                           FUNCTION                                           *
                            ;************************************************************************************************
                            ;undefined FUN_0001b2e8(int param_1)
          ;param_1       int                 r0                      
                                                          ;XREF[1,0]:   00018e0e
ram:0001b2e8    f0b5            push        {r4,r5,r6,r7,lr}                        
ram:0001b2ea    0c4a            ldr         r2,[DAT_0001b31c]                       ;= 200020F8h
ram:0001b2ec    0021            movs        r1,#0x0                                 
ram:0001b2ee    5368            ldr         r3,[r2,#0x4]=>DAT_200020fc              
ram:0001b2f0    1422            movs        r2,#0x14                                
ram:0001b2f2    5043            muls        param_1,r2                              
ram:0001b2f4    0124            movs        r4,#0x1                                 
ram:0001b2f6    0a4d            ldr         r5,[DAT_0001b320]                       ;= 50000700h
ram:0001b2f8    0327            movs        r7,#0x3                                 
ram:0001b2fa    3f04            lsls        r7,r7,#0x10                             
                            LAB_0001b2fc:                 ;XREF[1,0]:   0001b318
ram:0001b2fc    1e58            ldr         r6,[r3,param_1]                         
ram:0001b2fe    2246            mov         r2,r4                                   
ram:0001b300    8a40            lsls        r2,r1                                   
ram:0001b302    1642            tst         r6,r2                                   
ram:0001b304    06d0            beq         LAB_0001b314                            
ram:0001b306    8a00            lsls        r2,r1,#0x2                              
ram:0001b308    5219            adds        r2,r2,r5                                
ram:0001b30a    1668            ldr         r6,[r2,#0x0]=>DAT_50000700              
ram:0001b30c    be43            bics        r6,r7                                   
ram:0001b30e    1660            str         r6,[r2,#0x0]=>DAT_50000700              
ram:0001b310    1668            ldr         r6,[r2,#0x0]=>DAT_50000700              
ram:0001b312    1660            str         r6,[r2,#0x0]=>DAT_50000700              
                            LAB_0001b314:                 ;XREF[1,0]:   0001b304
ram:0001b314    491c            adds        r1,r1,#0x1                              
ram:0001b316    2029            cmp         r1,#0x20                                
ram:0001b318    f0d3            bcc         LAB_0001b2fc                            
ram:0001b31a    f0bd            pop         {r4,r5,r6,r7,pc}                        
                            DAT_0001b31c:                 ;XREF[1,0]:   0001b2ea
ram:0001b31c    f8200020        undefined4  200020F8h                               
                            DAT_0001b320:                 ;XREF[1,0]:   0001b2f6
ram:0001b320    00070050        undefined4  50000700h                               
                            ;************************************************************************************************
                            ;*                                           FUNCTION                                           *
                            ;************************************************************************************************
                            ;undefined FUN_0001b324(int param_1)
          ;param_1       int                 r0                      
                                                          ;XREF[4,0]:   00018e8c,00018ec6,00019410,0001ad18
ram:0001b324    10b5            push        {r4,lr}                                 
ram:0001b326    48df            svc         0x48                                    
ram:0001b328    0028            cmp         param_1,#0x0                            
ram:0001b32a    03d0            beq         LAB_0001b334                            
ram:0001b32c    0022            movs        r2,#0x0                                 
ram:0001b32e    1146            mov         r1,r2                                   
ram:0001b330    fdf7aafc        bl          FUN_00018c88                            ;undefined FUN_00018c88(void)
                            LAB_0001b334:                 ;XREF[1,0]:   0001b32a
ram:0001b334    10bd            pop         {r4,pc}                                 
ram:0001b336    0000            movs        r0,r0                                   
                            ;************************************************************************************************
                            ;*                                           FUNCTION                                           *
                            ;************************************************************************************************
                            ;undefined4 FUN_0001b338(uint * param_1, int param_2, uint * param_3)
          ;param_1       uint *              r0                      
          ;param_2       int                 r1                      
          ;param_3       uint *              r2                      
                                                          ;XREF[3,0]:   00018e26,000193e0,0001a45c
ram:0001b338    70b5            push        {r4,r5,r6,lr}                           
ram:0001b33a    124b            ldr         r3,[DAT_0001b384]                       ;= 200020D4h
ram:0001b33c    1b78            ldrb        r3,[r3,#0x0]=>DAT_200020d4              
ram:0001b33e    002b            cmp         r3,#0x0                                 
ram:0001b340    18d0            beq         LAB_0001b374                            
ram:0001b342    0028            cmp         param_1,#0x0                            
ram:0001b344    18d0            beq         LAB_0001b378                            
ram:0001b346    002a            cmp         param_3,#0x0                            
ram:0001b348    16d0            beq         LAB_0001b378                            
ram:0001b34a    0368            ldr         r3,[param_1,#0x0]                       
ram:0001b34c    022b            cmp         r3,#0x2                                 
ram:0001b34e    0fd2            bcs         LAB_0001b370                            
ram:0001b350    0d4c            ldr         r4,[DAT_0001b388]                       ;= 200028C4h
ram:0001b352    1e01            lsls        r6,r3,#0x4                              
ram:0001b354    a559            ldr         r5,[r4,r6]=>DAT_200028c4                
ram:0001b356    002d            cmp         r5,#0x0                                 
ram:0001b358    0ad0            beq         LAB_0001b370                            
ram:0001b35a    4568            ldr         r5,[param_1,#0x4]                       
ram:0001b35c    3019            adds        param_1,r6,r4                           
ram:0001b35e    0489            ldrh        r4,[param_1,#0x8]=>DAT_200028cc         
ram:0001b360    6143            muls        param_2,r4                              
ram:0001b362    6918            adds        param_2,r5,param_2                      
ram:0001b364    4589            ldrh        r5,[param_1,#0xa]=>DAT_200028ce         
ram:0001b366    4068            ldr         param_1,[param_1,#0x4]                  
ram:0001b368    6543            muls        r5,r4                                   
ram:0001b36a    2818            adds        param_1,r5,param_1                      
ram:0001b36c    8842            cmp         param_1,param_2                         
ram:0001b36e    05d8            bhi         LAB_0001b37c                            
                            LAB_0001b370:                 ;XREF[2,0]:   0001b34e,0001b358
ram:0001b370    0720            movs        param_1,#0x7                            
ram:0001b372    70bd            pop         {r4,r5,r6,pc}                           
                            LAB_0001b374:                 ;XREF[1,0]:   0001b340
ram:0001b374    0820            movs        param_1,#0x8                            
ram:0001b376    70bd            pop         {r4,r5,r6,pc}                           
                            LAB_0001b378:                 ;XREF[2,0]:   0001b344,0001b348
ram:0001b378    0e20            movs        param_1,#0xe                            
ram:0001b37a    70bd            pop         {r4,r5,r6,pc}                           
                            LAB_0001b37c:                 ;XREF[1,0]:   0001b36e
ram:0001b37c    1360            str         r3,[param_3,#0x0]                       
ram:0001b37e    0020            movs        param_1,#0x0                            
ram:0001b380    5160            str         param_2,[param_3,#0x4]                  
ram:0001b382    70bd            pop         {r4,r5,r6,pc}                           
                            DAT_0001b384:                 ;XREF[1,0]:   0001b33a
ram:0001b384    d4200020        undefined4  200020D4h                               
                            DAT_0001b388:                 ;XREF[1,0]:   0001b350
ram:0001b388    c4280020        undefined4  200028C4h                               
                            ;************************************************************************************************
                            ;*                                           FUNCTION                                           *
                            ;************************************************************************************************
                            ;int FUN_0001b38c(uint * param_1, undefined2 param_2)
          ;param_1       uint *              r0                      
          ;param_2       undefined2          r1                      
          ;local_18      undefined4         -18                      ;XREF[1,0]:   0001b3f2
                                                          ;XREF[2,0]:   00018e7a,000193fe
ram:0001b38c    f8b5            push        {r3,r4,r5,r6,r7,lr}                     
ram:0001b38e    0446            mov         r4,param_1                              
ram:0001b390    1b48            ldr         param_1,[DAT_0001b400]                  ;= 200020D4h
ram:0001b392    0e46            mov         r6,param_2                              
ram:0001b394    0078            ldrb        param_1,[param_1,#0x0]=>DAT_200020d4    
ram:0001b396    0028            cmp         param_1,#0x0                            
ram:0001b398    23d0            beq         LAB_0001b3e2                            
ram:0001b39a    002c            cmp         r4,#0x0                                 
ram:0001b39c    23d0            beq         LAB_0001b3e6                            
ram:0001b39e    2068            ldr         param_1,[r4,#0x0]                       
ram:0001b3a0    0228            cmp         param_1,#0x2                            
ram:0001b3a2    1cd2            bcs         LAB_0001b3de                            
ram:0001b3a4    174d            ldr         r5,[DAT_0001b404]                       ;= 200028C4h
ram:0001b3a6    0001            lsls        param_1,param_1,#0x4                    
ram:0001b3a8    2958            ldr         param_2,[r5,param_1]=>DAT_200028c4      
ram:0001b3aa    0029            cmp         param_2,#0x0                            
ram:0001b3ac    17d0            beq         LAB_0001b3de                            
ram:0001b3ae    4019            adds        param_1,param_1,r5                      
ram:0001b3b0    4189            ldrh        param_2,[param_1,#0xa]=>DAT_200028ce    
ram:0001b3b2    0289            ldrh        r2,[param_1,#0x8]=>DAT_200028cc         
ram:0001b3b4    4068            ldr         param_1,[param_1,#0x4]                  
ram:0001b3b6    5143            muls        param_2,r2                              
ram:0001b3b8    0918            adds        param_2,param_2,param_1                 
ram:0001b3ba    6068            ldr         param_1,[r4,#0x4]                       
ram:0001b3bc    8142            cmp         param_2,param_1                         
ram:0001b3be    0ed9            bls         LAB_0001b3de                            
ram:0001b3c0    fff784fa        bl          FUN_0001a8cc                            ;undefined4 FUN_0001a8cc(uint param_1)
ram:0001b3c4    0028            cmp         param_1,#0x0                            
ram:0001b3c6    10d0            beq         LAB_0001b3ea                            
ram:0001b3c8    2168            ldr         param_2,[r4,#0x0]                       
ram:0001b3ca    6068            ldr         param_1,[r4,#0x4]                       
ram:0001b3cc    0901            lsls        param_2,param_2,#0x4                    
ram:0001b3ce    4919            adds        param_2,param_2,r5                      
ram:0001b3d0    4a68            ldr         r2,[param_2,#0x4]                       
ram:0001b3d2    0989            ldrh        param_2,[param_2,#0x8]=>DAT_200028cc    
ram:0001b3d4    801a            subs        param_1,param_1,r2                      
ram:0001b3d6    fcf7dbfe        bl          FUN_00018190                            ;int FUN_00018190(uint param_1, uint ...
ram:0001b3da    0029            cmp         param_2,#0x0                            
ram:0001b3dc    07d0            beq         LAB_0001b3ee                            
                            LAB_0001b3de:                 ;XREF[3,0]:   0001b3a2,0001b3ac,0001b3be
ram:0001b3de    0720            movs        param_1,#0x7                            
ram:0001b3e0    f8bd            pop         {r3,r4,r5,r6,r7,pc}                     
                            LAB_0001b3e2:                 ;XREF[1,0]:   0001b398
ram:0001b3e2    0820            movs        param_1,#0x8                            
ram:0001b3e4    f8bd            pop         {r3,r4,r5,r6,r7,pc}                     
                            LAB_0001b3e6:                 ;XREF[1,0]:   0001b39c
ram:0001b3e6    0e20            movs        param_1,#0xe                            
ram:0001b3e8    f8bd            pop         {r3,r4,r5,r6,r7,pc}                     
                            LAB_0001b3ea:                 ;XREF[1,0]:   0001b3c6
ram:0001b3ea    1020            movs        param_1,#0x10                           
ram:0001b3ec    f8bd            pop         {r3,r4,r5,r6,r7,pc}                     
                            LAB_0001b3ee:                 ;XREF[1,0]:   0001b3dc
ram:0001b3ee    0020            movs        param_1,#0x0                            
ram:0001b3f0    0246            mov         r2,param_1                              
ram:0001b3f2    0090            str         param_1,[sp,#0x0]=>local_18             
ram:0001b3f4    3346            mov         r3,r6                                   
ram:0001b3f6    2146            mov         param_2,r4                              
ram:0001b3f8    0420            movs        param_1,#0x4                            
ram:0001b3fa    fef78dfc        bl          FUN_00019d18                            ;int FUN_00019d18(char param_1, undef...
ram:0001b3fe    f8bd            pop         {r3,r4,r5,r6,r7,pc}                     
                            DAT_0001b400:                 ;XREF[1,0]:   0001b390
ram:0001b400    d4200020        undefined4  200020D4h                               
                            DAT_0001b404:                 ;XREF[1,0]:   0001b3a4
ram:0001b404    c4280020        undefined4  200028C4h                               
                            ;************************************************************************************************
                            ;*                                           FUNCTION                                           *
                            ;************************************************************************************************
                            ;int FUN_0001b408(void)
                                                          ;XREF[7,0]:   0001b45a,0001b48c,0001b58e,0001bc2a
                                                          ;             0001bc6a,0001bc9a,0001bcec
ram:0001b408    10b5            push        {r4,lr}                                 
ram:0001b40a    0748            ldr         r0,[DAT_0001b428]                       ;= 10001000h
ram:0001b40c    4469            ldr         r4,[r0,#offset DAT_10001014 &0xff]      
ram:0001b40e    601c            adds        r0,r4,#0x1                              
ram:0001b410    06d0            beq         LAB_0001b420                            
ram:0001b412    00f00bf8        bl          FUN_0001b42c                            ;uint FUN_0001b42c(void)
ram:0001b416    0146            mov         r1,r0                                   
ram:0001b418    2046            mov         r0,r4                                   
ram:0001b41a    fcf7b9fe        bl          FUN_00018190                            ;int FUN_00018190(uint param_1, uint ...
ram:0001b41e    10bd            pop         {r4,pc}                                 
                            LAB_0001b420:                 ;XREF[1,0]:   0001b410
ram:0001b420    0120            movs        r0,#0x1                                 
ram:0001b422    0007            lsls        r0,r0,#0x1c                             
ram:0001b424    4069            ldr         r0,[r0,#offset DAT_10000014 &0xff]      
ram:0001b426    10bd            pop         {r4,pc}                                 
                            DAT_0001b428:                 ;XREF[1,0]:   0001b40a
ram:0001b428    00100010        undefined4  10001000h                               
                            ;************************************************************************************************
                            ;*                                           FUNCTION                                           *
                            ;************************************************************************************************
                            ;uint FUN_0001b42c(void)
                                                          ;XREF[28,0]:  00019bfa,00019c08,00019c18,00019c74
                                                          ;             00019c82,00019c8c,00019ca8,0001b412
                                                          ;             0001b460,0001b486,0001b492,0001b578
                                                          ;             0001b594,0001b5a8,0001b5b8,0001b608
                                                          ;             0001b610,0001b61e,0001bc1c,0001bc22
                                                          ;             0001bc30,0001bc70,0001bc76,0001bca0
                                                          ;             0001bcae,0001bcc8,0001bce6,0001bcf2
ram:0001b42c    0120            movs        r0,#0x1                                 
ram:0001b42e    0007            lsls        r0,r0,#0x1c                             
ram:0001b430    0069            ldr         r0,[r0,#offset DAT_10000010 &0xff]      
ram:0001b432    80b2            uxth        r0,r0                                   
ram:0001b434    7047            bx          lr                                      
ram:0001b436    0000            movs        r0,r0                                   
                            ;************************************************************************************************
                            ;*                                           FUNCTION                                           *
                            ;************************************************************************************************
                            ;undefined FUN_0001b438(void)
                                                          ;XREF[1,0]:   0001ab20
ram:0001b438    f8b5            push        {r3,r4,r5,r6,r7,lr}                     
ram:0001b43a    0024            movs        r4,#0x0                                 
ram:0001b43c    1b4d            ldr         r5,[DAT_0001b4ac]                       ;= 200020D4h
ram:0001b43e    1c4e            ldr         r6,[DAT_0001b4b0]                       ;= 200027F8h
ram:0001b440    ac80            strh        r4,[r5,#0x4]=>DAT_200020d8              
ram:0001b442    6c70            strb        r4,[r5,#0x1]=>DAT_200020d5              
ram:0001b444    3470            strb        r4,[r6,#0x0]=>DAT_200027f8              
ram:0001b446    7470            strb        r4,[r6,#0x1]=>DAT_200027f9              
ram:0001b448    b470            strb        r4,[r6,#0x2]=>DAT_200027fa              
ram:0001b44a    2746            mov         r7,r4                                   
                            LAB_0001b44c:                 ;XREF[1,0]:   0001b456
ram:0001b44c    3846            mov         r0,r7                                   
ram:0001b44e    fef753fc        bl          FUN_00019cf8                            ;undefined FUN_00019cf8(int param_1)
ram:0001b452    7f1c            adds        r7,r7,#0x1                              
ram:0001b454    0a2f            cmp         r7,#0xa                                 
ram:0001b456    f9d3            bcc         LAB_0001b44c                            
ram:0001b458    6c80            strh        r4,[r5,#0x2]=>DAT_200020d6              
ram:0001b45a    fff7d5ff        bl          FUN_0001b408                            ;int FUN_0001b408(void)
ram:0001b45e    c71e            subs        r7,r0,#0x3                              
ram:0001b460    fff7e4ff        bl          FUN_0001b42c                            ;uint FUN_0001b42c(void)
ram:0001b464    4743            muls        r7,r0                                   
ram:0001b466    1249            ldr         r1,[DAT_0001b4b0]                       ;= 200027F8h
ram:0001b468    af60            str         r7,[r5,#0x8]=>DAT_200020dc              
ram:0001b46a    0020            movs        r0,#0x0                                 
ram:0001b46c    ac80            strh        r4,[r5,#0x4]=>DAT_200020d8              
ram:0001b46e    cc31            adds        r1=>DAT_200028c4,#0xcc                  
                            LAB_0001b470:                 ;XREF[1,0]:   0001b480
ram:0001b470    0201            lsls        r2,r0,#0x4                              
                                                          ; FWD[2,0]:   200028c4,200028d4
ram:0001b472    8c50            str         r4,[r1,r2]=>DAT_200028c4                
ram:0001b474    5218            adds        r2=>DAT_200028c4,r2,r1                  
                                                          ; FWD[2,0]:   200028cc,200028dc
ram:0001b476    1481            strh        r4,[r2,#0x8]=>DAT_200028cc              
                                                          ; FWD[2,0]:   200028d0,200028e0
ram:0001b478    9481            strh        r4,[r2,#0xc]=>DAT_200028d0              
ram:0001b47a    401c            adds        r0,r0,#0x1                              
                                                          ; FWD[2,0]:   200028ce,200028de
ram:0001b47c    5481            strh        r4,[r2,#0xa]=>DAT_200028ce              
ram:0001b47e    0228            cmp         r0,#0x2                                 
ram:0001b480    f6d3            bcc         LAB_0001b470                            
ram:0001b482    0820            movs        r0,#0x8                                 
ram:0001b484    6870            strb        r0,[r5,#0x1]=>DAT_200020d5              
ram:0001b486    fff7d1ff        bl          FUN_0001b42c                            ;uint FUN_0001b42c(void)
ram:0001b48a    0746            mov         r7,r0                                   
ram:0001b48c    fff7bcff        bl          FUN_0001b408                            ;int FUN_0001b408(void)
ram:0001b490    441e            subs        r4,r0,#0x1                              
ram:0001b492    fff7cbff        bl          FUN_0001b42c                            ;uint FUN_0001b42c(void)
ram:0001b496    6043            muls        r0,r4                                   
ram:0001b498    3946            mov         r1,r7                                   
ram:0001b49a    fcf779fe        bl          FUN_00018190                            ;int FUN_00018190(uint param_1, uint ...
ram:0001b49e    28df            svc         0x28                                    
ram:0001b4a0    0028            cmp         r0,#0x0                                 
ram:0001b4a2    02d1            bne         LAB_0001b4aa                            
ram:0001b4a4    0121            movs        r1,#0x1                                 
ram:0001b4a6    b170            strb        r1,[r6,#0x2]=>DAT_200027fa              
ram:0001b4a8    2970            strb        r1,[r5,#0x0]=>DAT_200020d4              
                            LAB_0001b4aa:                 ;XREF[1,0]:   0001b4a2
ram:0001b4aa    f8bd            pop         {r3,r4,r5,r6,r7,pc}                     
                            DAT_0001b4ac:                 ;XREF[1,0]:   0001b43c
ram:0001b4ac    d4200020        undefined4  200020D4h                               
                            DAT_0001b4b0:                 ;XREF[2,0]:   0001b43e,0001b466
ram:0001b4b0    f8270020        undefined4  200027F8h                               
                            ;************************************************************************************************
                            ;*                                           FUNCTION                                           *
                            ;************************************************************************************************
                            ;undefined4 FUN_0001b4b4(undefined4 * param_1, uint * param_2, uint param_3, uint param_4)
          ;param_1       undefined4 *        r0                      
          ;param_2       uint *              r1                      
          ;param_3       uint                r2                      
          ;param_4       uint                r3                      
          ;local_24      undefined4         -24                      ;XREF[4,0]:   0001b4ca,0001b50e,0001b532,0001b546
          ;local_28      undefined4         -28                      ;XREF[1,0]:   0001b538
                                                          ;XREF[3,0]:   00018e3e,00018ed8,0001a46c
ram:0001b4b4    ffb5            push        {param_1,param_2,param_3,param_4,r4,r...
ram:0001b4b6    2748            ldr         param_1,[DAT_0001b554]                  ;= 200020D4h
ram:0001b4b8    81b0            sub         sp,#0x4                                 
ram:0001b4ba    0078            ldrb        param_1,[param_1,#0x0]=>DAT_200020d4    
ram:0001b4bc    1f46            mov         r7,param_4                              
ram:0001b4be    1646            mov         r6,param_3                              
ram:0001b4c0    0c46            mov         r4,param_2                              
ram:0001b4c2    0028            cmp         param_1,#0x0                            
ram:0001b4c4    1fd0            beq         LAB_0001b506                            
ram:0001b4c6    002c            cmp         r4,#0x0                                 
ram:0001b4c8    1fd0            beq         LAB_0001b50a                            
ram:0001b4ca    0198            ldr         param_1,[sp,#local_24+0x28]             
ram:0001b4cc    0028            cmp         param_1,#0x0                            
ram:0001b4ce    1cd0            beq         LAB_0001b50a                            
ram:0001b4d0    2068            ldr         param_1,[r4,#0x0]                       
ram:0001b4d2    0228            cmp         param_1,#0x2                            
ram:0001b4d4    14d2            bcs         LAB_0001b500                            
ram:0001b4d6    204d            ldr         r5,[DAT_0001b558]                       ;= 200028C4h
ram:0001b4d8    0001            lsls        param_1,param_1,#0x4                    
ram:0001b4da    2958            ldr         param_2,[r5,param_1]=>DAT_200028c4      
ram:0001b4dc    0029            cmp         param_2,#0x0                            
ram:0001b4de    0fd0            beq         LAB_0001b500                            
ram:0001b4e0    4119            adds        param_2,param_1,r5                      
ram:0001b4e2    4a89            ldrh        param_3,[param_2,#0xa]=>DAT_200028ce    
ram:0001b4e4    0889            ldrh        param_1,[param_2,#0x8]=>DAT_200028cc    
ram:0001b4e6    4968            ldr         param_2,[param_2,#0x4]                  
ram:0001b4e8    4243            muls        param_3,param_1                         
ram:0001b4ea    5118            adds        param_2,param_3,param_2                 
ram:0001b4ec    6268            ldr         param_3,[r4,#0x4]                       
ram:0001b4ee    9142            cmp         param_2,param_3                         
ram:0001b4f0    06d9            bls         LAB_0001b500                            
ram:0001b4f2    002e            cmp         r6,#0x0                                 
ram:0001b4f4    04d0            beq         LAB_0001b500                            
ram:0001b4f6    b042            cmp         param_1,r6                              
ram:0001b4f8    02d3            bcc         LAB_0001b500                            
ram:0001b4fa    f119            adds        param_2,r6,r7                           
ram:0001b4fc    8142            cmp         param_2,param_1                         
ram:0001b4fe    06d9            bls         LAB_0001b50e                            
                            LAB_0001b500:                 ;XREF[5,0]:   0001b4d4,0001b4de,0001b4f0,0001b4f4
                                                          ;             0001b4f8
ram:0001b500    0720            movs        param_1,#0x7                            
                            LAB_0001b502:                 ;XREF[4,0]:   0001b508,0001b50c,0001b54c,0001b550
ram:0001b502    05b0            add         sp,#0x14                                
ram:0001b504    f0bd            pop         {r4,r5,r6,r7,pc}                        
                            LAB_0001b506:                 ;XREF[1,0]:   0001b4c4
ram:0001b506    0820            movs        param_1,#0x8                            
ram:0001b508    fbe7            b           LAB_0001b502                            
                            LAB_0001b50a:                 ;XREF[2,0]:   0001b4c8,0001b4ce
ram:0001b50a    0e20            movs        param_1,#0xe                            
ram:0001b50c    f9e7            b           LAB_0001b502                            
                            LAB_0001b50e:                 ;XREF[1,0]:   0001b4fe
ram:0001b50e    0198            ldr         param_1,[sp,#local_24+0x28]             
ram:0001b510    fff7dcf9        bl          FUN_0001a8cc                            ;undefined4 FUN_0001a8cc(uint param_1)
ram:0001b514    0028            cmp         param_1,#0x0                            
ram:0001b516    1ad0            beq         LAB_0001b54e                            
ram:0001b518    3846            mov         param_1,r7                              
ram:0001b51a    fff7d7f9        bl          FUN_0001a8cc                            ;undefined4 FUN_0001a8cc(uint param_1)
ram:0001b51e    0028            cmp         param_1,#0x0                            
ram:0001b520    15d0            beq         LAB_0001b54e                            
ram:0001b522    6068            ldr         param_1,[r4,#0x4]                       
ram:0001b524    fff7d2f9        bl          FUN_0001a8cc                            ;undefined4 FUN_0001a8cc(uint param_1)
ram:0001b528    0028            cmp         param_1,#0x0                            
ram:0001b52a    10d0            beq         LAB_0001b54e                            
ram:0001b52c    6068            ldr         param_1,[r4,#0x4]                       
ram:0001b52e    3246            mov         param_3,r6                              
ram:0001b530    c119            adds        param_2,param_1,r7                      
ram:0001b532    0198            ldr         param_1,[sp,#local_24+0x28]             
ram:0001b534    fcf742fe        bl          FUN_000181bc                            ;undefined FUN_000181bc(undefined4 * ...
ram:0001b538    0096            str         r6,[sp,#0x0]=>local_28                  
ram:0001b53a    2068            ldr         param_1,[r4,#0x0]                       
ram:0001b53c    0022            movs        param_3,#0x0                            
ram:0001b53e    0001            lsls        param_1,param_1,#0x4                    
ram:0001b540    2d58            ldr         r5=>DAT_200028c4,[r5,param_1]           
ram:0001b542    0321            movs        param_2,#0x3                            
ram:0001b544    2046            mov         param_1,r4                              
ram:0001b546    019b            ldr         param_4,[sp,#local_24+0x28]             
ram:0001b548    a847            blx         r5                                      
ram:0001b54a    0020            movs        param_1,#0x0                            
ram:0001b54c    d9e7            b           LAB_0001b502                            
                            LAB_0001b54e:                 ;XREF[3,0]:   0001b516,0001b520,0001b52a
ram:0001b54e    1020            movs        param_1,#0x10                           
ram:0001b550    d7e7            b           LAB_0001b502                            
ram:0001b552    0000            movs        r0,r0                                   
                            DAT_0001b554:                 ;XREF[1,0]:   0001b4b6
ram:0001b554    d4200020        undefined4  200020D4h                               
                            DAT_0001b558:                 ;XREF[1,0]:   0001b4d6
ram:0001b558    c4280020        undefined4  200028C4h                               
                            ;************************************************************************************************
                            ;*                                           FUNCTION                                           *
                            ;************************************************************************************************
                            ;undefined4 FUN_0001b55c(int * param_1, uint * param_2)
          ;param_1       int *               r0                      
          ;param_2       uint *              r1                      
                                                          ;XREF[1,0]:   0001ab42
ram:0001b55c    f8b5            push        {r3,r4,r5,r6,r7,lr}                     
ram:0001b55e    374d            ldr         r5,[DAT_0001b63c]                       ;= 200020D4h
ram:0001b560    0446            mov         r4,param_1                              
ram:0001b562    2878            ldrb        param_1,[r5,#0x0]=>DAT_200020d4         
ram:0001b564    0e46            mov         r6,param_2                              
ram:0001b566    0028            cmp         param_1,#0x0                            
ram:0001b568    2ed0            beq         LAB_0001b5c8                            
ram:0001b56a    002c            cmp         r4,#0x0                                 
ram:0001b56c    2ed0            beq         LAB_0001b5cc                            
ram:0001b56e    002e            cmp         r6,#0x0                                 
ram:0001b570    2cd0            beq         LAB_0001b5cc                            
ram:0001b572    2068            ldr         param_1,[r4,#0x0]                       
ram:0001b574    0028            cmp         param_1,#0x0                            
ram:0001b576    29d0            beq         LAB_0001b5cc                            
ram:0001b578    fff758ff        bl          FUN_0001b42c                            ;uint FUN_0001b42c(void)
ram:0001b57c    0146            mov         param_2,param_1                         
ram:0001b57e    a088            ldrh        param_1,[r4,#0x4]                       
ram:0001b580    8142            cmp         param_2,param_1                         
ram:0001b582    28d3            bcc         LAB_0001b5d6                            
ram:0001b584    0828            cmp         param_1,#0x8                            
ram:0001b586    26d3            bcc         LAB_0001b5d6                            
ram:0001b588    e088            ldrh        param_1,[r4,#0x6]                       
ram:0001b58a    0028            cmp         param_1,#0x0                            
ram:0001b58c    23d0            beq         LAB_0001b5d6                            
ram:0001b58e    fff73bff        bl          FUN_0001b408                            ;int FUN_0001b408(void)
ram:0001b592    471e            subs        r7,param_1,#0x1                         
ram:0001b594    fff74aff        bl          FUN_0001b42c                            ;uint FUN_0001b42c(void)
ram:0001b598    4743            muls        r7,param_1                              
ram:0001b59a    e088            ldrh        param_1,[r4,#0x6]                       
ram:0001b59c    a188            ldrh        param_2,[r4,#0x4]                       
ram:0001b59e    4843            muls        param_1,param_2                         
ram:0001b5a0    a968            ldr         param_2,[r5,#0x8]=>DAT_200020dc         
ram:0001b5a2    4018            adds        param_1,param_1,param_2                 
ram:0001b5a4    8742            cmp         r7,param_1                              
ram:0001b5a6    16d3            bcc         LAB_0001b5d6                            
ram:0001b5a8    fff740ff        bl          FUN_0001b42c                            ;uint FUN_0001b42c(void)
ram:0001b5ac    0146            mov         param_2,param_1                         
ram:0001b5ae    e088            ldrh        param_1,[r4,#0x6]                       
ram:0001b5b0    a288            ldrh        r2,[r4,#0x4]                            
ram:0001b5b2    5043            muls        param_1,r2                              
ram:0001b5b4    8142            cmp         param_2,param_1                         
ram:0001b5b6    0bda            bge         LAB_0001b5d0                            
ram:0001b5b8    fff738ff        bl          FUN_0001b42c                            ;uint FUN_0001b42c(void)
ram:0001b5bc    a188            ldrh        param_2,[r4,#0x4]                       
ram:0001b5be    fcf7e7fd        bl          FUN_00018190                            ;int FUN_00018190(uint param_1, uint ...
ram:0001b5c2    0029            cmp         param_2,#0x0                            
ram:0001b5c4    07d1            bne         LAB_0001b5d6                            
ram:0001b5c6    03e0            b           LAB_0001b5d0                            
                            LAB_0001b5c8:                 ;XREF[1,0]:   0001b568
ram:0001b5c8    0820            movs        param_1,#0x8                            
ram:0001b5ca    f8bd            pop         {r3,r4,r5,r6,r7,pc}                     
                            LAB_0001b5cc:                 ;XREF[3,0]:   0001b56c,0001b570,0001b576
ram:0001b5cc    0e20            movs        param_1,#0xe                            
ram:0001b5ce    f8bd            pop         {r3,r4,r5,r6,r7,pc}                     
                            LAB_0001b5d0:                 ;XREF[2,0]:   0001b5b6,0001b5c6
ram:0001b5d0    2079            ldrb        param_1,[r4,#0x4]                       
ram:0001b5d2    8007            lsls        param_1,param_1,#0x1e                   
ram:0001b5d4    01d0            beq         LAB_0001b5da                            
                            LAB_0001b5d6:                 ;XREF[5,0]:   0001b582,0001b586,0001b58c,0001b5a6
                                                          ;             0001b5c4
ram:0001b5d6    0720            movs        param_1,#0x7                            
ram:0001b5d8    f8bd            pop         {r3,r4,r5,r6,r7,pc}                     
                            LAB_0001b5da:                 ;XREF[1,0]:   0001b5d4
ram:0001b5da    6888            ldrh        param_1,[r5,#0x2]=>DAT_200020d6         
ram:0001b5dc    0228            cmp         param_1,#0x2                            
ram:0001b5de    1bd0            beq         LAB_0001b618                            
ram:0001b5e0    3060            str         param_1,[r6,#0x0]                       
ram:0001b5e2    174f            ldr         r7,[DAT_0001b640]                       ;= 200028C4h
ram:0001b5e4    a968            ldr         param_2,[r5,#0x8]=>DAT_200020dc         
ram:0001b5e6    0201            lsls        r2,param_1,#0x4                         
ram:0001b5e8    d019            adds        param_1,r2,r7                           
ram:0001b5ea    7160            str         param_2,[r6,#0x4]                       
ram:0001b5ec    4160            str         param_2,[param_1,#0x4]                  
ram:0001b5ee    2168            ldr         param_2,[r4,#0x0]                       
ram:0001b5f0    b950            str         param_2,[r7,r2]=>DAT_200028c4           
ram:0001b5f2    a188            ldrh        param_2,[r4,#0x4]                       
ram:0001b5f4    0181            strh        param_2,[param_1,#0x8]=>DAT_200028cc    
ram:0001b5f6    e188            ldrh        param_2,[r4,#0x6]                       
ram:0001b5f8    4181            strh        param_2,[param_1,#0xa]=>DAT_200028ce    
ram:0001b5fa    a088            ldrh        param_1,[r4,#0x4]                       
ram:0001b5fc    e188            ldrh        param_2,[r4,#0x6]                       
ram:0001b5fe    0026            movs        r6,#0x0                                 
ram:0001b600    4843            muls        param_1,param_2                         
ram:0001b602    0446            mov         r4,param_1                              
                            LAB_0001b604:                 ;XREF[1,0]:   0001b62a
ram:0001b604    761c            adds        r6,r6,#0x1                              
ram:0001b606    b6b2            uxth        r6,r6                                   
ram:0001b608    fff710ff        bl          FUN_0001b42c                            ;uint FUN_0001b42c(void)
ram:0001b60c    a042            cmp         param_1,r4                              
ram:0001b60e    05d2            bcs         LAB_0001b61c                            
ram:0001b610    fff70cff        bl          FUN_0001b42c                            ;uint FUN_0001b42c(void)
ram:0001b614    241a            subs        r4,r4,param_1                           
ram:0001b616    02e0            b           LAB_0001b61e                            
                            LAB_0001b618:                 ;XREF[1,0]:   0001b5de
ram:0001b618    0420            movs        param_1,#0x4                            
ram:0001b61a    f8bd            pop         {r3,r4,r5,r6,r7,pc}                     
                            LAB_0001b61c:                 ;XREF[1,0]:   0001b60e
ram:0001b61c    0024            movs        r4,#0x0                                 
                            LAB_0001b61e:                 ;XREF[1,0]:   0001b616
ram:0001b61e    fff705ff        bl          FUN_0001b42c                            ;uint FUN_0001b42c(void)
ram:0001b622    a968            ldr         param_2,[r5,#0x8]=>DAT_200020dc         
ram:0001b624    4018            adds        param_1,param_1,param_2                 
ram:0001b626    a860            str         param_1,[r5,#0x8]=>DAT_200020dc         
ram:0001b628    002c            cmp         r4,#0x0                                 
ram:0001b62a    ebd1            bne         LAB_0001b604                            
ram:0001b62c    6888            ldrh        param_1,[r5,#0x2]=>DAT_200020d6         
ram:0001b62e    0101            lsls        param_2,param_1,#0x4                    
ram:0001b630    c919            adds        param_2,param_2,r7                      
ram:0001b632    8e81            strh        r6,[param_2,#0xc]=>DAT_200028d0         
ram:0001b634    401c            adds        param_1,param_1,#0x1                    
ram:0001b636    6880            strh        param_1,[r5,#0x2]=>DAT_200020d6         
ram:0001b638    0020            movs        param_1,#0x0                            
ram:0001b63a    f8bd            pop         {r3,r4,r5,r6,r7,pc}                     
                            DAT_0001b63c:                 ;XREF[1,0]:   0001b55e
ram:0001b63c    d4200020        undefined4  200020D4h                               
                            DAT_0001b640:                 ;XREF[1,0]:   0001b5e2
ram:0001b640    c4280020        undefined4  200028C4h                               
                            ;************************************************************************************************
                            ;*                                           FUNCTION                                           *
                            ;************************************************************************************************
                            ;int FUN_0001b644(uint * param_1, uint param_2, uint param_3, uint param_4)
          ;param_1       uint *              r0                      
          ;param_2       uint                r1                      
          ;param_3       uint                r2                      
          ;param_4       uint                r3                      
          ;local_18      undefined4         -18                      ;XREF[1,0]:   0001b6c0
                                                          ;XREF[1,0]:   00018eb4
ram:0001b644    f8b5            push        {param_4,r4,r5,r6,r7,lr}                
ram:0001b646    0446            mov         r4,param_1                              
ram:0001b648    2048            ldr         param_1,[DAT_0001b6cc]                  ;= 200020D4h
ram:0001b64a    1e46            mov         r6,param_4                              
ram:0001b64c    0078            ldrb        param_1,[param_1,#0x0]=>DAT_200020d4    
ram:0001b64e    1546            mov         r5,param_3                              
ram:0001b650    0f46            mov         r7,param_2                              
ram:0001b652    0028            cmp         param_1,#0x0                            
ram:0001b654    1dd0            beq         LAB_0001b692                            
ram:0001b656    002f            cmp         r7,#0x0                                 
ram:0001b658    1dd0            beq         LAB_0001b696                            
ram:0001b65a    002c            cmp         r4,#0x0                                 
ram:0001b65c    1bd0            beq         LAB_0001b696                            
ram:0001b65e    2068            ldr         param_1,[r4,#0x0]                       
ram:0001b660    0228            cmp         param_1,#0x2                            
ram:0001b662    14d2            bcs         LAB_0001b68e                            
ram:0001b664    0101            lsls        param_2,param_1,#0x4                    
ram:0001b666    1a48            ldr         param_1,[DAT_0001b6d0]                  ;= 200028C4h
ram:0001b668    4258            ldr         param_3,[param_1,param_2]=>DAT_200028c4 
ram:0001b66a    002a            cmp         param_3,#0x0                            
ram:0001b66c    0fd0            beq         LAB_0001b68e                            
ram:0001b66e    0918            adds        param_2,param_2,param_1                 
ram:0001b670    4a89            ldrh        param_3,[param_2,#0xa]=>DAT_200028ce    
ram:0001b672    0889            ldrh        param_1,[param_2,#0x8]=>DAT_200028cc    
ram:0001b674    4968            ldr         param_2,[param_2,#0x4]                  
ram:0001b676    4243            muls        param_3,param_1                         
ram:0001b678    5118            adds        param_2,param_3,param_2                 
ram:0001b67a    6268            ldr         param_3,[r4,#0x4]                       
ram:0001b67c    9142            cmp         param_2,param_3                         
ram:0001b67e    06d9            bls         LAB_0001b68e                            
ram:0001b680    002d            cmp         r5,#0x0                                 
ram:0001b682    04d0            beq         LAB_0001b68e                            
ram:0001b684    a842            cmp         param_1,r5                              
ram:0001b686    02d3            bcc         LAB_0001b68e                            
ram:0001b688    a919            adds        param_2,r5,r6                           
ram:0001b68a    8142            cmp         param_2,param_1                         
ram:0001b68c    05d9            bls         LAB_0001b69a                            
                            LAB_0001b68e:                 ;XREF[5,0]:   0001b662,0001b66c,0001b67e,0001b682
                                                          ;             0001b686
ram:0001b68e    0720            movs        param_1,#0x7                            
ram:0001b690    f8bd            pop         {param_4,r4,r5,r6,r7,pc}                
                            LAB_0001b692:                 ;XREF[1,0]:   0001b654
ram:0001b692    0820            movs        param_1,#0x8                            
ram:0001b694    f8bd            pop         {param_4,r4,r5,r6,r7,pc}                
                            LAB_0001b696:                 ;XREF[2,0]:   0001b658,0001b65c
ram:0001b696    0e20            movs        param_1,#0xe                            
ram:0001b698    f8bd            pop         {param_4,r4,r5,r6,r7,pc}                
                            LAB_0001b69a:                 ;XREF[1,0]:   0001b68c
ram:0001b69a    3846            mov         param_1,r7                              
ram:0001b69c    fff716f9        bl          FUN_0001a8cc                            ;undefined4 FUN_0001a8cc(uint param_1)
ram:0001b6a0    0028            cmp         param_1,#0x0                            
ram:0001b6a2    11d0            beq         LAB_0001b6c8                            
ram:0001b6a4    3046            mov         param_1,r6                              
ram:0001b6a6    fff711f9        bl          FUN_0001a8cc                            ;undefined4 FUN_0001a8cc(uint param_1)
ram:0001b6aa    0028            cmp         param_1,#0x0                            
ram:0001b6ac    0cd0            beq         LAB_0001b6c8                            
ram:0001b6ae    6068            ldr         param_1,[r4,#0x4]                       
ram:0001b6b0    fff70cf9        bl          FUN_0001a8cc                            ;undefined4 FUN_0001a8cc(uint param_1)
ram:0001b6b4    0028            cmp         param_1,#0x0                            
ram:0001b6b6    07d0            beq         LAB_0001b6c8                            
ram:0001b6b8    2b46            mov         param_4,r5                              
ram:0001b6ba    3a46            mov         param_3,r7                              
ram:0001b6bc    2146            mov         param_2,r4                              
ram:0001b6be    0220            movs        param_1,#0x2                            
ram:0001b6c0    0096            str         r6,[sp,#0x0]=>local_18                  
ram:0001b6c2    fef729fb        bl          FUN_00019d18                            ;int FUN_00019d18(char param_1, undef...
ram:0001b6c6    f8bd            pop         {param_4,r4,r5,r6,r7,pc}                
                            LAB_0001b6c8:                 ;XREF[3,0]:   0001b6a2,0001b6ac,0001b6b6
ram:0001b6c8    1020            movs        param_1,#0x10                           
ram:0001b6ca    f8bd            pop         {param_4,r4,r5,r6,r7,pc}                
                            DAT_0001b6cc:                 ;XREF[1,0]:   0001b648
ram:0001b6cc    d4200020        undefined4  200020D4h                               
                            DAT_0001b6d0:                 ;XREF[1,0]:   0001b666
ram:0001b6d0    c4280020        undefined4  200028C4h                               
                            ;************************************************************************************************
                            ;*                                           FUNCTION                                           *
                            ;************************************************************************************************
                            ;undefined FUN_0001b6d4(int param_1)
          ;param_1       int                 r0                      
                                                          ;XREF[1,0]:   0001bef6
ram:0001b6d4    f8b5            push        {r3,r4,r5,r6,r7,lr}                     
ram:0001b6d6    0746            mov         r7,param_1                              
ram:0001b6d8    0020            movs        param_1,#0x0                            
ram:0001b6da    464e            ldr         r6,[DAT_0001b7f4]                       ;= 200027F8h
ram:0001b6dc    8646            mov         lr,param_1                              
ram:0001b6de    b078            ldrb        param_1,[r6,#0x2]=>DAT_200027fa         
ram:0001b6e0    0128            cmp         param_1,#0x1                            
ram:0001b6e2    1ed1            bne         LAB_0001b722                            
ram:0001b6e4    0020            movs        param_1,#0x0                            
ram:0001b6e6    444b            ldr         r3=>DAT_200020d4,[DAT_0001b7f8]         ;= 200020D4h
ram:0001b6e8    b070            strb        param_1,[r6,#0x2]=>DAT_200027fa         
ram:0001b6ea    5a78            ldrb        r2,[r3,#0x1]=>DAT_200020d5              
ram:0001b6ec    082a            cmp         r2,#0x8                                 
ram:0001b6ee    19d0            beq         LAB_0001b724                            
ram:0001b6f0    3446            mov         r4,r6                                   
ram:0001b6f2    2578            ldrb        r5,[r4,#0x0]=>DAT_200027f8              
ram:0001b6f4    1421            movs        r1,#0x14                                
ram:0001b6f6    6943            muls        r1,r5                                   
ram:0001b6f8    0c19            adds        r4,r1,r4                                
ram:0001b6fa    022f            cmp         r7,#0x2                                 
ram:0001b6fc    20d0            beq         LAB_0001b740                            
ram:0001b6fe    032f            cmp         r7,#0x3                                 
ram:0001b700    0fd1            bne         LAB_0001b722                            
ram:0001b702    6079            ldrb        param_1,[r4,#0x5]                       
ram:0001b704    401c            adds        param_1,param_1,#0x1                    
ram:0001b706    c0b2            uxtb        param_1,param_1                         
ram:0001b708    6071            strb        param_1,[r4,#0x5]                       
ram:0001b70a    241d            adds        r4,r4,#0x4                              
ram:0001b70c    0328            cmp         param_1,#0x3                            
ram:0001b70e    6ad0            beq         LAB_0001b7e6                            
ram:0001b710    fef762fa        bl          FUN_00019bd8                            ;int FUN_00019bd8(void)
ram:0001b714    0028            cmp         param_1,#0x0                            
ram:0001b716    04d0            beq         LAB_0001b722                            
ram:0001b718    1128            cmp         param_1,#0x11                           
ram:0001b71a    02d0            beq         LAB_0001b722                            
ram:0001b71c    2146            mov         r1,r4                                   
                            LAB_0001b71e:                 ;XREF[1,0]:   0001b7f2
ram:0001b71e    fdf7e7fb        bl          FUN_00018ef0                            ;undefined FUN_00018ef0(undefined4 pa...
                            LAB_0001b722:                 ;XREF[6,0]:   0001b6e2,0001b700,0001b716,0001b71a
                                                          ;             0001b730,0001b7d4
ram:0001b722    f8bd            pop         {r3,r4,r5,r6,r7,pc}                     
                            LAB_0001b724:                 ;XREF[1,0]:   0001b6ee
ram:0001b724    022f            cmp         r7,#0x2                                 
ram:0001b726    09d0            beq         LAB_0001b73c                            
ram:0001b728    1870            strb        param_1,[r3,#0x0]=>DAT_200020d4         
                            LAB_0001b72a:                 ;XREF[1,0]:   0001b73e
ram:0001b72a    fef7d1fa        bl          FUN_00019cd0                            ;int FUN_00019cd0(void)
ram:0001b72e    0028            cmp         param_1,#0x0                            
ram:0001b730    f7d0            beq         LAB_0001b722                            
ram:0001b732    3178            ldrb        r1,[r6,#0x0]=>DAT_200027f8              
ram:0001b734    1422            movs        r2,#0x14                                
ram:0001b736    5143            muls        r1,r2                                   
ram:0001b738    8919            adds        r1,r1,r6                                
ram:0001b73a    59e0            b           LAB_0001b7f0                            
                            LAB_0001b73c:                 ;XREF[1,0]:   0001b726
ram:0001b73c    5870            strb        param_1,[r3,#0x1]=>DAT_200020d5         
ram:0001b73e    f4e7            b           LAB_0001b72a                            
                            LAB_0001b740:                 ;XREF[1,0]:   0001b6fc
ram:0001b740    2d49            ldr         r1,[DAT_0001b7f8]                       ;= 200020D4h
ram:0001b742    8b88            ldrh        r3,[r1,#0x4]=>DAT_200020d8              
ram:0001b744    5b1c            adds        r3,r3,#0x1                              
ram:0001b746    9eb2            uxth        r6,r3                                   
ram:0001b748    8e80            strh        r6,[r1,#0x4]=>DAT_200020d8              
ram:0001b74a    2379            ldrb        r3,[r4,#0x4]                            
ram:0001b74c    241d            adds        r4,r4,#0x4                              
ram:0001b74e    022b            cmp         r3,#0x2                                 
ram:0001b750    05d1            bne         LAB_0001b75e                            
ram:0001b752    6788            ldrh        r7,[r4,#0x2]                            
ram:0001b754    b102            lsls        r1,r6,#0xa                              
ram:0001b756    b942            cmp         r1,r7                                   
ram:0001b758    01d3            bcc         LAB_0001b75e                            
ram:0001b75a    0121            movs        r1,#0x1                                 
ram:0001b75c    00e0            b           LAB_0001b760                            
                            LAB_0001b75e:                 ;XREF[2,0]:   0001b750,0001b758
ram:0001b75e    0021            movs        r1,#0x0                                 
                            LAB_0001b760:                 ;XREF[1,0]:   0001b75c
ram:0001b760    8c46            mov         r12,r1                                  
ram:0001b762    052b            cmp         r3,#0x5                                 
ram:0001b764    01d1            bne         LAB_0001b76a                            
ram:0001b766    072a            cmp         r2,#0x7                                 
ram:0001b768    03d0            beq         LAB_0001b772                            
                            LAB_0001b76a:                 ;XREF[1,0]:   0001b764
ram:0001b76a    0021            movs        r1,#0x0                                 
                            LAB_0001b76c:                 ;XREF[1,0]:   0001b774
ram:0001b76c    042b            cmp         r3,#0x4                                 
ram:0001b76e    02d0            beq         LAB_0001b776                            
ram:0001b770    03e0            b           LAB_0001b77a                            
                            LAB_0001b772:                 ;XREF[1,0]:   0001b768
ram:0001b772    0121            movs        r1,#0x1                                 
ram:0001b774    fae7            b           LAB_0001b76c                            
                            LAB_0001b776:                 ;XREF[1,0]:   0001b76e
ram:0001b776    072a            cmp         r2,#0x7                                 
ram:0001b778    03d0            beq         LAB_0001b782                            
                            LAB_0001b77a:                 ;XREF[1,0]:   0001b770
ram:0001b77a    0027            movs        r7,#0x0                                 
                            LAB_0001b77c:                 ;XREF[1,0]:   0001b784
ram:0001b77c    042b            cmp         r3,#0x4                                 
ram:0001b77e    02d0            beq         LAB_0001b786                            
ram:0001b780    07e0            b           LAB_0001b792                            
                            LAB_0001b782:                 ;XREF[1,0]:   0001b778
ram:0001b782    0127            movs        r7,#0x1                                 
ram:0001b784    fae7            b           LAB_0001b77c                            
                            LAB_0001b786:                 ;XREF[1,0]:   0001b77e
ram:0001b786    6488            ldrh        r4,[r4,#0x2]                            
ram:0001b788    b302            lsls        r3,r6,#0xa                              
ram:0001b78a    a342            cmp         r3,r4                                   
ram:0001b78c    01d3            bcc         LAB_0001b792                            
ram:0001b78e    002a            cmp         r2,#0x0                                 
ram:0001b790    27d0            beq         LAB_0001b7e2                            
                            LAB_0001b792:                 ;XREF[2,0]:   0001b780,0001b78c
ram:0001b792    0022            movs        r2,#0x0                                 
                            LAB_0001b794:                 ;XREF[1,0]:   0001b7e4
ram:0001b794    3943            orrs        r1,r7                                   
ram:0001b796    1143            orrs        r1,r2                                   
ram:0001b798    6246            mov         r2,r12                                  
ram:0001b79a    1143            orrs        r1,r2                                   
ram:0001b79c    17d0            beq         LAB_0001b7ce                            
ram:0001b79e    164a            ldr         r2=>DAT_200020d4,[DAT_0001b7f8]         ;= 200020D4h
ram:0001b7a0    1449            ldr         r1,[DAT_0001b7f4]                       ;= 200027F8h
ram:0001b7a2    5070            strb        param_1,[r2,#0x1]=>DAT_200020d5         
ram:0001b7a4    9080            strh        param_1,[r2,#0x4]=>DAT_200020d8         
ram:0001b7a6    4878            ldrb        param_1,[r1,#0x1]=>DAT_200027f9         
ram:0001b7a8    401e            subs        param_1,param_1,#0x1                    
ram:0001b7aa    4870            strb        param_1,[r1,#0x1]=>DAT_200027f9         
ram:0001b7ac    681c            adds        param_1,r5,#0x1                         
ram:0001b7ae    c0b2            uxtb        param_1,param_1                         
ram:0001b7b0    0870            strb        param_1,[r1,#0x0]=>DAT_200027f8         
ram:0001b7b2    0a28            cmp         param_1,#0xa                            
ram:0001b7b4    01d3            bcc         LAB_0001b7ba                            
ram:0001b7b6    0a38            subs        param_1,#0xa                            
ram:0001b7b8    0870            strb        param_1,[r1,#0x0]=>DAT_200027f8         
                            LAB_0001b7ba:                 ;XREF[1,0]:   0001b7b4
ram:0001b7ba    1420            movs        param_1,#0x14                           
ram:0001b7bc    6843            muls        param_1,r5                              
ram:0001b7be    4118            adds        r1,param_1,r1                           
ram:0001b7c0    7046            mov         param_1,lr                              
ram:0001b7c2    091d            adds        r1,r1,#0x4                              
ram:0001b7c4    fdf794fb        bl          FUN_00018ef0                            ;undefined FUN_00018ef0(undefined4 pa...
ram:0001b7c8    2846            mov         param_1,r5                              
ram:0001b7ca    fef795fa        bl          FUN_00019cf8                            ;undefined FUN_00019cf8(int param_1)
                            LAB_0001b7ce:                 ;XREF[1,0]:   0001b79c
ram:0001b7ce    fef77ffa        bl          FUN_00019cd0                            ;int FUN_00019cd0(void)
ram:0001b7d2    0028            cmp         param_1,#0x0                            
ram:0001b7d4    a5d0            beq         LAB_0001b722                            
ram:0001b7d6    0749            ldr         r1,[DAT_0001b7f4]                       ;= 200027F8h
ram:0001b7d8    1423            movs        r3,#0x14                                
ram:0001b7da    0a78            ldrb        r2,[r1,#0x0]=>DAT_200027f8              
ram:0001b7dc    5a43            muls        r2,r3                                   
ram:0001b7de    5118            adds        r1,r2,r1                                
ram:0001b7e0    06e0            b           LAB_0001b7f0                            
                            LAB_0001b7e2:                 ;XREF[1,0]:   0001b790
ram:0001b7e2    0122            movs        r2,#0x1                                 
ram:0001b7e4    d6e7            b           LAB_0001b794                            
                            LAB_0001b7e6:                 ;XREF[1,0]:   0001b70e
ram:0001b7e6    3078            ldrb        param_1,[r6,#0x0]=>DAT_200027f8         
ram:0001b7e8    1421            movs        r1,#0x14                                
ram:0001b7ea    4843            muls        param_1,r1                              
ram:0001b7ec    8119            adds        r1,param_1,r6                           
ram:0001b7ee    0d20            movs        param_1,#0xd                            
                            LAB_0001b7f0:                 ;XREF[2,0]:   0001b73a,0001b7e0
ram:0001b7f0    091d            adds        r1,r1,#0x4                              
ram:0001b7f2    94e7            b           LAB_0001b71e                            
                            DAT_0001b7f4:                 ;XREF[3,0]:   0001b6da,0001b7a0,0001b7d6
ram:0001b7f4    f8270020        undefined4  200027F8h                               
                            DAT_0001b7f8:                 ;XREF[3,0]:   0001b6e6,0001b740,0001b79e
ram:0001b7f8    d4200020        undefined4  200020D4h                               
ram:0001b7fc    42              ??          42h    B                                
ram:0001b7fd    78              ??          78h    x                                
ram:0001b7fe    ca              ??          CAh                                     
ram:0001b7ff    70              ??          70h    p                                
ram:0001b800    82              ??          82h                                     
ram:0001b801    78              ??          78h    x                                
ram:0001b802    0a              ??          0Ah                                     
ram:0001b803    71              ??          71h    q                                
ram:0001b804    00              ??          00h                                     
ram:0001b805    78              ??          78h    x                                
ram:0001b806    48              ??          48h    H                                
ram:0001b807    71              ??          71h    q                                
ram:0001b808    00              ??          00h                                     
ram:0001b809    20              ??          20h                                     
ram:0001b80a    70              ??          70h    p                                
ram:0001b80b    47              ??          47h    G                                
                            ;************************************************************************************************
                            ;*                                           FUNCTION                                           *
                            ;************************************************************************************************
                            ;undefined4 FUN_0001b80c(int param_1, byte * param_2, int param_3, int param_4)
          ;param_1       int                 r0                      
          ;param_2       byte *              r1                      
          ;param_3       int                 r2                      
          ;param_4       int                 r3                      
          ;local_24      undefined4         -24                      ;XREF[2,0]:   0001b82a,0001b888
          ;local_2c      undefined4         -2c                      ;XREF[2,0]:   0001b838,0001b896
          ;local_30      undefined4         -30                      ;XREF[2,0]:   0001b83a,0001b898
ram:0001b80c    ffb5            push        {param_1,param_2,param_3,param_4,r4,r...
ram:0001b80e    83b0            sub         sp,#0xc                                 
ram:0001b810    1c46            mov         r4,param_4                              
ram:0001b812    012a            cmp         param_3,#0x1                            
ram:0001b814    1dd1            bne         LAB_0001b852                            
ram:0001b816    0e78            ldrb        r6,[param_2,#0x0]                       
ram:0001b818    3046            mov         param_1,r6                              
ram:0001b81a    00f09afe        bl          FUN_0001c552                            ;undefined4 FUN_0001c552(uint param_1)
ram:0001b81e    0028            cmp         param_1,#0x0                            
ram:0001b820    17d0            beq         LAB_0001b852                            
ram:0001b822    7006            lsls        param_1,r6,#0x19                        
ram:0001b824    070e            lsrs        r7,param_1,#0x18                        
ram:0001b826    b800            lsls        param_1,r7,#0x2                         
ram:0001b828    3918            adds        param_2,r7,param_1                      
ram:0001b82a    0398            ldr         param_1,[sp,#local_24+0x30]             
ram:0001b82c    0522            movs        param_3,#0x5                            
ram:0001b82e    0d18            adds        r5,param_2,param_1                      
ram:0001b830    2946            mov         param_2,r5                              
ram:0001b832    6846            mov         param_1,sp                              
ram:0001b834    fcf7c2fc        bl          FUN_000181bc                            ;undefined FUN_000181bc(undefined4 * ...
ram:0001b838    0199            ldr         param_2,[sp,#local_2c+0x30]             
ram:0001b83a    0098            ldr         param_1,[sp,#0x0]=>local_30             
ram:0001b83c    00f06cfe        bl          FUN_0001c518                            ;undefined4 FUN_0001c518(uint param_1)
ram:0001b840    0100            movs        param_2,param_1                         
ram:0001b842    e670            strb        r6,[r4,#0x3]                            
ram:0001b844    a878            ldrb        param_1,[r5,#0x2]                       
ram:0001b846    2071            strb        param_1,[r4,#0x4]                       
ram:0001b848    e878            ldrb        param_1,[r5,#0x3]                       
ram:0001b84a    6071            strb        param_1,[r4,#0x5]                       
ram:0001b84c    04d0            beq         LAB_0001b858                            
ram:0001b84e    6878            ldrb        param_1,[r5,#0x1]                       
ram:0001b850    03e0            b           LAB_0001b85a                            
                            LAB_0001b852:                 ;XREF[2,0]:   0001b814,0001b820
ram:0001b852    0220            movs        param_1,#0x2                            
                            LAB_0001b854:                 ;XREF[1,0]:   0001b8d8
ram:0001b854    07b0            add         sp,#0x1c                                
ram:0001b856    f0bd            pop         {r4,r5,r6,r7,pc}                        
                            LAB_0001b858:                 ;XREF[1,0]:   0001b84c
ram:0001b858    ff20            movs        param_1,#0xff                           
                            LAB_0001b85a:                 ;XREF[1,0]:   0001b850
ram:0001b85a    a071            strb        param_1,[r4,#0x6]                       
ram:0001b85c    2879            ldrb        param_1,[r5,#0x4]                       
ram:0001b85e    4207            lsls        param_3,param_1,#0x1d                   
ram:0001b860    d30f            lsrs        param_4,param_3,#0x1f                   
ram:0001b862    c207            lsls        param_3,param_1,#0x1f                   
ram:0001b864    920f            lsrs        param_3,param_3,#0x1e                   
ram:0001b866    1a43            orrs        param_3,param_4                         
ram:0001b868    8307            lsls        param_4,param_1,#0x1e                   
ram:0001b86a    db0f            lsrs        param_4,param_4,#0x1f                   
ram:0001b86c    0007            lsls        param_1,param_1,#0x1c                   
ram:0001b86e    9b00            lsls        param_4,param_4,#0x2                    
ram:0001b870    c00f            lsrs        param_1,param_1,#0x1f                   
ram:0001b872    1343            orrs        param_4,param_3                         
ram:0001b874    c000            lsls        param_1,param_1,#0x3                    
ram:0001b876    1843            orrs        param_1,param_4                         
ram:0001b878    0029            cmp         param_2,#0x0                            
ram:0001b87a    00d1            bne         LAB_0001b87e                            
ram:0001b87c    ff20            movs        param_1,#0xff                           
                            LAB_0001b87e:                 ;XREF[1,0]:   0001b87a
ram:0001b87e    e071            strb        param_1,[r4,#0x7]                       
ram:0001b880    7f1c            adds        r7,r7,#0x1                              
ram:0001b882    f8b2            uxtb        param_1,r7                              
ram:0001b884    8100            lsls        param_2,param_1,#0x2                    
ram:0001b886    4118            adds        param_2,param_1,param_2                 
ram:0001b888    0398            ldr         param_1,[sp,#local_24+0x30]             
ram:0001b88a    0522            movs        param_3,#0x5                            
ram:0001b88c    0d18            adds        r5,param_2,param_1                      
ram:0001b88e    2946            mov         param_2,r5                              
ram:0001b890    6846            mov         param_1,sp                              
ram:0001b892    fcf793fc        bl          FUN_000181bc                            ;undefined FUN_000181bc(undefined4 * ...
ram:0001b896    0199            ldr         param_2,[sp,#local_2c+0x30]             
ram:0001b898    0098            ldr         param_1,[sp,#0x0]=>local_30             
ram:0001b89a    00f03dfe        bl          FUN_0001c518                            ;undefined4 FUN_0001c518(uint param_1)
ram:0001b89e    a978            ldrb        param_2,[r5,#0x2]                       
ram:0001b8a0    2172            strb        param_2,[r4,#0x8]                       
ram:0001b8a2    e978            ldrb        param_2,[r5,#0x3]                       
ram:0001b8a4    6172            strb        param_2,[r4,#0x9]                       
ram:0001b8a6    0028            cmp         param_1,#0x0                            
ram:0001b8a8    01d0            beq         LAB_0001b8ae                            
ram:0001b8aa    6978            ldrb        param_2,[r5,#0x1]                       
ram:0001b8ac    00e0            b           LAB_0001b8b0                            
                            LAB_0001b8ae:                 ;XREF[1,0]:   0001b8a8
ram:0001b8ae    ff21            movs        param_2,#0xff                           
                            LAB_0001b8b0:                 ;XREF[1,0]:   0001b8ac
ram:0001b8b0    a172            strb        param_2,[r4,#0xa]                       
ram:0001b8b2    2979            ldrb        param_2,[r5,#0x4]                       
ram:0001b8b4    4a07            lsls        param_3,param_2,#0x1d                   
ram:0001b8b6    cb07            lsls        param_4,param_2,#0x1f                   
ram:0001b8b8    d20f            lsrs        param_3,param_3,#0x1f                   
ram:0001b8ba    9b0f            lsrs        param_4,param_4,#0x1e                   
ram:0001b8bc    1343            orrs        param_4,param_3                         
ram:0001b8be    8a07            lsls        param_3,param_2,#0x1e                   
ram:0001b8c0    d20f            lsrs        param_3,param_3,#0x1f                   
ram:0001b8c2    0907            lsls        param_2,param_2,#0x1c                   
ram:0001b8c4    9200            lsls        param_3,param_3,#0x2                    
ram:0001b8c6    c90f            lsrs        param_2,param_2,#0x1f                   
ram:0001b8c8    1a43            orrs        param_3,param_4                         
ram:0001b8ca    c900            lsls        param_2,param_2,#0x3                    
ram:0001b8cc    1143            orrs        param_2,param_3                         
ram:0001b8ce    0028            cmp         param_1,#0x0                            
ram:0001b8d0    00d1            bne         LAB_0001b8d4                            
ram:0001b8d2    ff21            movs        param_2,#0xff                           
                            LAB_0001b8d4:                 ;XREF[1,0]:   0001b8d0
ram:0001b8d4    e172            strb        param_2,[r4,#0xb]                       
ram:0001b8d6    0020            movs        param_1,#0x0                            
ram:0001b8d8    bce7            b           LAB_0001b854                            
                            ;************************************************************************************************
                            ;*                                           FUNCTION                                           *
                            ;************************************************************************************************
                            ;ulonglong FUN_0001b8da(int param_1, uint param_2, undefined4 param_3, undefined4 param_4)
          ;param_1       int                 r0                      
          ;param_2       uint                r1                      
          ;param_3       undefined4          r2                      
          ;param_4       undefined4          r3                      
ram:0001b8da    10b5            push        {r4,lr}                                 
ram:0001b8dc    0c46            mov         r4,param_2                              
ram:0001b8de    00f009fd        bl          FUN_0001c2f4                            ;undefined8 FUN_0001c2f4(int param_1,...
ram:0001b8e2    e070            strb        param_1,[r4,#0x3]                       
ram:0001b8e4    0020            movs        param_1,#0x0                            
ram:0001b8e6    10bd            pop         {r4,pc}                                 
                            ;************************************************************************************************
                            ;*                                           FUNCTION                                           *
                            ;************************************************************************************************
                            ;undefined FUN_0001b8e8(undefined4 param_1, undefined4 param_2, undefined4 param_3, uint param_4)
          ;param_1       undefined4          r0                      
          ;param_2       undefined4          r1                      
          ;param_3       undefined4          r2                      
          ;param_4       uint                r3                      
                                                          ;XREF[1,0]:   0001943e
ram:0001b8e8    10b5            push        {r4,lr}                                 
ram:0001b8ea    0f48            ldr         param_1,[DAT_0001b928]                  ;= 20002000h
ram:0001b8ec    0f49            ldr         param_2,[DAT_0001b92c]                  ;= 0000FFFFh
ram:0001b8ee    c088            ldrh        param_1,[param_1,#offset DAT_20002006...
ram:0001b8f0    8842            cmp         param_1,param_2                         
ram:0001b8f2    02d0            beq         LAB_0001b8fa                            
ram:0001b8f4    1321            movs        param_2,#0x13                           
ram:0001b8f6    76df            svc         0x76                                    
ram:0001b8f8    00e0            b           LAB_0001b8fc                            
                            LAB_0001b8fa:                 ;XREF[1,0]:   0001b8f2
ram:0001b8fa    74df            svc         0x74                                    
                            LAB_0001b8fc:                 ;XREF[1,0]:   0001b8f8
ram:0001b8fc    0028            cmp         param_1,#0x0                            
ram:0001b8fe    03d0            beq         LAB_0001b908                            
ram:0001b900    0022            movs        param_3,#0x0                            
ram:0001b902    1146            mov         param_2,param_3                         
ram:0001b904    fdf7c0f9        bl          FUN_00018c88                            ;undefined FUN_00018c88(void)
                            LAB_0001b908:                 ;XREF[1,0]:   0001b8fe
ram:0001b908    fdf7e0fe        bl          FUN_000196cc                            ;undefined FUN_000196cc(undefined4 pa...
ram:0001b90c    0028            cmp         param_1,#0x0                            
ram:0001b90e    03d0            beq         LAB_0001b918                            
ram:0001b910    0022            movs        param_3,#0x0                            
ram:0001b912    1146            mov         param_2,param_3                         
ram:0001b914    fdf7b8f9        bl          FUN_00018c88                            ;undefined FUN_00018c88(void)
                            LAB_0001b918:                 ;XREF[1,0]:   0001b90e
ram:0001b918    0548            ldr         param_1,[DAT_0001b930]                  ;= 40000500h
ram:0001b91a    c069            ldr         param_1,[param_1,#offset DAT_4000051c...
ram:0001b91c    ff20            movs        param_1,#0xff                           
ram:0001b91e    f530            adds        param_1,#0xf5                           
ram:0001b920    fff7befa        bl          FUN_0001aea0                            ;undefined FUN_0001aea0(int param_1)
ram:0001b924    10bd            pop         {r4,pc}                                 
ram:0001b926    0000            movs        r0,r0                                   
                            DAT_0001b928:                 ;XREF[1,0]:   0001b8ea
ram:0001b928    00200020        undefined4  20002000h                               
                            DAT_0001b92c:                 ;XREF[1,0]:   0001b8ec
ram:0001b92c    ffff0000        undefined4  0000FFFFh                               
                            DAT_0001b930:                 ;XREF[1,0]:   0001b918
ram:0001b930    00050040        undefined4  40000500h                               
                            ;************************************************************************************************
                            ;*                                           FUNCTION                                           *
                            ;************************************************************************************************
                            ;undefined FUN_0001b934(void)
                                                          ;XREF[2,0]:   0001914e,00019df2
ram:0001b934    70b5            push        {r4,r5,r6,lr}                           
ram:0001b936    0124            movs        r4,#0x1                                 
ram:0001b938    0b49            ldr         r1,[DAT_0001b968]                       ;= E000E180h
ram:0001b93a    6004            lsls        r0,r4,#0x11                             
ram:0001b93c    0860            str         r0,[r1,#0x0]=>DAT_e000e180              
ram:0001b93e    0b49            ldr         r1,[DAT_0001b96c]                       ;= 40011340h
ram:0001b940    4010            asrs        r0,r0,#0x1                              
ram:0001b942    8860            str         r0,[r1,#0x8]=>DAT_40011348              
ram:0001b944    0949            ldr         r1,[DAT_0001b96c]                       ;= 40011340h
ram:0001b946    4039            subs        r1,#0x40                                
ram:0001b948    8860            str         r0,[r1,#offset DAT_40011308 &0xff]      
ram:0001b94a    094d            ldr         r5,[DAT_0001b970]                       ;= 40011000h
ram:0001b94c    6c60            str         r4,[r5,#offset DAT_40011004 &0xff]      
ram:0001b94e    2f20            movs        r0,#0x2f                                
ram:0001b950    fcf7d0fb        bl          FUN_000180f4                            ;undefined FUN_000180f4(int param_1)
ram:0001b954    ac60            str         r4,[r5,#offset DAT_40011008 &0xff]      
ram:0001b956    074d            ldr         r5,[DAT_0001b974]                       ;= 20002114h
ram:0001b958    0024            movs        r4,#0x0                                 
ram:0001b95a    2f20            movs        r0,#0x2f                                
ram:0001b95c    6c61            str         r4,[r5,#0x14]=>DAT_20002128             
ram:0001b95e    fcf7c9fb        bl          FUN_000180f4                            ;undefined FUN_000180f4(int param_1)
ram:0001b962    2c71            strb        r4,[r5,#0x4]=>DAT_20002118              
ram:0001b964    70bd            pop         {r4,r5,r6,pc}                           
ram:0001b966    0000            movs        r0,r0                                   
                            DAT_0001b968:                 ;XREF[1,0]:   0001b938
ram:0001b968    80e100e0        undefined4  E000E180h                               
                            DAT_0001b96c:                 ;XREF[2,0]:   0001b93e,0001b944
ram:0001b96c    40130140        undefined4  40011340h                               
                            DAT_0001b970:                 ;XREF[1,0]:   0001b94a
ram:0001b970    00100140        undefined4  40011000h                               
                            DAT_0001b974:                 ;XREF[1,0]:   0001b956
ram:0001b974    14210020        undefined4  20002114h                               
                            ;************************************************************************************************
                            ;*                                           FUNCTION                                           *
                            ;************************************************************************************************
                            ;undefined8 FUN_0001b978(int param_1, undefined4 param_2, undefined * param_3)
          ;param_1       int                 r0                      
          ;param_2       undefined4          r1                      
          ;param_3       undefined *         r2                      
          ;local_18      undefined2         -18                      ;XREF[1,0]:   0001b97e
          ;local_1c      undefined4         -1c                      ;XREF[1,0]:   0001b996
          ;local_20      undefined4         -20                      ;XREF[1,0]:   0001b994
          ;local_24      undefined4         -24                      ;XREF[2,0]:   0001b98a,0001b98e
          ;local_28      undefined4         -28                      ;XREF[2,1]:   0001b986,0001b990,0001b98c
                                                          ;XREF[6,0]:   0001939c,0001942e,000194b2,000194f8
                                                          ;             0001be00,0001c078
ram:0001b978    70b5            push        {r4,r5,r6,lr}                           
ram:0001b97a    86b0            sub         sp,#0x18                                
ram:0001b97c    6d46            mov         r5,sp                                   
ram:0001b97e    2b82            strh        r3,[r5,#local_18+0x28]                  
ram:0001b980    2023            movs        r3,#0x20                                
ram:0001b982    1370            strb        r3,[param_3,#0x0]                       
ram:0001b984    0023            movs        r3,#0x0                                 
ram:0001b986    0093            str         r3,[sp,#0x0]=>local_28                  
ram:0001b988    0126            movs        r6,#0x1                                 
ram:0001b98a    0193            str         r3,[sp,#local_24+0x28]                  
ram:0001b98c    ae70            strb        r6,[r5,#local_28+0x2a]                  
ram:0001b98e    ab80            strh        r3,[r5,#local_24+0x28]                  
ram:0001b990    2980            strh        param_2,[r5,#0x0]=>local_28             
ram:0001b992    04a9            add         param_2,sp,#0x10                        
ram:0001b994    0291            str         param_2,[sp,#local_20+0x28]             
ram:0001b996    0392            str         param_3,[sp,#local_1c+0x28]             
ram:0001b998    808e            ldrh        param_1,[param_1,#0x34]                 
ram:0001b99a    0449            ldr         param_2,[DAT_0001b9ac]                  ;= 0000FFFFh
ram:0001b99c    8842            cmp         param_1,param_2                         
ram:0001b99e    02d0            beq         LAB_0001b9a6                            
ram:0001b9a0    2946            mov         param_2,r5                              
ram:0001b9a2    a6df            svc         0xa6                                    
ram:0001b9a4    0446            mov         r4,param_1                              
                            LAB_0001b9a6:                 ;XREF[1,0]:   0001b99e
ram:0001b9a6    2046            mov         param_1,r4                              
ram:0001b9a8    06b0            add         sp,#0x18                                
ram:0001b9aa    70bd            pop         {r4,r5,r6,pc}                           
                            DAT_0001b9ac:                 ;XREF[1,0]:   0001b99a
ram:0001b9ac    ffff0000        undefined4  0000FFFFh                               
                            ;************************************************************************************************
                            ;*                                           FUNCTION                                           *
                            ;************************************************************************************************
                            ;undefined FUN_0001b9b0(int param_1, uint param_2)
          ;param_1       int                 r0                      
          ;param_2       uint                r1                      
                                                          ;XREF[2,0]:   00018548,0001856c
ram:0001b9b0    f0b5            push        {r4,r5,r6,r7,lr}                        
ram:0001b9b2    0022            movs        r2,#0x0                                 
ram:0001b9b4    0123            movs        r3,#0x1                                 
ram:0001b9b6    0326            movs        r6,#0x3                                 
ram:0001b9b8    3604            lsls        r6,r6,#0x10                             
                            LAB_0001b9ba:                 ;XREF[1,0]:   0001b9ec
ram:0001b9ba    1f46            mov         r7,r3                                   
ram:0001b9bc    9740            lsls        r7,r2                                   
ram:0001b9be    3942            tst         param_2,r7                              
ram:0001b9c0    12d0            beq         LAB_0001b9e8                            
ram:0001b9c2    c568            ldr         r5,[param_1,#0xc]                       
ram:0001b9c4    3d42            tst         r5,r7                                   
ram:0001b9c6    03d1            bne         LAB_0001b9d0                            
ram:0001b9c8    0124            movs        r4,#0x1                                 
ram:0001b9ca    6404            lsls        r4,r4,#0x11                             
ram:0001b9cc    3d43            orrs        r5,r7                                   
ram:0001b9ce    01e0            b           LAB_0001b9d4                            
                            LAB_0001b9d0:                 ;XREF[1,0]:   0001b9c6
ram:0001b9d0    3446            mov         r4,r6                                   
ram:0001b9d2    bd43            bics        r5,r7                                   
                            LAB_0001b9d4:                 ;XREF[1,0]:   0001b9ce
ram:0001b9d4    c560            str         r5,[param_1,#0xc]                       
ram:0001b9d6    064d            ldr         r5,[DAT_0001b9f0]                       ;= 50000700h
ram:0001b9d8    9700            lsls        r7,r2,#0x2                              
ram:0001b9da    7d19            adds        r5,r7,r5                                
ram:0001b9dc    2f68            ldr         r7,[r5,#0x0]=>DAT_50000700              
ram:0001b9de    b743            bics        r7,r6                                   
ram:0001b9e0    2f60            str         r7,[r5,#0x0]=>DAT_50000700              
ram:0001b9e2    2f68            ldr         r7,[r5,#0x0]=>DAT_50000700              
ram:0001b9e4    2743            orrs        r7,r4                                   
ram:0001b9e6    2f60            str         r7,[r5,#0x0]=>DAT_50000700              
                            LAB_0001b9e8:                 ;XREF[1,0]:   0001b9c0
ram:0001b9e8    521c            adds        r2,r2,#0x1                              
ram:0001b9ea    202a            cmp         r2,#0x20                                
ram:0001b9ec    e5d3            bcc         LAB_0001b9ba                            
ram:0001b9ee    f0bd            pop         {r4,r5,r6,r7,pc}                        
                            DAT_0001b9f0:                 ;XREF[1,0]:   0001b9d6
ram:0001b9f0    00070050        undefined4  50000700h                               
                            ;************************************************************************************************
                            ;*                                           FUNCTION                                           *
                            ;************************************************************************************************
                            ;undefined4 FUN_0001b9f4(int param_1, int param_2, byte * param_3)
          ;param_1       int                 r0                      
          ;param_2       int                 r1                      
          ;param_3       byte *              r2                      
          ;local_20      undefined4         -20                      ;XREF[3,0]:   0001b9f8,0001ba04,0001ba0e
          ;local_28      undefined4         -28                      ;XREF[2,0]:   0001ba0a,0001ba5c
                                                          ;XREF[1,0]:   00018ab2
ram:0001b9f4    f7b5            push        {param_1,param_2,param_3,r4,r5,r6,r7,lr}
ram:0001b9f6    82b0            sub         sp,#0x8                                 
ram:0001b9f8    0298            ldr         param_1,[sp,#local_20+0x28]             
ram:0001b9fa    1446            mov         r4,param_3                              
ram:0001b9fc    806a            ldr         param_1,[param_1,#0x28]                 
ram:0001b9fe    0f46            mov         r7,param_2                              
ram:0001ba00    0028            cmp         param_1,#0x0                            
ram:0001ba02    33d0            beq         LAB_0001ba6c                            
ram:0001ba04    0298            ldr         param_1,[sp,#local_20+0x28]             
ram:0001ba06    0025            movs        r5,#0x0                                 
ram:0001ba08    2030            adds        param_1,#0x20                           
ram:0001ba0a    0090            str         param_1,[sp,#0x0]=>local_28             
ram:0001ba0c    28e0            b           LAB_0001ba60                            
                            LAB_0001ba0e:                 ;XREF[1,0]:   0001ba64
ram:0001ba0e    0298            ldr         param_1,[sp,#local_20+0x28]             
ram:0001ba10    816a            ldr         param_2,[param_1,#0x28]                 
ram:0001ba12    0c20            movs        param_1,#0xc                            
ram:0001ba14    6843            muls        param_1,r5                              
ram:0001ba16    0e18            adds        r6,param_2,param_1                      
ram:0001ba18    2178            ldrb        param_2,[r4,#0x0]                       
ram:0001ba1a    3079            ldrb        param_1,[r6,#0x4]                       
ram:0001ba1c    4a1c            adds        param_3,param_2,#0x1                    
ram:0001ba1e    2270            strb        param_3,[r4,#0x0]                       
ram:0001ba20    c01c            adds        param_1,param_1,#0x3                    
ram:0001ba22    7854            strb        param_1,[r7,param_2]                    
ram:0001ba24    2078            ldrb        param_1,[r4,#0x0]                       
ram:0001ba26    1622            movs        param_3,#0x16                           
ram:0001ba28    411c            adds        param_2,param_1,#0x1                    
ram:0001ba2a    2170            strb        param_2,[r4,#0x0]                       
ram:0001ba2c    3a54            strb        param_3,[r7,param_1]                    
ram:0001ba2e    2078            ldrb        param_1,[r4,#0x0]                       
ram:0001ba30    c119            adds        param_2,param_1,r7                      
ram:0001ba32    3088            ldrh        param_1,[r6,#0x0]                       
ram:0001ba34    00f07bfc        bl          FUN_0001c32e                            ;undefined4 FUN_0001c32e(undefined4 p...
ram:0001ba38    2178            ldrb        param_2,[r4,#0x0]                       
ram:0001ba3a    4018            adds        param_1,param_1,param_2                 
ram:0001ba3c    c0b2            uxtb        param_1,param_1                         
ram:0001ba3e    2070            strb        param_1,[r4,#0x0]                       
ram:0001ba40    b288            ldrh        param_3,[r6,#0x4]                       
ram:0001ba42    002a            cmp         param_3,#0x0                            
ram:0001ba44    09d0            beq         LAB_0001ba5a                            
ram:0001ba46    b168            ldr         param_2,[r6,#0x8]                       
ram:0001ba48    0029            cmp         param_2,#0x0                            
ram:0001ba4a    0fd0            beq         LAB_0001ba6c                            
ram:0001ba4c    c019            adds        param_1,param_1,r7                      
ram:0001ba4e    fcf7b5fb        bl          FUN_000181bc                            ;undefined FUN_000181bc(undefined4 * ...
ram:0001ba52    2078            ldrb        param_1,[r4,#0x0]                       
ram:0001ba54    3179            ldrb        param_2,[r6,#0x4]                       
ram:0001ba56    4018            adds        param_1,param_1,param_2                 
ram:0001ba58    2070            strb        param_1,[r4,#0x0]                       
                            LAB_0001ba5a:                 ;XREF[1,0]:   0001ba44
ram:0001ba5a    6d1c            adds        r5,r5,#0x1                              
ram:0001ba5c    0098            ldr         param_1,[sp,#0x0]=>local_28             
ram:0001ba5e    edb2            uxtb        r5,r5                                   
                            LAB_0001ba60:                 ;XREF[1,0]:   0001ba0c
ram:0001ba60    007b            ldrb        param_1,[param_1,#0xc]                  
ram:0001ba62    a842            cmp         param_1,r5                              
ram:0001ba64    d3d8            bhi         LAB_0001ba0e                            
ram:0001ba66    0020            movs        param_1,#0x0                            
                            LAB_0001ba68:                 ;XREF[1,0]:   0001ba6e
ram:0001ba68    05b0            add         sp,#0x14                                
ram:0001ba6a    f0bd            pop         {r4,r5,r6,r7,pc}                        
                            LAB_0001ba6c:                 ;XREF[2,0]:   0001ba02,0001ba4a
ram:0001ba6c    0720            movs        param_1,#0x7                            
ram:0001ba6e    fbe7            b           LAB_0001ba68                            
                            ;************************************************************************************************
                            ;*                                           FUNCTION                                           *
                            ;************************************************************************************************
                            ;undefined FUN_0001ba70(void)
          ;local_c       undefined4          -c                      ;XREF[1,0]:   0001ba7e
          ;local_10      undefined4         -10                      ;XREF[1,0]:   0001ba7a
          ;local_14      undefined4         -14                      ;XREF[1,0]:   0001ba76
          ;local_18      undefined4         -18                      ;XREF[1,0]:   0001ba98
          ;local_1c      undefined4         -1c                      ;XREF[1,0]:   0001ba9c
          ;local_20      undefined4         -20                      ;XREF[2,0]:   0001ba96,0001baa2
                                                          ;XREF[1,0]:   0001ab94
ram:0001ba70    00b5            push        {lr}                                    
ram:0001ba72    87b0            sub         sp,#0x1c                                
ram:0001ba74    1348            ldr         r0,[PTR_LAB_0001bdb8+1+1_0001bac4]      ;= 0001bdb9
ram:0001ba76    0390            str         r0=>LAB_0001bdb8+1+1,[sp,#local_14+0x20]
ram:0001ba78    1348            ldr         r0,[PTR_LAB_0001bfa8+1+1_0001bac8]      ;= 0001bfa9
ram:0001ba7a    0490            str         r0=>LAB_0001bfa8+1+1,[sp,#local_10+0x20]
ram:0001ba7c    1348            ldr         r0,[PTR_LAB_00019374+1+1_0001bacc]      ;= 00019375
ram:0001ba7e    0590            str         r0=>LAB_00019374+1+1,[sp,#local_c+0x20] 
ram:0001ba80    03a9            add         r1,sp,#0xc                              
ram:0001ba82    1348            ldr         r0,[DAT_0001bad0]                       ;= 20002604h
ram:0001ba84    fdf7fefe        bl          FUN_00019884                            ;undefined8 FUN_00019884(ushort * par...
ram:0001ba88    0028            cmp         r0,#0x0                                 
ram:0001ba8a    03d0            beq         LAB_0001ba94                            
ram:0001ba8c    0022            movs        r2,#0x0                                 
ram:0001ba8e    1146            mov         r1,r2                                   
ram:0001ba90    fdf7faf8        bl          FUN_00018c88                            ;undefined FUN_00018c88(void)
                            LAB_0001ba94:                 ;XREF[1,0]:   0001ba8a
ram:0001ba94    0020            movs        r0,#0x0                                 
ram:0001ba96    0090            str         r0,[sp,#0x0]=>local_20                  
ram:0001ba98    0290            str         r0,[sp,#local_18+0x20]                  
ram:0001ba9a    0e48            ldr         r0,[PTR_LAB_0001a178+1+1_0001bad4]      ;= 0001a179
ram:0001ba9c    0190            str         r0=>LAB_0001a178+1+1,[sp,#local_1c+0x20]
ram:0001ba9e    0120            movs        r0,#0x1                                 
ram:0001baa0    6946            mov         r1,sp                                   
ram:0001baa2    0880            strh        r0,[r1,#0x0]=>local_20                  
ram:0001baa4    0a48            ldr         r0,[DAT_0001bad0]                       ;= 20002604h
ram:0001baa6    4430            adds        r0,#0x44                                
ram:0001baa8    fdf718fe        bl          FUN_000196dc                            ;undefined4 * FUN_000196dc(undefined2...
ram:0001baac    0028            cmp         r0,#0x0                                 
ram:0001baae    03d0            beq         LAB_0001bab8                            
ram:0001bab0    0022            movs        r2,#0x0                                 
ram:0001bab2    1146            mov         r1,r2                                   
ram:0001bab4    fdf7e8f8        bl          FUN_00018c88                            ;undefined FUN_00018c88(void)
                            LAB_0001bab8:                 ;XREF[1,0]:   0001baae
ram:0001bab8    0748            ldr         r0,[DAT_0001bad8]                       ;= 0001B8E9h
ram:0001baba    fef7c7fb        bl          FUN_0001a24c                            ;undefined FUN_0001a24c(undefined4 pa...
ram:0001babe    07b0            add         sp,#0x1c                                
ram:0001bac0    00bd            pop         {pc}                                    
ram:0001bac2    0000            movs        r0,r0                                   
                            PTR_LAB_0001bdb8+1+1_0001bac4:;XREF[1,0]:   0001ba74
ram:0001bac4    b9bd0100        addr        LAB_0001bdb8+1+1                        
                            PTR_LAB_0001bfa8+1+1_0001bac8:;XREF[1,0]:   0001ba78
ram:0001bac8    a9bf0100        addr        LAB_0001bfa8+1+1                        
                            PTR_LAB_00019374+1+1_0001bacc:;XREF[1,0]:   0001ba7c
ram:0001bacc    75930100        addr        LAB_00019374+1+1                        
                            DAT_0001bad0:                 ;XREF[2,0]:   0001ba82,0001baa4
ram:0001bad0    04260020        undefined4  20002604h                               
                            PTR_LAB_0001a178+1+1_0001bad4:;XREF[1,0]:   0001ba9a
ram:0001bad4    79a10100        addr        LAB_0001a178+1+1                        
                            DAT_0001bad8:                 ;XREF[1,0]:   0001bab8
ram:0001bad8    e9b80100        undefined4  0001B8E9h                               ;?  ->  0001b8e9
                            ;************************************************************************************************
                            ;*                                           FUNCTION                                           *
                            ;************************************************************************************************
                            ;undefined4 FUN_0001badc(int param_1)
          ;param_1       int                 r0                      
                                                          ;XREF[3,0]:   00019abe,0001be18,0001beb8
ram:0001badc    30b5            push        {r4,r5,lr}                              
ram:0001bade    2049            ldr         r1,[DAT_0001bb60]                       ;= 20002020h
ram:0001bae0    0a68            ldr         r2,[r1,#0x0]=>DAT_20002020              
ram:0001bae2    d207            lsls        r2,r2,#0x1f                             
ram:0001bae4    01d0            beq         LAB_0001baea                            
ram:0001bae6    0320            movs        param_1,#0x3                            
ram:0001bae8    30bd            pop         {r4,r5,pc}                              
                            LAB_0001baea:                 ;XREF[1,0]:   0001bae4
ram:0001baea    1d4a            ldr         r2,[DAT_0001bb60]                       ;= 20002020h
ram:0001baec    0125            movs        r5,#0x1                                 
ram:0001baee    203a            subs        r2,#0x20                                
ram:0001baf0    9378            ldrb        r3,[r2,#offset DAT_20002002 &0xff]      
ram:0001baf2    0324            movs        r4,#0x3                                 
ram:0001baf4    6403            lsls        r4,r4,#0xd                              
ram:0001baf6    2b43            orrs        r3,r5                                   
ram:0001baf8    0028            cmp         param_1,#0x0                            
ram:0001bafa    07d0            beq         LAB_0001bb0c                            
ram:0001bafc    0128            cmp         param_1,#0x1                            
ram:0001bafe    0ed0            beq         LAB_0001bb1e                            
ram:0001bb00    6d03            lsls        r5,r5,#0xd                              
ram:0001bb02    0228            cmp         param_1,#0x2                            
ram:0001bb04    14d0            beq         LAB_0001bb30                            
ram:0001bb06    ad28            cmp         param_1,#0xad                           
ram:0001bb08    28d1            bne         LAB_0001bb5c                            
ram:0001bb0a    1de0            b           LAB_0001bb48                            
                            LAB_0001bb0c:                 ;XREF[1,0]:   0001bafa
ram:0001bb0c    0868            ldr         param_1,[r1,#0x0]=>DAT_20002020         
ram:0001bb0e    0d68            ldr         r5,[r1,#0x0]=>DAT_20002020              
ram:0001bb10    8007            lsls        param_1,param_1,#0x1e                   
ram:0001bb12    c00f            lsrs        param_1,param_1,#0x1f                   
ram:0001bb14    4003            lsls        param_1,param_1,#0xd                    
ram:0001bb16    a543            bics        r5,r4                                   
ram:0001bb18    0543            orrs        r5,param_1                              
ram:0001bb1a    0d60            str         r5,[r1,#0x0]=>DAT_20002020              
ram:0001bb1c    11e0            b           LAB_0001bb42                            
                            LAB_0001bb1e:                 ;XREF[1,0]:   0001bafe
ram:0001bb1e    0868            ldr         param_1,[r1,#0x0]=>DAT_20002020         
ram:0001bb20    8007            lsls        param_1,param_1,#0x1e                   
ram:0001bb22    c00f            lsrs        param_1,param_1,#0x1f                   
ram:0001bb24    6840            eors        param_1,r5                              
ram:0001bb26    4503            lsls        r5,param_1,#0xd                         
ram:0001bb28    0868            ldr         param_1,[r1,#0x0]=>DAT_20002020         
ram:0001bb2a    a043            bics        param_1,r4                              
ram:0001bb2c    2843            orrs        param_1,r5                              
ram:0001bb2e    07e0            b           LAB_0001bb40                            
                            LAB_0001bb30:                 ;XREF[1,0]:   0001bb04
ram:0001bb30    0868            ldr         param_1,[r1,#0x0]=>DAT_20002020         
ram:0001bb32    4007            lsls        param_1,param_1,#0x1d                   
ram:0001bb34    0868            ldr         param_1,[r1,#0x0]=>DAT_20002020         
ram:0001bb36    02d4            bmi         LAB_0001bb3e                            
ram:0001bb38    a043            bics        param_1,r4                              
ram:0001bb3a    4019            adds        param_1,param_1,r5                      
ram:0001bb3c    00e0            b           LAB_0001bb40                            
                            LAB_0001bb3e:                 ;XREF[1,0]:   0001bb36
ram:0001bb3e    a043            bics        param_1,r4                              
                            LAB_0001bb40:                 ;XREF[2,0]:   0001bb2e,0001bb3c
ram:0001bb40    0860            str         param_1,[r1,#0x0]=>DAT_20002020         
                            LAB_0001bb42:                 ;XREF[1,0]:   0001bb1c
ram:0001bb42    9370            strb        r3,[r2,#offset DAT_20002002 &0xff]      
ram:0001bb44    0020            movs        param_1,#0x0                            
ram:0001bb46    30bd            pop         {r4,r5,pc}                              
                            LAB_0001bb48:                 ;XREF[1,0]:   0001bb0a
ram:0001bb48    0868            ldr         param_1,[r1,#0x0]=>DAT_20002020         
ram:0001bb4a    4007            lsls        param_1,param_1,#0x1d                   
ram:0001bb4c    0868            ldr         param_1,[r1,#0x0]=>DAT_20002020         
ram:0001bb4e    02d4            bmi         LAB_0001bb56                            
ram:0001bb50    a043            bics        param_1,r4                              
ram:0001bb52    4019            adds        param_1,param_1,r5                      
ram:0001bb54    00e0            b           LAB_0001bb58                            
                            LAB_0001bb56:                 ;XREF[1,0]:   0001bb4e
ram:0001bb56    a043            bics        param_1,r4                              
                            LAB_0001bb58:                 ;XREF[1,0]:   0001bb54
ram:0001bb58    0860            str         param_1,[r1,#0x0]=>DAT_20002020         
ram:0001bb5a    9370            strb        r3,[r2,#offset DAT_20002002 &0xff]      
                            LAB_0001bb5c:                 ;XREF[1,0]:   0001bb08
ram:0001bb5c    0220            movs        param_1,#0x2                            
ram:0001bb5e    30bd            pop         {r4,r5,pc}                              
                            DAT_0001bb60:                 ;XREF[2,0]:   0001bade,0001baea
ram:0001bb60    20200020        undefined4  20002020h                               
                            ;************************************************************************************************
                            ;*                                           FUNCTION                                           *
                            ;************************************************************************************************
                            ;char FUN_0001bb64(int param_1, int param_2)
          ;param_1       int                 r0                      
          ;param_2       int                 r1                      
                                                          ;XREF[2,0]:   00018e52,00018e9c
ram:0001bb64    10b5            push        {r4,lr}                                 
ram:0001bb66    0023            movs        r3,#0x0                                 
ram:0001bb68    1a46            mov         r2,r3                                   
ram:0001bb6a    02e0            b           LAB_0001bb72                            
                            LAB_0001bb6c:                 ;XREF[1,0]:   0001bb74
ram:0001bb6c    845c            ldrb        r4,[param_1,r2]                         
ram:0001bb6e    e318            adds        r3,r4,r3                                
ram:0001bb70    521c            adds        r2,r2,#0x1                              
                            LAB_0001bb72:                 ;XREF[1,0]:   0001bb6a
ram:0001bb72    8a42            cmp         r2,param_2                              
ram:0001bb74    fadb            blt         LAB_0001bb6c                            
ram:0001bb76    d8b2            uxtb        param_1,r3                              
ram:0001bb78    10bd            pop         {r4,pc}                                 
                            ;************************************************************************************************
                            ;*                                           FUNCTION                                           *
                            ;************************************************************************************************
                            ;undefined8 FUN_0001bb7a(undefined4 param_1, undefined4 param_2, undefined4 param_3)
          ;param_1       undefined4          r0                      
          ;param_2       undefined4          r1                      
          ;param_3       undefined4          r2                      
                                                          ;XREF[0,1]:   0001bbc8
ram:0001bb7a    10b5            push        {r4,lr}                                 
ram:0001bb7c    0846            mov         param_1,param_2                         
ram:0001bb7e    1146            mov         param_2,param_3                         
ram:0001bb80    c046            mov         r8,r8                                   
ram:0001bb82    c046            mov         r8,r8                                   
ram:0001bb84    10bd            pop         {r4,pc}                                 
ram:0001bb86    0000            movs        r0,r0                                   
                            ;************************************************************************************************
                            ;*                                           FUNCTION                                           *
                            ;************************************************************************************************
                            ;undefined4 FUN_0001bb88(int param_1)
          ;param_1       int                 r0                      
                                                          ;XREF[1,0]:   000199ac
ram:0001bb88    0028            cmp         param_1,#0x0                            
ram:0001bb8a    03d0            beq         LAB_0001bb94                            
ram:0001bb8c    0249            ldr         r1,[DAT_0001bb98]                       ;= 20002140h
ram:0001bb8e    c860            str         param_1,[r1,#0xc]=>DAT_2000214c         
ram:0001bb90    0020            movs        param_1,#0x0                            
ram:0001bb92    7047            bx          lr                                      
                            LAB_0001bb94:                 ;XREF[1,0]:   0001bb8a
ram:0001bb94    0e20            movs        param_1,#0xe                            
ram:0001bb96    7047            bx          lr                                      
                            DAT_0001bb98:                 ;XREF[1,0]:   0001bb8c
ram:0001bb98    40210020        undefined4  20002140h                               
                            ;************************************************************************************************
                            ;*                                           FUNCTION                                           *
                            ;************************************************************************************************
                            ;undefined8 FUN_0001bb9c(int param_1, undefined * param_2, undefined2 param_3, undefined4 param_4)
          ;param_1       int                 r0                      
          ;param_2       undefined *         r1                      
          ;param_3       undefined2          r2                      
          ;param_4       undefined4          r3                      
                                                          ;XREF[1,0]:   0001997e
ram:0001bb9c    70b5            push        {r4,r5,r6,lr}                           
ram:0001bb9e    0029            cmp         param_2,#0x0                            
ram:0001bba0    01d0            beq         LAB_0001bba6                            
ram:0001bba2    8c07            lsls        r4,param_2,#0x1e                        
ram:0001bba4    01d0            beq         LAB_0001bbaa                            
                            LAB_0001bba6:                 ;XREF[1,0]:   0001bba0
ram:0001bba6    0720            movs        param_1,#0x7                            
                            LAB_0001bba8:                 ;XREF[1,0]:   0001bbba
ram:0001bba8    70bd            pop         {r4,r5,r6,pc}                           
                            LAB_0001bbaa:                 ;XREF[1,0]:   0001bba4
ram:0001bbaa    064c            ldr         r4,[DAT_0001bbc4]                       ;= 20002140h
ram:0001bbac    0125            movs        r5,#0x1                                 
ram:0001bbae    a160            str         param_2,[r4,#0x8]=>DAT_20002148         
ram:0001bbb0    6280            strh        param_3,[r4,#0x2]=>DAT_20002142         
ram:0001bbb2    0549            ldr         param_2,[PTR_FUN_0001bb7a+1_0001bbc8]   ;= 0001bb7b
ram:0001bbb4    6360            str         param_4,[r4,#0x4]=>DAT_20002144         
ram:0001bbb6    10df            svc         0x10                                    
ram:0001bbb8    0028            cmp         param_1,#0x0                            
ram:0001bbba    f5d1            bne         LAB_0001bba8                            
ram:0001bbbc    2570            strb        r5,[r4,#0x0]=>DAT_20002140              
ram:0001bbbe    1620            movs        param_1,#0x16                           
ram:0001bbc0    2edf            svc         0x2e                                    
ram:0001bbc2    70bd            pop         {r4,r5,r6,pc}                           
                            DAT_0001bbc4:                 ;XREF[1,0]:   0001bbaa
ram:0001bbc4    40210020        undefined4  20002140h                               
                            PTR_FUN_0001bb7a+1_0001bbc8:  ;XREF[1,0]:   0001bbb2
ram:0001bbc8    7bbb0100        addr        FUN_0001bb7a+1                          
                            ;************************************************************************************************
                            ;*                                           FUNCTION                                           *
                            ;************************************************************************************************
                            ;undefined4 FUN_0001bbcc(int param_1)
          ;param_1       int                 r0                      
                                                          ;XREF[1,0]:   000199be
ram:0001bbcc    0028            cmp         param_1,#0x0                            
ram:0001bbce    03d0            beq         LAB_0001bbd8                            
ram:0001bbd0    0249            ldr         r1,[DAT_0001bbdc]                       ;= 20002140h
ram:0001bbd2    0861            str         param_1,[r1,#0x10]=>DAT_20002150        
ram:0001bbd4    0020            movs        param_1,#0x0                            
ram:0001bbd6    7047            bx          lr                                      
                            LAB_0001bbd8:                 ;XREF[1,0]:   0001bbce
ram:0001bbd8    0e20            movs        param_1,#0xe                            
ram:0001bbda    7047            bx          lr                                      
                            DAT_0001bbdc:                 ;XREF[1,0]:   0001bbd0
ram:0001bbdc    40210020        undefined4  20002140h                               
                            ;************************************************************************************************
                            ;*                                           FUNCTION                                           *
                            ;************************************************************************************************
                            ;undefined FUN_0001bbe0(undefined4 param_1, undefined4 param_2, uint param_3, uint param_4)
          ;param_1       undefined4          r0                      
          ;param_2       undefined4          r1                      
          ;param_3       uint                r2                      
          ;param_4       uint                r3                      
          ;local_18      undefined4         -18                      ;XREF[1,0]:   0001bbea
          ;local_1c      undefined4         -1c                      ;XREF[2,0]:   0001bbe8,0001bc00
          ;local_28      undefined4         -28                      ;XREF[1,0]:   0001bc06
                                                          ;XREF[1,0]:   00019ca2
ram:0001bbe0    ffb5            push        {param_1,param_2,param_3,param_4,r4,r...
ram:0001bbe2    81b0            sub         sp,#0x4                                 
ram:0001bbe4    484c            ldr         r4,[DAT_0001bd08]                       ;= 200020D4h
ram:0001bbe6    0e46            mov         r6,param_2                              
ram:0001bbe8    039f            ldr         r7,[sp,#local_1c+0x28]                  
ram:0001bbea    049a            ldr         param_3,[sp,#local_18+0x28]             
ram:0001bbec    0546            mov         r5,param_1                              
ram:0001bbee    6178            ldrb        param_2,[r4,#0x1]=>DAT_200020d5         
ram:0001bbf0    0320            movs        param_1,#0x3                            
ram:0001bbf2    1743            orrs        r7,param_3                              
ram:0001bbf4    0029            cmp         param_2,#0x0                            
ram:0001bbf6    03d1            bne         LAB_0001bc00                            
ram:0001bbf8    002f            cmp         r7,#0x0                                 
ram:0001bbfa    0dd0            beq         LAB_0001bc18                            
ram:0001bbfc    0121            movs        param_2,#0x1                            
                            LAB_0001bbfe:                 ;XREF[1,0]:   0001bc1a
ram:0001bbfe    6170            strb        param_2,[r4,#0x1]=>DAT_200020d5         
                            LAB_0001bc00:                 ;XREF[1,0]:   0001bbf6
ram:0001bc00    039a            ldr         param_3,[sp,#local_1c+0x28]             
ram:0001bc02    c9b2            uxtb        param_2,param_2                         
ram:0001bc04    9200            lsls        param_3,param_3,#0x2                    
ram:0001bc06    0092            str         param_3,[sp,#0x0]=>local_28             
ram:0001bc08    0b00            movs        param_4,param_2                         
                                                          ; FWD[4,0]:   000188e2,0001bc0e,0001bc10,0001bc11
ram:0001bc0a    fcf76afe        bl          __ARM_common_switch8                    ;undefined __ARM_common_switch8(void)
                                                                                    ;= 07h
                                                                                    ;= 1Bh
                            DAT_0001bc0e:                 ;XREF[1,0]:   0001bc0a
ram:0001bc0e    07              undefined1  07h                                     
ram:0001bc0f    2c              ??          2Ch    ,                                
                            DAT_0001bc10:                 ;XREF[1,0]:   0001bc0a
ram:0001bc10    07              undefined1  07h                                     
                            DAT_0001bc11:                 ;XREF[1,0]:   0001bc0a
ram:0001bc11    1b              undefined1  1Bh                                     
ram:0001bc12    2e              ??          2Eh    .                                
ram:0001bc13    46              ??          46h    F                                
ram:0001bc14    5d              ??          5Dh    ]                                
ram:0001bc15    6c              ??          6Ch    l                                
ram:0001bc16    2c              ??          2Ch    ,                                
ram:0001bc17    00              ??          00h                                     
                            LAB_0001bc18:                 ;XREF[1,0]:   0001bbfa
ram:0001bc18    0221            movs        param_2,#0x2                            
ram:0001bc1a    f0e7            b           LAB_0001bbfe                            
ram:0001bc1c    fff706fc        bl          FUN_0001b42c                            ;uint FUN_0001b42c(void)
ram:0001bc20    8708            lsrs        r7,r0,#0x2                              
ram:0001bc22    fff703fc        bl          FUN_0001b42c                            ;uint FUN_0001b42c(void)
ram:0001bc26    7043            muls        r0,r6                                   
ram:0001bc28    0546            mov         r5,r0                                   
ram:0001bc2a    fff7edfb        bl          FUN_0001b408                            ;int FUN_0001b408(void)
ram:0001bc2e    461e            subs        r6,r0,#0x1                              
ram:0001bc30    fff7fcfb        bl          FUN_0001b42c                            ;uint FUN_0001b42c(void)
ram:0001bc34    7043            muls        r0,r6                                   
ram:0001bc36    3a46            mov         r2,r7                                   
ram:0001bc38    2946            mov         r1,r5                                   
ram:0001bc3a    29df            svc         0x29                                    
ram:0001bc3c    0028            cmp         r0,#0x0                                 
ram:0001bc3e    12d1            bne         LAB_0001bc66                            
ram:0001bc40    0221            movs        r1,#0x2                                 
ram:0001bc42    0fe0            b           FUN_0001bc64                            ;undefined FUN_0001bc64(undefined4 pa...
ram:0001bc44    3046            mov         r0,r6                                   
ram:0001bc46    28df            svc         0x28                                    
ram:0001bc48    0028            cmp         r0,#0x0                                 
ram:0001bc4a    0cd1            bne         LAB_0001bc66                            
ram:0001bc4c    0399            ldr         r1,[sp,#0xc]                            
ram:0001bc4e    0029            cmp         r1,#0x0                                 
ram:0001bc50    01d0            beq         LAB_0001bc56                            
ram:0001bc52    0321            movs        r1,#0x3                                 
ram:0001bc54    06e0            b           FUN_0001bc64                            ;undefined FUN_0001bc64(undefined4 pa...
                            LAB_0001bc56:                 ;XREF[1,0]:   0001bc50
ram:0001bc56    0499            ldr         r1,[sp,#0x10]                           
ram:0001bc58    0029            cmp         r1,#0x0                                 
ram:0001bc5a    17d1            bne         LAB_0001bc8c                            
ram:0001bc5c    2978            ldrb        r1,[r5,#0x0]                            
ram:0001bc5e    0429            cmp         r1,#0x4                                 
ram:0001bc60    50d0            beq         LAB_0001bd04                            
ram:0001bc62    18e0            b           LAB_0001bc96                            
                            ;************************************************************************************************
                            ;*                                           FUNCTION                                           *
                            ;************************************************************************************************
                            ;undefined FUN_0001bc64(undefined4 param_1, undefined param_2)
          ;param_1       undefined4          r0                      
          ;param_2       undefined           r1                      
                                                          ;XREF[6,0]:   0001bc42,0001bc54,0001bc8e,0001bc98
                                                          ;             0001bce4,0001bd06
ram:0001bc64    6170            strb        param_2,[r4,#0x1]                       
                            LAB_0001bc66:                 ;XREF[6,0]:   0001bc3e,0001bc4a,0001bc84,0001bcc6
                                                          ;             0001bcdc,0001bd02
ram:0001bc66    05b0            add         sp,#0x14                                
ram:0001bc68    f0bd            pop         {r4,r5,r6,r7,pc}                        
ram:0001bc6a    fff7cdfb        bl          FUN_0001b408                            ;int FUN_0001b408(void)
ram:0001bc6e    471e            subs        r7,r0,#0x1                              
ram:0001bc70    fff7dcfb        bl          FUN_0001b42c                            ;uint FUN_0001b42c(void)
ram:0001bc74    4743            muls        r7,r0                                   
ram:0001bc76    fff7d9fb        bl          FUN_0001b42c                            ;uint FUN_0001b42c(void)
ram:0001bc7a    7043            muls        r0,r6                                   
ram:0001bc7c    3946            mov         r1,r7                                   
ram:0001bc7e    039a            ldr         r2,[sp,#0xc]                            
ram:0001bc80    29df            svc         0x29                                    
ram:0001bc82    0028            cmp         r0,#0x0                                 
ram:0001bc84    efd1            bne         LAB_0001bc66                            
ram:0001bc86    0499            ldr         r1,[sp,#0x10]                           
ram:0001bc88    0029            cmp         r1,#0x0                                 
ram:0001bc8a    01d0            beq         FUN_0001bc90                            
                            LAB_0001bc8c:                 ;XREF[1,0]:   0001bc5a
ram:0001bc8c    0421            movs        r1,#0x4                                 
ram:0001bc8e    e9e7            b           FUN_0001bc64                            ;undefined FUN_0001bc64(undefined4 pa...
                            ;************************************************************************************************
                            ;*                                           FUNCTION                                           *
                            ;************************************************************************************************
                            ;undefined FUN_0001bc90(undefined4 param_1)
          ;param_1       undefined4          r0                      
                                                          ;XREF[2,0]:   0001bc8a,0001bcc4
ram:0001bc90    2978            ldrb        r1,[r5,#0x0]                            
ram:0001bc92    0429            cmp         r1,#0x4                                 
ram:0001bc94    25d0            beq         LAB_0001bce2                            
                            LAB_0001bc96:                 ;XREF[1,0]:   0001bc62
ram:0001bc96    0521            movs        r1,#0x5                                 
ram:0001bc98    e4e7            b           FUN_0001bc64                            ;undefined FUN_0001bc64(undefined4 pa...
ram:0001bc9a    fff7b5fb        bl          FUN_0001b408                            ;int FUN_0001b408(void)
ram:0001bc9e    471e            subs        r7,r0,#0x1                              
ram:0001bca0    fff7c4fb        bl          FUN_0001b42c                            ;uint FUN_0001b42c(void)
ram:0001bca4    4743            muls        r7,r0                                   
ram:0001bca6    6888            ldrh        r0,[r5,#0x2]                            
ram:0001bca8    3918            adds        r1,r7,r0                                
ram:0001bcaa    0098            ldr         r0,[sp,#0x0]                            
ram:0001bcac    0f18            adds        r7,r1,r0                                
ram:0001bcae    fff7bdfb        bl          FUN_0001b42c                            ;uint FUN_0001b42c(void)
ram:0001bcb2    6988            ldrh        r1,[r5,#0x2]                            
ram:0001bcb4    7043            muls        r0,r6                                   
ram:0001bcb6    4118            adds        r1,r0,r1                                
ram:0001bcb8    0098            ldr         r0,[sp,#0x0]                            
ram:0001bcba    049a            ldr         r2,[sp,#0x10]                           
ram:0001bcbc    0818            adds        r0,r1,r0                                
ram:0001bcbe    3946            mov         r1,r7                                   
ram:0001bcc0    29df            svc         0x29                                    
ram:0001bcc2    0028            cmp         r0,#0x0                                 
ram:0001bcc4    e4d0            beq         FUN_0001bc90                            
ram:0001bcc6    cee7            b           LAB_0001bc66                            
ram:0001bcc8    fff7b0fb        bl          FUN_0001b42c                            ;uint FUN_0001b42c(void)
ram:0001bccc    0099            ldr         r1,[sp,#0x0]                            
ram:0001bcce    7043            muls        r0,r6                                   
ram:0001bcd0    4018            adds        r0,r0,r1                                
ram:0001bcd2    6988            ldrh        r1,[r5,#0x2]                            
ram:0001bcd4    8a08            lsrs        r2,r1,#0x2                              
ram:0001bcd6    2969            ldr         r1,[r5,#0x10]                           
ram:0001bcd8    29df            svc         0x29                                    
ram:0001bcda    0028            cmp         r0,#0x0                                 
ram:0001bcdc    c3d1            bne         LAB_0001bc66                            
ram:0001bcde    002f            cmp         r7,#0x0                                 
ram:0001bce0    10d0            beq         LAB_0001bd04                            
                            LAB_0001bce2:                 ;XREF[1,0]:   0001bc94
ram:0001bce2    0621            movs        r1,#0x6                                 
ram:0001bce4    bee7            b           FUN_0001bc64                            ;undefined FUN_0001bc64(undefined4 pa...
ram:0001bce6    fff7a1fb        bl          FUN_0001b42c                            ;uint FUN_0001b42c(void)
ram:0001bcea    0646            mov         r6,r0                                   
ram:0001bcec    fff78cfb        bl          FUN_0001b408                            ;int FUN_0001b408(void)
ram:0001bcf0    451e            subs        r5,r0,#0x1                              
ram:0001bcf2    fff79bfb        bl          FUN_0001b42c                            ;uint FUN_0001b42c(void)
ram:0001bcf6    6843            muls        r0,r5                                   
ram:0001bcf8    3146            mov         r1,r6                                   
ram:0001bcfa    fcf749fa        bl          FUN_00018190                            ;int FUN_00018190(uint param_1, uint ...
ram:0001bcfe    28df            svc         0x28                                    
ram:0001bd00    0028            cmp         r0,#0x0                                 
ram:0001bd02    b0d1            bne         LAB_0001bc66                            
                            LAB_0001bd04:                 ;XREF[2,0]:   0001bc60,0001bce0
ram:0001bd04    0721            movs        r1,#0x7                                 
ram:0001bd06    ade7            b           FUN_0001bc64                            ;undefined FUN_0001bc64(undefined4 pa...
                            DAT_0001bd08:                 ;XREF[1,0]:   0001bbe4
ram:0001bd08    d4200020        undefined4  200020D4h                               
                            ;************************************************************************************************
                            ;*                                           FUNCTION                                           *
                            ;************************************************************************************************
                            ;undefined8 FUN_0001bd0c(ushort * param_1)
          ;param_1       ushort *            r0                      
          ;local_18      undefined4         -18                      ;XREF[1,0]:   0001bda0
          ;local_1c      undefined2         -1c                      ;XREF[1,0]:   0001bd9e
          ;local_1e      undefined2         -1e                      ;XREF[1,0]:   0001bd9c
          ;local_20      undefined2         -20                      ;XREF[1,0]:   0001bd98
          ;local_24      undefined4         -24                      ;XREF[1,0]:   0001bd94
          ;local_28      undefined4         -28                      ;XREF[1,0]:   0001bd90
          ;local_2a      undefined1         -2a                      ;XREF[1,0]:   0001bd60
          ;local_2c      undefined2         -2c                      ;XREF[1,0]:   0001bd66
          ;local_30      undefined4         -30                      ;XREF[2,3]:   0001bd1e,0001bd20,0001bd2a,0001bd2c,0001bd34
          ;local_34      undefined4         -34                      ;XREF[1,0]:   0001bd58
          ;local_38      undefined4         -38                      ;XREF[1,0]:   0001bd52
          ;local_3c      undefined4         -3c                      ;XREF[1,0]:   0001bd56
          ;local_40      undefined4         -40                      ;XREF[1,0]:   0001bd54
          ;local_48      undefined4         -48                      ;XREF[1,0]:   0001bd50
          ;local_4c      undefined1         -4c                      ;XREF[2,0]:   0001bd40,0001bd4c
          ;local_50      undefined4         -50                      ;XREF[2,3]:   0001bd6a,0001bd6c,0001bd6e,0001bd70,0001bd84
                                                          ;XREF[1,0]:   000198d0
ram:0001bd0c    70b5            push        {r4,r5,r6,lr}                           
ram:0001bd0e    0024            movs        r4,#0x0                                 
ram:0001bd10    0546            mov         r5,param_1                              
ram:0001bd12    601c            adds        param_1,r4,#0x1                         
ram:0001bd14    90b0            sub         sp,#0x40                                
ram:0001bd16    0007            lsls        param_1,param_1,#0x1c                   
ram:0001bd18    000f            lsrs        param_1,param_1,#0x1c                   
ram:0001bd1a    08a9            add         r1,sp,#0x20                             
ram:0001bd1c    1030            adds        param_1,#0x10                           
ram:0001bd1e    0894            str         r4,[sp,#local_30+0x50]                  
ram:0001bd20    0870            strb        param_1,[r1,#0x0]=>local_30             
ram:0001bd22    601c            adds        param_1,r4,#0x1                         
ram:0001bd24    0007            lsls        param_1,param_1,#0x1c                   
ram:0001bd26    000f            lsrs        param_1,param_1,#0x1c                   
ram:0001bd28    1030            adds        param_1,#0x10                           
ram:0001bd2a    4870            strb        param_1,[r1,#local_30+0x31]             
ram:0001bd2c    8878            ldrb        param_1,[r1,#local_30+0x32]             
ram:0001bd2e    f926            movs        r6,#0xf9                                
ram:0001bd30    3040            ands        param_1,r6                              
ram:0001bd32    801c            adds        param_1,param_1,#0x2                    
ram:0001bd34    8870            strb        param_1,[r1,#local_30+0x32]             
ram:0001bd36    1c21            movs        r1,#0x1c                                
ram:0001bd38    01a8            add         param_1,sp,#0x4                         
ram:0001bd3a    fcf758fa        bl          FUN_000181ee                            ;undefined FUN_000181ee(undefined * p...
ram:0001bd3e    6946            mov         r1,sp                                   
ram:0001bd40    0879            ldrb        param_1,[r1,#local_4c+0x50]             
ram:0001bd42    fd21            movs        r1,#0xfd                                
ram:0001bd44    0840            ands        param_1,r1                              
ram:0001bd46    1821            movs        r1,#0x18                                
ram:0001bd48    0843            orrs        param_1,r1                              
ram:0001bd4a    6946            mov         r1,sp                                   
ram:0001bd4c    0871            strb        param_1,[r1,#local_4c+0x50]             
ram:0001bd4e    08a8            add         param_1,sp,#0x20                        
ram:0001bd50    0294            str         r4,[sp,#local_48+0x50]                  
ram:0001bd52    0690            str         param_1,[sp,#local_38+0x50]             
ram:0001bd54    0494            str         r4,[sp,#local_40+0x50]                  
ram:0001bd56    0594            str         r4,[sp,#local_3c+0x50]                  
ram:0001bd58    0794            str         r4,[sp,#local_34+0x50]                  
ram:0001bd5a    3220            movs        param_1,#0x32                           
ram:0001bd5c    405d            ldrb        param_1,[param_1,r5]                    
ram:0001bd5e    08a9            add         r1,sp,#0x20                             
ram:0001bd60    8871            strb        param_1,[r1,#local_2a+0x30]             
ram:0001bd62    1448            ldr         param_1,[DAT_0001bdb4]                  ;= 00001526h
ram:0001bd64    6946            mov         r1,sp                                   
ram:0001bd66    8884            strh        param_1,[r1,#local_2c+0x50]             
ram:0001bd68    1120            movs        param_1,#0x11                           
ram:0001bd6a    0094            str         r4,[sp,#0x0]=>local_50                  
ram:0001bd6c    0870            strb        param_1,[r1,#0x0]=>local_50             
ram:0001bd6e    4870            strb        param_1,[r1,#local_50+0x51]             
ram:0001bd70    8878            ldrb        param_1,[r1,#local_50+0x52]             
ram:0001bd72    f721            movs        r1,#0xf7                                
ram:0001bd74    3040            ands        param_1,r6                              
ram:0001bd76    801c            adds        param_1,param_1,#0x2                    
ram:0001bd78    0840            ands        param_1,r1                              
ram:0001bd7a    ef21            movs        r1,#0xef                                
ram:0001bd7c    0840            ands        param_1,r1                              
ram:0001bd7e    0126            movs        r6,#0x1                                 
ram:0001bd80    3043            orrs        param_1,r6                              
ram:0001bd82    6946            mov         r1,sp                                   
ram:0001bd84    8870            strb        param_1,[r1,#local_50+0x52]             
ram:0001bd86    1421            movs        r1,#0x14                                
ram:0001bd88    0aa8            add         param_1,sp,#0x28                        
ram:0001bd8a    fcf730fa        bl          FUN_000181ee                            ;undefined FUN_000181ee(undefined * p...
ram:0001bd8e    09a8            add         param_1,sp,#0x24                        
ram:0001bd90    0a90            str         param_1,[sp,#local_28+0x50]             
ram:0001bd92    6846            mov         param_1,sp                              
ram:0001bd94    0b90            str         param_1,[sp,#local_24+0x50]             
ram:0001bd96    6946            mov         r1,sp                                   
ram:0001bd98    0e86            strh        r6,[r1,#local_20+0x50]                  
ram:0001bd9a    0620            movs        param_1,#0x6                            
ram:0001bd9c    4c86            strh        r4,[r1,#local_1e+0x50]                  
ram:0001bd9e    8886            strh        param_1,[r1,#local_1c+0x50]             
ram:0001bda0    0e94            str         r4,[sp,#local_18+0x50]                  
ram:0001bda2    2b46            mov         r3,r5                                   
ram:0001bda4    2888            ldrh        param_1,[r5,#0x0]                       
ram:0001bda6    1233            adds        r3,#0x12                                
ram:0001bda8    0aaa            add         r2,sp,#0x28                             
ram:0001bdaa    01a9            add         r1,sp,#0x4                              
ram:0001bdac    a2df            svc         0xa2                                    
ram:0001bdae    10b0            add         sp,#0x40                                
ram:0001bdb0    70bd            pop         {r4,r5,r6,pc}                           
ram:0001bdb2    0000            movs        r0,r0                                   
                            DAT_0001bdb4:                 ;XREF[1,0]:   0001bd62
ram:0001bdb4    26150000        undefined4  00001526h                               
                            ;************************************************************************************************
                            ;*                                           FUNCTION                                           *
                            ;************************************************************************************************
                            ;undefined LAB_0001bdb8+1(undefined4 * param_1, uint param_2, undefined4 param_3, undefined4 param_4)
          ;param_1       undefined4 *        r0                      
          ;param_2       uint                r1                      
          ;param_3       undefined4          r2                      
          ;param_4       undefined4          r3                      
          ;local_1d      undefined1         -1d                      ;XREF[1,0]:   0001be66
          ;local_1e      undefined1         -1e                      ;XREF[1,0]:   0001bdf6
          ;local_1f      undefined1         -1f                      ;XREF[1,0]:   0001bdf4
                                                          ;XREF[0,2]:   0001ba76,0001bac4
ram:0001bdb8    feb5            push        {param_2,param_3,param_4,r4,r5,r6,r7,lr}
ram:0001bdba    0f46            mov         r7,param_2                              
ram:0001bdbc    0546            mov         r5,param_1                              
ram:0001bdbe    0679            ldrb        r6,[param_1,#0x4]                       
ram:0001bdc0    0146            mov         param_2,param_1                         
ram:0001bdc2    0024            movs        r4,#0x0                                 
ram:0001bdc4    0422            movs        param_3,#0x4                            
ram:0001bdc6    01a8            add         param_1,sp,#0x4                         
ram:0001bdc8    fcf7f8f9        bl          FUN_000181bc                            ;undefined FUN_000181bc(undefined4 * ...
ram:0001bdcc    3946            mov         param_2,r7                              
ram:0001bdce    2846            mov         param_1,r5                              
ram:0001bdd0    fdf7a0fb        bl          FUN_00019514                            ;undefined4 FUN_00019514(int param_1,...
ram:0001bdd4    0006            lsls        param_1,param_1,#0x18                   
ram:0001bdd6    000e            lsrs        param_1,param_1,#0x18                   
ram:0001bdd8    0bd1            bne         LAB_0001bdf2                            
ram:0001bdda    7f1f            subs        r7,r7,#0x5                              
ram:0001bddc    fab2            uxtb        param_3,r7                              
ram:0001bdde    012e            cmp         r6,#0x1                                 
ram:0001bde0    17d0            beq         LAB_0001be12                            
ram:0001bde2    2249            ldr         param_2,[DAT_0001be6c]                  ;= 20002020h
ram:0001bde4    022e            cmp         r6,#0x2                                 
ram:0001bde6    1dd0            beq         LAB_0001be24                            
ram:0001bde8    032e            cmp         r6,#0x3                                 
ram:0001bdea    23d0            beq         LAB_0001be34                            
ram:0001bdec    042e            cmp         r6,#0x4                                 
ram:0001bdee    35d0            beq         LAB_0001be5c                            
ram:0001bdf0    0120            movs        param_1,#0x1                            
                            LAB_0001bdf2:                 ;XREF[5,0]:   0001bdd8,0001be1e,0001be22,0001be5a
                                                          ;             0001be68
ram:0001bdf2    6946            mov         param_2,sp                              
ram:0001bdf4    4e70            strb        r6,[r1,#local_1f+0x20]                  
ram:0001bdf6    8870            strb        param_1,[r1,#local_1e+0x20]             
ram:0001bdf8    1d48            ldr         param_1,[DAT_0001be70]                  ;= 20002604h
ram:0001bdfa    e31c            adds        param_4,r4,#0x3                         
ram:0001bdfc    418a            ldrh        param_2,[param_1,#0x12]=>DAT_20002616   
ram:0001bdfe    6a46            mov         param_3,sp                              
ram:0001be00    fff7bafd        bl          FUN_0001b978                            ;undefined8 FUN_0001b978(int param_1,...
ram:0001be04    0028            cmp         param_1,#0x0                            
ram:0001be06    03d0            beq         LAB_0001be10                            
ram:0001be08    0022            movs        param_3,#0x0                            
ram:0001be0a    1146            mov         param_2,param_3                         
ram:0001be0c    fcf73cff        bl          FUN_00018c88                            ;undefined FUN_00018c88(void)
                            LAB_0001be10:                 ;XREF[1,0]:   0001be06
ram:0001be10    febd            pop         {param_2,param_3,param_4,r4,r5,r6,r7,pc}
                            LAB_0001be12:                 ;XREF[1,0]:   0001bde0
ram:0001be12    012a            cmp         param_3,#0x1                            
ram:0001be14    04d1            bne         LAB_0001be20                            
ram:0001be16    6879            ldrb        param_1,[r5,#0x5]                       
ram:0001be18    fff760fe        bl          FUN_0001badc                            ;undefined4 FUN_0001badc(int param_1)
ram:0001be1c    c0b2            uxtb        param_1,param_1                         
ram:0001be1e    e8e7            b           LAB_0001bdf2                            
                            LAB_0001be20:                 ;XREF[3,0]:   0001be14,0001be36,0001be40
ram:0001be20    0220            movs        param_1,#0x2                            
ram:0001be22    e6e7            b           LAB_0001bdf2                            
                            LAB_0001be24:                 ;XREF[1,0]:   0001bde6
ram:0001be24    0a68            ldr         param_3,[param_2,#0x0]=>DAT_20002020    
ram:0001be26    0124            movs        r4,#0x1                                 
ram:0001be28    0968            ldr         param_2,[param_2,#0x0]=>DAT_20002020    
ram:0001be2a    5207            lsls        param_3,param_3,#0x1d                   
ram:0001be2c    8907            lsls        param_2,param_2,#0x1e                   
ram:0001be2e    4a40            eors        param_3,param_2                         
ram:0001be30    d10f            lsrs        param_2,param_3,#0x1f                   
ram:0001be32    17e0            b           LAB_0001be64                            
                            LAB_0001be34:                 ;XREF[1,0]:   0001bdea
ram:0001be34    012a            cmp         param_3,#0x1                            
ram:0001be36    f3d1            bne         LAB_0001be20                            
ram:0001be38    6a79            ldrb        param_3,[r5,#0x5]                       
ram:0001be3a    002a            cmp         param_3,#0x0                            
ram:0001be3c    01d0            beq         LAB_0001be42                            
ram:0001be3e    012a            cmp         param_3,#0x1                            
ram:0001be40    eed1            bne         LAB_0001be20                            
                            LAB_0001be42:                 ;XREF[1,0]:   0001be3c
ram:0001be42    0d68            ldr         r5,[param_2,#0x0]=>DAT_20002020         
ram:0001be44    0223            movs        param_4,#0x2                            
ram:0001be46    d207            lsls        param_3,param_3,#0x1f                   
ram:0001be48    9d43            bics        r5,param_4                              
ram:0001be4a    920f            lsrs        param_3,param_3,#0x1e                   
ram:0001be4c    1543            orrs        r5,param_3                              
ram:0001be4e    0d60            str         r5,[param_2,#0x0]=>DAT_20002020         
ram:0001be50    0649            ldr         param_2,[DAT_0001be6c]                  ;= 20002020h
ram:0001be52    2039            subs        param_2,#0x20                           
ram:0001be54    8a78            ldrb        param_3,[param_2,#offset DAT_20002002...
ram:0001be56    1a43            orrs        param_3,param_4                         
ram:0001be58    8a70            strb        param_3,[param_2,#offset DAT_20002002...
ram:0001be5a    cae7            b           LAB_0001bdf2                            
                            LAB_0001be5c:                 ;XREF[1,0]:   0001bdee
ram:0001be5c    0968            ldr         param_2,[param_2,#0x0]=>DAT_20002020    
ram:0001be5e    0124            movs        r4,#0x1                                 
ram:0001be60    8907            lsls        param_2,param_2,#0x1e                   
ram:0001be62    c90f            lsrs        param_2,param_2,#0x1f                   
                            LAB_0001be64:                 ;XREF[1,0]:   0001be32
ram:0001be64    6a46            mov         param_3,sp                              
ram:0001be66    d170            strb        param_2,[r2,#local_1d+0x20]             
ram:0001be68    c3e7            b           LAB_0001bdf2                            
ram:0001be6a    0000            movs        r0,r0                                   
                            DAT_0001be6c:                 ;XREF[2,0]:   0001bde2,0001be50
ram:0001be6c    20200020        undefined4  20002020h                               
                            DAT_0001be70:                 ;XREF[1,0]:   0001bdf8
ram:0001be70    04260020        undefined4  20002604h                               
                            ;************************************************************************************************
                            ;*                                           FUNCTION                                           *
                            ;************************************************************************************************
                            ;undefined LAB_0001be74+1(undefined4 param_1, undefined4 param_2, uint param_3, undefined4 param_4)
          ;param_1       undefined4          r0                      
          ;param_2       undefined4          r1                      
          ;param_3       uint                r2                      
          ;param_4       undefined4          r3                      
          ;local_14      undefined4         -14                      ;XREF[1,0]:   0001bea6
          ;local_18      undefined4         -18                      ;XREF[1,0]:   0001bea8
                                                          ;XREF[0,2]:   0001c25a,0001c2dc
ram:0001be74    7cb5            push        {param_3,param_4,r4,r5,r6,lr}           
ram:0001be76    134d            ldr         r5,[DAT_0001bec4]                       ;= 20002031h
ram:0001be78    6c78            ldrb        r4,[r5,#0x1]=>DAT_20002032              
ram:0001be7a    2846            mov         param_1,r5                              
ram:0001be7c    00f05cfa        bl          FUN_0001c338                            ;undefined FUN_0001c338(byte * param_1)
ram:0001be80    6878            ldrb        param_1,[r5,#0x1]=>DAT_20002032         
ram:0001be82    a042            cmp         param_1,r4                              
ram:0001be84    01d0            beq         LAB_0001be8a                            
ram:0001be86    fcf76bfd        bl          FUN_00018960                            ;undefined FUN_00018960(void)
                            LAB_0001be8a:                 ;XREF[1,0]:   0001be84
ram:0001be8a    0f4e            ldr         r6,[DAT_0001bec8]                       ;= 20002678h
ram:0001be8c    0024            movs        r4,#0x0                                 
                            LAB_0001be8e:                 ;XREF[1,0]:   0001bec0
ram:0001be8e    a000            lsls        param_1,r4,#0x2                         
ram:0001be90    2018            adds        param_1,r4,param_1                      
ram:0001be92    8519            adds        r5,param_1,r6                           
                                                          ; FWD[2,0]:   2000267c,20002681
ram:0001be94    2879            ldrb        param_1,[r5,#0x4]=>DAT_2000267c         
ram:0001be96    4007            lsls        param_1,param_1,#0x1d                   
ram:0001be98    10d5            bpl         LAB_0001bebc                            
ram:0001be9a    0522            movs        param_3,#0x5                            
ram:0001be9c    0949            ldr         param_2,[DAT_0001bec4]                  ;= 20002031h
ram:0001be9e    6846            mov         param_1,sp                              
ram:0001bea0    fcf78cf9        bl          FUN_000181bc                            ;undefined FUN_000181bc(undefined4 * ...
ram:0001bea4    2a46            mov         param_3,r5                              
ram:0001bea6    0199            ldr         param_2,[sp,#local_14+0x18]             
ram:0001bea8    0098            ldr         param_1,[sp,#0x0]=>local_18             
ram:0001beaa    00f0f7f8        bl          FUN_0001c09c                            ;longlong FUN_0001c09c(uint param_1, ...
ram:0001beae    0028            cmp         param_1,#0x0                            
ram:0001beb0    04d0            beq         LAB_0001bebc                            
ram:0001beb2    2879            ldrb        param_1,[r5,#0x4]=>DAT_2000267c         
ram:0001beb4    c007            lsls        param_1,param_1,#0x1f                   
ram:0001beb6    c00f            lsrs        param_1,param_1,#0x1f                   
ram:0001beb8    fff710fe        bl          FUN_0001badc                            ;undefined4 FUN_0001badc(int param_1)
                            LAB_0001bebc:                 ;XREF[2,0]:   0001be98,0001beb0
ram:0001bebc    641c            adds        r4,r4,#0x1                              
ram:0001bebe    062c            cmp         r4,#0x6                                 
ram:0001bec0    e5db            blt         LAB_0001be8e                            
ram:0001bec2    7cbd            pop         {param_3,param_4,r4,r5,r6,pc}           
                            DAT_0001bec4:                 ;XREF[2,0]:   0001be76,0001be9c
ram:0001bec4    31200020        undefined4  20002031h                               
                            DAT_0001bec8:                 ;XREF[1,0]:   0001be8a
ram:0001bec8    78260020        undefined4  20002678h                               
ram:0001becc    03              ??          03h                                     
ram:0001becd    2a              ??          2Ah    *                                
ram:0001bece    0f              ??          0Fh                                     
ram:0001becf    d1              ??          D1h                                     
ram:0001bed0    0b              ??          0Bh                                     
ram:0001bed1    78              ??          78h    x                                
ram:0001bed2    4a              ??          4Ah    J                                
ram:0001bed3    78              ??          78h    x                                
ram:0001bed4    89              ??          89h                                     
ram:0001bed5    78              ??          78h    x                                
ram:0001bed6    07              ??          07h                                     
ram:0001bed7    29              ??          29h    )                                
ram:0001bed8    0a              ??          0Ah                                     
ram:0001bed9    d2              ??          D2h                                     
ram:0001beda    18              ??          18h                                     
ram:0001bedb    2b              ??          2Bh    +                                
ram:0001bedc    08              ??          08h                                     
ram:0001bedd    d2              ??          D2h                                     
ram:0001bede    3c              ??          3Ch    <                                
ram:0001bedf    2a              ??          2Ah    *                                
ram:0001bee0    06              ??          06h                                     
ram:0001bee1    d2              ??          D2h                                     
ram:0001bee2    01              ??          01h                                     
ram:0001bee3    70              ??          70h    p                                
ram:0001bee4    43              ??          43h    C                                
ram:0001bee5    70              ??          70h    p                                
ram:0001bee6    82              ??          82h                                     
ram:0001bee7    70              ??          70h    p                                
ram:0001bee8    00              ??          00h                                     
ram:0001bee9    21              ??          21h    !                                
ram:0001beea    c1              ??          C1h                                     
ram:0001beeb    70              ??          70h    p                                
ram:0001beec    08              ??          08h                                     
ram:0001beed    46              ??          46h    F                                
ram:0001beee    70              ??          70h    p                                
ram:0001beef    47              ??          47h    G                                
ram:0001bef0    02              ??          02h                                     
ram:0001bef1    20              ??          20h                                     
ram:0001bef2    70              ??          70h    p                                
ram:0001bef3    47              ??          47h    G                                
                            ;************************************************************************************************
                            ;*                                           FUNCTION                                           *
                            ;************************************************************************************************
                            ;undefined LAB_0001bef4+1(int param_1)
          ;param_1       int                 r0                      
                                                          ;XREF[0,2]:   000199bc,000199d8
ram:0001bef4    10b5            push        {r4,lr}                                 
ram:0001bef6    fff7edfb        bl          FUN_0001b6d4                            ;undefined FUN_0001b6d4(int param_1)
ram:0001befa    10bd            pop         {r4,pc}                                 
                            ;************************************************************************************************
                            ;*                                           FUNCTION                                           *
                            ;************************************************************************************************
                            ;undefined8 FUN_0001befc(ushort * param_1)
          ;param_1       ushort *            r0                      
          ;local_18      undefined4         -18                      ;XREF[1,0]:   0001bf90
          ;local_1c      undefined2         -1c                      ;XREF[1,0]:   0001bf8e
          ;local_1e      undefined2         -1e                      ;XREF[1,0]:   0001bf8c
          ;local_20      undefined2         -20                      ;XREF[1,0]:   0001bf88
          ;local_24      undefined4         -24                      ;XREF[1,0]:   0001bf84
          ;local_28      undefined4         -28                      ;XREF[1,0]:   0001bf80
          ;local_2a      undefined1         -2a                      ;XREF[1,0]:   0001bf50
          ;local_2c      undefined2         -2c                      ;XREF[1,0]:   0001bf56
          ;local_30      undefined4         -30                      ;XREF[2,3]:   0001bf0e,0001bf10,0001bf1a,0001bf1c,0001bf24
          ;local_34      undefined4         -34                      ;XREF[1,0]:   0001bf48
          ;local_38      undefined4         -38                      ;XREF[1,0]:   0001bf42
          ;local_3c      undefined4         -3c                      ;XREF[1,0]:   0001bf46
          ;local_40      undefined4         -40                      ;XREF[1,0]:   0001bf44
          ;local_48      undefined4         -48                      ;XREF[1,0]:   0001bf40
          ;local_4c      undefined1         -4c                      ;XREF[2,0]:   0001bf30,0001bf3c
          ;local_50      undefined4         -50                      ;XREF[2,3]:   0001bf5a,0001bf5c,0001bf5e,0001bf60,0001bf74
                                                          ;XREF[1,0]:   000198e8
ram:0001befc    70b5            push        {r4,r5,r6,lr}                           
ram:0001befe    0024            movs        r4,#0x0                                 
ram:0001bf00    0546            mov         r5,param_1                              
ram:0001bf02    601c            adds        param_1,r4,#0x1                         
ram:0001bf04    90b0            sub         sp,#0x40                                
ram:0001bf06    0007            lsls        param_1,param_1,#0x1c                   
ram:0001bf08    000f            lsrs        param_1,param_1,#0x1c                   
ram:0001bf0a    08a9            add         r1,sp,#0x20                             
ram:0001bf0c    1030            adds        param_1,#0x10                           
ram:0001bf0e    0894            str         r4,[sp,#local_30+0x50]                  
ram:0001bf10    0870            strb        param_1,[r1,#0x0]=>local_30             
ram:0001bf12    601c            adds        param_1,r4,#0x1                         
ram:0001bf14    0007            lsls        param_1,param_1,#0x1c                   
ram:0001bf16    000f            lsrs        param_1,param_1,#0x1c                   
ram:0001bf18    1030            adds        param_1,#0x10                           
ram:0001bf1a    4870            strb        param_1,[r1,#local_30+0x31]             
ram:0001bf1c    8878            ldrb        param_1,[r1,#local_30+0x32]             
ram:0001bf1e    f926            movs        r6,#0xf9                                
ram:0001bf20    3040            ands        param_1,r6                              
ram:0001bf22    801c            adds        param_1,param_1,#0x2                    
ram:0001bf24    8870            strb        param_1,[r1,#local_30+0x32]             
ram:0001bf26    1c21            movs        r1,#0x1c                                
ram:0001bf28    01a8            add         param_1,sp,#0x4                         
ram:0001bf2a    fcf760f9        bl          FUN_000181ee                            ;undefined FUN_000181ee(undefined * p...
ram:0001bf2e    6946            mov         r1,sp                                   
ram:0001bf30    0879            ldrb        param_1,[r1,#local_4c+0x50]             
ram:0001bf32    fd21            movs        r1,#0xfd                                
ram:0001bf34    0840            ands        param_1,r1                              
ram:0001bf36    1821            movs        r1,#0x18                                
ram:0001bf38    0843            orrs        param_1,r1                              
ram:0001bf3a    6946            mov         r1,sp                                   
ram:0001bf3c    0871            strb        param_1,[r1,#local_4c+0x50]             
ram:0001bf3e    08a8            add         param_1,sp,#0x20                        
ram:0001bf40    0294            str         r4,[sp,#local_48+0x50]                  
ram:0001bf42    0690            str         param_1,[sp,#local_38+0x50]             
ram:0001bf44    0494            str         r4,[sp,#local_40+0x50]                  
ram:0001bf46    0594            str         r4,[sp,#local_3c+0x50]                  
ram:0001bf48    0794            str         r4,[sp,#local_34+0x50]                  
ram:0001bf4a    3220            movs        param_1,#0x32                           
ram:0001bf4c    405d            ldrb        param_1,[param_1,r5]                    
ram:0001bf4e    08a9            add         r1,sp,#0x20                             
ram:0001bf50    8871            strb        param_1,[r1,#local_2a+0x30]             
ram:0001bf52    1448            ldr         param_1,[DAT_0001bfa4]                  ;= 00001527h
ram:0001bf54    6946            mov         r1,sp                                   
ram:0001bf56    8884            strh        param_1,[r1,#local_2c+0x50]             
ram:0001bf58    1120            movs        param_1,#0x11                           
ram:0001bf5a    0094            str         r4,[sp,#0x0]=>local_50                  
ram:0001bf5c    0870            strb        param_1,[r1,#0x0]=>local_50             
ram:0001bf5e    4870            strb        param_1,[r1,#local_50+0x51]             
ram:0001bf60    8878            ldrb        param_1,[r1,#local_50+0x52]             
ram:0001bf62    f721            movs        r1,#0xf7                                
ram:0001bf64    3040            ands        param_1,r6                              
ram:0001bf66    801c            adds        param_1,param_1,#0x2                    
ram:0001bf68    0840            ands        param_1,r1                              
ram:0001bf6a    ef21            movs        r1,#0xef                                
ram:0001bf6c    0840            ands        param_1,r1                              
ram:0001bf6e    0126            movs        r6,#0x1                                 
ram:0001bf70    3043            orrs        param_1,r6                              
ram:0001bf72    6946            mov         r1,sp                                   
ram:0001bf74    8870            strb        param_1,[r1,#local_50+0x52]             
ram:0001bf76    1421            movs        r1,#0x14                                
ram:0001bf78    0aa8            add         param_1,sp,#0x28                        
ram:0001bf7a    fcf738f9        bl          FUN_000181ee                            ;undefined FUN_000181ee(undefined * p...
ram:0001bf7e    09a8            add         param_1,sp,#0x24                        
ram:0001bf80    0a90            str         param_1,[sp,#local_28+0x50]             
ram:0001bf82    6846            mov         param_1,sp                              
ram:0001bf84    0b90            str         param_1,[sp,#local_24+0x50]             
ram:0001bf86    6946            mov         r1,sp                                   
ram:0001bf88    0e86            strh        r6,[r1,#local_20+0x50]                  
ram:0001bf8a    7002            lsls        param_1,r6,#0x9                         
ram:0001bf8c    4c86            strh        r4,[r1,#local_1e+0x50]                  
ram:0001bf8e    8886            strh        param_1,[r1,#local_1c+0x50]             
ram:0001bf90    0e94            str         r4,[sp,#local_18+0x50]                  
ram:0001bf92    2b46            mov         r3,r5                                   
ram:0001bf94    2888            ldrh        param_1,[r5,#0x0]                       
ram:0001bf96    2233            adds        r3,#0x22                                
ram:0001bf98    0aaa            add         r2,sp,#0x28                             
ram:0001bf9a    01a9            add         r1,sp,#0x4                              
ram:0001bf9c    a2df            svc         0xa2                                    
ram:0001bf9e    10b0            add         sp,#0x40                                
ram:0001bfa0    70bd            pop         {r4,r5,r6,pc}                           
ram:0001bfa2    0000            movs        r0,r0                                   
                            DAT_0001bfa4:                 ;XREF[1,0]:   0001bf52
ram:0001bfa4    27150000        undefined4  00001527h                               
                            ;************************************************************************************************
                            ;*                                           FUNCTION                                           *
                            ;************************************************************************************************
                            ;undefined LAB_0001bfa8+1(undefined4 * param_1, uint param_2)
          ;param_1       undefined4 *        r0                      
          ;param_2       uint                r1                      
          ;local_18      undefined4         -18                      ;XREF[2,0]:   0001bfb0,0001bfd8
          ;local_3e      undefined1         -3e                      ;XREF[1,0]:   0001c06c
          ;local_3f      undefined1         -3f                      ;XREF[1,0]:   0001c06a
          ;local_44      undefined4         -44                      ;XREF[2,0]:   0001bfbe,0001c088
                                                          ;XREF[0,2]:   0001ba7a,0001bac8
ram:0001bfa8    f3b5            push        {param_1,param_2,r4,r5,r6,r7,lr}        
ram:0001bfaa    8bb0            sub         sp,#0x2c                                
ram:0001bfac    0746            mov         r7,param_1                              
ram:0001bfae    0679            ldrb        r6,[param_1,#0x4]                       
ram:0001bfb0    0c98            ldr         param_1,[sp,#local_18+0x48]             
ram:0001bfb2    0024            movs        r4,#0x0                                 
ram:0001bfb4    401f            subs        param_1,param_1,#0x5                    
ram:0001bfb6    c5b2            uxtb        r5,param_1                              
ram:0001bfb8    2846            mov         param_1,r5                              
ram:0001bfba    fef7d3fe        bl          FUN_0001ad64                            ;uint * FUN_0001ad64(int param_1)
ram:0001bfbe    0190            str         param_1,[sp,#local_44+0x48]             
ram:0001bfc0    002d            cmp         r5,#0x0                                 
ram:0001bfc2    03d0            beq         LAB_0001bfcc                            
ram:0001bfc4    2a46            mov         r2,r5                                   
ram:0001bfc6    791d            adds        param_2,r7,#0x5                         
ram:0001bfc8    fcf7f8f8        bl          FUN_000181bc                            ;undefined FUN_000181bc(undefined4 * ...
                            LAB_0001bfcc:                 ;XREF[1,0]:   0001bfc2
ram:0001bfcc    0422            movs        r2,#0x4                                 
ram:0001bfce    3946            mov         param_2,r7                              
ram:0001bfd0    09a8            add         param_1,sp,#0x24                        
ram:0001bfd2    fcf7f3f8        bl          FUN_000181bc                            ;undefined FUN_000181bc(undefined4 * ...
ram:0001bfd6    3846            mov         param_1,r7                              
ram:0001bfd8    0c99            ldr         param_2,[sp,#local_18+0x48]             
ram:0001bfda    fdf79bfa        bl          FUN_00019514                            ;undefined4 FUN_00019514(int param_1,...
ram:0001bfde    0006            lsls        param_1,param_1,#0x18                   
ram:0001bfe0    000e            lsrs        param_1,param_1,#0x18                   
ram:0001bfe2    41d1            bne         LAB_0001c068                            
ram:0001bfe4    2b4f            ldr         r7,[DAT_0001c094]                       ;= 20002000h
ram:0001bfe6    3300            movs        r3,r6                                   
                                                          ; FWD[2,0]:   000188e2,0001bfec
ram:0001bfe8    fcf77bfc        bl          __ARM_common_switch8                    ;undefined __ARM_common_switch8(void)
                                                                                    ;= 07h
                            DAT_0001bfec:                 ;XREF[1,0]:   0001bfe8
ram:0001bfec    07              undefined1  07h                                     
ram:0001bfed    3d              ??          3Dh    =                                
ram:0001bfee    05              ??          05h                                     
ram:0001bfef    11              ??          11h                                     
ram:0001bff0    1b              ??          1Bh                                     
ram:0001bff1    24              ??          24h    $                                
ram:0001bff2    2a              ??          2Ah    *                                
ram:0001bff3    35              ??          35h    5                                
ram:0001bff4    3d              ??          3Dh    =                                
ram:0001bff5    00              ??          00h                                     
ram:0001bff6    27              ??          27h    '                                
ram:0001bff7    48              ??          48h    H                                
ram:0001bff8    2a              ??          2Ah    *                                
ram:0001bff9    46              ??          46h    F                                
ram:0001bffa    31              ??          31h    1                                
ram:0001bffb    30              ??          30h    0                                
ram:0001bffc    01              ??          01h                                     
ram:0001bffd    99              ??          99h                                     
ram:0001bffe    ff              ??          FFh                                     
ram:0001bfff    f7              ??          F7h                                     
ram:0001c000    65              ??          65h    e                                
ram:0001c001    ff              ??          FFh                                     
ram:0001c002    13              ??          13h                                     
ram:0001c003    e0              ??          E0h                                     
ram:0001c004    b9              ??          B9h                                     
ram:0001c005    78              ??          78h    x                                
ram:0001c006    02              ??          02h                                     
ram:0001c007    22              ??          22h    "                                
ram:0001c008    11              ??          11h                                     
ram:0001c009    43              ??          43h    C                                
ram:0001c00a    b9              ??          B9h                                     
ram:0001c00b    70              ??          70h    p                                
ram:0001c00c    2c              ??          2Ch    ,                                
ram:0001c00d    e0              ??          E0h                                     
ram:0001c00e    21              ??          21h    !                                
ram:0001c00f    48              ??          48h    H                                
ram:0001c010    02              ??          02h                                     
ram:0001c011    a9              ??          A9h                                     
ram:0001c012    31              ??          31h    1                                
ram:0001c013    30              ??          30h    0                                
ram:0001c014    ff              ??          FFh                                     
ram:0001c015    f7              ??          F7h                                     
ram:0001c016    f2              ??          F2h                                     
ram:0001c017    fb              ??          FBh                                     
ram:0001c018    00              ??          00h                                     
ram:0001c019    06              ??          06h                                     
ram:0001c01a    00              ??          00h                                     
ram:0001c01b    0e              ??          0Eh                                     
ram:0001c01c    24              ??          24h    $                                
ram:0001c01d    d1              ??          D1h                                     
ram:0001c01e    03              ??          03h                                     
ram:0001c01f    24              ??          24h    $                                
ram:0001c020    22              ??          22h    "                                
ram:0001c021    e0              ??          E0h                                     
ram:0001c022    2a              ??          2Ah    *                                
ram:0001c023    46              ??          46h    F                                
ram:0001c024    1c              ??          1Ch                                     
ram:0001c025    48              ??          48h    H                                
ram:0001c026    01              ??          01h                                     
ram:0001c027    99              ??          99h                                     
ram:0001c028    fd              ??          FDh                                     
ram:0001c029    f7              ??          F7h                                     
ram:0001c02a    da              ??          DAh                                     
ram:0001c02b    ff              ??          FFh                                     
ram:0001c02c    00              ??          00h                                     
ram:0001c02d    06              ??          06h                                     
ram:0001c02e    00              ??          00h                                     
ram:0001c02f    0e              ??          0Eh                                     
ram:0001c030    e8              ??          E8h                                     
ram:0001c031    d0              ??          D0h                                     
ram:0001c032    19              ??          19h                                     
ram:0001c033    e0              ??          E0h                                     
ram:0001c034    2a              ??          2Ah    *                                
ram:0001c035    46              ??          46h    F                                
ram:0001c036    18              ??          18h                                     
ram:0001c037    48              ??          48h    H                                
ram:0001c038    01              ??          01h                                     
ram:0001c039    99              ??          99h                                     
ram:0001c03a    fd              ??          FDh                                     
ram:0001c03b    f7              ??          F7h                                     
ram:0001c03c    af              ??          AFh                                     
ram:0001c03d    fd              ??          FDh                                     
ram:0001c03e    f5              ??          F5h                                     
ram:0001c03f    e7              ??          E7h                                     
ram:0001c040    02              ??          02h                                     
ram:0001c041    ab              ??          ABh                                     
ram:0001c042    2a              ??          2Ah    *                                
ram:0001c043    46              ??          46h    F                                
ram:0001c044    14              ??          14h                                     
ram:0001c045    48              ??          48h    H                                
ram:0001c046    01              ??          01h                                     
ram:0001c047    99              ??          99h                                     
ram:0001c048    ff              ??          FFh                                     
ram:0001c049    f7              ??          F7h                                     
ram:0001c04a    e0              ??          E0h                                     
ram:0001c04b    fb              ??          FBh                                     
ram:0001c04c    00              ??          00h                                     
ram:0001c04d    06              ??          06h                                     
ram:0001c04e    00              ??          00h                                     
ram:0001c04f    0e              ??          0Eh                                     
ram:0001c050    0a              ??          0Ah                                     
ram:0001c051    d1              ??          D1h                                     
ram:0001c052    09              ??          09h                                     
ram:0001c053    24              ??          24h    $                                
ram:0001c054    08              ??          08h                                     
ram:0001c055    e0              ??          E0h                                     
ram:0001c056    02              ??          02h                                     
ram:0001c057    a9              ??          A9h                                     
ram:0001c058    0f              ??          0Fh                                     
ram:0001c059    48              ??          48h    H                                
ram:0001c05a    ff              ??          FFh                                     
ram:0001c05b    f7              ??          F7h                                     
ram:0001c05c    3e              ??          3Eh    >                                
ram:0001c05d    fc              ??          FCh                                     
ram:0001c05e    00              ??          00h                                     
ram:0001c05f    28              ??          28h    (                                
ram:0001c060    02              ??          02h                                     
ram:0001c061    d1              ??          D1h                                     
ram:0001c062    01              ??          01h                                     
ram:0001c063    24              ??          24h    $                                
ram:0001c064    00              ??          00h                                     
ram:0001c065    e0              ??          E0h                                     
ram:0001c066    01              ??          01h                                     
ram:0001c067    20              ??          20h                                     
                            LAB_0001c068:                 ;XREF[1,0]:   0001bfe2
ram:0001c068    6946            mov         param_2,sp                              
ram:0001c06a    4e72            strb        r6,[r1,#local_3f+0x48]                  
ram:0001c06c    8872            strb        param_1,[r1,#local_3e+0x48]             
ram:0001c06e    0a48            ldr         param_1,[DAT_0001c098]                  ;= 20002678h
ram:0001c070    e31c            adds        r3,r4,#0x3                              
ram:0001c072    7438            subs        param_1,#0x74                           
ram:0001c074    418c            ldrh        param_2,[param_1,#0x22]=>DAT_20002626   
ram:0001c076    02aa            add         r2,sp,#0x8                              
ram:0001c078    fff77efc        bl          FUN_0001b978                            ;undefined8 FUN_0001b978(int param_1,...
ram:0001c07c    0028            cmp         param_1,#0x0                            
ram:0001c07e    03d0            beq         LAB_0001c088                            
ram:0001c080    0022            movs        r2,#0x0                                 
ram:0001c082    1146            mov         param_2,r2                              
ram:0001c084    fcf700fe        bl          FUN_00018c88                            ;undefined FUN_00018c88(void)
                            LAB_0001c088:                 ;XREF[1,0]:   0001c07e
ram:0001c088    0198            ldr         param_1,[sp,#local_44+0x48]             
ram:0001c08a    fef7c7fa        bl          FUN_0001a61c                            ;undefined FUN_0001a61c(int param_1)
ram:0001c08e    0db0            add         sp,#0x34                                
ram:0001c090    f0bd            pop         {r4,r5,r6,r7,pc}                        
ram:0001c092    0000            movs        r0,r0                                   
                            DAT_0001c094:                 ;XREF[1,0]:   0001bfe4
ram:0001c094    00200020        undefined4  20002000h                               
                            DAT_0001c098:                 ;XREF[1,0]:   0001c06e
ram:0001c098    78260020        undefined4  20002678h                               
                            ;************************************************************************************************
                            ;*                                           FUNCTION                                           *
                            ;************************************************************************************************
                            ;longlong FUN_0001c09c(uint param_1, undefined4 param_2, int param_3)
          ;param_1       uint                r0                      
          ;param_2       undefined4          r1                      
          ;param_3       int                 r2                      
          ;local_e       undefined1          -e                      ;XREF[1,0]:   0001c0b8
          ;local_f       undefined1          -f                      ;XREF[1,0]:   0001c0ae
          ;local_10      undefined1         -10                      ;XREF[1,0]:   0001c0a0
                                                          ;XREF[1,0]:   0001beaa
ram:0001c09c    07b5            push        {param_1,param_2,param_3,lr}            
ram:0001c09e    6946            mov         param_2,sp                              
ram:0001c0a0    0b78            ldrb        r3,[param_2,#0x0]=>local_10             
ram:0001c0a2    5078            ldrb        param_1,[param_3,#0x1]                  
ram:0001c0a4    0121            movs        param_2,#0x1                            
ram:0001c0a6    9940            lsls        param_2,r3                              
ram:0001c0a8    0842            tst         param_1,param_2                         
ram:0001c0aa    13d0            beq         LAB_0001c0d4                            
ram:0001c0ac    6846            mov         param_1,sp                              
ram:0001c0ae    4078            ldrb        param_1,[r0,#local_f+0x10]              
ram:0001c0b0    9178            ldrb        param_2,[param_3,#0x2]                  
ram:0001c0b2    8842            cmp         param_1,param_2                         
ram:0001c0b4    0ed1            bne         LAB_0001c0d4                            
ram:0001c0b6    6846            mov         param_1,sp                              
ram:0001c0b8    8078            ldrb        param_1,[r0,#local_e+0x10]              
ram:0001c0ba    d178            ldrb        param_2,[param_3,#0x3]                  
ram:0001c0bc    8842            cmp         param_1,param_2                         
ram:0001c0be    09d1            bne         LAB_0001c0d4                            
ram:0001c0c0    1079            ldrb        param_1,[param_3,#0x4]                  
ram:0001c0c2    4107            lsls        param_2,param_1,#0x1d                   
ram:0001c0c4    06d5            bpl         LAB_0001c0d4                            
ram:0001c0c6    8107            lsls        param_2,param_1,#0x1e                   
ram:0001c0c8    02d4            bmi         LAB_0001c0d0                            
ram:0001c0ca    fb21            movs        param_2,#0xfb                           
ram:0001c0cc    0840            ands        param_1,param_2                         
ram:0001c0ce    1071            strb        param_1,[param_3,#0x4]                  
                            LAB_0001c0d0:                 ;XREF[1,0]:   0001c0c8
ram:0001c0d0    0120            movs        param_1,#0x1                            
ram:0001c0d2    0ebd            pop         {param_2,param_3,r3,pc}                 
                            LAB_0001c0d4:                 ;XREF[4,0]:   0001c0aa,0001c0b4,0001c0be,0001c0c4
ram:0001c0d4    0020            movs        param_1,#0x0                            
ram:0001c0d6    0ebd            pop         {param_2,param_3,r3,pc}                 
                            ;************************************************************************************************
                            ;*                                           FUNCTION                                           *
                            ;************************************************************************************************
                            ;undefined FUN_0001c0d8(void)
                                                          ;XREF[3,0]:   00019256,000192b6,0001c22e
ram:0001c0d8    0120            movs        r0,#0x1                                 
ram:0001c0da    0249            ldr         r1,[DAT_0001c0e4]                       ;= E000E200h
ram:0001c0dc    0005            lsls        r0,r0,#0x14                             
ram:0001c0de    0860            str         r0,[r1,#0x0]=>DAT_e000e200              
ram:0001c0e0    7047            bx          lr                                      
ram:0001c0e2    0000            movs        r0,r0                                   
                            DAT_0001c0e4:                 ;XREF[1,0]:   0001c0da
ram:0001c0e4    00e200e0        undefined4  E000E200h                               
                            ;************************************************************************************************
                            ;*                                           FUNCTION                                           *
                            ;************************************************************************************************
                            ;undefined FUN_0001c0e8(int param_1)
          ;param_1       int                 r0                      
                                                          ;XREF[1,0]:   0001aa26
ram:0001c0e8    f0b5            push        {r4,r5,r6,r7,lr}                        
ram:0001c0ea    174f            ldr         r7,[DAT_0001c148]                       ;= 20002114h
ram:0001c0ec    2421            movs        r1,#0x24                                
ram:0001c0ee    bc68            ldr         r4,[r7,#0x8]=>DAT_2000211c              
ram:0001c0f0    4143            muls        r1,param_1                              
ram:0001c0f2    0d19            adds        r5,r1,r4                                
ram:0001c0f4    3969            ldr         r1,[r7,#0x10]=>DAT_20002124             
ram:0001c0f6    4a1c            adds        r2,r1,#0x1                              
ram:0001c0f8    09d0            beq         LAB_0001c10e                            
ram:0001c0fa    2422            movs        r2,#0x24                                
ram:0001c0fc    4a43            muls        r2,r1                                   
ram:0001c0fe    1619            adds        r6,r2,r4                                
ram:0001c100    6b68            ldr         r3,[r5,#0x4]                            
ram:0001c102    7268            ldr         r2,[r6,#0x4]                            
ram:0001c104    9342            cmp         r3,r2                                   
ram:0001c106    04d8            bhi         LAB_0001c112                            
ram:0001c108    d21a            subs        r2,r2,r3                                
ram:0001c10a    7260            str         r2,[r6,#0x4]                            
ram:0001c10c    2962            str         r1,[r5,#0x20]                           
                            LAB_0001c10e:                 ;XREF[1,0]:   0001c0f8
ram:0001c10e    3861            str         param_1,[r7,#0x10]=>DAT_20002124        
ram:0001c110    f0bd            pop         {r4,r5,r6,r7,pc}                        
                            LAB_0001c112:                 ;XREF[1,0]:   0001c106
ram:0001c112    0a46            mov         r2,r1                                   
ram:0001c114    02e0            b           LAB_0001c11c                            
                            LAB_0001c116:                 ;XREF[1,0]:   0001c12a
ram:0001c116    0a46            mov         r2,r1                                   
ram:0001c118    396a            ldr         r1,[r7,#0x20]                           
ram:0001c11a    9b1b            subs        r3,r3,r6                                
                            LAB_0001c11c:                 ;XREF[1,0]:   0001c114
ram:0001c11c    4e1c            adds        r6,r1,#0x1                              
ram:0001c11e    0bd0            beq         LAB_0001c138                            
ram:0001c120    2426            movs        r6,#0x24                                
ram:0001c122    4e43            muls        r6,r1                                   
ram:0001c124    3719            adds        r7,r6,r4                                
ram:0001c126    7e68            ldr         r6,[r7,#0x4]                            
ram:0001c128    9e42            cmp         r6,r3                                   
ram:0001c12a    f4d3            bcc         LAB_0001c116                            
ram:0001c12c    2426            movs        r6,#0x24                                
ram:0001c12e    4e43            muls        r6,r1                                   
ram:0001c130    3619            adds        r6,r6,r4                                
ram:0001c132    7768            ldr         r7,[r6,#0x4]                            
ram:0001c134    ff1a            subs        r7,r7,r3                                
ram:0001c136    7760            str         r7,[r6,#0x4]                            
                            LAB_0001c138:                 ;XREF[1,0]:   0001c11e
ram:0001c138    6b60            str         r3,[r5,#0x4]                            
ram:0001c13a    2962            str         r1,[r5,#0x20]                           
ram:0001c13c    2421            movs        r1,#0x24                                
ram:0001c13e    4a43            muls        r2,r1                                   
ram:0001c140    1119            adds        r1,r2,r4                                
ram:0001c142    0862            str         param_1,[r1,#0x20]                      
ram:0001c144    f0bd            pop         {r4,r5,r6,r7,pc}                        
ram:0001c146    0000            movs        r0,r0                                   
                            DAT_0001c148:                 ;XREF[1,0]:   0001c0ea
ram:0001c148    14210020        undefined4  20002114h                               
                            ;************************************************************************************************
                            ;*                                           FUNCTION                                           *
                            ;************************************************************************************************
                            ;undefined FUN_0001c14c(int param_1)
          ;param_1       int                 r0                      
                                                          ;XREF[1,0]:   0001a922
ram:0001c14c    70b5            push        {r4,r5,r6,lr}                           
ram:0001c14e    194c            ldr         r4,[DAT_0001c1b4]                       ;= 20002114h
ram:0001c150    2269            ldr         r2,[r4,#0x10]=>DAT_20002124             
ram:0001c152    a568            ldr         r5,[r4,#0x8]=>DAT_2000211c              
ram:0001c154    1346            mov         r3,r2                                   
ram:0001c156    1146            mov         r1,r2                                   
ram:0001c158    06e0            b           LAB_0001c168                            
                            LAB_0001c15a:                 ;XREF[1,0]:   0001c16a
ram:0001c15a    8142            cmp         r1,param_1                              
ram:0001c15c    07d0            beq         LAB_0001c16e                            
ram:0001c15e    0a46            mov         r2,r1                                   
ram:0001c160    2426            movs        r6,#0x24                                
ram:0001c162    7143            muls        r1,r6                                   
ram:0001c164    4919            adds        r1,r1,r5                                
ram:0001c166    096a            ldr         r1,[r1,#0x20]                           
                            LAB_0001c168:                 ;XREF[1,0]:   0001c158
ram:0001c168    4e1c            adds        r6,r1,#0x1                              
ram:0001c16a    f6d1            bne         LAB_0001c15a                            
                            LAB_0001c16c:                 ;XREF[2,0]:   0001c170,0001c1a4
ram:0001c16c    70bd            pop         {r4,r5,r6,pc}                           
                            LAB_0001c16e:                 ;XREF[1,0]:   0001c15c
ram:0001c16e    002e            cmp         r6,#0x0                                 
ram:0001c170    fcd0            beq         LAB_0001c16c                            
ram:0001c172    8a42            cmp         r2,r1                                   
ram:0001c174    0cd1            bne         LAB_0001c190                            
ram:0001c176    2420            movs        param_1,#0x24                           
ram:0001c178    4343            muls        r3,param_1                              
ram:0001c17a    5819            adds        param_1,r3,r5                           
ram:0001c17c    006a            ldr         param_1,[param_1,#0x20]                 
ram:0001c17e    2061            str         param_1,[r4,#0x10]=>DAT_20002124        
ram:0001c180    401c            adds        param_1,param_1,#0x1                    
ram:0001c182    05d1            bne         LAB_0001c190                            
ram:0001c184    0c4b            ldr         r3,[DAT_0001c1b8]                       ;= 40011000h
ram:0001c186    0120            movs        param_1,#0x1                            
ram:0001c188    9860            str         param_1,[r3,#offset DAT_40011008 &0xff] 
ram:0001c18a    0023            movs        r3,#0x0                                 
ram:0001c18c    6361            str         r3,[r4,#0x14]=>DAT_20002128             
ram:0001c18e    6071            strb        param_1,[r4,#0x5]=>DAT_20002119         
                            LAB_0001c190:                 ;XREF[2,0]:   0001c174,0001c182
ram:0001c190    2420            movs        param_1,#0x24                           
ram:0001c192    4143            muls        r1,param_1                              
ram:0001c194    4819            adds        param_1,r1,r5                           
ram:0001c196    2423            movs        r3,#0x24                                
ram:0001c198    4168            ldr         r1,[param_1,#0x4]                       
ram:0001c19a    5a43            muls        r2,r3                                   
ram:0001c19c    006a            ldr         param_1,[param_1,#0x20]                 
ram:0001c19e    5219            adds        r2,r2,r5                                
ram:0001c1a0    1062            str         param_1,[r2,#0x20]                      
ram:0001c1a2    421c            adds        r2,param_1,#0x1                         
ram:0001c1a4    e2d0            beq         LAB_0001c16c                            
ram:0001c1a6    2422            movs        r2,#0x24                                
ram:0001c1a8    5043            muls        param_1,r2                              
ram:0001c1aa    4019            adds        param_1,param_1,r5                      
ram:0001c1ac    4268            ldr         r2,[param_1,#0x4]                       
ram:0001c1ae    5118            adds        r1,r2,r1                                
ram:0001c1b0    4160            str         r1,[param_1,#0x4]                       
ram:0001c1b2    70bd            pop         {r4,r5,r6,pc}                           
                            DAT_0001c1b4:                 ;XREF[1,0]:   0001c14e
ram:0001c1b4    14210020        undefined4  20002114h                               
                            DAT_0001c1b8:                 ;XREF[1,0]:   0001c184
ram:0001c1b8    00100140        undefined4  40011000h                               
                            ;************************************************************************************************
                            ;*                                           FUNCTION                                           *
                            ;************************************************************************************************
                            ;undefined FUN_0001c1bc(void)
                                                          ;XREF[1,0]:   0001871e
ram:0001c1bc    f8b5            push        {r3,r4,r5,r6,r7,lr}                     
ram:0001c1be    1d4c            ldr         r4,[DAT_0001c234]                       ;= 20002114h
ram:0001c1c0    2569            ldr         r5,[r4,#0x10]=>DAT_20002124             
ram:0001c1c2    681c            adds        r0,r5,#0x1                              
ram:0001c1c4    35d0            beq         LAB_0001c232                            
ram:0001c1c6    1c48            ldr         r0,[DAT_0001c238]                       ;= 40011500h
ram:0001c1c8    0026            movs        r6,#0x0                                 
ram:0001c1ca    4068            ldr         r0,[r0,#offset DAT_40011504 &0xff]      
ram:0001c1cc    6169            ldr         r1,[r4,#0x14]=>DAT_20002128             
ram:0001c1ce    401a            subs        r0,r0,r1                                
ram:0001c1d0    0702            lsls        r7,r0,#0x8                              
ram:0001c1d2    3f0a            lsrs        r7,r7,#0x8                              
ram:0001c1d4    19e0            b           LAB_0001c20a                            
                            LAB_0001c1d6:                 ;XREF[1,0]:   0001c20c
ram:0001c1d6    2420            movs        r0,#0x24                                
ram:0001c1d8    4543            muls        r5,r0                                   
ram:0001c1da    a068            ldr         r0,[r4,#0x8]=>DAT_2000211c              
ram:0001c1dc    2a18            adds        r2,r5,r0                                
ram:0001c1de    5068            ldr         r0,[r2,#0x4]                            
ram:0001c1e0    b842            cmp         r0,r7                                   
ram:0001c1e2    14d8            bhi         LAB_0001c20e                            
ram:0001c1e4    a369            ldr         r3,[r4,#0x18]=>DAT_2000212c             
ram:0001c1e6    3f1a            subs        r7,r7,r0                                
ram:0001c1e8    8619            adds        r6,r0,r6                                
ram:0001c1ea    156a            ldr         r5,[r2,#0x20]                           
ram:0001c1ec    002b            cmp         r3,#0x0                                 
ram:0001c1ee    09d0            beq         LAB_0001c204                            
ram:0001c1f0    d169            ldr         r1,[r2,#0x1c]                           
ram:0001c1f2    9069            ldr         r0,[r2,#0x18]                           
ram:0001c1f4    9847            blx         r3                                      
ram:0001c1f6    0028            cmp         r0,#0x0                                 
ram:0001c1f8    07d0            beq         LAB_0001c20a                            
ram:0001c1fa    0022            movs        r2,#0x0                                 
ram:0001c1fc    1146            mov         r1,r2                                   
ram:0001c1fe    fcf743fd        bl          FUN_00018c88                            ;undefined FUN_00018c88(void)
ram:0001c202    02e0            b           LAB_0001c20a                            
                            LAB_0001c204:                 ;XREF[1,0]:   0001c1ee
ram:0001c204    9169            ldr         r1,[r2,#0x18]                           
ram:0001c206    d069            ldr         r0,[r2,#0x1c]                           
ram:0001c208    8847            blx         r1                                      
                            LAB_0001c20a:                 ;XREF[3,0]:   0001c1d4,0001c1f8,0001c202
ram:0001c20a    681c            adds        r0,r5,#0x1                              
ram:0001c20c    e3d1            bne         LAB_0001c1d6                            
                            LAB_0001c20e:                 ;XREF[1,0]:   0001c1e2
ram:0001c20e    a178            ldrb        r1,[r4,#0x2]=>DAT_20002116              
ram:0001c210    e078            ldrb        r0,[r4,#0x3]=>DAT_20002117              
ram:0001c212    8142            cmp         r1,r0                                   
ram:0001c214    06d1            bne         LAB_0001c224                            
ram:0001c216    401c            adds        r0,r0,#0x1                              
ram:0001c218    c0b2            uxtb        r0,r0                                   
ram:0001c21a    e070            strb        r0,[r4,#0x3]=>DAT_20002117              
ram:0001c21c    0228            cmp         r0,#0x2                                 
ram:0001c21e    01d1            bne         LAB_0001c224                            
ram:0001c220    0020            movs        r0,#0x0                                 
ram:0001c222    e070            strb        r0,[r4,#0x3]=>DAT_20002117              
                            LAB_0001c224:                 ;XREF[2,0]:   0001c214,0001c21e
ram:0001c224    0349            ldr         r1,[DAT_0001c234]                       ;= 20002114h
ram:0001c226    0006            lsls        r0,r0,#0x18                             
ram:0001c228    800d            lsrs        r0,r0,#0x16                             
ram:0001c22a    1c31            adds        r1=>DAT_20002130,#0x1c                  
ram:0001c22c    0e50            str         r6,[r1,r0]=>DAT_20002130                
ram:0001c22e    fff753ff        bl          FUN_0001c0d8                            ;undefined FUN_0001c0d8(void)
                            LAB_0001c232:                 ;XREF[1,0]:   0001c1c4
ram:0001c232    f8bd            pop         {r3,r4,r5,r6,r7,pc}                     
                            DAT_0001c234:                 ;XREF[2,0]:   0001c1be,0001c224
ram:0001c234    14210020        undefined4  20002114h                               
                            DAT_0001c238:                 ;XREF[1,0]:   0001c1c6
ram:0001c238    00150140        undefined4  40011500h                               
                            ;************************************************************************************************
                            ;*                                           FUNCTION                                           *
                            ;************************************************************************************************
                            ;undefined FUN_0001c23c(void)
          ;local_8       undefined4          -8                      ;XREF[1,0]:   0001c240
                                                          ;XREF[1,0]:   0001aac4
ram:0001c23c    08b5            push        {r3,lr}                                 
ram:0001c23e    2548            ldr         r0,[PTR_LAB_00019120+1+1_0001c2d4]      ;= 00019121
ram:0001c240    0090            str         r0=>LAB_00019120+1+1,[sp,#0x0]=>local_8 
ram:0001c242    254b            ldr         r3,[DAT_0001c2d8]                       ;= 2000215Ch
ram:0001c244    0522            movs        r2,#0x5                                 
ram:0001c246    0921            movs        r1,#0x9                                 
ram:0001c248    0820            movs        r0,#0x8                                 
ram:0001c24a    fcf775ff        bl          FUN_00019138                            ;undefined4 FUN_00019138(undefined4 p...
ram:0001c24e    0028            cmp         r0,#0x0                                 
ram:0001c250    03d0            beq         LAB_0001c25a                            
ram:0001c252    0022            movs        r2,#0x0                                 
ram:0001c254    1146            mov         r1,r2                                   
ram:0001c256    fcf717fd        bl          FUN_00018c88                            ;undefined FUN_00018c88(void)
                            LAB_0001c25a:                 ;XREF[1,0]:   0001c250
ram:0001c25a    204a            ldr         r2=>LAB_0001be74...,[PTR_LAB_0001be74...;= 0001be75
ram:0001c25c    0121            movs        r1,#0x1                                 
ram:0001c25e    2048            ldr         r0=>DAT_20002010,[DAT_0001c2e0]         ;= 20002010h
ram:0001c260    fcf72aff        bl          FUN_000190b8                            ;undefined4 FUN_000190b8(int * param_...
ram:0001c264    0028            cmp         r0,#0x0                                 
ram:0001c266    03d0            beq         LAB_0001c270                            
ram:0001c268    0022            movs        r2,#0x0                                 
ram:0001c26a    1146            mov         r1,r2                                   
ram:0001c26c    fcf70cfd        bl          FUN_00018c88                            ;undefined FUN_00018c88(void)
                            LAB_0001c270:                 ;XREF[1,0]:   0001c266
ram:0001c270    1b48            ldr         r0,[DAT_0001c2e0]                       ;= 20002010h
ram:0001c272    1c4a            ldr         r2,[DAT_0001c2e4]                       ;= 0001AA5Dh
ram:0001c274    0121            movs        r1,#0x1                                 
ram:0001c276    001d            adds        r0=>DAT_20002014,r0,#0x4                
ram:0001c278    fcf71eff        bl          FUN_000190b8                            ;undefined4 FUN_000190b8(int * param_...
ram:0001c27c    0028            cmp         r0,#0x0                                 
ram:0001c27e    03d0            beq         LAB_0001c288                            
ram:0001c280    0022            movs        r2,#0x0                                 
ram:0001c282    1146            mov         r1,r2                                   
ram:0001c284    fcf700fd        bl          FUN_00018c88                            ;undefined FUN_00018c88(void)
                            LAB_0001c288:                 ;XREF[1,0]:   0001c27e
ram:0001c288    1548            ldr         r0,[DAT_0001c2e0]                       ;= 20002010h
ram:0001c28a    174a            ldr         r2=>FUN_00019f04+1,[PTR_FUN_00019f04+...;= 00019f05
ram:0001c28c    0121            movs        r1,#0x1                                 
ram:0001c28e    0830            adds        r0=>DAT_20002018,#0x8                   
ram:0001c290    fcf712ff        bl          FUN_000190b8                            ;undefined4 FUN_000190b8(int * param_...
ram:0001c294    0028            cmp         r0,#0x0                                 
ram:0001c296    03d0            beq         LAB_0001c2a0                            
ram:0001c298    0022            movs        r2,#0x0                                 
ram:0001c29a    1146            mov         r1,r2                                   
ram:0001c29c    fcf7f4fc        bl          FUN_00018c88                            ;undefined FUN_00018c88(void)
                            LAB_0001c2a0:                 ;XREF[1,0]:   0001c296
ram:0001c2a0    0f48            ldr         r0,[DAT_0001c2e0]                       ;= 20002010h
ram:0001c2a2    124a            ldr         r2=>LAB_00019458...,[PTR_LAB_00019458...;= 00019459
ram:0001c2a4    0121            movs        r1,#0x1                                 
ram:0001c2a6    0c30            adds        r0=>DAT_2000201c,#0xc                   
ram:0001c2a8    fcf706ff        bl          FUN_000190b8                            ;undefined4 FUN_000190b8(int * param_...
ram:0001c2ac    0028            cmp         r0,#0x0                                 
ram:0001c2ae    03d0            beq         LAB_0001c2b8                            
ram:0001c2b0    0022            movs        r2,#0x0                                 
ram:0001c2b2    1146            mov         r1,r2                                   
ram:0001c2b4    fcf7e8fc        bl          FUN_00018c88                            ;undefined FUN_00018c88(void)
                            LAB_0001c2b8:                 ;XREF[1,0]:   0001c2ae
ram:0001c2b8    0948            ldr         r0,[DAT_0001c2e0]                       ;= 20002010h
ram:0001c2ba    0d4a            ldr         r2,[DAT_0001c2f0]                       ;= 0001A60Dh
ram:0001c2bc    0121            movs        r1,#0x1                                 
ram:0001c2be    1830            adds        r0=>DAT_20002028,#0x18                  
ram:0001c2c0    fcf7fafe        bl          FUN_000190b8                            ;undefined4 FUN_000190b8(int * param_...
ram:0001c2c4    0028            cmp         r0,#0x0                                 
ram:0001c2c6    03d0            beq         LAB_0001c2d0                            
ram:0001c2c8    0022            movs        r2,#0x0                                 
ram:0001c2ca    1146            mov         r1,r2                                   
ram:0001c2cc    fcf7dcfc        bl          FUN_00018c88                            ;undefined FUN_00018c88(void)
                            LAB_0001c2d0:                 ;XREF[1,0]:   0001c2c6
ram:0001c2d0    08bd            pop         {r3,pc}                                 
ram:0001c2d2    0000            movs        r0,r0                                   
                            PTR_LAB_00019120+1+1_0001c2d4:;XREF[1,0]:   0001c23e
ram:0001c2d4    21910100        addr        LAB_00019120+1+1                        
                            DAT_0001c2d8:                 ;XREF[1,0]:   0001c242
ram:0001c2d8    5c210020        undefined4  2000215Ch                               
                            PTR_LAB_0001be74+1+1_0001c2dc:;XREF[1,0]:   0001c25a
ram:0001c2dc    75be0100        addr        LAB_0001be74+1+1                        
                            DAT_0001c2e0:                 ;XREF[5,0]:   0001c25e,0001c270,0001c288,0001c2a0
                                                          ;             0001c2b8
ram:0001c2e0    10200020        undefined4  20002010h                               
                            DAT_0001c2e4:                 ;XREF[1,0]:   0001c272
ram:0001c2e4    5daa0100        undefined4  0001AA5Dh                               ;?  ->  0001aa5d
                            PTR_FUN_00019f04+1_0001c2e8:  ;XREF[1,0]:   0001c28a
ram:0001c2e8    059f0100        addr        FUN_00019f04+1                          
                            PTR_LAB_00019458+1+1_0001c2ec:;XREF[1,0]:   0001c2a2
ram:0001c2ec    59940100        addr        LAB_00019458+1+1                        
                            DAT_0001c2f0:                 ;XREF[1,0]:   0001c2ba
ram:0001c2f0    0da60100        undefined4  0001A60Dh                               ;?  ->  0001a60d
                            ;************************************************************************************************
                            ;*                                           FUNCTION                                           *
                            ;************************************************************************************************
                            ;undefined8 FUN_0001c2f4(int param_1, uint param_2, undefined4 param_3, undefined4 param_4)
          ;param_1       int                 r0                      
          ;param_2       uint                r1                      
          ;param_3       undefined4          r2                      
          ;param_4       undefined4          r3                      
          ;local_1c      undefined4         -1c                      ;XREF[1,0]:   0001c310
          ;local_20      undefined4         -20                      ;XREF[1,0]:   0001c312
                                                          ;XREF[2,0]:   00018aee,0001b8de
ram:0001c2f4    feb5            push        {param_2,param_3,param_4,r4,r5,r6,r7,lr}
ram:0001c2f6    0025            movs        r5,#0x0                                 
ram:0001c2f8    0746            mov         r7,param_1                              
ram:0001c2fa    2c46            mov         r4,r5                                   
ram:0001c2fc    0126            movs        r6,#0x1                                 
                            LAB_0001c2fe:                 ;XREF[1,0]:   0001c328
ram:0001c2fe    6006            lsls        param_1,r4,#0x19                        
ram:0001c300    000e            lsrs        param_1,param_1,#0x18                   
ram:0001c302    8100            lsls        param_2,param_1,#0x2                    
ram:0001c304    4018            adds        param_1,param_1,param_2                 
ram:0001c306    c119            adds        param_2,param_1,r7                      
ram:0001c308    0522            movs        param_3,#0x5                            
ram:0001c30a    6846            mov         param_1,sp                              
ram:0001c30c    fbf756ff        bl          FUN_000181bc                            ;undefined FUN_000181bc(undefined4 * ...
ram:0001c310    0199            ldr         param_2,[sp,#local_1c+0x20]             
ram:0001c312    0098            ldr         param_1,[sp,#0x0]=>local_20             
ram:0001c314    00f000f9        bl          FUN_0001c518                            ;undefined4 FUN_0001c518(uint param_1)
ram:0001c318    0028            cmp         param_1,#0x0                            
ram:0001c31a    03d0            beq         LAB_0001c324                            
ram:0001c31c    3046            mov         param_1,r6                              
ram:0001c31e    a040            lsls        param_1,r4                              
ram:0001c320    2843            orrs        param_1,r5                              
ram:0001c322    c5b2            uxtb        r5,param_1                              
                            LAB_0001c324:                 ;XREF[1,0]:   0001c31a
ram:0001c324    641c            adds        r4,r4,#0x1                              
ram:0001c326    032c            cmp         r4,#0x3                                 
ram:0001c328    e9db            blt         LAB_0001c2fe                            
ram:0001c32a    2846            mov         param_1,r5                              
ram:0001c32c    febd            pop         {param_2,param_3,param_4,r4,r5,r6,r7,pc}
                            ;************************************************************************************************
                            ;*                                           FUNCTION                                           *
                            ;************************************************************************************************
                            ;undefined4 FUN_0001c32e(undefined4 param_1, undefined * param_2)
          ;param_1       undefined4          r0                      
          ;param_2       undefined *         r1                      
                                                          ;XREF[5,0]:   000189cc,00019e70,00019e80,0001ae06
                                                          ;             0001ba34
ram:0001c32e    0870            strb        param_1,[param_2,#0x0]                  
ram:0001c330    000a            lsrs        param_1,param_1,#0x8                    
ram:0001c332    4870            strb        param_1,[param_2,#0x1]                  
ram:0001c334    0220            movs        param_1,#0x2                            
ram:0001c336    7047            bx          lr                                      
                            ;************************************************************************************************
                            ;*                                           FUNCTION                                           *
                            ;************************************************************************************************
                            ;undefined FUN_0001c338(byte * param_1)
          ;param_1       byte *              r0                      
                                                          ;XREF[1,0]:   0001be7c
ram:0001c338    8178            ldrb        r1,[param_1,#0x2]                       
ram:0001c33a    491c            adds        r1,r1,#0x1                              
ram:0001c33c    c9b2            uxtb        r1,r1                                   
ram:0001c33e    8170            strb        r1,[param_1,#0x2]                       
ram:0001c340    3c29            cmp         r1,#0x3c                                
ram:0001c342    16d3            bcc         LAB_0001c372                            
ram:0001c344    0021            movs        r1,#0x0                                 
ram:0001c346    8170            strb        r1,[param_1,#0x2]                       
ram:0001c348    4278            ldrb        r2,[param_1,#0x1]                       
ram:0001c34a    521c            adds        r2,r2,#0x1                              
ram:0001c34c    d2b2            uxtb        r2,r2                                   
ram:0001c34e    4270            strb        r2,[param_1,#0x1]                       
ram:0001c350    182a            cmp         r2,#0x18                                
ram:0001c352    0ed3            bcc         LAB_0001c372                            
ram:0001c354    4170            strb        r1,[param_1,#0x1]                       
ram:0001c356    0278            ldrb        r2,[param_1,#0x0]                       
ram:0001c358    521c            adds        r2,r2,#0x1                              
ram:0001c35a    d2b2            uxtb        r2,r2                                   
ram:0001c35c    0270            strb        r2,[param_1,#0x0]                       
ram:0001c35e    072a            cmp         r2,#0x7                                 
ram:0001c360    00d3            bcc         LAB_0001c364                            
ram:0001c362    0170            strb        r1,[param_1,#0x0]                       
                            LAB_0001c364:                 ;XREF[1,0]:   0001c360
ram:0001c364    c178            ldrb        r1,[param_1,#0x3]                       
ram:0001c366    c906            lsls        r1,r1,#0x1b                             
ram:0001c368    c90e            lsrs        r1,r1,#0x1b                             
ram:0001c36a    0e29            cmp         r1,#0xe                                 
ram:0001c36c    01d2            bcs         LAB_0001c372                            
ram:0001c36e    491c            adds        r1,r1,#0x1                              
ram:0001c370    c170            strb        r1,[param_1,#0x3]                       
                            LAB_0001c372:                 ;XREF[3,0]:   0001c342,0001c352,0001c36c
ram:0001c372    7047            bx          lr                                      
                            ;************************************************************************************************
                            ;*                                           FUNCTION                                           *
                            ;************************************************************************************************
                            ;undefined FUN_0001c374(void)
          ;local_10      undefined1         -10                      ;XREF[1,0]:   0001c3c4
                                                          ;XREF[0,2]:   00019624,00019638
ram:0001c374    38b5            push        {r3,r4,r5,lr}                           
ram:0001c376    1549            ldr         r1,[DAT_0001c3cc]                       ;= 2000208Ch
ram:0001c378    154a            ldr         r2,[DAT_0001c3d0]                       ;= 0000FFFFh
ram:0001c37a    4888            ldrh        r0,[r1,#0x2]=>DAT_2000208e              
ram:0001c37c    9042            cmp         r0,r2                                   
ram:0001c37e    0fd0            beq         LAB_0001c3a0                            
ram:0001c380    4a78            ldrb        r2,[r1,#0x1]=>DAT_2000208d              
ram:0001c382    144c            ldr         r4,[DAT_0001c3d4]                       ;= 200026A8h
ram:0001c384    521c            adds        r2,r2,#0x1                              
ram:0001c386    d2b2            uxtb        r2,r2                                   
ram:0001c388    4a70            strb        r2,[r1,#0x1]=>DAT_2000208d              
ram:0001c38a    237b            ldrb        r3,[r4,#0xc]=>DAT_200026b4              
ram:0001c38c    9342            cmp         r3,r2                                   
ram:0001c38e    08d3            bcc         LAB_0001c3a2                            
ram:0001c390    0831            adds        r1,#0x8                                 
ram:0001c392    75df            svc         0x75                                    
ram:0001c394    0028            cmp         r0,#0x0                                 
ram:0001c396    03d0            beq         LAB_0001c3a0                            
ram:0001c398    a169            ldr         r1,[r4,#0x18]=>DAT_200026c0             
ram:0001c39a    0029            cmp         r1,#0x0                                 
ram:0001c39c    00d0            beq         LAB_0001c3a0                            
ram:0001c39e    8847            blx         r1                                      
                            LAB_0001c3a0:                 ;XREF[4,0]:   0001c37e,0001c396,0001c39c,0001c3c0
ram:0001c3a0    38bd            pop         {r3,r4,r5,pc}                           
                            LAB_0001c3a2:                 ;XREF[1,0]:   0001c38e
ram:0001c3a2    0025            movs        r5,#0x0                                 
ram:0001c3a4    4d70            strb        r5,[r1,#0x1]=>DAT_2000208d              
ram:0001c3a6    217c            ldrb        r1,[r4,#0x10]=>DAT_200026b8             
ram:0001c3a8    0029            cmp         r1,#0x0                                 
ram:0001c3aa    07d0            beq         LAB_0001c3bc                            
ram:0001c3ac    3b21            movs        r1,#0x3b                                
ram:0001c3ae    76df            svc         0x76                                    
ram:0001c3b0    0028            cmp         r0,#0x0                                 
ram:0001c3b2    03d0            beq         LAB_0001c3bc                            
ram:0001c3b4    a169            ldr         r1,[r4,#0x18]=>DAT_200026c0             
ram:0001c3b6    0029            cmp         r1,#0x0                                 
ram:0001c3b8    00d0            beq         LAB_0001c3bc                            
ram:0001c3ba    8847            blx         r1                                      
                            LAB_0001c3bc:                 ;XREF[3,0]:   0001c3aa,0001c3b2,0001c3b8
ram:0001c3bc    6169            ldr         r1,[r4,#0x14]=>DAT_200026bc             
ram:0001c3be    0029            cmp         r1,#0x0                                 
ram:0001c3c0    eed0            beq         LAB_0001c3a0                            
ram:0001c3c2    6846            mov         r0,sp                                   
ram:0001c3c4    0570            strb        r5,[r0,#0x0]=>local_10                  
ram:0001c3c6    8847            blx         r1                                      
ram:0001c3c8    38bd            pop         {r3,r4,r5,pc}                           
ram:0001c3ca    0000            movs        r0,r0                                   
                            DAT_0001c3cc:                 ;XREF[1,0]:   0001c376
ram:0001c3cc    8c200020        undefined4  2000208Ch                               
                            DAT_0001c3d0:                 ;XREF[1,0]:   0001c378
ram:0001c3d0    ffff0000        undefined4  0000FFFFh                               
                            DAT_0001c3d4:                 ;XREF[1,0]:   0001c382
ram:0001c3d4    a8260020        undefined4  200026A8h                               
                            ;************************************************************************************************
                            ;*                                           FUNCTION                                           *
                            ;************************************************************************************************
                            ;undefined4 FUN_0001c3d8(void)
                                                          ;XREF[2,0]:   00019224,00019294
ram:0001c3d8    1249            ldr         r1,[DAT_0001c424]                       ;= E000ED00h
ram:0001c3da    4868            ldr         r0,[r1,#offset DAT_e000ed04 &0xff]      
ram:0001c3dc    c005            lsls        r0,r0,#0x17                             
ram:0001c3de    c00d            lsrs        r0,r0,#0x17                             
ram:0001c3e0    19d0            beq         LAB_0001c416                            
ram:0001c3e2    1038            subs        r0,#0x10                                
ram:0001c3e4    40b2            sxtb        r0,r0                                   
ram:0001c3e6    0028            cmp         r0,#0x0                                 
ram:0001c3e8    07da            bge         LAB_0001c3fa                            
ram:0001c3ea    0207            lsls        r2,r0,#0x1c                             
ram:0001c3ec    120f            lsrs        r2,r2,#0x1c                             
ram:0001c3ee    083a            subs        r2,#0x8                                 
ram:0001c3f0    9208            lsrs        r2,r2,#0x2                              
ram:0001c3f2    9200            lsls        r2,r2,#0x2                              
ram:0001c3f4    5118            adds        r1,r2,r1                                
ram:0001c3f6    c969            ldr         r1,[r1,#0x1c]                           
ram:0001c3f8    04e0            b           LAB_0001c404                            
                            LAB_0001c3fa:                 ;XREF[1,0]:   0001c3e8
ram:0001c3fa    8108            lsrs        r1,r0,#0x2                              
ram:0001c3fc    0a4a            ldr         r2,[DAT_0001c428]                       ;= E000E400h
ram:0001c3fe    8900            lsls        r1,r1,#0x2                              
ram:0001c400    8918            adds        r1,r1,r2                                
ram:0001c402    0968            ldr         r1,[r1,#0x0]                            
                            LAB_0001c404:                 ;XREF[1,0]:   0001c3f8
ram:0001c404    8007            lsls        r0,r0,#0x1e                             
ram:0001c406    c00e            lsrs        r0,r0,#0x1b                             
ram:0001c408    c140            lsrs        r1,r0                                   
ram:0001c40a    0806            lsls        r0,r1,#0x18                             
ram:0001c40c    800f            lsrs        r0,r0,#0x1e                             
ram:0001c40e    0128            cmp         r0,#0x1                                 
ram:0001c410    03d0            beq         LAB_0001c41a                            
ram:0001c412    0328            cmp         r0,#0x3                                 
ram:0001c414    03d0            beq         LAB_0001c41e                            
                            LAB_0001c416:                 ;XREF[1,0]:   0001c3e0
ram:0001c416    0220            movs        r0,#0x2                                 
ram:0001c418    7047            bx          lr                                      
                            LAB_0001c41a:                 ;XREF[1,0]:   0001c410
ram:0001c41a    0020            movs        r0,#0x0                                 
ram:0001c41c    7047            bx          lr                                      
                            LAB_0001c41e:                 ;XREF[1,0]:   0001c414
ram:0001c41e    0120            movs        r0,#0x1                                 
ram:0001c420    7047            bx          lr                                      
ram:0001c422    0000            movs        r0,r0                                   
                            DAT_0001c424:                 ;XREF[1,0]:   0001c3d8
ram:0001c424    00ed00e0        undefined4  E000ED00h                               
                            DAT_0001c428:                 ;XREF[1,0]:   0001c3fc
ram:0001c428    00e400e0        undefined4  E000E400h                               
                            ;************************************************************************************************
                            ;*                                           FUNCTION                                           *
                            ;************************************************************************************************
                            ;int FUN_0001c42c(byte * param_1, uint * param_2)
          ;param_1       byte *              r0                      
          ;param_2       uint *              r1                      
                                                          ;XREF[2,0]:   00019234,000192a0
ram:0001c42c    4278            ldrb        r2,[param_1,#0x1]                       
ram:0001c42e    8378            ldrb        r3,[param_1,#0x2]                       
ram:0001c430    521c            adds        r2,r2,#0x1                              
ram:0001c432    9342            cmp         r3,r2                                   
ram:0001c434    00d1            bne         LAB_0001c438                            
ram:0001c436    0022            movs        r2,#0x0                                 
                            LAB_0001c438:                 ;XREF[1,0]:   0001c434
ram:0001c438    0378            ldrb        r3,[param_1,#0x0]                       
ram:0001c43a    9342            cmp         r3,r2                                   
ram:0001c43c    01d1            bne         LAB_0001c442                            
ram:0001c43e    0020            movs        param_1,#0x0                            
ram:0001c440    7047            bx          lr                                      
                            LAB_0001c442:                 ;XREF[1,0]:   0001c43c
ram:0001c442    0a60            str         r2,[param_2,#0x0]                       
ram:0001c444    4168            ldr         param_2,[param_1,#0x4]                  
ram:0001c446    4078            ldrb        param_1,[param_1,#0x1]                  
ram:0001c448    1822            movs        r2,#0x18                                
ram:0001c44a    5043            muls        param_1,r2                              
ram:0001c44c    0818            adds        param_1,param_2,param_1                 
ram:0001c44e    7047            bx          lr                                      
                            ;************************************************************************************************
                            ;*                                           FUNCTION                                           *
                            ;************************************************************************************************
                            ;undefined8 FUN_0001c450(ushort * param_1, undefined * param_2, undefined * param_3, undefined * param_4, byte * param_5)
          ;param_1       ushort *            r0                      
          ;param_2       undefined *         r1                      
          ;param_3       undefined *         r2                      
          ;param_4       undefined *         r3                      
          ;param_5       byte *               0                      ;XREF[1,0]:   0001c454
          ;local_18      undefined4         -18                      ;XREF[2,0]:   0001c45c,0001c46e
                                                          ;XREF[3,0]:   00018a44,00018a5e,00018a78
ram:0001c450    f8b5            push        {param_4,r4,r5,r6,r7,lr}                
ram:0001c452    1546            mov         r5,param_3                              
ram:0001c454    069c            ldr         r4,[sp,#param_5+0x18]                   
ram:0001c456    1e46            mov         r6,param_4                              
ram:0001c458    0746            mov         r7,param_1                              
ram:0001c45a    0222            movs        param_3,#0x2                            
ram:0001c45c    0094            str         r4,[sp,#0x0]=>local_18                  
ram:0001c45e    00f00af8        bl          FUN_0001c476                            ;undefined8 FUN_0001c476(ushort * par...
ram:0001c462    0028            cmp         param_1,#0x0                            
ram:0001c464    06d1            bne         LAB_0001c474                            
ram:0001c466    3346            mov         param_4,r6                              
ram:0001c468    1022            movs        param_3,#0x10                           
ram:0001c46a    2946            mov         param_2,r5                              
ram:0001c46c    3846            mov         param_1,r7                              
ram:0001c46e    0094            str         r4,[sp,#0x0]=>local_18                  
ram:0001c470    00f001f8        bl          FUN_0001c476                            ;undefined8 FUN_0001c476(ushort * par...
                            LAB_0001c474:                 ;XREF[1,0]:   0001c464
ram:0001c474    f8bd            pop         {param_4,r4,r5,r6,r7,pc}                
                            ;************************************************************************************************
                            ;*                                           FUNCTION                                           *
                            ;************************************************************************************************
                            ;undefined8 FUN_0001c476(ushort * param_1, undefined * param_2, uint param_3, undefined * param_4, byte * param_5)
          ;param_1       ushort *            r0                      
          ;param_2       undefined *         r1                      
          ;param_3       uint                r2                      
          ;param_4       undefined *         r3                      
          ;param_5       byte *               0                      ;XREF[1,0]:   0001c47e
          ;local_18      undefined4         -18                      ;XREF[3,0]:   0001c4d6,0001c4e4,0001c50c
          ;local_1c      undefined4         -1c                      ;XREF[1,0]:   0001c4a8
          ;local_20      undefined4         -20                      ;XREF[1,0]:   0001c4d8
          ;local_2a      undefined2         -2a                      ;XREF[1,0]:   0001c496
          ;local_2c      undefined2         -2c                      ;XREF[1,0]:   0001c492
          ;local_30      undefined1         -30                      ;XREF[2,0]:   0001c4a6,0001c4f6
                                                          ;XREF[2,0]:   0001c45e,0001c470
ram:0001c476    ffb5            push        {param_1,param_2,param_3,param_4,r4,r...
ram:0001c478    83b0            sub         sp,#0xc                                 
ram:0001c47a    0746            mov         r7,param_1                              
ram:0001c47c    0020            movs        param_1,#0x0                            
ram:0001c47e    0c9c            ldr         r4,[sp,#param_5+0x30]                   
ram:0001c480    8646            mov         lr,param_1                              
ram:0001c482    2678            ldrb        r6,[r4,#0x0]                            
ram:0001c484    0546            mov         r5,param_1                              
ram:0001c486    3ae0            b           LAB_0001c4fe                            
                            LAB_0001c488:                 ;XREF[1,0]:   0001c502
ram:0001c488    7868            ldr         param_1,[r7,#0x4]                       
ram:0001c48a    a900            lsls        param_2,r5,#0x2                         
ram:0001c48c    4118            adds        param_2,param_1,param_2                 
ram:0001c48e    0a88            ldrh        param_3,[param_2,#0x0]                  
ram:0001c490    6846            mov         param_1,sp                              
ram:0001c492    8280            strh        param_3,[r0,#local_2c+0x30]             
ram:0001c494    4988            ldrh        param_2,[param_2,#0x2]                  
ram:0001c496    c180            strh        param_2,[r0,#local_2a+0x30]             
ram:0001c498    0022            movs        param_3,#0x0                            
ram:0001c49a    6946            mov         param_2,sp                              
ram:0001c49c    01a8            add         param_1,sp,#0x4                         
ram:0001c49e    65df            svc         0x65                                    
ram:0001c4a0    0028            cmp         param_1,#0x0                            
ram:0001c4a2    10d1            bne         LAB_0001c4c6                            
ram:0001c4a4    6846            mov         param_1,sp                              
ram:0001c4a6    0178            ldrb        param_2=>local_30,[param_1,#0x0]        
ram:0001c4a8    0598            ldr         param_1,[sp,#local_1c+0x30]             
ram:0001c4aa    8142            cmp         param_2,param_1                         
ram:0001c4ac    26d1            bne         LAB_0001c4fc                            
ram:0001c4ae    7046            mov         param_1,lr                              
ram:0001c4b0    0028            cmp         param_1,#0x0                            
ram:0001c4b2    01d0            beq         LAB_0001c4b8                            
ram:0001c4b4    0022            movs        param_3,#0x0                            
ram:0001c4b6    00e0            b           LAB_0001c4ba                            
                            LAB_0001c4b8:                 ;XREF[1,0]:   0001c4b2
ram:0001c4b8    0222            movs        param_3,#0x2                            
                            LAB_0001c4ba:                 ;XREF[1,0]:   0001c4b6
ram:0001c4ba    2078            ldrb        param_1,[r4,#0x0]                       
ram:0001c4bc    8918            adds        param_2,param_2,param_3                 
ram:0001c4be    4118            adds        param_2,param_1,param_2                 
ram:0001c4c0    1f29            cmp         param_2,#0x1f                           
ram:0001c4c2    02d9            bls         LAB_0001c4ca                            
ram:0001c4c4    0c20            movs        param_1,#0xc                            
                            LAB_0001c4c6:                 ;XREF[3,0]:   0001c4a2,0001c4f0,0001c516
ram:0001c4c6    07b0            add         sp,#0x1c                                
ram:0001c4c8    f0bd            pop         {r4,r5,r6,r7,pc}                        
                            LAB_0001c4ca:                 ;XREF[1,0]:   0001c4c2
ram:0001c4ca    7146            mov         param_2,lr                              
ram:0001c4cc    0029            cmp         param_2,#0x0                            
ram:0001c4ce    08d1            bne         LAB_0001c4e2                            
ram:0001c4d0    401c            adds        param_1,param_1,#0x1                    
ram:0001c4d2    c0b2            uxtb        param_1,param_1                         
ram:0001c4d4    411c            adds        param_2,param_1,#0x1                    
ram:0001c4d6    069b            ldr         param_4,[sp,#local_18+0x30]             
ram:0001c4d8    049a            ldr         param_3,[sp,#local_20+0x30]             
ram:0001c4da    2170            strb        param_2,[r4,#0x0]                       
ram:0001c4dc    1a54            strb        param_3,[param_4,param_1]               
ram:0001c4de    0120            movs        param_1,#0x1                            
ram:0001c4e0    8646            mov         lr,param_1                              
                            LAB_0001c4e2:                 ;XREF[1,0]:   0001c4ce
ram:0001c4e2    2178            ldrb        param_2,[r4,#0x0]                       
ram:0001c4e4    0698            ldr         param_1,[sp,#local_18+0x30]             
ram:0001c4e6    0a18            adds        param_3,param_2,param_1                 
ram:0001c4e8    6946            mov         param_2,sp                              
ram:0001c4ea    01a8            add         param_1,sp,#0x4                         
ram:0001c4ec    65df            svc         0x65                                    
ram:0001c4ee    0028            cmp         param_1,#0x0                            
ram:0001c4f0    e9d1            bne         LAB_0001c4c6                            
ram:0001c4f2    6946            mov         param_2,sp                              
ram:0001c4f4    2078            ldrb        param_1,[r4,#0x0]                       
ram:0001c4f6    0978            ldrb        param_2=>local_30,[param_2,#0x0]        
ram:0001c4f8    4018            adds        param_1,param_1,param_2                 
ram:0001c4fa    2070            strb        param_1,[r4,#0x0]                       
                            LAB_0001c4fc:                 ;XREF[1,0]:   0001c4ac
ram:0001c4fc    6d1c            adds        r5,r5,#0x1                              
                            LAB_0001c4fe:                 ;XREF[1,0]:   0001c486
ram:0001c4fe    3888            ldrh        param_1,[r7,#0x0]                       
ram:0001c500    a842            cmp         param_1,r5                              
ram:0001c502    c1dc            bgt         LAB_0001c488                            
ram:0001c504    7046            mov         param_1,lr                              
ram:0001c506    0028            cmp         param_1,#0x0                            
ram:0001c508    04d0            beq         LAB_0001c514                            
ram:0001c50a    2078            ldrb        param_1,[r4,#0x0]                       
ram:0001c50c    0699            ldr         param_2,[sp,#local_18+0x30]             
ram:0001c50e    801b            subs        param_1,param_1,r6                      
ram:0001c510    401e            subs        param_1,param_1,#0x1                    
ram:0001c512    8855            strb        param_1,[param_2,r6]                    
                            LAB_0001c514:                 ;XREF[1,0]:   0001c508
ram:0001c514    0020            movs        param_1,#0x0                            
ram:0001c516    d6e7            b           LAB_0001c4c6                            
                            ;************************************************************************************************
                            ;*                                           FUNCTION                                           *
                            ;************************************************************************************************
                            ;undefined4 FUN_0001c518(uint param_1)
          ;param_1       uint                r0                      
          ;local_9       undefined1          -9                      ;XREF[1,0]:   0001c53c
          ;local_a       undefined1          -a                      ;XREF[1,0]:   0001c534
          ;local_b       undefined1          -b                      ;XREF[1,0]:   0001c528
          ;local_c       undefined1          -c                      ;XREF[1,0]:   0001c51c
                                                          ;XREF[4,0]:   0001a014,0001b83c,0001b89a,0001c314
ram:0001c518    03b5            push        {param_1,r1,lr}                         
ram:0001c51a    6846            mov         param_1,sp                              
ram:0001c51c    0078            ldrb        param_1=>local_c,[param_1,#0x0]         
ram:0001c51e    00f018f8        bl          FUN_0001c552                            ;undefined4 FUN_0001c552(uint param_1)
ram:0001c522    0028            cmp         param_1,#0x0                            
ram:0001c524    0dd0            beq         LAB_0001c542                            
ram:0001c526    6846            mov         param_1,sp                              
ram:0001c528    4078            ldrb        param_1,[r0,#local_b+0xc]               
ram:0001c52a    00f00ef8        bl          FUN_0001c54a                            ;int FUN_0001c54a(int param_1)
ram:0001c52e    0028            cmp         param_1,#0x0                            
ram:0001c530    07d0            beq         LAB_0001c542                            
ram:0001c532    6846            mov         param_1,sp                              
ram:0001c534    8078            ldrb        param_1,[r0,#local_a+0xc]               
ram:0001c536    1828            cmp         param_1,#0x18                           
ram:0001c538    03d2            bcs         LAB_0001c542                            
ram:0001c53a    6846            mov         param_1,sp                              
ram:0001c53c    c078            ldrb        param_1,[r0,#local_9+0xc]               
ram:0001c53e    3c28            cmp         param_1,#0x3c                           
ram:0001c540    01d3            bcc         LAB_0001c546                            
                            LAB_0001c542:                 ;XREF[3,0]:   0001c524,0001c530,0001c538
ram:0001c542    0020            movs        param_1,#0x0                            
ram:0001c544    0cbd            pop         {r2,r3,pc}                              
                            LAB_0001c546:                 ;XREF[1,0]:   0001c540
ram:0001c546    0120            movs        param_1,#0x1                            
ram:0001c548    0cbd            pop         {r2,r3,pc}                              
                            ;************************************************************************************************
                            ;*                                           FUNCTION                                           *
                            ;************************************************************************************************
                            ;int FUN_0001c54a(int param_1)
          ;param_1       int                 r0                      
                                                          ;XREF[1,0]:   0001c52a
ram:0001c54a    4006            lsls        param_1,param_1,#0x19                   
ram:0001c54c    00d0            beq         LAB_0001c550                            
ram:0001c54e    0120            movs        param_1,#0x1                            
                            LAB_0001c550:                 ;XREF[1,0]:   0001c54c
ram:0001c550    7047            bx          lr                                      
                            ;************************************************************************************************
                            ;*                                           FUNCTION                                           *
                            ;************************************************************************************************
                            ;undefined4 FUN_0001c552(uint param_1)
          ;param_1       uint                r0                      
                                                          ;XREF[4,0]:   00019ba8,00019ff0,0001b81a,0001c51e
ram:0001c552    0328            cmp         param_1,#0x3                            
ram:0001c554    01d2            bcs         LAB_0001c55a                            
ram:0001c556    0120            movs        param_1,#0x1                            
ram:0001c558    7047            bx          lr                                      
                            LAB_0001c55a:                 ;XREF[1,0]:   0001c554
ram:0001c55a    0020            movs        param_1,#0x0                            
ram:0001c55c    7047            bx          lr                                      
                            ;************************************************************************************************
                            ;*                                           FUNCTION                                           *
                            ;************************************************************************************************
                            ;undefined LAB_0001c55e+1(void)
                                                          ;XREF[0,2]:   0001ac40,0001ad58
ram:0001c55e    7047            bx          lr                                      
                            DAT_0001c560:                 ;XREF[2,0]:   00018b38,00018b90
ram:0001c560    23150000        undefined4  00001523h                               
                            DAT_0001c564:                 ;XREF[2,0]:   0001ac3c,0001ad54
ram:0001c564    01000000        undefined4  00000001h                               
                            DAT_0001c568:                 ;XREF[1,0]:   0001ac3c
ram:0001c568    60ea0000        undefined4  0000EA60h                               
                            DAT_0001c56c:                 ;XREF[1,0]:   0001ac3c
ram:0001c56c    01000000        undefined4  00000001h                               
                            s_SMv2.32.3_0001c570:         ;XREF[4,0]:   0001a7b6,0001a7c2,0001a7ce,0001a7e4
ram:0001c570    534d76322...    ds          "SMv2.32.3"                             
ram:0001c57a    00              ??          00h                                     
ram:0001c57b    00              ??          00h                                     
                            DAT_0001c57c:                 ;XREF[2,0]:   000198a0,000198fc
ram:0001c57c    23d1bcea        undefined4  EABCD123h                               
                            DAT_0001c580:                 ;XREF[1,0]:   000198a0
ram:0001c580    5f782315        undefined4  1523785Fh                               
                            DAT_0001c584:                 ;XREF[1,0]:   000198a0
ram:0001c584    deef1212        undefined4  1212EFDEh                               
                            DAT_0001c588:                 ;XREF[1,0]:   000198a0
ram:0001c588    00000000        undefined4  00000000h                               
                            DAT_0001c58c:                 ;XREF[2,0]:   0001b01e,0001b040
ram:0001c58c    01              undefined1  01h                                     
ram:0001c58d    00              ??          00h                                     
ram:0001c58e    00              ??          00h                                     
ram:0001c58f    00              ??          00h                                     
                            DAT_0001c590:                 ;XREF[1,0]:   0001b022
ram:0001c590    d0070000        undefined4  000007D0h                               
                            DAT_0001c594:                 ;XREF[1,0]:   0001b030
ram:0001c594    01              undefined1  01h                                     
ram:0001c595    00              ??          00h                                     
ram:0001c596    00              ??          00h                                     
ram:0001c597    00              ??          00h                                     
                            DAT_0001c598:                 ;XREF[2,0]:   000196f8,00019760
ram:0001c598    23d1bcea        undefined4  EABCD123h                               
                            DAT_0001c59c:                 ;XREF[1,0]:   000196f8
ram:0001c59c    5f782315        undefined4  1523785Fh                               
                            DAT_0001c5a0:                 ;XREF[1,0]:   000196f8
ram:0001c5a0    deef1212        undefined4  1212EFDEh                               
                            DAT_0001c5a4:                 ;XREF[1,0]:   000196f8
ram:0001c5a4    00000000        undefined4  00000000h                               
                            PTR_DAT_0001c5a8:             ;XREF[2,0]:   0001834e,00018368
ram:0001c5a8    c8c50100        addr        DAT_0001c5c8                            ;= 71h    q
                            DAT_0001c5ac:                 ;XREF[1,0]:   0001834e
ram:0001c5ac    00200020        undefined4  20002000h                               
                            DAT_0001c5b0:                 ;XREF[1,0]:   0001834e
ram:0001c5b0    5c010000        undefined4  0000015Ch                               
                            PTR_FUN_0001c5b4:             ;XREF[1,0]:   0001834c
ram:0001c5b4    aa830100        addr        FUN_000183aa                            
ram:0001c5b8    0c              ??          0Ch                                     
ram:0001c5b9    c6              ??          C6h                                     
ram:0001c5ba    01              ??          01h                                     
ram:0001c5bb    00              ??          00h                                     
ram:0001c5bc    5c              ??          5Ch    \                                
ram:0001c5bd    21              ??          21h    !                                
ram:0001c5be    00              ??          00h                                     
ram:0001c5bf    20              ??          20h                                     
ram:0001c5c0    c4              ??          C4h                                     
ram:0001c5c1    17              ??          17h                                     
ram:0001c5c2    00              ??          00h                                     
ram:0001c5c3    00              ??          00h                                     
ram:0001c5c4    0c              ??          0Ch                                     ;?  ->  0001890c
ram:0001c5c5    89              ??          89h                                     
ram:0001c5c6    01              ??          01h                                     
ram:0001c5c7    00              ??          00h                                     
                            DAT_0001c5c8:                 ;XREF[3,0]:   0001834e,00018364,0001c5a8
ram:0001c5c8    71              ??          71h    q                                
ram:0001c5c9    03              ??          03h                                     
ram:0001c5ca    35              ??          35h    5                                
ram:0001c5cb    ff              ??          FFh                                     
ram:0001c5cc    ff              ??          FFh                                     
ram:0001c5cd    a8              ??          A8h                                     
ram:0001c5ce    0b              ??          0Bh                                     
ram:0001c5cf    01              ??          01h                                     
ram:0001c5d0    01              ??          01h                                     
ram:0001c5d1    00              ??          00h                                     
ram:0001c5d2    7d              ??          7Dh    }                                ;?  ->  00019a7d
ram:0001c5d3    9a              ??          9Ah                                     
ram:0001c5d4    01              ??          01h                                     
ram:0001c5d5    00              ??          00h                                     
ram:0001c5d6    25              ??          25h    %                                
ram:0001c5d7    1a              ??          1Ah                                     
ram:0001c5d8    02              ??          02h                                     
ram:0001c5d9    15              ??          15h                                     
ram:0001c5da    01              ??          01h                                     
ram:0001c5db    12              ??          12h                                     
ram:0001c5dc    23              ??          23h    #                                
ram:0001c5dd    34              ??          34h    4                                
ram:0001c5de    45              ??          45h    E                                
ram:0001c5df    56              ??          56h    V                                
ram:0001c5e0    67              ??          67h    g                                
ram:0001c5e1    78              ??          78h    x                                
ram:0001c5e2    89              ??          89h                                     
ram:0001c5e3    9a              ??          9Ah                                     
ram:0001c5e4    ab              ??          ABh                                     
ram:0001c5e5    bc              ??          BCh                                     
ram:0001c5e6    cd              ??          CDh                                     
ram:0001c5e7    de              ??          DEh                                     
ram:0001c5e8    ef              ??          EFh                                     
ram:0001c5e9    f0              ??          F0h                                     
ram:0001c5ea    01              ??          01h                                     
ram:0001c5eb    02              ??          02h                                     
ram:0001c5ec    03              ??          03h                                     
ram:0001c5ed    04              ??          04h                                     
ram:0001c5ee    c3              ??          C3h                                     
ram:0001c5ef    00              ??          00h                                     
ram:0001c5f0    8c              ??          8Ch                                     
ram:0001c5f1    24              ??          24h    $                                
ram:0001c5f2    00              ??          00h                                     
ram:0001c5f3    20              ??          20h                                     
ram:0001c5f4    a8              ??          A8h                                     
ram:0001c5f5    24              ??          24h    $                                
ram:0001c5f6    00              ??          00h                                     
ram:0001c5f7    20              ??          20h                                     
ram:0001c5f8    bf              ??          BFh                                     
ram:0001c5f9    24              ??          24h    $                                
ram:0001c5fa    00              ??          00h                                     
ram:0001c5fb    20              ??          20h                                     
ram:0001c5fc    03              ??          03h                                     
ram:0001c5fd    3a              ??          3Ah    :                                
ram:0001c5fe    24              ??          24h    $                                
ram:0001c5ff    f4              ??          F4h                                     
ram:0001c600    42              ??          42h    B                                
ram:0001c601    01              ??          01h                                     
ram:0001c602    03              ??          03h                                     
ram:0001c603    6f              ??          6Fh    o                                
ram:0001c604    ff              ??          FFh                                     
ram:0001c605    ff              ??          FFh                                     
ram:0001c606    04              ??          04h                                     
ram:0001c607    22              ??          22h    "                                
ram:0001c608    49              ??          49h    I                                ;?  ->  0001a249
ram:0001c609    a2              ??          A2h                                     
ram:0001c60a    01              ??          01h                                     
ram:0001c60b    00              ??          00h                                     
