                            MasterStackPointer:           ;XREF[2,0]:   0003c236,0003e8d8
ram:0003c000    403c0020        addr        DAT_20003c40                            
                            Reset:                        ;XREF[1,0]:   Entry Point
ram:0003c004    21c80300        addr        FUNC_Reset_0003c820+1                   
                            NMI:                          ;XREF[1,0]:   Entry Point
ram:0003c008    3bc80300        addr        FUNC_NMI_0003c83a+1                     
                            HardFault:                    ;XREF[1,0]:   Entry Point
ram:0003c00c    3dc80300        addr        FUNC_HardFault_0003c83c+1               
                            MemManage:                    ;XREF[1,0]:   Entry Point
ram:0003c010    00000000        addr        00000000                                
                            BusFault:                     ;XREF[1,0]:   Entry Point
ram:0003c014    00000000        addr        00000000                                
                            UsageFault:                   ;XREF[1,0]:   Entry Point
ram:0003c018    00000000        addr        00000000                                
                            Reserved1:                    ;XREF[1,0]:   Entry Point
ram:0003c01c    00000000        addr        00000000                                
                            Reserved2:                    ;XREF[1,0]:   Entry Point
ram:0003c020    00000000        addr        00000000                                
                            Reserved3:                    ;XREF[1,0]:   Entry Point
ram:0003c024    00000000        addr        00000000                                
                            Reserved5:                    ;XREF[1,0]:   Entry Point
                            Reserved6:                    
                            Reserved4:                    
ram:0003c028    00000000        addr        00000000                                
                            SVCall:                       ;XREF[1,0]:   Entry Point
ram:0003c02c    d5c00300        addr        FUNC_SVCall_0003c0d4+1                  
ram:0003c030    00000000        addr        00000000                                
ram:0003c034    00000000        addr        00000000                                
                            PendSV:                       ;XREF[1,0]:   Entry Point
ram:0003c038    41c80300        addr        FUNC_PendSV_0003c840+1                  
                            SysTick:                      ;XREF[1,0]:   Entry Point
ram:0003c03c    43c80300        addr        FUNC_SysTick_0003c842+1                 
                            IRQ:                          ;XREF[1,0]:   Entry Point
ram:0003c040    45c80300        addr        FUNC_IRQ_0003c844+1                     
ram:0003c044    45c80300        addr        FUNC_IRQ_0003c844+1                     
ram:0003c048    45c80300        addr        FUNC_IRQ_0003c844+1                     
ram:0003c04c    45c80300        addr        FUNC_IRQ_0003c844+1                     
ram:0003c050    45c80300        addr        FUNC_IRQ_0003c844+1                     
ram:0003c054    00000000        addr        00000000                                
ram:0003c058    45c80300        addr        FUNC_IRQ_0003c844+1                     
ram:0003c05c    45c80300        addr        FUNC_IRQ_0003c844+1                     
ram:0003c060    45c80300        addr        FUNC_IRQ_0003c844+1                     
ram:0003c064    45c80300        addr        FUNC_IRQ_0003c844+1                     
ram:0003c068    45c80300        addr        FUNC_IRQ_0003c844+1                     
ram:0003c06c    45c80300        addr        FUNC_IRQ_0003c844+1                     
ram:0003c070    45c80300        addr        FUNC_IRQ_0003c844+1                     
ram:0003c074    45c80300        addr        FUNC_IRQ_0003c844+1                     
ram:0003c078    45c80300        addr        FUNC_IRQ_0003c844+1                     
ram:0003c07c    45c80300        addr        FUNC_IRQ_0003c844+1                     
ram:0003c080    45c80300        addr        FUNC_IRQ_0003c844+1                     
ram:0003c084    07da0300        addr        FUNC_VT_0003da06+1                      
ram:0003c088    45c80300        addr        FUNC_IRQ_0003c844+1                     
ram:0003c08c    45c80300        addr        FUNC_IRQ_0003c844+1                     
ram:0003c090    1dda0300        addr        FUNC_VT_0003da1c+1                      
ram:0003c094    45c80300        addr        FUNC_IRQ_0003c844+1                     
ram:0003c098    09f40300        addr        FUNC_VT_0003f408+1                      
ram:0003c09c    45c80300        addr        FUNC_IRQ_0003c844+1                     
ram:0003c0a0    45c80300        addr        FUNC_IRQ_0003c844+1                     
ram:0003c0a4    45c80300        addr        FUNC_IRQ_0003c844+1                     
ram:0003c0a8    00000000        addr        00000000                                
ram:0003c0ac    00000000        addr        00000000                                
ram:0003c0b0    00000000        addr        00000000                                
ram:0003c0b4    00000000        addr        00000000                                
ram:0003c0b8    00000000        addr        00000000                                
ram:0003c0bc    00              ??          00h                                     
ram:0003c0bd    00              ??          00h                                     
ram:0003c0be    00              ??          00h                                     
ram:0003c0bf    00              ??          00h                                     
                            ;************************************************************************************************
                            ;*                                           FUNCTION                                           *
                            ;************************************************************************************************
                            ;undefined LAB_0003c0c0+1(void)
                                                          ;XREF[1,1]:   0003c838,0003c854
ram:0003c0c0    0348            ldr         r0,[DAT_0003c0d0]                       ;= 20003C40h
ram:0003c0c2    8546            mov         sp,r0                                   
ram:0003c0c4    03f030fa        bl          FUN_0003f528                            ;undefined FUN_0003f528(void)
                            ;************************************************************************************************
                            ;*                                           FUNCTION                                           *
                            ;************************************************************************************************
                            ;undefined thunk_FUN_0003c290(void)
                                                          ;XREF[1,0]:   0003f540
ram:0003c0c8    0048            ldr         r0,[DAT_0003c0cc]                       ;= 0003C291h
ram:0003c0ca    0047            bx          r0=>FUN_0003c290                        ;undefined FUN_0003c290(void)
                            DAT_0003c0cc:                 ;XREF[1,0]:   0003c0c8
ram:0003c0cc    91c20300        undefined4  0003C291h                               ;?  ->  0003c291
                            DAT_0003c0d0:                 ;XREF[1,0]:   0003c0c0
ram:0003c0d0    403c0020        undefined4  20003C40h                               
                            ;************************************************************************************************
                            ;*                                           FUNCTION                                           *
                            ;************************************************************************************************
                            ;undefined FUNC_SVCall_0003c0d4(void)
                                                          ;XREF[0,1]:   0003c02c
ram:0003c0d4    0648            ldr         r0,[DAT_0003c0f0]                       ;= FFFFFFFDh
ram:0003c0d6    7045            cmp         r0,lr                                   
ram:0003c0d8    02d1            bne         LAB_0003c0e0                            
ram:0003c0da    eff30981        mrs         r1,psp                                  
ram:0003c0de    01e0            b           LAB_0003c0e4                            
                            LAB_0003c0e0:                 ;XREF[1,0]:   0003c0d8
ram:0003c0e0    eff30881        mrs         r1,msp                                  
                            LAB_0003c0e4:                 ;XREF[1,0]:   0003c0de
ram:0003c0e4    8869            ldr         r0,[r1,#0x18]                           
ram:0003c0e6    0238            subs        r0,#0x2                                 
ram:0003c0e8    0078            ldrb        r0,[r0,#0x0]                            
ram:0003c0ea    024a            ldr         r2,[DAT_0003c0f4]                       ;= 0003C16Dh
ram:0003c0ec    1047            bx          r2=>LAB_0003c16c                        
ram:0003c0ee    0000            movs        r0,r0                                   
                            DAT_0003c0f0:                 ;XREF[1,0]:   0003c0d4
ram:0003c0f0    fdffffff        undefined4  FFFFFFFDh                               
                            DAT_0003c0f4:                 ;XREF[1,0]:   0003c0ea
ram:0003c0f4    6dc10300        undefined4  0003C16Dh                               ;?  ->  0003c16d
                            ;************************************************************************************************
                            ;*                                           FUNCTION                                           *
                            ;************************************************************************************************
                            ;undefined FUN_0003c0f8(int param_1)
          ;param_1       int                 r0                      
                                                          ;XREF[2,0]:   0003c112,0003d3a8
ram:0003c0f8    401e            subs        param_1,param_1,#0x1                    
ram:0003c0fa    00bf            nop                                                  
ram:0003c0fc    00bf            nop                                                  
ram:0003c0fe    00bf            nop                                                  
ram:0003c100    00bf            nop                                                  
ram:0003c102    00bf            nop                                                  
ram:0003c104    00bf            nop                                                  
ram:0003c106    00bf            nop                                                  
ram:0003c108    00bf            nop                                                  
ram:0003c10a    00bf            nop                                                  
ram:0003c10c    00bf            nop                                                  
ram:0003c10e    00bf            nop                                                  
ram:0003c110    00bf            nop                                                  
ram:0003c112    f1d1            bne         FUN_0003c0f8                            
ram:0003c114    7047            bx          lr                                      
ram:0003c116    0000            movs        r0,r0                                   
                            ;************************************************************************************************
                            ;*                                           FUNCTION                                           *
                            ;************************************************************************************************
                            ;undefined FUN_0003c118(int param_1)
          ;param_1       int                 r0                      
                                                          ;XREF[4,0]:   0003c132,0003d7cc,0003d7da,0003de02
ram:0003c118    401e            subs        param_1,param_1,#0x1                    
ram:0003c11a    00bf            nop                                                  
ram:0003c11c    00bf            nop                                                  
ram:0003c11e    00bf            nop                                                  
ram:0003c120    00bf            nop                                                  
ram:0003c122    00bf            nop                                                  
ram:0003c124    00bf            nop                                                  
ram:0003c126    00bf            nop                                                  
ram:0003c128    00bf            nop                                                  
ram:0003c12a    00bf            nop                                                  
ram:0003c12c    00bf            nop                                                  
ram:0003c12e    00bf            nop                                                  
ram:0003c130    00bf            nop                                                  
ram:0003c132    f1d1            bne         FUN_0003c118                            
ram:0003c134    7047            bx          lr                                      
ram:0003c136    0000            movs        r0,r0                                   
                            ;************************************************************************************************
                            ;*                                           FUNCTION                                           *
                            ;************************************************************************************************
                            ;undefined FUN_0003c138(undefined4 * param_1)
          ;param_1       undefined4 *        r0                      
                                                          ;XREF[1,0]:   0003e1ba
ram:0003c138    0568            ldr         r5,[param_1,#0x0]                       
ram:0003c13a    85f30888        msr         msp,r5                                  
ram:0003c13e    4068            ldr         param_1,[param_1,#0x4]                  
ram:0003c140    ff24            movs        r4,#0xff                                
ram:0003c142    64b2            sxtb        r4,r4                                   
ram:0003c144    eff30585        mrs         r5,ipsr                                 
ram:0003c148    002d            cmp         r5,#0x0                                 
ram:0003c14a    01d1            bne         LAB_0003c150                            
ram:0003c14c    a646            mov         lr,r4                                   
ram:0003c14e    0047            bx          param_1                                 
                            LAB_0003c150:                 ;XREF[1,0]:   0003c14a
ram:0003c150    2546            mov         r5,r4                                   
ram:0003c152    0646            mov         r6,param_1                              
ram:0003c154    2127            movs        r7,#0x21                                
ram:0003c156    3fba            rev         r7,r7                                   
ram:0003c158    f0b4            push        {r4,r5,r6,r7}                           
ram:0003c15a    0024            movs        r4,#0x0                                 
ram:0003c15c    0025            movs        r5,#0x0                                 
ram:0003c15e    0026            movs        r6,#0x0                                 
ram:0003c160    0027            movs        r7,#0x0                                 
ram:0003c162    f0b4            push        {r4,r5,r6,r7}                           
ram:0003c164    f920            movs        param_1,#0xf9                           
ram:0003c166    40b2            sxtb        param_1,param_1                         
ram:0003c168    0047            bx          param_1=>LAB_fffffff8                   
ram:0003c16a    0000            movs        r0,r0                                   
                            LAB_0003c16c:                 ;XREF[1,0]:   0003c0ec
ram:0003c16c    10b5            push        {r4,lr}                                 
ram:0003c16e    0c46            mov         r4,r1                                   
ram:0003c170    0028            cmp         r0,#0x0                                 
ram:0003c172    02d0            beq         LAB_0003c17a                            
ram:0003c174    0120            movs        r0,#0x1                                 
ram:0003c176    0860            str         r0,[r1,#0x0]                            
ram:0003c178    10bd            pop         {r4,pc}                                 
                            LAB_0003c17a:                 ;XREF[1,0]:   0003c172
ram:0003c17a    2168            ldr         r1,[r4,#0x0]                            
ram:0003c17c    0029            cmp         r1,#0x0                                 
ram:0003c17e    11d0            beq         LAB_0003c1a4                            
ram:0003c180    1e48            ldr         r0,[DAT_0003c1fc]                       ;= 20003F82h
ram:0003c182    421a            subs        r2,r0,r1                                
ram:0003c184    8142            cmp         r1,r0                                   
ram:0003c186    12d0            beq         LAB_0003c1ae                            
ram:0003c188    3c2a            cmp         r2,#0x3c                                
ram:0003c18a    0dd2            bcs         LAB_0003c1a8                            
ram:0003c18c    3c30            adds        r0,#0x3c                                
ram:0003c18e    3c31            adds        r1,#0x3c                                
ram:0003c190    0122            movs        r2,#0x1                                 
                            LAB_0003c192:                 ;XREF[1,0]:   0003c1a0
ram:0003c192    0b78            ldrb        r3,[r1,#0x0]                            
                                                          ; FWD[2,0]:   20003fbd,20003fbe
ram:0003c194    0370            strb        r3,[r0,#0x0]=>DAT_20003fbe              
ram:0003c196    1346            mov         r3,r2                                   
ram:0003c198    491e            subs        r1,r1,#0x1                              
ram:0003c19a    401e            subs        r0,r0,#0x1                              
ram:0003c19c    521c            adds        r2,r2,#0x1                              
ram:0003c19e    3c2b            cmp         r3,#0x3c                                
ram:0003c1a0    f7d9            bls         LAB_0003c192                            
ram:0003c1a2    04e0            b           LAB_0003c1ae                            
                            LAB_0003c1a4:                 ;XREF[1,0]:   0003c17e
ram:0003c1a4    0e20            movs        r0,#0xe                                 
ram:0003c1a6    0be0            b           LAB_0003c1c0                            
                            LAB_0003c1a8:                 ;XREF[1,0]:   0003c18a
ram:0003c1a8    3c22            movs        r2,#0x3c                                
ram:0003c1aa    03f06bf9        bl          FUN_0003f484                            ;undefined FUN_0003f484(undefined4 * ...
                            LAB_0003c1ae:                 ;XREF[2,0]:   0003c186,0003c1a2
ram:0003c1ae    0022            movs        r2,#0x0                                 
ram:0003c1b0    3c21            movs        r1,#0x3c                                
ram:0003c1b2    1248            ldr         r0,[DAT_0003c1fc]                       ;= 20003F82h
ram:0003c1b4    02f004f8        bl          FUN_0003e1c0                            ;uint FUN_0003e1c0(int param_1, uint ...
ram:0003c1b8    1049            ldr         r1,[DAT_0003c1fc]                       ;= 20003F82h
ram:0003c1ba    891e            subs        r1,r1,#0x2                              
ram:0003c1bc    0880            strh        r0,[r1,#0x0]=>DAT_20003f80              
ram:0003c1be    0020            movs        r0,#0x0                                 
                            LAB_0003c1c0:                 ;XREF[1,0]:   0003c1a6
ram:0003c1c0    2060            str         r0,[r4,#0x0]                            
ram:0003c1c2    10bd            pop         {r4,pc}                                 
                            ;************************************************************************************************
                            ;*                                           FUNCTION                                           *
                            ;************************************************************************************************
                            ;undefined4 FUN_0003c1c4(undefined4 * param_1)
          ;param_1       undefined4 *        r0                      
                                                          ;XREF[1,0]:   0003f03e
ram:0003c1c4    70b5            push        {r4,r5,r6,lr}                           
ram:0003c1c6    0500            movs        r5,param_1                              
ram:0003c1c8    0bd0            beq         LAB_0003c1e2                            
ram:0003c1ca    0022            movs        r2,#0x0                                 
ram:0003c1cc    3c21            movs        r1,#0x3c                                
ram:0003c1ce    0b48            ldr         param_1,[DAT_0003c1fc]                  ;= 20003F82h
ram:0003c1d0    01f0f6ff        bl          FUN_0003e1c0                            ;uint FUN_0003e1c0(int param_1, uint ...
ram:0003c1d4    094c            ldr         r4,[DAT_0003c1fc]                       ;= 20003F82h
ram:0003c1d6    a41e            subs        r4,r4,#0x2                              
ram:0003c1d8    2188            ldrh        r1,[r4,#0x0]=>DAT_20003f80              
ram:0003c1da    8842            cmp         param_1,r1                              
ram:0003c1dc    03d0            beq         LAB_0003c1e6                            
ram:0003c1de    0b20            movs        param_1,#0xb                            
ram:0003c1e0    70bd            pop         {r4,r5,r6,pc}                           
                            LAB_0003c1e2:                 ;XREF[1,0]:   0003c1c8
ram:0003c1e2    0e20            movs        param_1,#0xe                            
ram:0003c1e4    70bd            pop         {r4,r5,r6,pc}                           
                            LAB_0003c1e6:                 ;XREF[1,0]:   0003c1dc
ram:0003c1e6    3c22            movs        r2,#0x3c                                
ram:0003c1e8    0449            ldr         r1,[DAT_0003c1fc]                       ;= 20003F82h
ram:0003c1ea    2846            mov         param_1,r5                              
ram:0003c1ec    03f04af9        bl          FUN_0003f484                            ;undefined FUN_0003f484(undefined4 * ...
ram:0003c1f0    2088            ldrh        param_1,[r4,#0x0]=>DAT_20003f80         
ram:0003c1f2    401c            adds        param_1,param_1,#0x1                    
ram:0003c1f4    2080            strh        param_1,[r4,#0x0]=>DAT_20003f80         
ram:0003c1f6    0020            movs        param_1,#0x0                            
ram:0003c1f8    70bd            pop         {r4,r5,r6,pc}                           
ram:0003c1fa    0000            movs        r0,r0                                   
                            DAT_0003c1fc:                 ;XREF[6,0]:   0003c180,0003c1b2,0003c1b8,0003c1ce
                                                          ;             0003c1d4,0003c1e8
ram:0003c1fc    823f0020        undefined4  20003F82h                               
                            ;************************************************************************************************
                            ;*                                           FUNCTION                                           *
                            ;************************************************************************************************
                            ;undefined FUN_0003c200(void)
                                                          ;XREF[1,0]:   0003f33e
ram:0003c200    0a46            mov         r2,r1                                   
ram:0003c202    10b5            push        {r4,lr}                                 
ram:0003c204    0146            mov         r1,r0                                   
ram:0003c206    8a48            ldr         r0,[DAT_0003c430]                       ;= DEADBEEFh
ram:0003c208    01f0e8f9        bl          FUN_0003d5dc                            ;undefined FUN_0003d5dc(void)
ram:0003c20c    10bd            pop         {r4,pc}                                 
                            ;************************************************************************************************
                            ;*                                           FUNCTION                                           *
                            ;************************************************************************************************
                            ;undefined LAB_0003c20e+1(int param_1)
          ;param_1       int                 r0                      
                                                          ;XREF[0,2]:   0003c27a,0003c440
ram:0003c20e    10b5            push        {r4,lr}                                 
ram:0003c210    01f035f9        bl          FUN_0003d47e                            ;undefined FUN_0003d47e(int param_1)
ram:0003c214    10bd            pop         {r4,pc}                                 
                            ;************************************************************************************************
                            ;*                                           FUNCTION                                           *
                            ;************************************************************************************************
                            ;undefined FUN_0003c216(void)
          ;local_c       undefined4          -c                      ;XREF[1,0]:   0003c262
          ;local_10      undefined4         -10                      ;XREF[2,0]:   0003c260,0003c268
          ;local_14      undefined4         -14                      ;XREF[1,0]:   0003c21e
          ;local_20      undefined4         -20                      ;XREF[1,0]:   0003c222
                                                          ;XREF[2,0]:   0003c342,0003c37a
ram:0003c216    00b5            push        {lr}                                    
ram:0003c218    864b            ldr         r3,[PTR_DAT_0003c434]                   ;= 0003f584
ram:0003c21a    87b0            sub         sp,#0x1c                                
                                                          ; FWD[4,0]:   0003f584,0003f588,0003f58c,0003f590
ram:0003c21c    0fcb            ldmia       r3,{r0,r1,r2,r3}=>DAT_0003f584          ;= 00000002h
ram:0003c21e    0393            str         r3,[sp,#local_14+0x20]                  
ram:0003c220    6b46            mov         r3,sp                                   
ram:0003c222    07c3            stmia       r3!=>local_20,{r0,r1,r2}                
ram:0003c224    6846            mov         r0,sp                                   
ram:0003c226    18df            svc         0x18                                    
ram:0003c228    0028            cmp         r0,#0x0                                 
ram:0003c22a    03d0            beq         LAB_0003c234                            
ram:0003c22c    0022            movs        r2,#0x0                                 
ram:0003c22e    1146            mov         r1,r2                                   
ram:0003c230    01f0d4f9        bl          FUN_0003d5dc                            ;undefined FUN_0003d5dc(void)
                            LAB_0003c234:                 ;XREF[1,0]:   0003c22a
ram:0003c234    0f20            movs        r0,#0xf                                 
ram:0003c236    8003            lsls        r0=>MasterStackPointer,r0,#0xe          ;= 20003c40
ram:0003c238    13df            svc         0x13                                    
ram:0003c23a    0028            cmp         r0,#0x0                                 
ram:0003c23c    03d0            beq         LAB_0003c246                            
ram:0003c23e    0022            movs        r2,#0x0                                 
ram:0003c240    1146            mov         r1,r2                                   
ram:0003c242    01f0cbf9        bl          FUN_0003d5dc                            ;undefined FUN_0003d5dc(void)
                            LAB_0003c246:                 ;XREF[1,0]:   0003c23c
ram:0003c246    7c4b            ldr         r3,[PTR_LAB_0003f446+1+1_0003c438]      ;= 0003f447
ram:0003c248    4822            movs        r2,#0x48                                
ram:0003c24a    7c49            ldr         r1,[DAT_0003c43c]                       ;= 20002F3Ch
ram:0003c24c    0a20            movs        r0,#0xa                                 
ram:0003c24e    03f0b7f8        bl          FUN_0003f3c0                            ;undefined8 FUN_0003f3c0(int param_1,...
ram:0003c252    0028            cmp         r0,#0x0                                 
ram:0003c254    03d0            beq         LAB_0003c25e                            
ram:0003c256    0022            movs        r2,#0x0                                 
ram:0003c258    1146            mov         r1,r2                                   
ram:0003c25a    01f0bff9        bl          FUN_0003d5dc                            ;undefined FUN_0003d5dc(void)
                            LAB_0003c25e:                 ;XREF[1,0]:   0003c254
ram:0003c25e    0020            movs        r0,#0x0                                 
ram:0003c260    0490            str         r0,[sp,#local_10+0x20]                  
ram:0003c262    0590            str         r0,[sp,#local_c+0x20]                   
ram:0003c264    0120            movs        r0,#0x1                                 
ram:0003c266    6946            mov         r1,sp                                   
ram:0003c268    0874            strb        r0,[r1,#local_10+0x20]                  
ram:0003c26a    04a8            add         r0,sp,#0x10                             
ram:0003c26c    60df            svc         0x60                                    
ram:0003c26e    0028            cmp         r0,#0x0                                 
ram:0003c270    03d0            beq         LAB_0003c27a                            
ram:0003c272    0022            movs        r2,#0x0                                 
ram:0003c274    1146            mov         r1,r2                                   
ram:0003c276    01f0b1f9        bl          FUN_0003d5dc                            ;undefined FUN_0003d5dc(void)
                            LAB_0003c27a:                 ;XREF[1,0]:   0003c270
ram:0003c27a    7148            ldr         r0=>LAB_0003c20e...,[PTR_LAB_0003c20e...;= 0003c20f
ram:0003c27c    03f0bcf8        bl          FUN_0003f3f8                            ;undefined4 FUN_0003f3f8(int param_1)
ram:0003c280    0028            cmp         r0,#0x0                                 
ram:0003c282    03d0            beq         LAB_0003c28c                            
ram:0003c284    0022            movs        r2,#0x0                                 
ram:0003c286    1146            mov         r1,r2                                   
ram:0003c288    01f0a8f9        bl          FUN_0003d5dc                            ;undefined FUN_0003d5dc(void)
                            LAB_0003c28c:                 ;XREF[1,0]:   0003c282
ram:0003c28c    07b0            add         sp,#0x1c                                
ram:0003c28e    00bd            pop         {pc}                                    
                            ;************************************************************************************************
                            ;*                                           FUNCTION                                           *
                            ;************************************************************************************************
                            ;undefined FUN_0003c290(void)
          ;local_8       undefined4          -8                      ;XREF[1,0]:   0003c2ec
                                                          ;XREF[1,0]:   0003c0ca
ram:0003c290    08b5            push        {r3,lr}                                 
ram:0003c292    6c48            ldr         r0,[DAT_0003c444]                       ;= 40000500h
ram:0003c294    c169            ldr         r1,[r0,#offset DAT_4000051c &0xff]      
ram:0003c296    b129            cmp         r1,#0xb1                                
ram:0003c298    69d0            beq         LAB_0003c36e                            
ram:0003c29a    0024            movs        r4,#0x0                                 
                            LAB_0003c29c:                 ;XREF[1,0]:   0003c374
ram:0003c29c    6a49            ldr         r1,[DAT_0003c448]                       ;= 50000754h
ram:0003c29e    0320            movs        r0,#0x3                                 
ram:0003c2a0    0860            str         r0,[r1,#0x0]=>DAT_50000754              
ram:0003c2a2    091d            adds        r1,r1,#0x4                              
ram:0003c2a4    0860            str         r0,[r1,#0x0]=>DAT_50000758              
ram:0003c2a6    091d            adds        r1=>DAT_5000075c,r1,#0x4                
ram:0003c2a8    0860            str         r0,[r1,#0x0]=>DAT_5000075c              
ram:0003c2aa    1520            movs        r0,#0x15                                
ram:0003c2ac    00f0a8f8        bl          FUN_0003c400                            ;undefined FUN_0003c400(uint param_1)
ram:0003c2b0    1620            movs        r0,#0x16                                
ram:0003c2b2    00f0a5f8        bl          FUN_0003c400                            ;undefined FUN_0003c400(uint param_1)
ram:0003c2b6    1720            movs        r0,#0x17                                
ram:0003c2b8    00f0a2f8        bl          FUN_0003c400                            ;undefined FUN_0003c400(uint param_1)
ram:0003c2bc    6348            ldr         r0,[DAT_0003c44c]                       ;= 10001000h
ram:0003c2be    0f21            movs        r1,#0xf                                 
ram:0003c2c0    4069            ldr         r0,[r0,#offset DAT_10001014 &0xff]      
ram:0003c2c2    8903            lsls        r1,r1,#0xe                              
ram:0003c2c4    8842            cmp         r0,r1                                   
ram:0003c2c6    04d0            beq         LAB_0003c2d2                            
ram:0003c2c8    0022            movs        r2,#0x0                                 
ram:0003c2ca    1146            mov         r1,r2                                   
ram:0003c2cc    1046            mov         r0,r2                                   
ram:0003c2ce    01f085f9        bl          FUN_0003d5dc                            ;undefined FUN_0003d5dc(void)
                            LAB_0003c2d2:                 ;XREF[1,0]:   0003c2c6
ram:0003c2d2    0120            movs        r0,#0x1                                 
ram:0003c2d4    0007            lsls        r0,r0,#0x1c                             
ram:0003c2d6    0069            ldr         r0,[r0,#offset DAT_10000010 &0xff]      
ram:0003c2d8    0121            movs        r1,#0x1                                 
ram:0003c2da    8902            lsls        r1,r1,#0xa                              
ram:0003c2dc    8842            cmp         r0,r1                                   
ram:0003c2de    04d0            beq         LAB_0003c2ea                            
ram:0003c2e0    0022            movs        r2,#0x0                                 
ram:0003c2e2    1146            mov         r1,r2                                   
ram:0003c2e4    1046            mov         r0,r2                                   
ram:0003c2e6    01f079f9        bl          FUN_0003d5dc                            ;undefined FUN_0003d5dc(void)
                            LAB_0003c2ea:                 ;XREF[1,0]:   0003c2de
ram:0003c2ea    5948            ldr         r0,[DAT_0003c450]                       ;= 0003DE9Fh
ram:0003c2ec    0090            str         r0,[sp,#0x0]=>local_8                   
ram:0003c2ee    594b            ldr         r3,[DAT_0003c454]                       ;= 20002CFCh
ram:0003c2f0    0522            movs        r2,#0x5                                 
ram:0003c2f2    0321            movs        r1,#0x3                                 
ram:0003c2f4    0020            movs        r0,#0x0                                 
ram:0003c2f6    01f0b8fb        bl          FUN_0003da6a                            ;undefined4 FUN_0003da6a(undefined4 p...
ram:0003c2fa    0028            cmp         r0,#0x0                                 
ram:0003c2fc    03d0            beq         LAB_0003c306                            
ram:0003c2fe    0022            movs        r2,#0x0                                 
ram:0003c300    1146            mov         r1,r2                                   
ram:0003c302    01f06bf9        bl          FUN_0003d5dc                            ;undefined FUN_0003d5dc(void)
                            LAB_0003c306:                 ;XREF[1,0]:   0003c2fc
ram:0003c306    5049            ldr         r1,[DAT_0003c448]                       ;= 50000754h
ram:0003c308    5348            ldr         r0,[DAT_0003c458]                       ;= 0003000Ch
ram:0003c30a    2039            subs        r1=>DAT_50000734,#0x20                  
ram:0003c30c    0860            str         r0,[r1,#0x0]=>DAT_50000734              
ram:0003c30e    01f09dfe        bl          FUN_0003e04c                            ;undefined FUN_0003e04c(void)
ram:0003c312    01f0e1fe        bl          FUN_0003e0d8                            ;undefined4 FUN_0003e0d8(void)
ram:0003c316    0125            movs        r5,#0x1                                 
ram:0003c318    0028            cmp         r0,#0x0                                 
ram:0003c31a    2cd0            beq         LAB_0003c376                            
ram:0003c31c    1520            movs        r0,#0x15                                
ram:0003c31e    00f074f8        bl          FUN_0003c40a                            ;undefined FUN_0003c40a(uint param_1)
ram:0003c322    1620            movs        r0,#0x16                                
ram:0003c324    00f071f8        bl          FUN_0003c40a                            ;undefined FUN_0003c40a(uint param_1)
ram:0003c328    1720            movs        r0,#0x17                                
ram:0003c32a    00f06ef8        bl          FUN_0003c40a                            ;undefined FUN_0003c40a(uint param_1)
ram:0003c32e    01f0e2fe        bl          FUN_0003e0f6                            ;undefined * FUN_0003e0f6(undefined4 ...
ram:0003c332    0028            cmp         r0,#0x0                                 
ram:0003c334    03d0            beq         LAB_0003c33e                            
ram:0003c336    0022            movs        r2,#0x0                                 
ram:0003c338    1146            mov         r1,r2                                   
ram:0003c33a    01f04ff9        bl          FUN_0003d5dc                            ;undefined FUN_0003d5dc(void)
                            LAB_0003c33e:                 ;XREF[1,0]:   0003c334
ram:0003c33e    2046            mov         r0,r4                                   
ram:0003c340    6840            eors        r0,r5                                   
ram:0003c342    fff768ff        bl          FUN_0003c216                            ;undefined FUN_0003c216(void)
ram:0003c346    00f065f8        bl          FUN_0003c414                            ;undefined FUN_0003c414(void)
ram:0003c34a    01f0fafe        bl          FUN_0003e142                            ;undefined4 FUN_0003e142(void)
ram:0003c34e    0028            cmp         r0,#0x0                                 
ram:0003c350    03d0            beq         LAB_0003c35a                            
ram:0003c352    0022            movs        r2,#0x0                                 
ram:0003c354    1146            mov         r1,r2                                   
ram:0003c356    01f041f9        bl          FUN_0003d5dc                            ;undefined FUN_0003d5dc(void)
                            LAB_0003c35a:                 ;XREF[1,0]:   0003c350
ram:0003c35a    1520            movs        r0,#0x15                                
ram:0003c35c    00f050f8        bl          FUN_0003c400                            ;undefined FUN_0003c400(uint param_1)
ram:0003c360    1620            movs        r0,#0x16                                
ram:0003c362    00f04df8        bl          FUN_0003c400                            ;undefined FUN_0003c400(uint param_1)
ram:0003c366    1720            movs        r0,#0x17                                
ram:0003c368    00f04af8        bl          FUN_0003c400                            ;undefined FUN_0003c400(uint param_1)
ram:0003c36c    09e0            b           LAB_0003c382                            
                            LAB_0003c36e:                 ;XREF[1,0]:   0003c298
ram:0003c36e    0124            movs        r4,#0x1                                 
ram:0003c370    0021            movs        r1,#0x0                                 
ram:0003c372    c161            str         r1,[r0,#offset DAT_4000051c &0xff]      
ram:0003c374    92e7            b           LAB_0003c29c                            
                            LAB_0003c376:                 ;XREF[1,0]:   0003c31a
ram:0003c376    2046            mov         r0,r4                                   
ram:0003c378    6840            eors        r0,r5                                   
ram:0003c37a    fff74cff        bl          FUN_0003c216                            ;undefined FUN_0003c216(void)
ram:0003c37e    00f049f8        bl          FUN_0003c414                            ;undefined FUN_0003c414(void)
                            LAB_0003c382:                 ;XREF[1,0]:   0003c36c
ram:0003c382    0325            movs        r5,#0x3                                 
ram:0003c384    2d03            lsls        r5,r5,#0xc                              
ram:0003c386    002c            cmp         r4,#0x0                                 
ram:0003c388    04d1            bne         LAB_0003c394                            
ram:0003c38a    a868            ldr         r0,[r5,#offset DAT_00003008 &0xff]      
ram:0003c38c    01f0b4fd        bl          FUN_0003def8                            ;int FUN_0003def8(int * param_1, unde...
ram:0003c390    0028            cmp         r0,#0x0                                 
ram:0003c392    19d1            bne         LAB_0003c3c8                            
                            LAB_0003c394:                 ;XREF[1,0]:   0003c388
ram:0003c394    1520            movs        r0,#0x15                                
ram:0003c396    00f038f8        bl          FUN_0003c40a                            ;undefined FUN_0003c40a(uint param_1)
ram:0003c39a    1620            movs        r0,#0x16                                
ram:0003c39c    00f035f8        bl          FUN_0003c40a                            ;undefined FUN_0003c40a(uint param_1)
ram:0003c3a0    1720            movs        r0,#0x17                                
ram:0003c3a2    00f032f8        bl          FUN_0003c40a                            ;undefined FUN_0003c40a(uint param_1)
ram:0003c3a6    01f063fe        bl          FUN_0003e070                            ;int FUN_0003e070(undefined4 param_1,...
ram:0003c3aa    0028            cmp         r0,#0x0                                 
ram:0003c3ac    03d0            beq         LAB_0003c3b6                            
ram:0003c3ae    0022            movs        r2,#0x0                                 
ram:0003c3b0    1146            mov         r1,r2                                   
ram:0003c3b2    01f013f9        bl          FUN_0003d5dc                            ;undefined FUN_0003d5dc(void)
                            LAB_0003c3b6:                 ;XREF[1,0]:   0003c3ac
ram:0003c3b6    1520            movs        r0,#0x15                                
ram:0003c3b8    00f022f8        bl          FUN_0003c400                            ;undefined FUN_0003c400(uint param_1)
ram:0003c3bc    1620            movs        r0,#0x16                                
ram:0003c3be    00f01ff8        bl          FUN_0003c400                            ;undefined FUN_0003c400(uint param_1)
ram:0003c3c2    1720            movs        r0,#0x17                                
ram:0003c3c4    00f01cf8        bl          FUN_0003c400                            ;undefined FUN_0003c400(uint param_1)
                            LAB_0003c3c8:                 ;XREF[1,0]:   0003c392
ram:0003c3c8    a868            ldr         r0,[r5,#offset DAT_00003008 &0xff]      
ram:0003c3ca    01f095fd        bl          FUN_0003def8                            ;int FUN_0003def8(int * param_1, unde...
ram:0003c3ce    0028            cmp         r0,#0x0                                 
ram:0003c3d0    0ed0            beq         LAB_0003c3f0                            
ram:0003c3d2    01f081fe        bl          FUN_0003e0d8                            ;undefined4 FUN_0003e0d8(void)
ram:0003c3d6    0028            cmp         r0,#0x0                                 
ram:0003c3d8    0ad1            bne         LAB_0003c3f0                            
ram:0003c3da    0420            movs        r0,#0x4                                 
ram:0003c3dc    44df            svc         0x44                                    
ram:0003c3de    0028            cmp         r0,#0x0                                 
ram:0003c3e0    03d0            beq         LAB_0003c3ea                            
ram:0003c3e2    0022            movs        r2,#0x0                                 
ram:0003c3e4    1146            mov         r1,r2                                   
ram:0003c3e6    01f0f9f8        bl          FUN_0003d5dc                            ;undefined FUN_0003d5dc(void)
                            LAB_0003c3ea:                 ;XREF[1,0]:   0003c3e0
ram:0003c3ea    a868            ldr         r0,[r5,#offset DAT_00003008 &0xff]      
ram:0003c3ec    01f04cfe        bl          FUN_0003e088                            ;undefined FUN_0003e088(int param_1)
                            LAB_0003c3f0:                 ;XREF[2,0]:   0003c3d0,0003c3d8
ram:0003c3f0    bff34f8f        dsb         0xf                                     
ram:0003c3f4    1a49            ldr         r1,[DAT_0003c460]                       ;= E000ED00h
ram:0003c3f6    1948            ldr         r0,[DAT_0003c45c]                       ;= 05FA0004h
ram:0003c3f8    c860            str         r0,[r1,#offset DAT_e000ed0c &0xff]      
ram:0003c3fa    bff34f8f        dsb         0xf                                     
                            LAB_0003c3fe:                 ;XREF[1,0]:   0003c3fe
ram:0003c3fe    fee7            b           LAB_0003c3fe                            
                            ;************************************************************************************************
                            ;*                                           FUNCTION                                           *
                            ;************************************************************************************************
                            ;undefined FUN_0003c400(uint param_1)
          ;param_1       uint                r0                      
                                                          ;XREF[9,0]:   0003c2ac,0003c2b2,0003c2b8,0003c35c
                                                          ;             0003c362,0003c368,0003c3b8,0003c3be
                                                          ;             0003c3c4
ram:0003c400    0121            movs        r1,#0x1                                 
ram:0003c402    8140            lsls        r1,param_1                              
ram:0003c404    1748            ldr         param_1,[DAT_0003c464]                  ;= 50000500h
ram:0003c406    8160            str         r1,[param_1,#offset DAT_50000508 &0xff] 
ram:0003c408    7047            bx          lr                                      
                            ;************************************************************************************************
                            ;*                                           FUNCTION                                           *
                            ;************************************************************************************************
                            ;undefined FUN_0003c40a(uint param_1)
          ;param_1       uint                r0                      
                                                          ;XREF[6,0]:   0003c31e,0003c324,0003c32a,0003c396
                                                          ;             0003c39c,0003c3a2
ram:0003c40a    0121            movs        r1,#0x1                                 
ram:0003c40c    8140            lsls        r1,param_1                              
ram:0003c40e    1548            ldr         param_1,[DAT_0003c464]                  ;= 50000500h
ram:0003c410    c160            str         r1,[param_1,#offset DAT_5000050c &0xff] 
ram:0003c412    7047            bx          lr                                      
                            ;************************************************************************************************
                            ;*                                           FUNCTION                                           *
                            ;************************************************************************************************
                            ;undefined FUN_0003c414(void)
                                                          ;XREF[2,0]:   0003c346,0003c37e
ram:0003c414    094a            ldr         r2,[DAT_0003c43c]                       ;= 20002F3Ch
ram:0003c416    10b5            push        {r4,lr}                                 
ram:0003c418    4832            adds        r2,#0x48                                
ram:0003c41a    1421            movs        r1,#0x14                                
ram:0003c41c    0820            movs        r0,#0x8                                 
ram:0003c41e    01f0e9f8        bl          FUN_0003d5f4                            ;undefined4 FUN_0003d5f4(undefined2 p...
ram:0003c422    0028            cmp         r0,#0x0                                 
ram:0003c424    03d0            beq         LAB_0003c42e                            
ram:0003c426    0022            movs        r2,#0x0                                 
ram:0003c428    1146            mov         r1,r2                                   
ram:0003c42a    01f0d7f8        bl          FUN_0003d5dc                            ;undefined FUN_0003d5dc(void)
                            LAB_0003c42e:                 ;XREF[1,0]:   0003c424
ram:0003c42e    10bd            pop         {r4,pc}                                 
                            DAT_0003c430:                 ;XREF[1,0]:   0003c206
ram:0003c430    efbeadde        undefined4  DEADBEEFh                               
                            PTR_DAT_0003c434:             ;XREF[1,0]:   0003c218
ram:0003c434    84f50300        addr        DAT_0003f584                            ;= 00000002h
                            PTR_LAB_0003f446+1+1_0003c438:;XREF[1,0]:   0003c246
ram:0003c438    47f40300        addr        LAB_0003f446+1+1                        
                            DAT_0003c43c:                 ;XREF[2,0]:   0003c24a,0003c414
ram:0003c43c    3c2f0020        undefined4  20002F3Ch                               
                            PTR_LAB_0003c20e+1+1_0003c440:;XREF[1,0]:   0003c27a
ram:0003c440    0fc20300        addr        LAB_0003c20e+1+1                        
                            DAT_0003c444:                 ;XREF[1,0]:   0003c292
ram:0003c444    00050040        undefined4  40000500h                               
                            DAT_0003c448:                 ;XREF[2,0]:   0003c29c,0003c306
ram:0003c448    54070050        undefined4  50000754h                               
                            DAT_0003c44c:                 ;XREF[1,0]:   0003c2bc
ram:0003c44c    00100010        undefined4  10001000h                               
                            DAT_0003c450:                 ;XREF[1,0]:   0003c2ea
ram:0003c450    9fde0300        undefined4  0003DE9Fh                               ;?  ->  0003de9f
                            DAT_0003c454:                 ;XREF[1,0]:   0003c2ee
ram:0003c454    fc2c0020        undefined4  20002CFCh                               
                            DAT_0003c458:                 ;XREF[1,0]:   0003c308
ram:0003c458    0c000300        undefined4  0003000Ch                               
                            DAT_0003c45c:                 ;XREF[1,0]:   0003c3f6
ram:0003c45c    0400fa05        undefined4  05FA0004h                               
                            DAT_0003c460:                 ;XREF[1,0]:   0003c3f4
ram:0003c460    00ed00e0        undefined4  E000ED00h                               
                            DAT_0003c464:                 ;XREF[2,0]:   0003c404,0003c40e
ram:0003c464    00050050        undefined4  50000500h                               
                            ;************************************************************************************************
                            ;*                                           FUNCTION                                           *
                            ;************************************************************************************************
                            ;undefined8 FUN_0003c468(undefined4 param_1, undefined4 param_2, undefined4 param_3, undefined4 param_4)
          ;param_1       undefined4          r0                      
          ;param_2       undefined4          r1                      
          ;param_3       undefined4          r2                      
          ;param_4       undefined4          r3                      
          ;local_1c      undefined4         -1c                      ;XREF[1,0]:   0003c494
          ;local_1e      undefined2         -1e                      ;XREF[1,0]:   0003c482
          ;local_20      undefined2         -20                      ;XREF[1,0]:   0003c47e
                                                          ;XREF[4,0]:   0003c640,0003c670,0003c6a4,0003c6d8
ram:0003c468    feb5            push        {param_2,param_3,param_4,r4,r5,r6,r7,lr}
ram:0003c46a    4f4d            ldr         r5,[DAT_0003c5a8]                       ;= 200030D4h
ram:0003c46c    0646            mov         r6,param_1                              
ram:0003c46e    a878            ldrb        param_1,[r5,#0x2]=>DAT_200030d6         
ram:0003c470    0824            movs        r4,#0x8                                 
ram:0003c472    0f46            mov         r7,param_2                              
ram:0003c474    0028            cmp         param_1,#0x0                            
ram:0003c476    1cd0            beq         LAB_0003c4b2                            
ram:0003c478    2946            mov         param_2,r5                              
ram:0003c47a    0a89            ldrh        param_3,[param_2,#0x8]=>DAT_200030dc    
ram:0003c47c    6846            mov         param_1,sp                              
ram:0003c47e    0280            strh        param_3,[param_1,#0x0]=>local_20        
ram:0003c480    4989            ldrh        param_2,[param_2,#0xa]=>DAT_200030de    
ram:0003c482    4180            strh        param_2,[r0,#local_1e+0x20]             
ram:0003c484    0822            movs        param_3,#0x8                            
ram:0003c486    291d            adds        param_2,r5,#0x4                         
ram:0003c488    01a8            add         param_1,sp,#0x4                         
ram:0003c48a    02f0fbff        bl          FUN_0003f484                            ;undefined FUN_0003f484(undefined4 * ...
ram:0003c48e    2888            ldrh        param_1,[r5,#0x0]=>DAT_200030d4         
ram:0003c490    3246            mov         param_3,r6                              
ram:0003c492    3946            mov         param_2,r7                              
ram:0003c494    019b            ldr         param_4,[sp,#local_1c+0x20]             
ram:0003c496    00f0a7f9        bl          FUN_0003c7e8                            ;undefined8 FUN_0003c7e8(undefined * ...
ram:0003c49a    0400            movs        r4,param_1                              
ram:0003c49c    09d0            beq         LAB_0003c4b2                            
ram:0003c49e    082c            cmp         r4,#0x8                                 
ram:0003c4a0    07d0            beq         LAB_0003c4b2                            
ram:0003c4a2    4248            ldr         param_1,[DAT_0003c5ac]                  ;= 00003004h
ram:0003c4a4    8442            cmp         r4,param_1                              
ram:0003c4a6    04d0            beq         LAB_0003c4b2                            
ram:0003c4a8    0022            movs        param_3,#0x0                            
ram:0003c4aa    1146            mov         param_2,param_3                         
ram:0003c4ac    2046            mov         param_1,r4                              
ram:0003c4ae    01f095f8        bl          FUN_0003d5dc                            ;undefined FUN_0003d5dc(void)
                            LAB_0003c4b2:                 ;XREF[4,0]:   0003c476,0003c49c,0003c4a0,0003c4a6
ram:0003c4b2    2046            mov         param_1,r4                              
ram:0003c4b4    febd            pop         {param_2,param_3,param_4,r4,r5,r6,r7,pc}
                            ;************************************************************************************************
                            ;*                                           FUNCTION                                           *
                            ;************************************************************************************************
                            ;undefined8 FUN_0003c4b6(ushort * param_1, undefined4 param_2, undefined4 param_3)
          ;param_1       ushort *            r0                      
          ;param_2       undefined4          r1                      
          ;param_3       undefined4          r2                      
                                                          ;XREF[1,0]:   0003efe4
ram:0003c4b6    10b5            push        {r4,lr}                                 
ram:0003c4b8    0388            ldrh        r3,[param_1,#0x0]                       
ram:0003c4ba    3b49            ldr         param_2=>DAT_200030d4,[DAT_0003c5a8]    ;= 200030D4h
ram:0003c4bc    102b            cmp         r3,#0x10                                
ram:0003c4be    05d0            beq         LAB_0003c4cc                            
ram:0003c4c0    0022            movs        param_3,#0x0                            
ram:0003c4c2    112b            cmp         r3,#0x11                                
ram:0003c4c4    05d0            beq         LAB_0003c4d2                            
ram:0003c4c6    502b            cmp         r3,#0x50                                
ram:0003c4c8    1ed1            bne         LAB_0003c508                            
ram:0003c4ca    07e0            b           LAB_0003c4dc                            
                            LAB_0003c4cc:                 ;XREF[1,0]:   0003c4be
ram:0003c4cc    8088            ldrh        param_1,[param_1,#0x4]                  
ram:0003c4ce    0880            strh        param_1,[param_2,#0x0]=>DAT_200030d4    
ram:0003c4d0    1ae0            b           LAB_0003c508                            
                            LAB_0003c4d2:                 ;XREF[1,0]:   0003c4c4
ram:0003c4d2    0020            movs        param_1,#0x0                            
ram:0003c4d4    c043            mvns        param_1,param_1                         
ram:0003c4d6    0880            strh        param_1,[param_2,#0x0]=>DAT_200030d4    
ram:0003c4d8    8a70            strb        param_3,[param_2,#0x2]=>DAT_200030d6    
ram:0003c4da    15e0            b           LAB_0003c508                            
                            LAB_0003c4dc:                 ;XREF[1,0]:   0003c4ca
ram:0003c4dc    801d            adds        param_1,param_1,#0x6                    
ram:0003c4de    0388            ldrh        r3,[param_1,#0x0]                       
ram:0003c4e0    8c89            ldrh        r4,[param_2,#0xc]=>DAT_200030e0         
ram:0003c4e2    a342            cmp         r3,r4                                   
ram:0003c4e4    04d1            bne         LAB_0003c4f0                            
ram:0003c4e6    017e            ldrb        param_2,[param_1,#0x18]                 
ram:0003c4e8    1a30            adds        param_1,#0x1a                           
ram:0003c4ea    00f063f8        bl          FUN_0003c5b4                            ;undefined FUN_0003c5b4(int param_1, ...
ram:0003c4ee    0be0            b           LAB_0003c508                            
                            LAB_0003c4f0:                 ;XREF[1,0]:   0003c4e4
ram:0003c4f0    0c89            ldrh        r4,[param_2,#0x8]=>DAT_200030dc         
ram:0003c4f2    a342            cmp         r3,r4                                   
ram:0003c4f4    08d1            bne         LAB_0003c508                            
ram:0003c4f6    837e            ldrb        r3,[param_1,#0x1a]                      
ram:0003c4f8    c07e            ldrb        param_1,[param_1,#0x1b]                 
ram:0003c4fa    0002            lsls        param_1,param_1,#0x8                    
ram:0003c4fc    1818            adds        param_1,r3,param_1                      
ram:0003c4fe    00d1            bne         LAB_0003c502                            
ram:0003c500    8a70            strb        param_3,[param_2,#0x2]=>DAT_200030d6    
                            LAB_0003c502:                 ;XREF[1,0]:   0003c4fe
ram:0003c502    0128            cmp         param_1,#0x1                            
ram:0003c504    00d1            bne         LAB_0003c508                            
ram:0003c506    8870            strb        param_1,[param_2,#0x2]=>DAT_200030d6    
                            LAB_0003c508:                 ;XREF[6,0]:   0003c4c8,0003c4d0,0003c4da,0003c4ee
                                                          ;             0003c4f4,0003c504
ram:0003c508    00f089f8        bl          FUN_0003c61e                            ;undefined8 FUN_0003c61e(undefined4 p...
ram:0003c50c    10bd            pop         {r4,pc}                                 
                            ;************************************************************************************************
                            ;*                                           FUNCTION                                           *
                            ;************************************************************************************************
                            ;undefined FUN_0003c50e(void)
          ;local_10      undefined2         -10                      ;XREF[2,0]:   0003c54e,0003c592
          ;local_12      undefined1         -12                      ;XREF[2,0]:   0003c522,0003c564
          ;local_14      undefined2         -14                      ;XREF[2,0]:   0003c526,0003c568
          ;local_18      undefined4         -18                      ;XREF[2,0]:   0003c544,0003c588
          ;local_1c      undefined4         -1c                      ;XREF[2,0]:   0003c542,0003c584
          ;local_20      undefined4         -20                      ;XREF[2,0]:   0003c53e,0003c586
                                                          ;XREF[1,0]:   0003f098
ram:0003c50e    30b5            push        {r4,r5,lr}                              
ram:0003c510    85b0            sub         sp,#0x14                                
ram:0003c512    0021            movs        r1,#0x0                                 
ram:0003c514    2448            ldr         r0,[DAT_0003c5a8]                       ;= 200030D4h
ram:0003c516    c943            mvns        r1,r1                                   
ram:0003c518    0180            strh        r1,[r0,#0x0]=>DAT_200030d4              
ram:0003c51a    0024            movs        r4,#0x0                                 
ram:0003c51c    8470            strb        r4,[r0,#0x2]=>DAT_200030d6              
ram:0003c51e    0125            movs        r5,#0x1                                 
ram:0003c520    6846            mov         r0,sp                                   
ram:0003c522    8573            strb        r5,[r0,#local_12+0x20]                  
ram:0003c524    4901            lsls        r1,r1,#0x5                              
ram:0003c526    8181            strh        r1,[r0,#local_14+0x20]                  
ram:0003c528    04aa            add         r2,sp,#0x10                             
ram:0003c52a    03a9            add         r1,sp,#0xc                              
ram:0003c52c    2846            mov         r0,r5                                   
ram:0003c52e    a0df            svc         0xa0                                    
ram:0003c530    0028            cmp         r0,#0x0                                 
ram:0003c532    03d0            beq         LAB_0003c53c                            
ram:0003c534    0022            movs        r2,#0x0                                 
ram:0003c536    1146            mov         r1,r2                                   
ram:0003c538    01f050f8        bl          FUN_0003d5dc                            ;undefined FUN_0003d5dc(void)
                            LAB_0003c53c:                 ;XREF[1,0]:   0003c532
ram:0003c53c    1a48            ldr         r0,[DAT_0003c5a8]                       ;= 200030D4h
ram:0003c53e    0094            str         r4,[sp,#0x0]=>local_20                  
ram:0003c540    001d            adds        r0,r0,#0x4                              
ram:0003c542    0190            str         r0,[sp,#local_1c+0x20]                  
ram:0003c544    0294            str         r4,[sp,#local_18+0x20]                  
ram:0003c546    6846            mov         r0,sp                                   
ram:0003c548    1423            movs        r3,#0x14                                
ram:0003c54a    0822            movs        r2,#0x8                                 
ram:0003c54c    1849            ldr         r1,[DAT_0003c5b0]                       ;= 0000FFE4h
ram:0003c54e    008a            ldrh        r0,[r0,#local_10+0x20]                  
ram:0003c550    00f0dcf8        bl          FUN_0003c70c                            ;undefined4 FUN_0003c70c(undefined4 p...
ram:0003c554    0028            cmp         r0,#0x0                                 
ram:0003c556    03d0            beq         LAB_0003c560                            
ram:0003c558    0022            movs        r2,#0x0                                 
ram:0003c55a    1146            mov         r1,r2                                   
ram:0003c55c    01f03ef8        bl          FUN_0003d5dc                            ;undefined FUN_0003d5dc(void)
                            LAB_0003c560:                 ;XREF[1,0]:   0003c556
ram:0003c560    6846            mov         r0,sp                                   
ram:0003c562    1a21            movs        r1,#0x1a                                
ram:0003c564    8573            strb        r5,[r0,#local_12+0x20]                  
ram:0003c566    c943            mvns        r1,r1                                   
ram:0003c568    8181            strh        r1,[r0,#local_14+0x20]                  
ram:0003c56a    04aa            add         r2,sp,#0x10                             
ram:0003c56c    03a9            add         r1,sp,#0xc                              
ram:0003c56e    0120            movs        r0,#0x1                                 
ram:0003c570    a0df            svc         0xa0                                    
ram:0003c572    0028            cmp         r0,#0x0                                 
ram:0003c574    03d0            beq         LAB_0003c57e                            
ram:0003c576    0022            movs        r2,#0x0                                 
ram:0003c578    1146            mov         r1,r2                                   
ram:0003c57a    01f02ff8        bl          FUN_0003d5dc                            ;undefined FUN_0003d5dc(void)
                            LAB_0003c57e:                 ;XREF[1,0]:   0003c574
ram:0003c57e    0a48            ldr         r0,[DAT_0003c5a8]                       ;= 200030D4h
ram:0003c580    0b49            ldr         r1,[DAT_0003c5b0]                       ;= 0000FFE4h
ram:0003c582    0c30            adds        r0,#0xc                                 
ram:0003c584    0190            str         r0=>DAT_200030e0,[sp,#local_1c+0x20]    
ram:0003c586    0094            str         r4,[sp,#0x0]=>local_20                  
ram:0003c588    0294            str         r4,[sp,#local_18+0x20]                  
ram:0003c58a    6846            mov         r0,sp                                   
ram:0003c58c    1423            movs        r3,#0x14                                
ram:0003c58e    0622            movs        r2,#0x6                                 
ram:0003c590    491d            adds        r1,r1,#0x5                              
ram:0003c592    008a            ldrh        r0,[r0,#local_10+0x20]                  
ram:0003c594    00f0baf8        bl          FUN_0003c70c                            ;undefined4 FUN_0003c70c(undefined4 p...
ram:0003c598    0028            cmp         r0,#0x0                                 
ram:0003c59a    03d0            beq         LAB_0003c5a4                            
ram:0003c59c    0022            movs        r2,#0x0                                 
ram:0003c59e    1146            mov         r1,r2                                   
ram:0003c5a0    01f01cf8        bl          FUN_0003d5dc                            ;undefined FUN_0003d5dc(void)
                            LAB_0003c5a4:                 ;XREF[1,0]:   0003c59a
ram:0003c5a4    05b0            add         sp,#0x14                                
ram:0003c5a6    30bd            pop         {r4,r5,pc}                              
                            DAT_0003c5a8:                 ;XREF[5,0]:   0003c46a,0003c4ba,0003c514,0003c53c
                                                          ;             0003c57e
ram:0003c5a8    d4300020        undefined4  200030D4h                               
                            DAT_0003c5ac:                 ;XREF[1,0]:   0003c4a2
ram:0003c5ac    04300000        undefined4  00003004h                               
                            DAT_0003c5b0:                 ;XREF[2,0]:   0003c54c,0003c580
ram:0003c5b0    e4ff0000        undefined4  0000FFE4h                               
                            ;************************************************************************************************
                            ;*                                           FUNCTION                                           *
                            ;************************************************************************************************
                            ;undefined FUN_0003c5b4(int param_1, int param_2)
          ;param_1       int                 r0                      
          ;param_2       int                 r1                      
                                                          ;XREF[1,0]:   0003c4ea
ram:0003c5b4    70b5            push        {r4,r5,r6,lr}                           
ram:0003c5b6    0d46            mov         r5,param_2                              
ram:0003c5b8    0446            mov         r4,param_1                              
ram:0003c5ba    0e22            movs        r2,#0xe                                 
ram:0003c5bc    4ea1            adr         param_2=>s_%@#11...,[s_%@#110131Ybh$_...;= "%@#110131Ybh$"
ram:0003c5be    02f099ff        bl          FUN_0003f4f4                            ;undefined FUN_0003f4f4(int param_1, ...
ram:0003c5c2    0146            mov         param_2,param_1                         
ram:0003c5c4    0020            movs        param_1,#0x0                            
ram:0003c5c6    504a            ldr         r2,[DAT_0003c708]                       ;= 20002C00h
ram:0003c5c8    0029            cmp         param_2,#0x0                            
ram:0003c5ca    25d1            bne         LAB_0003c618                            
ram:0003c5cc    142d            cmp         r5,#0x14                                
ram:0003c5ce    23d1            bne         LAB_0003c618                            
ram:0003c5d0    a17b            ldrb        param_2,[r4,#0xe]                       
ram:0003c5d2    e37b            ldrb        r3,[r4,#0xf]                            
ram:0003c5d4    0904            lsls        param_2,param_2,#0x10                   
ram:0003c5d6    1b02            lsls        r3,r3,#0x8                              
ram:0003c5d8    c918            adds        param_2,param_2,r3                      
ram:0003c5da    237c            ldrb        r3,[r4,#0x10]                           
ram:0003c5dc    c918            adds        param_2,param_2,r3                      
ram:0003c5de    5160            str         param_2,[r2,#offset DAT_20002c04 &0xff] 
ram:0003c5e0    637c            ldrb        r3,[r4,#0x11]                           
ram:0003c5e2    a57c            ldrb        r5,[r4,#0x12]                           
ram:0003c5e4    1b04            lsls        r3,r3,#0x10                             
ram:0003c5e6    2d02            lsls        r5,r5,#0x8                              
ram:0003c5e8    e47c            ldrb        r4,[r4,#0x13]                           
ram:0003c5ea    5b19            adds        r3,r3,r5                                
ram:0003c5ec    1c19            adds        r4,r3,r4                                
ram:0003c5ee    0123            movs        r3,#0x1                                 
ram:0003c5f0    9460            str         r4,[r2,#offset DAT_20002c08 &0xff]      
ram:0003c5f2    1b07            lsls        r3,r3,#0x1c                             
ram:0003c5f4    d160            str         param_2,[r2,#offset DAT_20002c0c &0xff] 
ram:0003c5f6    5d69            ldr         r5,[r3,#offset DAT_10000014 &0xff]      
ram:0003c5f8    1e69            ldr         r6,[r3,#offset DAT_10000010 &0xff]      
ram:0003c5fa    7543            muls        r5,r6                                   
ram:0003c5fc    8d42            cmp         r5,param_2                              
ram:0003c5fe    06d9            bls         LAB_0003c60e                            
ram:0003c600    5d69            ldr         r5,[r3,#offset DAT_10000014 &0xff]      
ram:0003c602    1b69            ldr         r3,[r3,#offset DAT_10000010 &0xff]      
ram:0003c604    5d43            muls        r5,r3                                   
ram:0003c606    a542            cmp         r5,r4                                   
ram:0003c608    01d9            bls         LAB_0003c60e                            
ram:0003c60a    a142            cmp         param_2,r4                              
ram:0003c60c    01d3            bcc         LAB_0003c612                            
                            LAB_0003c60e:                 ;XREF[2,0]:   0003c5fe,0003c608
ram:0003c60e    1070            strb        param_1,[r2,#0x0]=>DAT_20002c00         
ram:0003c610    70bd            pop         {r4,r5,r6,pc}                           
                            LAB_0003c612:                 ;XREF[1,0]:   0003c60c
ram:0003c612    601a            subs        param_1,r4,param_2                      
ram:0003c614    1061            str         param_1,[r2,#offset DAT_20002c10 &0xff] 
ram:0003c616    0120            movs        param_1,#0x1                            
                            LAB_0003c618:                 ;XREF[2,0]:   0003c5ca,0003c5ce
ram:0003c618    1070            strb        param_1,[r2,#0x0]=>DAT_20002c00         
ram:0003c61a    c0b2            uxtb        param_1,param_1                         
ram:0003c61c    70bd            pop         {r4,r5,r6,pc}                           
                            ;************************************************************************************************
                            ;*                                           FUNCTION                                           *
                            ;************************************************************************************************
                            ;undefined8 FUN_0003c61e(undefined4 param_1, undefined4 param_2, undefined4 param_3, undefined4 param_4)
          ;param_1       undefined4          r0                      
          ;param_2       undefined4          r1                      
          ;param_3       undefined4          r2                      
          ;param_4       undefined4          r3                      
                                                          ;XREF[1,0]:   0003c508
ram:0003c61e    7fb5            push        {param_1,param_2,param_3,param_4,r4,r...
ram:0003c620    394c            ldr         r4,[DAT_0003c708]                       ;= 20002C00h
ram:0003c622    2078            ldrb        param_1,[r4,#0x0]=>DAT_20002c00         
ram:0003c624    0028            cmp         param_1,#0x0                            
ram:0003c626    63d0            beq         LAB_0003c6f0                            
ram:0003c628    2069            ldr         param_1,[r4,#offset DAT_20002c10 &0xff] 
ram:0003c62a    1028            cmp         param_1,#0x10                           
ram:0003c62c    00d3            bcc         LAB_0003c630                            
ram:0003c62e    1020            movs        param_1,#0x10                           
                            LAB_0003c630:                 ;XREF[1,0]:   0003c62c
ram:0003c630    c6b2            uxtb        r6,param_1                              
ram:0003c632    3246            mov         param_3,r6                              
ram:0003c634    6846            mov         param_1,sp                              
ram:0003c636    e168            ldr         param_2,[r4,#offset DAT_20002c0c &0xff] 
ram:0003c638    02f024ff        bl          FUN_0003f484                            ;undefined FUN_0003f484(undefined4 * ...
ram:0003c63c    3146            mov         param_2,r6                              
ram:0003c63e    6846            mov         param_1,sp                              
ram:0003c640    fff712ff        bl          FUN_0003c468                            ;undefined8 FUN_0003c468(undefined4 p...
ram:0003c644    0025            movs        r5,#0x0                                 
ram:0003c646    0028            cmp         param_1,#0x0                            
ram:0003c648    06d1            bne         LAB_0003c658                            
ram:0003c64a    e068            ldr         param_1,[r4,#offset DAT_20002c0c &0xff] 
ram:0003c64c    8019            adds        param_1,param_1,r6                      
ram:0003c64e    e060            str         param_1,[r4,#offset DAT_20002c0c &0xff] 
ram:0003c650    2069            ldr         param_1,[r4,#offset DAT_20002c10 &0xff] 
ram:0003c652    801b            subs        param_1,param_1,r6                      
ram:0003c654    2061            str         param_1,[r4,#offset DAT_20002c10 &0xff] 
ram:0003c656    10d0            beq         LAB_0003c67a                            
                            LAB_0003c658:                 ;XREF[1,0]:   0003c648
ram:0003c658    2069            ldr         param_1,[r4,#offset DAT_20002c10 &0xff] 
ram:0003c65a    1028            cmp         param_1,#0x10                           
ram:0003c65c    00d3            bcc         LAB_0003c660                            
ram:0003c65e    1020            movs        param_1,#0x10                           
                            LAB_0003c660:                 ;XREF[2,0]:   0003c65c,0003c67c
ram:0003c660    c6b2            uxtb        r6,param_1                              
ram:0003c662    3246            mov         param_3,r6                              
ram:0003c664    6846            mov         param_1,sp                              
ram:0003c666    e168            ldr         param_2,[r4,#offset DAT_20002c0c &0xff] 
ram:0003c668    02f00cff        bl          FUN_0003f484                            ;undefined FUN_0003f484(undefined4 * ...
ram:0003c66c    3146            mov         param_2,r6                              
ram:0003c66e    6846            mov         param_1,sp                              
ram:0003c670    fff7fafe        bl          FUN_0003c468                            ;undefined8 FUN_0003c468(undefined4 p...
ram:0003c674    0028            cmp         param_1,#0x0                            
ram:0003c676    02d0            beq         LAB_0003c67e                            
ram:0003c678    08e0            b           LAB_0003c68c                            
                            LAB_0003c67a:                 ;XREF[1,0]:   0003c656
ram:0003c67a    2570            strb        r5,[r4,#0x0]=>DAT_20002c00              
ram:0003c67c    f0e7            b           LAB_0003c660                            
                            LAB_0003c67e:                 ;XREF[1,0]:   0003c676
ram:0003c67e    e068            ldr         param_1,[r4,#offset DAT_20002c0c &0xff] 
ram:0003c680    8019            adds        param_1,param_1,r6                      
ram:0003c682    e060            str         param_1,[r4,#offset DAT_20002c0c &0xff] 
ram:0003c684    2069            ldr         param_1,[r4,#offset DAT_20002c10 &0xff] 
ram:0003c686    801b            subs        param_1,param_1,r6                      
ram:0003c688    2061            str         param_1,[r4,#offset DAT_20002c10 &0xff] 
ram:0003c68a    10d0            beq         LAB_0003c6ae                            
                            LAB_0003c68c:                 ;XREF[1,0]:   0003c678
ram:0003c68c    2069            ldr         param_1,[r4,#offset DAT_20002c10 &0xff] 
ram:0003c68e    1028            cmp         param_1,#0x10                           
ram:0003c690    00d3            bcc         LAB_0003c694                            
ram:0003c692    1020            movs        param_1,#0x10                           
                            LAB_0003c694:                 ;XREF[2,0]:   0003c690,0003c6b0
ram:0003c694    c6b2            uxtb        r6,param_1                              
ram:0003c696    3246            mov         param_3,r6                              
ram:0003c698    6846            mov         param_1,sp                              
ram:0003c69a    e168            ldr         param_2,[r4,#offset DAT_20002c0c &0xff] 
ram:0003c69c    02f0f2fe        bl          FUN_0003f484                            ;undefined FUN_0003f484(undefined4 * ...
ram:0003c6a0    3146            mov         param_2,r6                              
ram:0003c6a2    6846            mov         param_1,sp                              
ram:0003c6a4    fff7e0fe        bl          FUN_0003c468                            ;undefined8 FUN_0003c468(undefined4 p...
ram:0003c6a8    0028            cmp         param_1,#0x0                            
ram:0003c6aa    02d0            beq         LAB_0003c6b2                            
ram:0003c6ac    08e0            b           LAB_0003c6c0                            
                            LAB_0003c6ae:                 ;XREF[1,0]:   0003c68a
ram:0003c6ae    2570            strb        r5,[r4,#0x0]=>DAT_20002c00              
ram:0003c6b0    f0e7            b           LAB_0003c694                            
                            LAB_0003c6b2:                 ;XREF[1,0]:   0003c6aa
ram:0003c6b2    e068            ldr         param_1,[r4,#offset DAT_20002c0c &0xff] 
ram:0003c6b4    8019            adds        param_1,param_1,r6                      
ram:0003c6b6    e060            str         param_1,[r4,#offset DAT_20002c0c &0xff] 
ram:0003c6b8    2069            ldr         param_1,[r4,#offset DAT_20002c10 &0xff] 
ram:0003c6ba    801b            subs        param_1,param_1,r6                      
ram:0003c6bc    2061            str         param_1,[r4,#offset DAT_20002c10 &0xff] 
ram:0003c6be    18d0            beq         LAB_0003c6f2                            
                            LAB_0003c6c0:                 ;XREF[1,0]:   0003c6ac
ram:0003c6c0    2069            ldr         param_1,[r4,#offset DAT_20002c10 &0xff] 
ram:0003c6c2    1028            cmp         param_1,#0x10                           
ram:0003c6c4    00d3            bcc         LAB_0003c6c8                            
ram:0003c6c6    1020            movs        param_1,#0x10                           
                            LAB_0003c6c8:                 ;XREF[2,0]:   0003c6c4,0003c6f4
ram:0003c6c8    c6b2            uxtb        r6,param_1                              
ram:0003c6ca    3246            mov         param_3,r6                              
ram:0003c6cc    6846            mov         param_1,sp                              
ram:0003c6ce    e168            ldr         param_2,[r4,#offset DAT_20002c0c &0xff] 
ram:0003c6d0    02f0d8fe        bl          FUN_0003f484                            ;undefined FUN_0003f484(undefined4 * ...
ram:0003c6d4    3146            mov         param_2,r6                              
ram:0003c6d6    6846            mov         param_1,sp                              
ram:0003c6d8    fff7c6fe        bl          FUN_0003c468                            ;undefined8 FUN_0003c468(undefined4 p...
ram:0003c6dc    0028            cmp         param_1,#0x0                            
ram:0003c6de    07d1            bne         LAB_0003c6f0                            
ram:0003c6e0    e068            ldr         param_1,[r4,#offset DAT_20002c0c &0xff] 
ram:0003c6e2    8019            adds        param_1,param_1,r6                      
ram:0003c6e4    e060            str         param_1,[r4,#offset DAT_20002c0c &0xff] 
ram:0003c6e6    2069            ldr         param_1,[r4,#offset DAT_20002c10 &0xff] 
ram:0003c6e8    801b            subs        param_1,param_1,r6                      
ram:0003c6ea    2061            str         param_1,[r4,#offset DAT_20002c10 &0xff] 
ram:0003c6ec    00d1            bne         LAB_0003c6f0                            
ram:0003c6ee    2570            strb        r5,[r4,#0x0]=>DAT_20002c00              
                            LAB_0003c6f0:                 ;XREF[3,0]:   0003c626,0003c6de,0003c6ec
ram:0003c6f0    7fbd            pop         {param_1,param_2,param_3,param_4,r4,r...
                            LAB_0003c6f2:                 ;XREF[1,0]:   0003c6be
ram:0003c6f2    2570            strb        r5,[r4,#0x0]=>DAT_20002c00              
ram:0003c6f4    e8e7            b           LAB_0003c6c8                            
ram:0003c6f6    0000            movs        r0,r0                                   
                            s_%@#110131Ybh$_0003c6f8:     ;XREF[2,0]:   0003c5bc,0003c5bc
ram:0003c6f8    254023313...    ds          "%@#110131Ybh$"                         
ram:0003c706    00              ??          00h                                     
ram:0003c707    00              ??          00h                                     
                            DAT_0003c708:                 ;XREF[2,0]:   0003c5c6,0003c620
ram:0003c708    002c0020        undefined4  20002C00h                               
                            ;************************************************************************************************
                            ;*                                           FUNCTION                                           *
                            ;************************************************************************************************
                            ;undefined4 FUN_0003c70c(undefined4 param_1, undefined4 param_2, uint param_3, undefined4 param_4, undefined4 param_5, undefined4 param_6, char * param_7)
          ;param_1       undefined4          r0                      
          ;param_2       undefined4          r1                      
          ;param_3       uint                r2                      
          ;param_4       undefined4          r3                      
          ;param_5       undefined4           0                      ;XREF[1,0]:   0003c7d8
          ;param_6       undefined4           4                      ;XREF[1,0]:   0003c7de
          ;param_7       char *               8                      ;XREF[1,0]:   0003c71a
          ;local_24      undefined4         -24                      ;XREF[1,0]:   0003c7e0
          ;local_2c      undefined4         -2c                      ;XREF[1,0]:   0003c7da
          ;local_30      undefined2         -30                      ;XREF[1,0]:   0003c7d6
          ;local_32      undefined2         -32                      ;XREF[1,0]:   0003c7d4
          ;local_34      undefined2         -34                      ;XREF[1,0]:   0003c7d2
          ;local_38      undefined4         -38                      ;XREF[1,0]:   0003c7d0
          ;local_3c      undefined4         -3c                      ;XREF[1,0]:   0003c7ca
          ;local_3e      undefined1         -3e                      ;XREF[1,0]:   0003c794
          ;local_40      undefined2         -40                      ;XREF[1,0]:   0003c798
          ;local_44      undefined4         -44                      ;XREF[2,3]:   0003c79a,0003c7a2,0003c7ac,0003c7ae,0003c7be
          ;local_48      undefined4         -48                      ;XREF[1,0]:   0003c792
          ;local_4c      undefined4         -4c                      ;XREF[1,0]:   0003c78e
          ;local_50      undefined4         -50                      ;XREF[1,0]:   0003c78c
          ;local_54      undefined4         -54                      ;XREF[1,0]:   0003c78a
          ;local_56      undefined2         -56                      ;XREF[1,0]:   0003c77a
          ;local_58      undefined2         -58                      ;XREF[1,0]:   0003c784
          ;local_5c      undefined4         -5c                      ;XREF[1,0]:   0003c772
          ;local_60      undefined1         -60                      ;XREF[10,0]:  0003c726,0003c72e,0003c736,0003c73e,0003c746
                                                                     ;             0003c74e,0003c756,0003c75e,0003c766,0003c76e
                                                          ;XREF[2,0]:   0003c550,0003c594
ram:0003c70c    ffb5            push        {param_1,param_2,param_3,param_4,r4,r...
ram:0003c70e    8fb0            sub         sp,#0x3c                                
ram:0003c710    0f46            mov         r7,param_2                              
ram:0003c712    1e46            mov         r6,param_4                              
ram:0003c714    1446            mov         r4,param_3                              
ram:0003c716    1c21            movs        param_2,#0x1c                           
ram:0003c718    6846            mov         param_1,sp                              
ram:0003c71a    1a9d            ldr         r5,[sp,#param_7+0x60]                   
ram:0003c71c    02f0cbfe        bl          FUN_0003f4b6                            ;undefined FUN_0003f4b6(undefined * p...
ram:0003c720    e007            lsls        param_1,r4,#0x1f                        
ram:0003c722    05d0            beq         LAB_0003c730                            
ram:0003c724    6946            mov         param_2,sp                              
ram:0003c726    0878            ldrb        param_1,[param_2,#0x0]=>local_60        
ram:0003c728    0221            movs        param_2,#0x2                            
ram:0003c72a    0843            orrs        param_1,param_2                         
ram:0003c72c    6946            mov         param_2,sp                              
ram:0003c72e    0870            strb        param_1,[param_2,#0x0]=>local_60        
                            LAB_0003c730:                 ;XREF[1,0]:   0003c722
ram:0003c730    a007            lsls        param_1,r4,#0x1e                        
ram:0003c732    05d5            bpl         LAB_0003c740                            
ram:0003c734    6946            mov         param_2,sp                              
ram:0003c736    0878            ldrb        param_1,[param_2,#0x0]=>local_60        
ram:0003c738    0821            movs        param_2,#0x8                            
ram:0003c73a    0843            orrs        param_1,param_2                         
ram:0003c73c    6946            mov         param_2,sp                              
ram:0003c73e    0870            strb        param_1,[param_2,#0x0]=>local_60        
                            LAB_0003c740:                 ;XREF[1,0]:   0003c732
ram:0003c740    6007            lsls        param_1,r4,#0x1d                        
ram:0003c742    05d5            bpl         LAB_0003c750                            
ram:0003c744    6946            mov         param_2,sp                              
ram:0003c746    0878            ldrb        param_1,[param_2,#0x0]=>local_60        
ram:0003c748    0421            movs        param_2,#0x4                            
ram:0003c74a    0843            orrs        param_1,param_2                         
ram:0003c74c    6946            mov         param_2,sp                              
ram:0003c74e    0870            strb        param_1,[param_2,#0x0]=>local_60        
                            LAB_0003c750:                 ;XREF[1,0]:   0003c742
ram:0003c750    2007            lsls        param_1,r4,#0x1c                        
ram:0003c752    05d5            bpl         LAB_0003c760                            
ram:0003c754    6946            mov         param_2,sp                              
ram:0003c756    0878            ldrb        param_1,[param_2,#0x0]=>local_60        
ram:0003c758    1021            movs        param_2,#0x10                           
ram:0003c75a    0843            orrs        param_1,param_2                         
ram:0003c75c    6946            mov         param_2,sp                              
ram:0003c75e    0870            strb        param_1,[param_2,#0x0]=>local_60        
                            LAB_0003c760:                 ;XREF[1,0]:   0003c752
ram:0003c760    e006            lsls        param_1,r4,#0x1b                        
ram:0003c762    05d5            bpl         LAB_0003c770                            
ram:0003c764    6946            mov         param_2,sp                              
ram:0003c766    0878            ldrb        param_1,[param_2,#0x0]=>local_60        
ram:0003c768    2021            movs        param_2,#0x20                           
ram:0003c76a    0843            orrs        param_1,param_2                         
ram:0003c76c    6946            mov         param_2,sp                              
ram:0003c76e    0870            strb        param_1,[param_2,#0x0]=>local_60        
                            LAB_0003c770:                 ;XREF[1,0]:   0003c762
ram:0003c770    2846            mov         param_1,r5                              
ram:0003c772    0195            str         r5,[sp,#local_5c+0x60]                  
ram:0003c774    02f0aafe        bl          FUN_0003f4cc                            ;int FUN_0003f4cc(char * param_1)
ram:0003c778    6946            mov         param_2,sp                              
ram:0003c77a    4881            strh        param_1,[r1,#local_56+0x60]             
ram:0003c77c    2846            mov         param_1,r5                              
ram:0003c77e    02f0a5fe        bl          FUN_0003f4cc                            ;int FUN_0003f4cc(char * param_1)
ram:0003c782    6946            mov         param_2,sp                              
ram:0003c784    0881            strh        param_1,[r1,#local_58+0x60]             
ram:0003c786    0025            movs        r5,#0x0                                 
ram:0003c788    0122            movs        param_3,#0x1                            
ram:0003c78a    0395            str         r5,[sp,#local_54+0x60]                  
ram:0003c78c    0495            str         r5,[sp,#local_50+0x60]                  
ram:0003c78e    0595            str         r5,[sp,#local_4c+0x60]                  
ram:0003c790    08a9            add         param_2,sp,#0x20                        
ram:0003c792    0695            str         r5,[sp,#local_48+0x60]                  
ram:0003c794    8a70            strb        param_3,[r1,#local_3e+0x40]             
ram:0003c796    6946            mov         param_2,sp                              
ram:0003c798    0f84            strh        r7,[r1,#local_40+0x60]                  
ram:0003c79a    0795            str         r5,[sp,#local_44+0x60]                  
ram:0003c79c    e007            lsls        param_1,r4,#0x1f                        
ram:0003c79e    01d0            beq         LAB_0003c7a4                            
ram:0003c7a0    1120            movs        param_1,#0x11                           
ram:0003c7a2    0877            strb        param_1,[r1,#local_44+0x60]             
                            LAB_0003c7a4:                 ;XREF[1,0]:   0003c79e
ram:0003c7a4    6007            lsls        param_1,r4,#0x1d                        
ram:0003c7a6    800f            lsrs        param_1,param_1,#0x1e                   
ram:0003c7a8    01d0            beq         LAB_0003c7ae                            
ram:0003c7aa    1120            movs        param_1,#0x11                           
ram:0003c7ac    4877            strb        param_1,[r1,#local_44+0x61]             
                            LAB_0003c7ae:                 ;XREF[1,0]:   0003c7a8
ram:0003c7ae    887f            ldrb        param_1,[r1,#local_44+0x62]             
ram:0003c7b0    f921            movs        param_2,#0xf9                           
ram:0003c7b2    0840            ands        param_1,param_2                         
ram:0003c7b4    801c            adds        param_1,param_1,#0x2                    
ram:0003c7b6    e721            movs        param_2,#0xe7                           
ram:0003c7b8    0840            ands        param_1,param_2                         
ram:0003c7ba    1043            orrs        param_1,param_3                         
ram:0003c7bc    6946            mov         param_2,sp                              
ram:0003c7be    8877            strb        param_1,[r1,#local_44+0x62]             
ram:0003c7c0    1421            movs        param_2,#0x14                           
ram:0003c7c2    09a8            add         param_1,sp,#0x24                        
ram:0003c7c4    02f077fe        bl          FUN_0003f4b6                            ;undefined FUN_0003f4b6(undefined * p...
ram:0003c7c8    08a8            add         param_1,sp,#0x20                        
ram:0003c7ca    0990            str         param_1,[sp,#local_3c+0x60]             
ram:0003c7cc    07a8            add         param_1,sp,#0x1c                        
ram:0003c7ce    6946            mov         param_2,sp                              
ram:0003c7d0    0a90            str         param_1,[sp,#local_38+0x60]             
ram:0003c7d2    8e85            strh        r6,[r1,#local_34+0x60]                  
ram:0003c7d4    cd85            strh        r5,[r1,#local_32+0x60]                  
ram:0003c7d6    0e86            strh        r6,[r1,#local_30+0x60]                  
ram:0003c7d8    1898            ldr         param_1,[sp,#param_5+0x60]              
ram:0003c7da    0d90            str         param_1,[sp,#local_2c+0x60]             
ram:0003c7dc    09aa            add         param_3,sp,#0x24                        
ram:0003c7de    199b            ldr         param_4,[sp,#param_6+0x60]              
ram:0003c7e0    0f98            ldr         param_1,[sp,#local_24+0x60]             
ram:0003c7e2    a2df            svc         0xa2                                    
ram:0003c7e4    13b0            add         sp,#0x4c                                
ram:0003c7e6    f0bd            pop         {r4,r5,r6,r7,pc}                        
                            ;************************************************************************************************
                            ;*                                           FUNCTION                                           *
                            ;************************************************************************************************
                            ;undefined8 FUN_0003c7e8(undefined * param_1)
          ;param_1       undefined *         r0                      
          ;local_4       undefined2          -4                      ;XREF[1,0]:   0003c7fa
          ;local_1c      undefined4         -1c                      ;XREF[1,0]:   0003c808
          ;local_20      undefined4         -20                      ;XREF[1,0]:   0003c806
          ;local_24      undefined4         -24                      ;XREF[2,0]:   0003c7f8,0003c802
          ;local_28      undefined4         -28                      ;XREF[2,1]:   0003c7f4,0003c7fc,0003c800
                                                          ;XREF[1,0]:   0003c496
ram:0003c7e8    0fb4            push        {param_1,r1,r2,r3}                      
ram:0003c7ea    1fb5            push        {param_1,r1,r2,r3,r4,lr}                
ram:0003c7ec    0b49            ldr         r1,[DAT_0003c81c]                       ;= 0000FFFFh
ram:0003c7ee    8842            cmp         param_1,r1                              
ram:0003c7f0    12d0            beq         LAB_0003c818                            
ram:0003c7f2    0021            movs        r1,#0x0                                 
ram:0003c7f4    0091            str         r1,[sp,#0x0]=>local_28                  
ram:0003c7f6    6b46            mov         r3,sp                                   
ram:0003c7f8    0191            str         r1,[sp,#local_24+0x28]                  
ram:0003c7fa    9c8c            ldrh        r4,[r3,#local_4+0x28]                   
ram:0003c7fc    1c80            strh        r4,[r3,#0x0]=>local_28                  
ram:0003c7fe    0124            movs        r4,#0x1                                 
ram:0003c800    9c70            strb        r4,[r3,#local_28+0x2a]                  
ram:0003c802    9980            strh        r1,[r3,#local_24+0x28]                  
ram:0003c804    07a9            add         r1,sp,#0x1c                             
ram:0003c806    0291            str         r1,[sp,#local_20+0x28]                  
ram:0003c808    0392            str         r2,[sp,#local_1c+0x28]                  
ram:0003c80a    6946            mov         r1,sp                                   
ram:0003c80c    a6df            svc         0xa6                                    
                            LAB_0003c80e:                 ;XREF[1,0]:   0003c81a
ram:0003c80e    04b0            add         sp,#0x10                                
ram:0003c810    10bc            pop         {r4}                                    
ram:0003c812    08bc            pop         {r3}                                    
ram:0003c814    04b0            add         sp,#0x10                                
ram:0003c816    1847            bx          r3                                      
                            LAB_0003c818:                 ;XREF[1,0]:   0003c7f0
ram:0003c818    0820            movs        param_1,#0x8                            
ram:0003c81a    f8e7            b           LAB_0003c80e                            
                            DAT_0003c81c:                 ;XREF[1,0]:   0003c7ec
ram:0003c81c    ffff0000        undefined4  0000FFFFh                               
                            ;************************************************************************************************
                            ;*                                           FUNCTION                                           *
                            ;************************************************************************************************
                            ;undefined FUNC_Reset_0003c820(void)
                                                          ;XREF[0,1]:   0003c004
ram:0003c820    0321            movs        r1,#0x3                                 
ram:0003c822    0948            ldr         r0,[DAT_0003c848]                       ;= 40000524h
ram:0003c824    0268            ldr         r2,[r0,#0x0]=>DAT_40000524              
ram:0003c826    0a43            orrs        r2,r1                                   
ram:0003c828    0260            str         r2,[r0,#0x0]=>DAT_40000524              
ram:0003c82a    0848            ldr         r0,[DAT_0003c84c]                       ;= 40000554h
ram:0003c82c    0268            ldr         r2,[r0,#0x0]=>DAT_40000554              
ram:0003c82e    0a43            orrs        r2,r1                                   
ram:0003c830    0260            str         r2,[r0,#0x0]=>DAT_40000554              
ram:0003c832    0748            ldr         r0,[PTR_FUN_0003c858+1_0003c850]        ;= 0003c859
ram:0003c834    8047            blx         r0=>FUN_0003c858                        ;undefined FUN_0003c858(void)
ram:0003c836    0748            ldr         r0,[PTR_LAB_0003c0c0+1+1_0003c854]      ;= 0003c0c1
ram:0003c838    0047            bx          r0=>LAB_0003c0c0+1                      ;undefined LAB_0003c0c0+1(void)
                            ;************************************************************************************************
                            ;*                                           FUNCTION                                           *
                            ;************************************************************************************************
                            ;undefined FUNC_NMI_0003c83a(void)
                                                          ;XREF[1,1]:   0003c83a,0003c008
ram:0003c83a    fee7            b           FUNC_NMI_0003c83a                       
                            ;************************************************************************************************
                            ;*                                           FUNCTION                                           *
                            ;************************************************************************************************
                            ;undefined FUNC_HardFault_0003c83c(void)
                                                          ;XREF[1,1]:   0003c83c,0003c00c
ram:0003c83c    fee7            b           FUNC_HardFault_0003c83c                 
                            ;************************************************************************************************
                            ;*                                           FUNCTION                                           *
                            ;************************************************************************************************
                            ;undefined FUN_0003c83e(void)
                                                          ;XREF[1,0]:   0003c83e
ram:0003c83e    fee7            b           FUN_0003c83e                            
                            ;************************************************************************************************
                            ;*                                           FUNCTION                                           *
                            ;************************************************************************************************
                            ;undefined FUNC_PendSV_0003c840(void)
                                                          ;XREF[1,1]:   0003c840,0003c038
ram:0003c840    fee7            b           FUNC_PendSV_0003c840                    
                            ;************************************************************************************************
                            ;*                                           FUNCTION                                           *
                            ;************************************************************************************************
                            ;undefined FUNC_SysTick_0003c842(void)
                                                          ;XREF[1,1]:   0003c842,0003c03c
ram:0003c842    fee7            b           FUNC_SysTick_0003c842                   
                            ;************************************************************************************************
                            ;*                                           FUNCTION                                           *
                            ;************************************************************************************************
                            ;undefined FUNC_IRQ_0003c844(void)
                                                          ;XREF[1,22]:  0003c844,0003c040,0003c044,0003c048
                                                          ;             0003c04c,0003c050,0003c058,0003c05c
                                                          ;             0003c060,0003c064,0003c068,0003c06c
                                                          ;             0003c070,0003c074,0003c078,0003c07c
                                                          ;             0003c080,0003c088,0003c08c,0003c094
                                                          ;             0003c09c,0003c0a0,0003c0a4
ram:0003c844    fee7            b           FUNC_IRQ_0003c844                       
ram:0003c846    0000            movs        r0,r0                                   
                            DAT_0003c848:                 ;XREF[1,0]:   0003c822
ram:0003c848    24050040        undefined4  40000524h                               
                            DAT_0003c84c:                 ;XREF[1,0]:   0003c82a
ram:0003c84c    54050040        undefined4  40000554h                               
                            PTR_FUN_0003c858+1_0003c850:  ;XREF[1,0]:   0003c832
ram:0003c850    59c80300        addr        FUN_0003c858+1                          
                            PTR_LAB_0003c0c0+1+1_0003c854:;XREF[1,0]:   0003c836
ram:0003c854    c1c00300        addr        LAB_0003c0c0+1+1                        
                            ;************************************************************************************************
                            ;*                                           FUNCTION                                           *
                            ;************************************************************************************************
                            ;undefined FUN_0003c858(void)
                                                          ;XREF[1,1]:   0003c834,0003c850
ram:0003c858    10b5            push        {r4,lr}                                 
ram:0003c85a    00f01df8        bl          FUN_0003c898                            ;undefined4 FUN_0003c898(void)
ram:0003c85e    0028            cmp         r0,#0x0                                 
ram:0003c860    05d0            beq         LAB_0003c86e                            
ram:0003c862    1f49            ldr         r1,[DAT_0003c8e0]                       ;= 40000500h
ram:0003c864    1d48            ldr         r0,[DAT_0003c8dc]                       ;= C007FFDFh
ram:0003c866    4860            str         r0,[r1,#offset DAT_40000504 &0xff]      
ram:0003c868    c813            asrs        r0,r1,#0xf                              
ram:0003c86a    1e49            ldr         r1,[DAT_0003c8e4]                       ;= 40006C00h
ram:0003c86c    8861            str         r0,[r1,#offset DAT_40006c18 &0xff]      
                            LAB_0003c86e:                 ;XREF[1,0]:   0003c860
ram:0003c86e    1e48            ldr         r0,[DAT_0003c8e8]                       ;= F0000FC0h
ram:0003c870    018c            ldrh        r1,[r0,#0x20]=>DAT_f0000fe0             
ram:0003c872    c9b2            uxtb        r1,r1                                   
ram:0003c874    0129            cmp         r1,#0x1                                 
ram:0003c876    0ed1            bne         LAB_0003c896                            
ram:0003c878    818c            ldrh        r1,[r0,#0x24]=>DAT_f0000fe4             
ram:0003c87a    0907            lsls        r1,r1,#0x1c                             
ram:0003c87c    0bd1            bne         LAB_0003c896                            
ram:0003c87e    018d            ldrh        r1,[r0,#0x28]=>DAT_f0000fe8             
ram:0003c880    0906            lsls        r1,r1,#0x18                             
ram:0003c882    090f            lsrs        r1,r1,#0x1c                             
ram:0003c884    0429            cmp         r1,#0x4                                 
ram:0003c886    06d1            bne         LAB_0003c896                            
ram:0003c888    808d            ldrh        r0,[r0,#0x2c]=>DAT_f0000fec             
ram:0003c88a    0006            lsls        r0,r0,#0x18                             
ram:0003c88c    000f            lsrs        r0,r0,#0x1c                             
ram:0003c88e    02d1            bne         LAB_0003c896                            
ram:0003c890    1649            ldr         r1,[DAT_0003c8ec]                       ;= 40000600h
ram:0003c892    0120            movs        r0,#0x1                                 
ram:0003c894    8860            str         r0,[r1,#offset DAT_40000608 &0xff]      
                            LAB_0003c896:                 ;XREF[4,0]:   0003c876,0003c87c,0003c886,0003c88e
ram:0003c896    10bd            pop         {r4,pc}                                 
                            ;************************************************************************************************
                            ;*                                           FUNCTION                                           *
                            ;************************************************************************************************
                            ;undefined4 FUN_0003c898(void)
                                                          ;XREF[1,0]:   0003c85a
ram:0003c898    1348            ldr         r0,[DAT_0003c8e8]                       ;= F0000FC0h
ram:0003c89a    018c            ldrh        r1,[r0,#0x20]=>DAT_f0000fe0             
ram:0003c89c    c9b2            uxtb        r1,r1                                   
ram:0003c89e    0129            cmp         r1,#0x1                                 
ram:0003c8a0    17d1            bne         LAB_0003c8d2                            
ram:0003c8a2    818c            ldrh        r1,[r0,#0x24]=>DAT_f0000fe4             
ram:0003c8a4    0907            lsls        r1,r1,#0x1c                             
ram:0003c8a6    14d1            bne         LAB_0003c8d2                            
ram:0003c8a8    018d            ldrh        r1,[r0,#0x28]=>DAT_f0000fe8             
ram:0003c8aa    0906            lsls        r1,r1,#0x18                             
ram:0003c8ac    0a0f            lsrs        r2,r1,#0x1c                             
ram:0003c8ae    03d1            bne         LAB_0003c8b8                            
ram:0003c8b0    828d            ldrh        r2,[r0,#0x2c]=>DAT_f0000fec             
ram:0003c8b2    1206            lsls        r2,r2,#0x18                             
ram:0003c8b4    120f            lsrs        r2,r2,#0x1c                             
ram:0003c8b6    0ed0            beq         LAB_0003c8d6                            
                            LAB_0003c8b8:                 ;XREF[1,0]:   0003c8ae
ram:0003c8b8    090f            lsrs        r1,r1,#0x1c                             
ram:0003c8ba    0129            cmp         r1,#0x1                                 
ram:0003c8bc    03d1            bne         LAB_0003c8c6                            
ram:0003c8be    828d            ldrh        r2,[r0,#0x2c]=>DAT_f0000fec             
ram:0003c8c0    1206            lsls        r2,r2,#0x18                             
ram:0003c8c2    120f            lsrs        r2,r2,#0x1c                             
ram:0003c8c4    07d0            beq         LAB_0003c8d6                            
                            LAB_0003c8c6:                 ;XREF[1,0]:   0003c8bc
ram:0003c8c6    0329            cmp         r1,#0x3                                 
ram:0003c8c8    03d1            bne         LAB_0003c8d2                            
ram:0003c8ca    808d            ldrh        r0,[r0,#0x2c]=>DAT_f0000fec             
ram:0003c8cc    0006            lsls        r0,r0,#0x18                             
ram:0003c8ce    000f            lsrs        r0,r0,#0x1c                             
ram:0003c8d0    01d0            beq         LAB_0003c8d6                            
                            LAB_0003c8d2:                 ;XREF[3,0]:   0003c8a0,0003c8a6,0003c8c8
ram:0003c8d2    0020            movs        r0,#0x0                                 
ram:0003c8d4    7047            bx          lr                                      
                            LAB_0003c8d6:                 ;XREF[3,0]:   0003c8b6,0003c8c4,0003c8d0
ram:0003c8d6    0120            movs        r0,#0x1                                 
ram:0003c8d8    7047            bx          lr                                      
ram:0003c8da    0000            movs        r0,r0                                   
                            DAT_0003c8dc:                 ;XREF[1,0]:   0003c864
ram:0003c8dc    dfff07c0        undefined4  C007FFDFh                               
                            DAT_0003c8e0:                 ;XREF[1,0]:   0003c862
ram:0003c8e0    00050040        undefined4  40000500h                               
                            DAT_0003c8e4:                 ;XREF[1,0]:   0003c86a
ram:0003c8e4    006c0040        undefined4  40006C00h                               
                            DAT_0003c8e8:                 ;XREF[2,0]:   0003c86e,0003c898
ram:0003c8e8    c00f00f0        undefined4  F0000FC0h                               
                            DAT_0003c8ec:                 ;XREF[1,0]:   0003c890
ram:0003c8ec    00060040        undefined4  40000600h                               
                            ;************************************************************************************************
                            ;*                                           FUNCTION                                           *
                            ;************************************************************************************************
                            ;undefined8 FUN_0003c8f0(ushort * param_1, undefined * param_2, uint param_3, undefined * param_4, byte * param_5)
          ;param_1       ushort *            r0                      
          ;param_2       undefined *         r1                      
          ;param_3       uint                r2                      
          ;param_4       undefined *         r3                      
          ;param_5       byte *               0                      ;XREF[1,0]:   0003c8f8
          ;local_18      undefined4         -18                      ;XREF[3,0]:   0003c950,0003c95e,0003c986
          ;local_1c      undefined4         -1c                      ;XREF[1,0]:   0003c922
          ;local_20      undefined4         -20                      ;XREF[1,0]:   0003c952
          ;local_2a      undefined2         -2a                      ;XREF[1,0]:   0003c910
          ;local_2c      undefined2         -2c                      ;XREF[1,0]:   0003c90c
          ;local_30      undefined1         -30                      ;XREF[2,0]:   0003c920,0003c970
                                                          ;XREF[2,0]:   0003c9a0,0003c9b2
ram:0003c8f0    ffb5            push        {param_1,param_2,param_3,param_4,r4,r...
ram:0003c8f2    83b0            sub         sp,#0xc                                 
ram:0003c8f4    0746            mov         r7,param_1                              
ram:0003c8f6    0020            movs        param_1,#0x0                            
ram:0003c8f8    0c9c            ldr         r4,[sp,#param_5+0x30]                   
ram:0003c8fa    8646            mov         lr,param_1                              
ram:0003c8fc    2678            ldrb        r6,[r4,#0x0]                            
ram:0003c8fe    0546            mov         r5,param_1                              
ram:0003c900    3ae0            b           LAB_0003c978                            
                            LAB_0003c902:                 ;XREF[1,0]:   0003c97c
ram:0003c902    7868            ldr         param_1,[r7,#0x4]                       
ram:0003c904    a900            lsls        param_2,r5,#0x2                         
ram:0003c906    4118            adds        param_2,param_1,param_2                 
ram:0003c908    0a88            ldrh        param_3,[param_2,#0x0]                  
ram:0003c90a    6846            mov         param_1,sp                              
ram:0003c90c    8280            strh        param_3,[r0,#local_2c+0x30]             
ram:0003c90e    4988            ldrh        param_2,[param_2,#0x2]                  
ram:0003c910    c180            strh        param_2,[r0,#local_2a+0x30]             
ram:0003c912    0022            movs        param_3,#0x0                            
ram:0003c914    6946            mov         param_2,sp                              
ram:0003c916    01a8            add         param_1,sp,#0x4                         
ram:0003c918    65df            svc         0x65                                    
ram:0003c91a    0028            cmp         param_1,#0x0                            
ram:0003c91c    10d1            bne         LAB_0003c940                            
ram:0003c91e    6846            mov         param_1,sp                              
ram:0003c920    0178            ldrb        param_2=>local_30,[param_1,#0x0]        
ram:0003c922    0598            ldr         param_1,[sp,#local_1c+0x30]             
ram:0003c924    8142            cmp         param_2,param_1                         
ram:0003c926    26d1            bne         LAB_0003c976                            
ram:0003c928    7046            mov         param_1,lr                              
ram:0003c92a    0028            cmp         param_1,#0x0                            
ram:0003c92c    01d0            beq         LAB_0003c932                            
ram:0003c92e    0022            movs        param_3,#0x0                            
ram:0003c930    00e0            b           LAB_0003c934                            
                            LAB_0003c932:                 ;XREF[1,0]:   0003c92c
ram:0003c932    0222            movs        param_3,#0x2                            
                            LAB_0003c934:                 ;XREF[1,0]:   0003c930
ram:0003c934    2078            ldrb        param_1,[r4,#0x0]                       
ram:0003c936    8918            adds        param_2,param_2,param_3                 
ram:0003c938    4118            adds        param_2,param_1,param_2                 
ram:0003c93a    1f29            cmp         param_2,#0x1f                           
ram:0003c93c    02d9            bls         LAB_0003c944                            
ram:0003c93e    0c20            movs        param_1,#0xc                            
                            LAB_0003c940:                 ;XREF[3,0]:   0003c91c,0003c96a,0003c990
ram:0003c940    07b0            add         sp,#0x1c                                
ram:0003c942    f0bd            pop         {r4,r5,r6,r7,pc}                        
                            LAB_0003c944:                 ;XREF[1,0]:   0003c93c
ram:0003c944    7146            mov         param_2,lr                              
ram:0003c946    0029            cmp         param_2,#0x0                            
ram:0003c948    08d1            bne         LAB_0003c95c                            
ram:0003c94a    401c            adds        param_1,param_1,#0x1                    
ram:0003c94c    c0b2            uxtb        param_1,param_1                         
ram:0003c94e    411c            adds        param_2,param_1,#0x1                    
ram:0003c950    069b            ldr         param_4,[sp,#local_18+0x30]             
ram:0003c952    049a            ldr         param_3,[sp,#local_20+0x30]             
ram:0003c954    2170            strb        param_2,[r4,#0x0]                       
ram:0003c956    1a54            strb        param_3,[param_4,param_1]               
ram:0003c958    0120            movs        param_1,#0x1                            
ram:0003c95a    8646            mov         lr,param_1                              
                            LAB_0003c95c:                 ;XREF[1,0]:   0003c948
ram:0003c95c    2178            ldrb        param_2,[r4,#0x0]                       
ram:0003c95e    0698            ldr         param_1,[sp,#local_18+0x30]             
ram:0003c960    0a18            adds        param_3,param_2,param_1                 
ram:0003c962    6946            mov         param_2,sp                              
ram:0003c964    01a8            add         param_1,sp,#0x4                         
ram:0003c966    65df            svc         0x65                                    
ram:0003c968    0028            cmp         param_1,#0x0                            
ram:0003c96a    e9d1            bne         LAB_0003c940                            
ram:0003c96c    6946            mov         param_2,sp                              
ram:0003c96e    2078            ldrb        param_1,[r4,#0x0]                       
ram:0003c970    0978            ldrb        param_2=>local_30,[param_2,#0x0]        
ram:0003c972    4018            adds        param_1,param_1,param_2                 
ram:0003c974    2070            strb        param_1,[r4,#0x0]                       
                            LAB_0003c976:                 ;XREF[1,0]:   0003c926
ram:0003c976    6d1c            adds        r5,r5,#0x1                              
                            LAB_0003c978:                 ;XREF[1,0]:   0003c900
ram:0003c978    3888            ldrh        param_1,[r7,#0x0]                       
ram:0003c97a    a842            cmp         param_1,r5                              
ram:0003c97c    c1dc            bgt         LAB_0003c902                            
ram:0003c97e    7046            mov         param_1,lr                              
ram:0003c980    0028            cmp         param_1,#0x0                            
ram:0003c982    04d0            beq         LAB_0003c98e                            
ram:0003c984    2078            ldrb        param_1,[r4,#0x0]                       
ram:0003c986    0699            ldr         param_2,[sp,#local_18+0x30]             
ram:0003c988    801b            subs        param_1,param_1,r6                      
ram:0003c98a    401e            subs        param_1,param_1,#0x1                    
ram:0003c98c    8855            strb        param_1,[param_2,r6]                    
                            LAB_0003c98e:                 ;XREF[1,0]:   0003c982
ram:0003c98e    0020            movs        param_1,#0x0                            
ram:0003c990    d6e7            b           LAB_0003c940                            
                            ;************************************************************************************************
                            ;*                                           FUNCTION                                           *
                            ;************************************************************************************************
                            ;undefined8 FUN_0003c992(ushort * param_1, undefined * param_2, undefined * param_3, undefined * param_4, byte * param_5)
          ;param_1       ushort *            r0                      
          ;param_2       undefined *         r1                      
          ;param_3       undefined *         r2                      
          ;param_4       undefined *         r3                      
          ;param_5       byte *               0                      ;XREF[1,0]:   0003c996
          ;local_18      undefined4         -18                      ;XREF[2,0]:   0003c99e,0003c9b0
                                                          ;XREF[3,0]:   0003ca88,0003caa2,0003cabc
ram:0003c992    f8b5            push        {param_4,r4,r5,r6,r7,lr}                
ram:0003c994    1546            mov         r5,param_3                              
ram:0003c996    069c            ldr         r4,[sp,#param_5+0x18]                   
ram:0003c998    1e46            mov         r6,param_4                              
ram:0003c99a    0746            mov         r7,param_1                              
ram:0003c99c    0222            movs        param_3,#0x2                            
ram:0003c99e    0094            str         r4,[sp,#0x0]=>local_18                  
ram:0003c9a0    fff7a6ff        bl          FUN_0003c8f0                            ;undefined8 FUN_0003c8f0(ushort * par...
ram:0003c9a4    0028            cmp         param_1,#0x0                            
ram:0003c9a6    06d1            bne         LAB_0003c9b6                            
ram:0003c9a8    3346            mov         param_4,r6                              
ram:0003c9aa    1022            movs        param_3,#0x10                           
ram:0003c9ac    2946            mov         param_2,r5                              
ram:0003c9ae    3846            mov         param_1,r7                              
ram:0003c9b0    0094            str         r4,[sp,#0x0]=>local_18                  
ram:0003c9b2    fff79dff        bl          FUN_0003c8f0                            ;undefined8 FUN_0003c8f0(ushort * par...
                            LAB_0003c9b6:                 ;XREF[1,0]:   0003c9a6
ram:0003c9b6    f8bd            pop         {param_4,r4,r5,r6,r7,pc}                
                            ;************************************************************************************************
                            ;*                                           FUNCTION                                           *
                            ;************************************************************************************************
                            ;undefined * FUN_0003c9b8(int * param_1, undefined * param_2, byte * param_3)
          ;param_1       int *               r0                      
          ;param_2       undefined *         r1                      
          ;param_3       byte *              r2                      
          ;local_1c      undefined4         -1c                      ;XREF[12,0]:  0003c9cc,0003c9de,0003ca24,0003ca2e,0003ca3e
                                                                     ;             0003ca56,0003ca86,0003caa0,0003caba,0003cacc
                                                                     ;             0003cade,0003caf4
          ;local_28      undefined4         -28                      ;XREF[4,0]:   0003ca0e,0003ca7e,0003ca98,0003cab2
                                                          ;XREF[2,0]:   0003cb1e,0003cb42
ram:0003c9b8    f7b5            push        {param_1,param_2,param_3,r4,r5,r6,r7,lr}
ram:0003c9ba    82b0            sub         sp,#0x8                                 
ram:0003c9bc    0026            movs        r6,#0x0                                 
ram:0003c9be    0546            mov         r5,param_1                              
ram:0003c9c0    1670            strb        r6,[param_3,#0x0]                       
ram:0003c9c2    0068            ldr         param_1,[param_1,#0x0]                  
ram:0003c9c4    1446            mov         r4,param_3                              
ram:0003c9c6    0028            cmp         param_1,#0x0                            
ram:0003c9c8    05d0            beq         LAB_0003c9d6                            
ram:0003c9ca    2846            mov         param_1,r5                              
ram:0003c9cc    0399            ldr         param_2,[sp,#local_1c+0x28]             
ram:0003c9ce    00f0caf8        bl          FUN_0003cb66                            ;int FUN_0003cb66(int * param_1, int ...
ram:0003c9d2    0600            movs        r6,param_1                              
ram:0003c9d4    08d1            bne         LAB_0003c9e8                            
                            LAB_0003c9d6:                 ;XREF[1,0]:   0003c9c8
ram:0003c9d6    6879            ldrb        param_1,[r5,#0x5]                       
ram:0003c9d8    0028            cmp         param_1,#0x0                            
ram:0003c9da    1ed0            beq         LAB_0003ca1a                            
ram:0003c9dc    2078            ldrb        param_1,[r4,#0x0]                       
ram:0003c9de    039f            ldr         r7,[sp,#local_1c+0x28]                  
ram:0003c9e0    001d            adds        param_1,param_1,#0x4                    
ram:0003c9e2    1f28            cmp         param_1,#0x1f                           
ram:0003c9e4    02d9            bls         LAB_0003c9ec                            
                            LAB_0003c9e6:                 ;XREF[1,0]:   0003ca5a
ram:0003c9e6    0c20            movs        param_1,#0xc                            
                            LAB_0003c9e8:                 ;XREF[9,0]:   0003c9d4,0003c9f2,0003ca8e,0003caa8
                                                          ;             0003cac2,0003cad4,0003cb00,0003cd26
                                                          ;             0003cd2a
ram:0003c9e8    05b0            add         sp,#0x14                                
ram:0003c9ea    f0bd            pop         {r4,r5,r6,r7,pc}                        
                            LAB_0003c9ec:                 ;XREF[1,0]:   0003c9e4
ram:0003c9ec    6846            mov         param_1,sp                              
ram:0003c9ee    79df            svc         0x79                                    
ram:0003c9f0    0028            cmp         param_1,#0x0                            
                            LAB_0003c9f2:                 ;XREF[1,0]:   0003cae6
ram:0003c9f2    f9d1            bne         LAB_0003c9e8                            
ram:0003c9f4    2178            ldrb        param_2,[r4,#0x0]                       
ram:0003c9f6    0322            movs        param_3,#0x3                            
ram:0003c9f8    481c            adds        param_1,param_2,#0x1                    
ram:0003c9fa    2070            strb        param_1,[r4,#0x0]                       
ram:0003c9fc    7a54            strb        param_3,[r7,param_2]                    
ram:0003c9fe    2178            ldrb        param_2,[r4,#0x0]                       
ram:0003ca00    1922            movs        param_3,#0x19                           
ram:0003ca02    481c            adds        param_1,param_2,#0x1                    
ram:0003ca04    2070            strb        param_1,[r4,#0x0]                       
ram:0003ca06    7a54            strb        param_3,[r7,param_2]                    
ram:0003ca08    2078            ldrb        param_1,[r4,#0x0]                       
ram:0003ca0a    c119            adds        param_2,param_1,r7                      
ram:0003ca0c    6846            mov         param_1,sp                              
ram:0003ca0e    0088            ldrh        param_1=>local_28,[param_1,#0x0]        
ram:0003ca10    00f0a4f8        bl          FUN_0003cb5c                            ;undefined4 FUN_0003cb5c(undefined4 p...
ram:0003ca14    2178            ldrb        param_2,[r4,#0x0]                       
ram:0003ca16    4018            adds        param_1,param_1,param_2                 
ram:0003ca18    2070            strb        param_1,[r4,#0x0]                       
                            LAB_0003ca1a:                 ;XREF[1,0]:   0003c9da
ram:0003ca1a    a879            ldrb        param_1,[r5,#0x6]                       
ram:0003ca1c    0223            movs        r3,#0x2                                 
ram:0003ca1e    0028            cmp         param_1,#0x0                            
ram:0003ca20    10d0            beq         LAB_0003ca44                            
ram:0003ca22    2078            ldrb        param_1,[r4,#0x0]                       
ram:0003ca24    039a            ldr         param_3,[sp,#local_1c+0x28]             
ram:0003ca26    411c            adds        param_2,param_1,#0x1                    
ram:0003ca28    2170            strb        param_2,[r4,#0x0]                       
ram:0003ca2a    1354            strb        r3,[param_3,param_1]                    
ram:0003ca2c    2078            ldrb        param_1,[r4,#0x0]                       
ram:0003ca2e    0399            ldr         param_2,[sp,#local_1c+0x28]             
ram:0003ca30    471c            adds        r7,param_1,#0x1                         
ram:0003ca32    0122            movs        param_3,#0x1                            
ram:0003ca34    2770            strb        r7,[r4,#0x0]                            
ram:0003ca36    0a54            strb        param_3,[param_2,param_1]               
ram:0003ca38    2078            ldrb        param_1,[r4,#0x0]                       
ram:0003ca3a    aa79            ldrb        param_3,[r5,#0x6]                       
ram:0003ca3c    471c            adds        r7,param_1,#0x1                         
ram:0003ca3e    0399            ldr         param_2,[sp,#local_1c+0x28]             
ram:0003ca40    2770            strb        r7,[r4,#0x0]                            
ram:0003ca42    0a54            strb        param_3,[param_2,param_1]               
                            LAB_0003ca44:                 ;XREF[1,0]:   0003ca20
ram:0003ca44    a868            ldr         param_1,[r5,#0x8]                       
ram:0003ca46    0028            cmp         param_1,#0x0                            
ram:0003ca48    15d0            beq         LAB_0003ca76                            
ram:0003ca4a    0021            movs        param_2,#0x0                            
ram:0003ca4c    4156            ldrsb       param_2,[param_1,param_2]               
ram:0003ca4e    2078            ldrb        param_1,[r4,#0x0]                       
ram:0003ca50    8c46            mov         r12,param_2                             
ram:0003ca52    0246            mov         param_3,param_1                         
ram:0003ca54    c01c            adds        param_1,param_1,#0x3                    
ram:0003ca56    0399            ldr         param_2,[sp,#local_1c+0x28]             
ram:0003ca58    1f28            cmp         param_1,#0x1f                           
ram:0003ca5a    c4d8            bhi         LAB_0003c9e6                            
ram:0003ca5c    501c            adds        param_1,param_3,#0x1                    
ram:0003ca5e    2070            strb        param_1,[r4,#0x0]                       
ram:0003ca60    8b54            strb        r3,[param_2,param_3]                    
ram:0003ca62    2278            ldrb        param_3,[r4,#0x0]                       
ram:0003ca64    0a23            movs        r3,#0xa                                 
ram:0003ca66    501c            adds        param_1,param_3,#0x1                    
ram:0003ca68    2070            strb        param_1,[r4,#0x0]                       
ram:0003ca6a    8b54            strb        r3,[param_2,param_3]                    
ram:0003ca6c    2078            ldrb        param_1,[r4,#0x0]                       
ram:0003ca6e    6246            mov         param_3,r12                             
ram:0003ca70    431c            adds        r3,param_1,#0x1                         
ram:0003ca72    2370            strb        r3,[r4,#0x0]                            
ram:0003ca74    0a54            strb        param_3,[param_2,param_1]               
                            LAB_0003ca76:                 ;XREF[1,0]:   0003ca48
ram:0003ca76    a889            ldrh        param_1,[r5,#0xc]                       
ram:0003ca78    0028            cmp         param_1,#0x0                            
ram:0003ca7a    09d0            beq         LAB_0003ca90                            
ram:0003ca7c    2846            mov         param_1,r5                              
ram:0003ca7e    0094            str         r4,[sp,#0x0]=>local_28                  
ram:0003ca80    0622            movs        param_3,#0x6                            
ram:0003ca82    0221            movs        param_2,#0x2                            
ram:0003ca84    0c30            adds        param_1,#0xc                            
ram:0003ca86    039b            ldr         r3,[sp,#local_1c+0x28]                  
ram:0003ca88    fff783ff        bl          FUN_0003c992                            ;undefined8 FUN_0003c992(ushort * par...
ram:0003ca8c    0600            movs        r6,param_1                              
                            LAB_0003ca8e:                 ;XREF[1,0]:   0003cafc
ram:0003ca8e    abd1            bne         LAB_0003c9e8                            
                            LAB_0003ca90:                 ;XREF[1,0]:   0003ca7a
ram:0003ca90    a88a            ldrh        param_1,[r5,#0x14]                      
ram:0003ca92    0028            cmp         param_1,#0x0                            
ram:0003ca94    09d0            beq         LAB_0003caaa                            
ram:0003ca96    2846            mov         param_1,r5                              
ram:0003ca98    0094            str         r4,[sp,#0x0]=>local_28                  
ram:0003ca9a    0722            movs        param_3,#0x7                            
ram:0003ca9c    0321            movs        param_2,#0x3                            
ram:0003ca9e    1430            adds        param_1,#0x14                           
ram:0003caa0    039b            ldr         r3,[sp,#local_1c+0x28]                  
ram:0003caa2    fff776ff        bl          FUN_0003c992                            ;undefined8 FUN_0003c992(ushort * par...
ram:0003caa6    0600            movs        r6,param_1                              
ram:0003caa8    9ed1            bne         LAB_0003c9e8                            
                            LAB_0003caaa:                 ;XREF[1,0]:   0003ca94
ram:0003caaa    a88b            ldrh        param_1,[r5,#0x1c]                      
ram:0003caac    0028            cmp         param_1,#0x0                            
ram:0003caae    09d0            beq         LAB_0003cac4                            
ram:0003cab0    2846            mov         param_1,r5                              
ram:0003cab2    0094            str         r4,[sp,#0x0]=>local_28                  
ram:0003cab4    1522            movs        param_3,#0x15                           
ram:0003cab6    1421            movs        param_2,#0x14                           
ram:0003cab8    1c30            adds        param_1,#0x1c                           
ram:0003caba    039b            ldr         r3,[sp,#local_1c+0x28]                  
ram:0003cabc    fff769ff        bl          FUN_0003c992                            ;undefined8 FUN_0003c992(ushort * par...
ram:0003cac0    0600            movs        r6,param_1                              
ram:0003cac2    91d1            bne         LAB_0003c9e8                            
                            LAB_0003cac4:                 ;XREF[1,0]:   0003caae
ram:0003cac4    686a            ldr         param_1,[r5,#0x24]                      
ram:0003cac6    0028            cmp         param_1,#0x0                            
ram:0003cac8    05d0            beq         LAB_0003cad6                            
ram:0003caca    2246            mov         param_3,r4                              
ram:0003cacc    0399            ldr         param_2,[sp,#local_1c+0x28]             
ram:0003cace    00f07ff8        bl          FUN_0003cbd0                            ;undefined4 FUN_0003cbd0(ushort * par...
ram:0003cad2    0600            movs        r6,param_1                              
ram:0003cad4    88d1            bne         LAB_0003c9e8                            
                            LAB_0003cad6:                 ;XREF[1,0]:   0003cac8
ram:0003cad6    a86a            ldr         param_1,[r5,#0x28]                      
ram:0003cad8    0028            cmp         param_1,#0x0                            
ram:0003cada    05d0            beq         LAB_0003cae8                            
ram:0003cadc    2246            mov         param_3,r4                              
ram:0003cade    0399            ldr         param_2,[sp,#local_1c+0x28]             
ram:0003cae0    00f0b5f8        bl          FUN_0003cc4e                            ;undefined4 FUN_0003cc4e(ushort * par...
ram:0003cae4    0600            movs        r6,param_1                              
ram:0003cae6    84d1            bne         LAB_0003c9f2                            
                            LAB_0003cae8:                 ;XREF[1,0]:   0003cada
ram:0003cae8    3020            movs        param_1,#0x30                           
ram:0003caea    405d            ldrb        param_1,[param_1,r5]                    
ram:0003caec    0028            cmp         param_1,#0x0                            
ram:0003caee    06d0            beq         LAB_0003cafe                            
ram:0003caf0    2246            mov         param_3,r4                              
ram:0003caf2    2846            mov         param_1,r5                              
ram:0003caf4    0399            ldr         param_2,[sp,#local_1c+0x28]             
ram:0003caf6    00f0dcf8        bl          FUN_0003ccb2                            ;undefined4 FUN_0003ccb2(int param_1,...
ram:0003cafa    0600            movs        r6,param_1                              
ram:0003cafc    c7d1            bne         LAB_0003ca8e                            
                            LAB_0003cafe:                 ;XREF[1,0]:   0003caee
ram:0003cafe    3046            mov         param_1,r6                              
ram:0003cb00    72e7            b           LAB_0003c9e8                            
                            ;************************************************************************************************
                            ;*                                           FUNCTION                                           *
                            ;************************************************************************************************
                            ;undefined * FUN_0003cb02(int * param_1, int * param_2)
          ;param_1       int *               r0                      
          ;param_2       int *               r1                      
          ;local_54      undefined1         -54                      ;XREF[2,0]:   0003cb10,0003cb52
          ;local_58      undefined1         -58                      ;XREF[2,0]:   0003cb0c,0003cb54
                                                          ;XREF[1,0]:   0003ed6e
ram:0003cb02    70b5            push        {r4,r5,r6,lr}                           
ram:0003cb04    0c46            mov         r4,param_2                              
ram:0003cb06    92b0            sub         sp,#0x48                                
ram:0003cb08    0021            movs        param_2,#0x0                            
ram:0003cb0a    6a46            mov         r2,sp                                   
ram:0003cb0c    1170            strb        param_2,[r2,#0x0]=>local_58             
ram:0003cb0e    0725            movs        r5,#0x7                                 
ram:0003cb10    1171            strb        param_2,[r2,#local_54+0x58]             
ram:0003cb12    0028            cmp         param_1,#0x0                            
ram:0003cb14    09d0            beq         LAB_0003cb2a                            
ram:0003cb16    8179            ldrb        param_2,[param_1,#0x6]                  
ram:0003cb18    4907            lsls        param_2,param_2,#0x1d                   
ram:0003cb1a    0cd5            bpl         LAB_0003cb36                            
ram:0003cb1c    02a9            add         param_2,sp,#0x8                         
ram:0003cb1e    fff74bff        bl          FUN_0003c9b8                            ;undefined * FUN_0003c9b8(int * param...
ram:0003cb22    0028            cmp         param_1,#0x0                            
ram:0003cb24    08d1            bne         LAB_0003cb38                            
ram:0003cb26    02ae            add         r6,sp,#0x8                              
ram:0003cb28    00e0            b           LAB_0003cb2c                            
                            LAB_0003cb2a:                 ;XREF[1,0]:   0003cb14
ram:0003cb2a    0026            movs        r6,#0x0                                 
                            LAB_0003cb2c:                 ;XREF[1,0]:   0003cb28
ram:0003cb2c    002c            cmp         r4,#0x0                                 
ram:0003cb2e    0ed0            beq         LAB_0003cb4e                            
ram:0003cb30    a079            ldrb        param_1,[r4,#0x6]                       
ram:0003cb32    0028            cmp         param_1,#0x0                            
ram:0003cb34    02d0            beq         LAB_0003cb3c                            
                            LAB_0003cb36:                 ;XREF[1,0]:   0003cb1a
ram:0003cb36    2846            mov         param_1,r5                              
                            LAB_0003cb38:                 ;XREF[3,0]:   0003cb24,0003cb48,0003cb5a
ram:0003cb38    12b0            add         sp,#0x48                                
ram:0003cb3a    70bd            pop         {r4,r5,r6,pc}                           
                            LAB_0003cb3c:                 ;XREF[1,0]:   0003cb34
ram:0003cb3c    01aa            add         r2,sp,#0x4                              
ram:0003cb3e    0aa9            add         param_2,sp,#0x28                        
ram:0003cb40    2046            mov         param_1,r4                              
ram:0003cb42    fff739ff        bl          FUN_0003c9b8                            ;undefined * FUN_0003c9b8(int * param...
ram:0003cb46    0028            cmp         param_1,#0x0                            
ram:0003cb48    f6d1            bne         LAB_0003cb38                            
ram:0003cb4a    0aaa            add         r2,sp,#0x28                             
ram:0003cb4c    00e0            b           LAB_0003cb50                            
                            LAB_0003cb4e:                 ;XREF[1,0]:   0003cb2e
ram:0003cb4e    0022            movs        r2,#0x0                                 
                            LAB_0003cb50:                 ;XREF[1,0]:   0003cb4c
ram:0003cb50    6846            mov         param_1,sp                              
ram:0003cb52    0379            ldrb        r3,[r0,#local_54+0x58]                  
ram:0003cb54    0178            ldrb        param_2,[param_1,#0x0]=>local_58        
ram:0003cb56    3046            mov         param_1,r6                              
ram:0003cb58    72df            svc         0x72                                    
ram:0003cb5a    ede7            b           LAB_0003cb38                            
                            ;************************************************************************************************
                            ;*                                           FUNCTION                                           *
                            ;************************************************************************************************
                            ;undefined4 FUN_0003cb5c(undefined4 param_1, undefined * param_2)
          ;param_1       undefined4          r0                      
          ;param_2       undefined *         r1                      
                                                          ;XREF[5,0]:   0003ca10,0003cc30,0003cc40,0003cc84
                                                          ;             0003ccf2
ram:0003cb5c    0870            strb        param_1,[param_2,#0x0]                  
ram:0003cb5e    000a            lsrs        param_1,param_1,#0x8                    
ram:0003cb60    4870            strb        param_1,[param_2,#0x1]                  
ram:0003cb62    0220            movs        param_1,#0x2                            
ram:0003cb64    7047            bx          lr                                      
                            ;************************************************************************************************
                            ;*                                           FUNCTION                                           *
                            ;************************************************************************************************
                            ;int FUN_0003cb66(int * param_1, int param_2, byte * param_3)
          ;param_1       int *               r0                      
          ;param_2       int                 r1                      
          ;param_3       byte *              r2                      
          ;local_18      undefined2         -18                      ;XREF[3,0]:   0003cb8c,0003cba0,0003cbb8
                                                          ;XREF[1,0]:   0003c9ce
ram:0003cb66    f8b5            push        {r3,r4,r5,r6,r7,lr}                     
ram:0003cb68    1478            ldrb        r4,[param_3,#0x0]                       
ram:0003cb6a    0746            mov         r7,param_1                              
ram:0003cb6c    a01c            adds        param_1,r4,#0x2                         
ram:0003cb6e    1546            mov         r5,param_3                              
ram:0003cb70    0e46            mov         r6,param_2                              
ram:0003cb72    1f28            cmp         param_1,#0x1f                           
ram:0003cb74    03d8            bhi         LAB_0003cb7e                            
ram:0003cb76    3879            ldrb        param_1,[r7,#0x4]                       
ram:0003cb78    801c            adds        param_1,param_1,#0x2                    
ram:0003cb7a    1f28            cmp         param_1,#0x1f                           
ram:0003cb7c    01d9            bls         LAB_0003cb82                            
                            LAB_0003cb7e:                 ;XREF[1,0]:   0003cb74
ram:0003cb7e    0c20            movs        param_1,#0xc                            
                            LAB_0003cb80:                 ;XREF[1,0]:   0003cb96
ram:0003cb80    f8bd            pop         {r3,r4,r5,r6,r7,pc}                     
                            LAB_0003cb82:                 ;XREF[1,0]:   0003cb7c
ram:0003cb82    1d20            movs        param_1,#0x1d                           
ram:0003cb84    001b            subs        param_1,param_1,r4                      
ram:0003cb86    80b2            uxth        param_1,param_1                         
ram:0003cb88    6946            mov         param_2,sp                              
ram:0003cb8a    8646            mov         lr,param_1                              
ram:0003cb8c    0880            strh        param_1,[param_2,#0x0]=>local_18        
ram:0003cb8e    3019            adds        param_1,r6,r4                           
ram:0003cb90    801c            adds        param_1,param_1,#0x2                    
ram:0003cb92    7ddf            svc         0x7d                                    
ram:0003cb94    0028            cmp         param_1,#0x0                            
ram:0003cb96    f3d1            bne         LAB_0003cb80                            
ram:0003cb98    3868            ldr         param_1,[r7,#0x0]                       
ram:0003cb9a    0228            cmp         param_1,#0x2                            
ram:0003cb9c    05d1            bne         LAB_0003cbaa                            
ram:0003cb9e    6846            mov         param_1,sp                              
ram:0003cba0    0088            ldrh        param_1=>local_18,[param_1,#0x0]        
ram:0003cba2    7045            cmp         param_1,lr                              
ram:0003cba4    01d8            bhi         LAB_0003cbaa                            
ram:0003cba6    0921            movs        param_2,#0x9                            
ram:0003cba8    07e0            b           LAB_0003cbba                            
                            LAB_0003cbaa:                 ;XREF[2,0]:   0003cb9c,0003cba4
ram:0003cbaa    3879            ldrb        param_1,[r7,#0x4]                       
ram:0003cbac    0821            movs        param_2,#0x8                            
ram:0003cbae    0028            cmp         param_1,#0x0                            
ram:0003cbb0    01d0            beq         LAB_0003cbb6                            
ram:0003cbb2    7045            cmp         param_1,lr                              
ram:0003cbb4    01d9            bls         LAB_0003cbba                            
                            LAB_0003cbb6:                 ;XREF[1,0]:   0003cbb0
ram:0003cbb6    6846            mov         param_1,sp                              
ram:0003cbb8    0088            ldrh        param_1=>local_18,[param_1,#0x0]        
                            LAB_0003cbba:                 ;XREF[2,0]:   0003cba8,0003cbb4
ram:0003cbba    421c            adds        param_3,param_1,#0x1                    
ram:0003cbbc    3255            strb        param_3,[r6,r4]                         
ram:0003cbbe    641c            adds        r4,r4,#0x1                              
ram:0003cbc0    e2b2            uxtb        param_3,r4                              
ram:0003cbc2    b154            strb        param_2,[r6,param_3]                    
ram:0003cbc4    2978            ldrb        param_2,[r5,#0x0]                       
ram:0003cbc6    801c            adds        param_1,param_1,#0x2                    
ram:0003cbc8    0818            adds        param_1,param_2,param_1                 
ram:0003cbca    2870            strb        param_1,[r5,#0x0]                       
ram:0003cbcc    0020            movs        param_1,#0x0                            
ram:0003cbce    f8bd            pop         {r3,r4,r5,r6,r7,pc}                     
                            ;************************************************************************************************
                            ;*                                           FUNCTION                                           *
                            ;************************************************************************************************
                            ;undefined4 FUN_0003cbd0(ushort * param_1, int param_2, byte * param_3)
          ;param_1       ushort *            r0                      
          ;param_2       int                 r1                      
          ;param_3       byte *              r2                      
                                                          ;XREF[1,0]:   0003cace
ram:0003cbd0    f8b5            push        {r3,r4,r5,r6,r7,lr}                     
ram:0003cbd2    0d46            mov         r5,param_2                              
ram:0003cbd4    1178            ldrb        param_2,[param_3,#0x0]                  
ram:0003cbd6    0646            mov         r6,param_1                              
ram:0003cbd8    881d            adds        param_1,param_2,#0x6                    
ram:0003cbda    1446            mov         r4,param_3                              
ram:0003cbdc    1f28            cmp         param_1,#0x1f                           
ram:0003cbde    01d9            bls         LAB_0003cbe4                            
ram:0003cbe0    0c20            movs        param_1,#0xc                            
                            LAB_0003cbe2:                 ;XREF[5,0]:   0003cbea,0003cbf8,0003cbfe,0003cc08
                                                          ;             0003cc16
ram:0003cbe2    f8bd            pop         {r3,r4,r5,r6,r7,pc}                     
                            LAB_0003cbe4:                 ;XREF[1,0]:   0003cbde
ram:0003cbe4    3388            ldrh        r3,[r6,#0x0]                            
ram:0003cbe6    0720            movs        param_1,#0x7                            
ram:0003cbe8    062b            cmp         r3,#0x6                                 
ram:0003cbea    fad3            bcc         LAB_0003cbe2                            
ram:0003cbec    1927            movs        r7,#0x19                                
ram:0003cbee    ff01            lsls        r7,r7,#0x7                              
ram:0003cbf0    bb42            cmp         r3,r7                                   
ram:0003cbf2    02d9            bls         LAB_0003cbfa                            
ram:0003cbf4    4d4a            ldr         param_3,[DAT_0003cd2c]                  ;= 0000FFFFh
ram:0003cbf6    9342            cmp         r3,param_3                              
ram:0003cbf8    f3d1            bne         LAB_0003cbe2                            
                            LAB_0003cbfa:                 ;XREF[1,0]:   0003cbf2
ram:0003cbfa    7288            ldrh        param_3,[r6,#0x2]                       
ram:0003cbfc    062a            cmp         param_3,#0x6                            
ram:0003cbfe    f0d3            bcc         LAB_0003cbe2                            
ram:0003cc00    ba42            cmp         param_3,r7                              
ram:0003cc02    02d9            bls         LAB_0003cc0a                            
ram:0003cc04    494f            ldr         r7,[DAT_0003cd2c]                       ;= 0000FFFFh
ram:0003cc06    ba42            cmp         param_3,r7                              
ram:0003cc08    ebd1            bne         LAB_0003cbe2                            
                            LAB_0003cc0a:                 ;XREF[1,0]:   0003cc02
ram:0003cc0a    484f            ldr         r7,[DAT_0003cd2c]                       ;= 0000FFFFh
ram:0003cc0c    bb42            cmp         r3,r7                                   
ram:0003cc0e    03d0            beq         LAB_0003cc18                            
ram:0003cc10    ba42            cmp         param_3,r7                              
ram:0003cc12    01d0            beq         LAB_0003cc18                            
ram:0003cc14    9342            cmp         r3,param_3                              
ram:0003cc16    e4d8            bhi         LAB_0003cbe2                            
                            LAB_0003cc18:                 ;XREF[2,0]:   0003cc0e,0003cc12
ram:0003cc18    481c            adds        param_1,param_2,#0x1                    
ram:0003cc1a    0522            movs        param_3,#0x5                            
ram:0003cc1c    2070            strb        param_1,[r4,#0x0]                       
ram:0003cc1e    6a54            strb        param_3,[r5,param_2]                    
ram:0003cc20    2078            ldrb        param_1,[r4,#0x0]                       
ram:0003cc22    1222            movs        param_3,#0x12                           
ram:0003cc24    411c            adds        param_2,param_1,#0x1                    
ram:0003cc26    2170            strb        param_2,[r4,#0x0]                       
ram:0003cc28    2a54            strb        param_3,[r5,param_1]                    
ram:0003cc2a    2078            ldrb        param_1,[r4,#0x0]                       
ram:0003cc2c    4119            adds        param_2,param_1,r5                      
ram:0003cc2e    3088            ldrh        param_1,[r6,#0x0]                       
ram:0003cc30    fff794ff        bl          FUN_0003cb5c                            ;undefined4 FUN_0003cb5c(undefined4 p...
ram:0003cc34    2178            ldrb        param_2,[r4,#0x0]                       
ram:0003cc36    4018            adds        param_1,param_1,param_2                 
ram:0003cc38    c0b2            uxtb        param_1,param_1                         
ram:0003cc3a    2070            strb        param_1,[r4,#0x0]                       
ram:0003cc3c    4119            adds        param_2,param_1,r5                      
ram:0003cc3e    7088            ldrh        param_1,[r6,#0x2]                       
ram:0003cc40    fff78cff        bl          FUN_0003cb5c                            ;undefined4 FUN_0003cb5c(undefined4 p...
ram:0003cc44    2178            ldrb        param_2,[r4,#0x0]                       
ram:0003cc46    4018            adds        param_1,param_1,param_2                 
ram:0003cc48    2070            strb        param_1,[r4,#0x0]                       
ram:0003cc4a    0020            movs        param_1,#0x0                            
ram:0003cc4c    f8bd            pop         {r3,r4,r5,r6,r7,pc}                     
                            ;************************************************************************************************
                            ;*                                           FUNCTION                                           *
                            ;************************************************************************************************
                            ;undefined4 FUN_0003cc4e(ushort * param_1, int param_2, byte * param_3)
          ;param_1       ushort *            r0                      
          ;param_2       int                 r1                      
          ;param_3       byte *              r2                      
                                                          ;XREF[1,0]:   0003cae0
ram:0003cc4e    70b5            push        {r4,r5,r6,lr}                           
ram:0003cc50    0546            mov         r5,param_1                              
ram:0003cc52    0079            ldrb        param_1,[param_1,#0x4]                  
ram:0003cc54    0e46            mov         r6,param_2                              
ram:0003cc56    801c            adds        param_1,param_1,#0x2                    
ram:0003cc58    1446            mov         r4,param_3                              
ram:0003cc5a    c0b2            uxtb        param_1,param_1                         
ram:0003cc5c    1178            ldrb        param_2,[param_3,#0x0]                  
ram:0003cc5e    821c            adds        param_3,param_1,#0x2                    
ram:0003cc60    8a18            adds        param_3,param_2,param_3                 
ram:0003cc62    1f2a            cmp         param_3,#0x1f                           
ram:0003cc64    01d9            bls         LAB_0003cc6a                            
ram:0003cc66    0c20            movs        param_1,#0xc                            
ram:0003cc68    70bd            pop         {r4,r5,r6,pc}                           
                            LAB_0003cc6a:                 ;XREF[1,0]:   0003cc64
ram:0003cc6a    0a46            mov         param_3,param_2                         
ram:0003cc6c    491c            adds        param_2,param_2,#0x1                    
ram:0003cc6e    401c            adds        param_1,param_1,#0x1                    
ram:0003cc70    2170            strb        param_2,[r4,#0x0]                       
ram:0003cc72    b054            strb        param_1,[r6,param_3]                    
ram:0003cc74    2078            ldrb        param_1,[r4,#0x0]                       
ram:0003cc76    ff22            movs        param_3,#0xff                           
ram:0003cc78    411c            adds        param_2,param_1,#0x1                    
ram:0003cc7a    2170            strb        param_2,[r4,#0x0]                       
ram:0003cc7c    3254            strb        param_3,[r6,param_1]                    
ram:0003cc7e    2078            ldrb        param_1,[r4,#0x0]                       
ram:0003cc80    8119            adds        param_2,param_1,r6                      
ram:0003cc82    2888            ldrh        param_1,[r5,#0x0]                       
ram:0003cc84    fff76aff        bl          FUN_0003cb5c                            ;undefined4 FUN_0003cb5c(undefined4 p...
ram:0003cc88    2178            ldrb        param_2,[r4,#0x0]                       
ram:0003cc8a    4018            adds        param_1,param_1,param_2                 
ram:0003cc8c    c0b2            uxtb        param_1,param_1                         
ram:0003cc8e    2070            strb        param_1,[r4,#0x0]                       
ram:0003cc90    aa88            ldrh        param_3,[r5,#0x4]                       
ram:0003cc92    002a            cmp         param_3,#0x0                            
ram:0003cc94    09d0            beq         LAB_0003ccaa                            
ram:0003cc96    a968            ldr         param_2,[r5,#0x8]                       
ram:0003cc98    0029            cmp         param_2,#0x0                            
ram:0003cc9a    08d0            beq         LAB_0003ccae                            
ram:0003cc9c    8019            adds        param_1,param_1,r6                      
ram:0003cc9e    02f0f1fb        bl          FUN_0003f484                            ;undefined FUN_0003f484(undefined4 * ...
ram:0003cca2    2078            ldrb        param_1,[r4,#0x0]                       
ram:0003cca4    2979            ldrb        param_2,[r5,#0x4]                       
ram:0003cca6    4018            adds        param_1,param_1,param_2                 
ram:0003cca8    2070            strb        param_1,[r4,#0x0]                       
                            LAB_0003ccaa:                 ;XREF[1,0]:   0003cc94
ram:0003ccaa    0020            movs        param_1,#0x0                            
ram:0003ccac    70bd            pop         {r4,r5,r6,pc}                           
                            LAB_0003ccae:                 ;XREF[1,0]:   0003cc9a
ram:0003ccae    0720            movs        param_1,#0x7                            
ram:0003ccb0    70bd            pop         {r4,r5,r6,pc}                           
                            ;************************************************************************************************
                            ;*                                           FUNCTION                                           *
                            ;************************************************************************************************
                            ;undefined4 FUN_0003ccb2(int param_1, int param_2, byte * param_3)
          ;param_1       int                 r0                      
          ;param_2       int                 r1                      
          ;param_3       byte *              r2                      
          ;local_20      undefined4         -20                      ;XREF[3,0]:   0003ccb6,0003ccc2,0003cccc
          ;local_28      undefined4         -28                      ;XREF[2,0]:   0003ccc8,0003cd1a
                                                          ;XREF[1,0]:   0003caf6
ram:0003ccb2    f7b5            push        {param_1,param_2,param_3,r4,r5,r6,r7,lr}
ram:0003ccb4    82b0            sub         sp,#0x8                                 
ram:0003ccb6    0298            ldr         param_1,[sp,#local_20+0x28]             
ram:0003ccb8    1446            mov         r4,param_3                              
ram:0003ccba    c06a            ldr         param_1,[param_1,#0x2c]                 
ram:0003ccbc    0f46            mov         r7,param_2                              
ram:0003ccbe    0028            cmp         param_1,#0x0                            
ram:0003ccc0    32d0            beq         LAB_0003cd28                            
ram:0003ccc2    0298            ldr         param_1,[sp,#local_20+0x28]             
ram:0003ccc4    0025            movs        r5,#0x0                                 
ram:0003ccc6    2030            adds        param_1,#0x20                           
ram:0003ccc8    0090            str         param_1,[sp,#0x0]=>local_28             
ram:0003ccca    28e0            b           LAB_0003cd1e                            
                            LAB_0003cccc:                 ;XREF[1,0]:   0003cd22
ram:0003cccc    0298            ldr         param_1,[sp,#local_20+0x28]             
ram:0003ccce    c16a            ldr         param_2,[param_1,#0x2c]                 
ram:0003ccd0    0c20            movs        param_1,#0xc                            
ram:0003ccd2    6843            muls        param_1,r5                              
ram:0003ccd4    0e18            adds        r6,param_2,param_1                      
ram:0003ccd6    2178            ldrb        param_2,[r4,#0x0]                       
ram:0003ccd8    3079            ldrb        param_1,[r6,#0x4]                       
ram:0003ccda    4a1c            adds        param_3,param_2,#0x1                    
ram:0003ccdc    c01c            adds        param_1,param_1,#0x3                    
ram:0003ccde    2270            strb        param_3,[r4,#0x0]                       
ram:0003cce0    7854            strb        param_1,[r7,param_2]                    
ram:0003cce2    2178            ldrb        param_2,[r4,#0x0]                       
ram:0003cce4    1622            movs        param_3,#0x16                           
ram:0003cce6    481c            adds        param_1,param_2,#0x1                    
ram:0003cce8    2070            strb        param_1,[r4,#0x0]                       
ram:0003ccea    7a54            strb        param_3,[r7,param_2]                    
ram:0003ccec    2078            ldrb        param_1,[r4,#0x0]                       
ram:0003ccee    c119            adds        param_2,param_1,r7                      
ram:0003ccf0    3088            ldrh        param_1,[r6,#0x0]                       
ram:0003ccf2    fff733ff        bl          FUN_0003cb5c                            ;undefined4 FUN_0003cb5c(undefined4 p...
ram:0003ccf6    2178            ldrb        param_2,[r4,#0x0]                       
ram:0003ccf8    4018            adds        param_1,param_1,param_2                 
ram:0003ccfa    c0b2            uxtb        param_1,param_1                         
ram:0003ccfc    2070            strb        param_1,[r4,#0x0]                       
ram:0003ccfe    b288            ldrh        param_3,[r6,#0x4]                       
ram:0003cd00    002a            cmp         param_3,#0x0                            
ram:0003cd02    09d0            beq         LAB_0003cd18                            
ram:0003cd04    b168            ldr         param_2,[r6,#0x8]                       
ram:0003cd06    0029            cmp         param_2,#0x0                            
ram:0003cd08    0ed0            beq         LAB_0003cd28                            
ram:0003cd0a    c019            adds        param_1,param_1,r7                      
ram:0003cd0c    02f0bafb        bl          FUN_0003f484                            ;undefined FUN_0003f484(undefined4 * ...
ram:0003cd10    2078            ldrb        param_1,[r4,#0x0]                       
ram:0003cd12    3179            ldrb        param_2,[r6,#0x4]                       
ram:0003cd14    4018            adds        param_1,param_1,param_2                 
ram:0003cd16    2070            strb        param_1,[r4,#0x0]                       
                            LAB_0003cd18:                 ;XREF[1,0]:   0003cd02
ram:0003cd18    6d1c            adds        r5,r5,#0x1                              
ram:0003cd1a    0098            ldr         param_1,[sp,#0x0]=>local_28             
ram:0003cd1c    edb2            uxtb        r5,r5                                   
                            LAB_0003cd1e:                 ;XREF[1,0]:   0003ccca
ram:0003cd1e    007c            ldrb        param_1,[param_1,#0x10]                 
ram:0003cd20    a842            cmp         param_1,r5                              
ram:0003cd22    d3d8            bhi         LAB_0003cccc                            
ram:0003cd24    0020            movs        param_1,#0x0                            
ram:0003cd26    5fe6            b           LAB_0003c9e8                            
                            LAB_0003cd28:                 ;XREF[2,0]:   0003ccc0,0003cd08
ram:0003cd28    0720            movs        param_1,#0x7                            
ram:0003cd2a    5de6            b           LAB_0003c9e8                            
                            DAT_0003cd2c:                 ;XREF[3,0]:   0003cbf4,0003cc04,0003cc0a
ram:0003cd2c    ffff0000        undefined4  0000FFFFh                               
                            ;************************************************************************************************
                            ;*                                           FUNCTION                                           *
                            ;************************************************************************************************
                            ;undefined LAB_0003cd30+1(void)
          ;local_10      undefined4         -10                      ;XREF[1,0]:   0003cd80
                                                          ;XREF[0,2]:   0003cdc2,0003cedc
ram:0003cd30    38b5            push        {r3,r4,r5,lr}                           
ram:0003cd32    6749            ldr         r1,[DAT_0003ced0]                       ;= 20002C18h
ram:0003cd34    674a            ldr         r2,[DAT_0003ced4]                       ;= 0000FFFFh
ram:0003cd36    4888            ldrh        r0,[r1,#0x2]=>DAT_20002c1a              
ram:0003cd38    9042            cmp         r0,r2                                   
ram:0003cd3a    0fd0            beq         LAB_0003cd5c                            
ram:0003cd3c    4a78            ldrb        r2,[r1,#0x1]=>DAT_20002c19              
ram:0003cd3e    664c            ldr         r4,[DAT_0003ced8]                       ;= 200030E8h
ram:0003cd40    521c            adds        r2,r2,#0x1                              
ram:0003cd42    d2b2            uxtb        r2,r2                                   
ram:0003cd44    4a70            strb        r2,[r1,#0x1]=>DAT_20002c19              
ram:0003cd46    237b            ldrb        r3,[r4,#0xc]=>DAT_200030f4              
ram:0003cd48    9342            cmp         r3,r2                                   
ram:0003cd4a    08d3            bcc         LAB_0003cd5e                            
ram:0003cd4c    0831            adds        r1,#0x8                                 
ram:0003cd4e    75df            svc         0x75                                    
ram:0003cd50    0028            cmp         r0,#0x0                                 
ram:0003cd52    03d0            beq         LAB_0003cd5c                            
ram:0003cd54    a169            ldr         r1,[r4,#0x18]=>DAT_20003100             
ram:0003cd56    0029            cmp         r1,#0x0                                 
ram:0003cd58    00d0            beq         LAB_0003cd5c                            
ram:0003cd5a    8847            blx         r1                                      
                            LAB_0003cd5c:                 ;XREF[4,0]:   0003cd3a,0003cd52,0003cd58,0003cd7c
ram:0003cd5c    38bd            pop         {r3,r4,r5,pc}                           
                            LAB_0003cd5e:                 ;XREF[1,0]:   0003cd4a
ram:0003cd5e    0025            movs        r5,#0x0                                 
ram:0003cd60    4d70            strb        r5,[r1,#0x1]=>DAT_20002c19              
ram:0003cd62    217c            ldrb        r1,[r4,#0x10]=>DAT_200030f8             
ram:0003cd64    0029            cmp         r1,#0x0                                 
ram:0003cd66    07d0            beq         LAB_0003cd78                            
ram:0003cd68    3b21            movs        r1,#0x3b                                
ram:0003cd6a    76df            svc         0x76                                    
ram:0003cd6c    0028            cmp         r0,#0x0                                 
ram:0003cd6e    03d0            beq         LAB_0003cd78                            
ram:0003cd70    a169            ldr         r1,[r4,#0x18]=>DAT_20003100             
ram:0003cd72    0029            cmp         r1,#0x0                                 
ram:0003cd74    00d0            beq         LAB_0003cd78                            
ram:0003cd76    8847            blx         r1                                      
                            LAB_0003cd78:                 ;XREF[3,0]:   0003cd66,0003cd6e,0003cd74
ram:0003cd78    6169            ldr         r1,[r4,#0x14]=>DAT_200030fc             
ram:0003cd7a    0029            cmp         r1,#0x0                                 
ram:0003cd7c    eed0            beq         LAB_0003cd5c                            
ram:0003cd7e    6846            mov         r0,sp                                   
ram:0003cd80    0095            str         r5,[sp,#0x0]=>local_10                  
ram:0003cd82    8847            blx         r1                                      
ram:0003cd84    38bd            pop         {r3,r4,r5,pc}                           
                            ;************************************************************************************************
                            ;*                                           FUNCTION                                           *
                            ;************************************************************************************************
                            ;undefined FUN_0003cd86(undefined4 * param_1)
          ;param_1       undefined4 *        r0                      
                                                          ;XREF[1,0]:   0003f0c0
ram:0003cd86    70b5            push        {r4,r5,r6,lr}                           
ram:0003cd88    0546            mov         r5,param_1                              
ram:0003cd8a    0146            mov         r1,param_1                              
ram:0003cd8c    1c22            movs        r2,#0x1c                                
ram:0003cd8e    5248            ldr         param_1,[DAT_0003ced8]                  ;= 200030E8h
ram:0003cd90    02f078fb        bl          FUN_0003f484                            ;undefined FUN_0003f484(undefined4 * ...
ram:0003cd94    4e4c            ldr         r4,[DAT_0003ced0]                       ;= 20002C18h
ram:0003cd96    0026            movs        r6,#0x0                                 
ram:0003cd98    2670            strb        r6,[r4,#0x0]=>DAT_20002c18              
ram:0003cd9a    2968            ldr         r1,[r5,#0x0]                            
ram:0003cd9c    0029            cmp         r1,#0x0                                 
ram:0003cd9e    07d0            beq         LAB_0003cdb0                            
ram:0003cda0    0822            movs        r2,#0x8                                 
ram:0003cda2    a018            adds        param_1=>DAT_20002c20,r4,r2             
ram:0003cda4    02f06efb        bl          FUN_0003f484                            ;undefined FUN_0003f484(undefined4 * ...
ram:0003cda8    2046            mov         param_1,r4                              
ram:0003cdaa    0830            adds        param_1,#0x8                            
ram:0003cdac    7adf            svc         0x7a                                    
ram:0003cdae    02e0            b           LAB_0003cdb6                            
                            LAB_0003cdb0:                 ;XREF[1,0]:   0003cd9e
ram:0003cdb0    4748            ldr         param_1,[DAT_0003ced0]                  ;= 20002C18h
ram:0003cdb2    0830            adds        param_1,#0x8                            
ram:0003cdb4    7bdf            svc         0x7b                                    
                            LAB_0003cdb6:                 ;XREF[1,0]:   0003cdae
ram:0003cdb6    0028            cmp         param_1,#0x0                            
ram:0003cdb8    08d1            bne         LAB_0003cdcc                            
ram:0003cdba    401e            subs        param_1,param_1,#0x1                    
ram:0003cdbc    6080            strh        param_1,[r4,#0x2]=>DAT_20002c1a         
ram:0003cdbe    4448            ldr         param_1,[DAT_0003ced0]                  ;= 20002C18h
ram:0003cdc0    6670            strb        r6,[r4,#0x1]=>DAT_20002c19              
ram:0003cdc2    464a            ldr         r2=>LAB_0003cd30...,[PTR_LAB_0003cd30...;= 0003cd31
ram:0003cdc4    0021            movs        r1,#0x0                                 
ram:0003cdc6    001d            adds        param_1=>DAT_20002c1c,param_1,#0x4      
ram:0003cdc8    00f0a2fe        bl          FUN_0003db10                            ;undefined4 FUN_0003db10(int * param_...
                            LAB_0003cdcc:                 ;XREF[1,0]:   0003cdb8
ram:0003cdcc    70bd            pop         {r4,r5,r6,pc}                           
                            ;************************************************************************************************
                            ;*                                           FUNCTION                                           *
                            ;************************************************************************************************
                            ;undefined FUN_0003cdce(undefined4 param_1, undefined4 param_2, undefined4 param_3, uint param_4)
          ;param_1       undefined4          r0                      
          ;param_2       undefined4          r1                      
          ;param_3       undefined4          r2                      
          ;param_4       uint                r3                      
                                                          ;XREF[1,0]:   0003ebec
ram:0003cdce    10b5            push        {r4,lr}                                 
ram:0003cdd0    3f48            ldr         param_1,[DAT_0003ced0]                  ;= 20002C18h
ram:0003cdd2    4068            ldr         param_1,[param_1,#0x4]=>DAT_20002c1c    
ram:0003cdd4    00f035ff        bl          FUN_0003dc42                            ;undefined4 FUN_0003dc42(uint param_1...
ram:0003cdd8    10bd            pop         {r4,pc}                                 
                            ;************************************************************************************************
                            ;*                                           FUNCTION                                           *
                            ;************************************************************************************************
                            ;undefined FUN_0003cdda(void)
          ;local_18      undefined4         -18                      ;XREF[2,0]:   0003cdf6,0003ce08
                                                          ;XREF[1,0]:   0003ce6c
ram:0003cdda    f8b5            push        {r3,r4,r5,r6,r7,lr}                     
ram:0003cddc    3c48            ldr         r0,[DAT_0003ced0]                       ;= 20002C18h
ram:0003cdde    1030            adds        r0,#0x10                                
ram:0003cde0    00f069f8        bl          FUN_0003ceb6                            ;undefined4 FUN_0003ceb6(int param_1)
ram:0003cde4    0026            movs        r6,#0x0                                 
ram:0003cde6    3a4d            ldr         r5,[DAT_0003ced0]                       ;= 20002C18h
ram:0003cde8    3b4c            ldr         r4,[DAT_0003ced8]                       ;= 200030E8h
ram:0003cdea    0028            cmp         r0,#0x0                                 
ram:0003cdec    06d0            beq         LAB_0003cdfc                            
ram:0003cdee    6169            ldr         r1,[r4,#0x14]=>DAT_200030fc             
ram:0003cdf0    0029            cmp         r1,#0x0                                 
ram:0003cdf2    19d0            beq         LAB_0003ce28                            
ram:0003cdf4    0120            movs        r0,#0x1                                 
ram:0003cdf6    0090            str         r0,[sp,#0x0]=>local_18                  
                            LAB_0003cdf8:                 ;XREF[1,0]:   0003ce0a
ram:0003cdf8    6846            mov         r0,sp                                   
ram:0003cdfa    14e0            b           LAB_0003ce26                            
                            LAB_0003cdfc:                 ;XREF[1,0]:   0003cdec
ram:0003cdfc    2878            ldrb        r0,[r5,#0x0]=>DAT_20002c18              
ram:0003cdfe    0028            cmp         r0,#0x0                                 
ram:0003ce00    04d0            beq         LAB_0003ce0c                            
ram:0003ce02    6169            ldr         r1,[r4,#0x14]=>DAT_200030fc             
ram:0003ce04    0029            cmp         r1,#0x0                                 
ram:0003ce06    0fd0            beq         LAB_0003ce28                            
ram:0003ce08    0096            str         r6,[sp,#0x0]=>local_18                  
ram:0003ce0a    f5e7            b           LAB_0003cdf8                            
                            LAB_0003ce0c:                 ;XREF[1,0]:   0003ce00
ram:0003ce0c    6878            ldrb        r0,[r5,#0x1]=>DAT_20002c19              
ram:0003ce0e    0028            cmp         r0,#0x0                                 
ram:0003ce10    0cd0            beq         LAB_0003ce2c                            
ram:0003ce12    a168            ldr         r1,[r4,#0x8]=>DAT_200030f0              
                            LAB_0003ce14:                 ;XREF[1,0]:   0003ce2e
ram:0003ce14    0022            movs        r2,#0x0                                 
ram:0003ce16    6868            ldr         r0,[r5,#0x4]=>DAT_20002c1c              
ram:0003ce18    00f0d6fe        bl          FUN_0003dbc8                            ;longlong FUN_0003dbc8(uint param_1, ...
ram:0003ce1c    0028            cmp         r0,#0x0                                 
ram:0003ce1e    03d0            beq         LAB_0003ce28                            
ram:0003ce20    a169            ldr         r1,[r4,#0x18]=>DAT_20003100             
ram:0003ce22    0029            cmp         r1,#0x0                                 
ram:0003ce24    00d0            beq         LAB_0003ce28                            
                            LAB_0003ce26:                 ;XREF[1,0]:   0003cdfa
ram:0003ce26    8847            blx         r1                                      
                            LAB_0003ce28:                 ;XREF[4,0]:   0003cdf2,0003ce06,0003ce1e,0003ce24
ram:0003ce28    2e70            strb        r6,[r5,#0x0]=>DAT_20002c18              
ram:0003ce2a    f8bd            pop         {r3,r4,r5,r6,r7,pc}                     
                            LAB_0003ce2c:                 ;XREF[1,0]:   0003ce10
ram:0003ce2c    6168            ldr         r1,[r4,#0x4]=>DAT_200030ec              
ram:0003ce2e    f1e7            b           LAB_0003ce14                            
                            ;************************************************************************************************
                            ;*                                           FUNCTION                                           *
                            ;************************************************************************************************
                            ;undefined FUN_0003ce30(ushort * param_1, undefined4 param_2, undefined4 param_3, uint param_4)
          ;param_1       ushort *            r0                      
          ;param_2       undefined4          r1                      
          ;param_3       undefined4          r2                      
          ;param_4       uint                r3                      
                                                          ;XREF[1,0]:   0003efce
ram:0003ce30    f8b5            push        {param_4,r4,r5,r6,r7,lr}                
ram:0003ce32    294c            ldr         r4,[DAT_0003ced8]                       ;= 200030E8h
ram:0003ce34    0288            ldrh        param_3,[param_1,#0x0]                  
ram:0003ce36    0027            movs        r7,#0x0                                 
ram:0003ce38    254d            ldr         r5,[DAT_0003ced0]                       ;= 20002C18h
ram:0003ce3a    e689            ldrh        r6,[r4,#0xe]=>DAT_200030f6              
ram:0003ce3c    102a            cmp         param_3,#0x10                           
ram:0003ce3e    18d0            beq         LAB_0003ce72                            
ram:0003ce40    2946            mov         param_2,r5                              
ram:0003ce42    4968            ldr         param_2,[param_2,#0x4]=>DAT_20002c1c    
ram:0003ce44    112a            cmp         param_3,#0x11                           
ram:0003ce46    21d0            beq         LAB_0003ce8c                            
ram:0003ce48    122a            cmp         param_3,#0x12                           
ram:0003ce4a    2dd0            beq         LAB_0003cea8                            
ram:0003ce4c    502a            cmp         param_3,#0x50                           
ram:0003ce4e    0fd1            bne         LAB_0003ce70                            
ram:0003ce50    801d            adds        param_1,param_1,#0x6                    
ram:0003ce52    0288            ldrh        param_3,[param_1,#0x0]                  
ram:0003ce54    b242            cmp         param_3,r6                              
ram:0003ce56    0bd1            bne         LAB_0003ce70                            
ram:0003ce58    028b            ldrh        param_3,[param_1,#0x18]                 
ram:0003ce5a    022a            cmp         param_3,#0x2                            
ram:0003ce5c    08d1            bne         LAB_0003ce70                            
ram:0003ce5e    c27e            ldrb        param_3,[param_1,#0x1b]                 
ram:0003ce60    837e            ldrb        param_4,[param_1,#0x1a]                 
ram:0003ce62    1002            lsls        param_1,param_3,#0x8                    
ram:0003ce64    1843            orrs        param_1,param_4                         
ram:0003ce66    c007            lsls        param_1,param_1,#0x1f                   
ram:0003ce68    c00f            lsrs        param_1,param_1,#0x1f                   
ram:0003ce6a    13d0            beq         LAB_0003ce94                            
                            LAB_0003ce6c:                 ;XREF[2,0]:   0003ce88,0003ceb4
ram:0003ce6c    fff7b5ff        bl          FUN_0003cdda                            ;undefined FUN_0003cdda(void)
                            LAB_0003ce70:                 ;XREF[3,0]:   0003ce4e,0003ce56,0003ce5c
ram:0003ce70    f8bd            pop         {param_4,r4,r5,r6,r7,pc}                
                            LAB_0003ce72:                 ;XREF[1,0]:   0003ce3e
ram:0003ce72    8188            ldrh        param_2,[param_1,#0x4]                  
ram:0003ce74    6980            strh        param_2,[r5,#0x2]=>DAT_20002c1a         
ram:0003ce76    0146            mov         param_2,param_1                         
ram:0003ce78    1548            ldr         param_1,[DAT_0003ced0]                  ;= 20002C18h
ram:0003ce7a    0822            movs        param_3,#0x8                            
ram:0003ce7c    1631            adds        param_2,#0x16                           
ram:0003ce7e    1030            adds        param_1,#0x10                           
ram:0003ce80    02f000fb        bl          FUN_0003f484                            ;undefined FUN_0003f484(undefined4 * ...
ram:0003ce84    6f70            strb        r7,[r5,#0x1]=>DAT_20002c19              
ram:0003ce86    002e            cmp         r6,#0x0                                 
ram:0003ce88    f0d0            beq         LAB_0003ce6c                            
                            LAB_0003ce8a:                 ;XREF[2,0]:   0003ce9c,0003cea2
ram:0003ce8a    f8bd            pop         {param_4,r4,r5,r6,r7,pc}                
                            LAB_0003ce8c:                 ;XREF[1,0]:   0003ce46
ram:0003ce8c    0020            movs        param_1,#0x0                            
ram:0003ce8e    c043            mvns        param_1,param_1                         
ram:0003ce90    6880            strh        param_1,[r5,#0x2]=>DAT_20002c1a         
ram:0003ce92    6f70            strb        r7,[r5,#0x1]=>DAT_20002c19              
                            LAB_0003ce94:                 ;XREF[1,0]:   0003ce6a
ram:0003ce94    0846            mov         param_1,param_2                         
ram:0003ce96    00f0d4fe        bl          FUN_0003dc42                            ;undefined4 FUN_0003dc42(uint param_1...
ram:0003ce9a    0028            cmp         param_1,#0x0                            
ram:0003ce9c    f5d0            beq         LAB_0003ce8a                            
ram:0003ce9e    a169            ldr         param_2,[r4,#0x18]=>DAT_20003100        
ram:0003cea0    0029            cmp         param_2,#0x0                            
ram:0003cea2    f2d0            beq         LAB_0003ce8a                            
ram:0003cea4    8847            blx         param_2                                 
ram:0003cea6    f8bd            pop         {param_4,r4,r5,r6,r7,pc}                
                            LAB_0003cea8:                 ;XREF[1,0]:   0003ce4a
ram:0003cea8    811d            adds        param_2,param_1,#0x6                    
ram:0003ceaa    0948            ldr         param_1,[DAT_0003ced0]                  ;= 20002C18h
ram:0003ceac    0822            movs        param_3,#0x8                            
ram:0003ceae    1030            adds        param_1,#0x10                           
ram:0003ceb0    02f0e8fa        bl          FUN_0003f484                            ;undefined FUN_0003f484(undefined4 * ...
ram:0003ceb4    dae7            b           LAB_0003ce6c                            
                            ;************************************************************************************************
                            ;*                                           FUNCTION                                           *
                            ;************************************************************************************************
                            ;undefined4 FUN_0003ceb6(int param_1)
          ;param_1       int                 r0                      
                                                          ;XREF[1,0]:   0003cde0
ram:0003ceb6    4188            ldrh        r1,[param_1,#0x2]                       
ram:0003ceb8    0548            ldr         param_1,[DAT_0003ced0]                  ;= 20002C18h
ram:0003ceba    0830            adds        param_1,#0x8                            
ram:0003cebc    0288            ldrh        r2,[param_1,#0x0]=>DAT_20002c20         
ram:0003cebe    9142            cmp         r1,r2                                   
ram:0003cec0    04d3            bcc         LAB_0003cecc                            
ram:0003cec2    4088            ldrh        param_1,[param_1,#0x2]=>DAT_20002c22    
ram:0003cec4    8142            cmp         r1,param_1                              
ram:0003cec6    01d8            bhi         LAB_0003cecc                            
ram:0003cec8    0120            movs        param_1,#0x1                            
ram:0003ceca    7047            bx          lr                                      
                            LAB_0003cecc:                 ;XREF[2,0]:   0003cec0,0003cec6
ram:0003cecc    0020            movs        param_1,#0x0                            
ram:0003cece    7047            bx          lr                                      
                            DAT_0003ced0:                 ;XREF[11,0]:  0003cd32,0003cd94,0003cdb0,0003cdbe
                                                          ;             0003cdd0,0003cddc,0003cde6,0003ce38
                                                          ;             0003ce78,0003ceaa,0003ceb8
ram:0003ced0    182c0020        undefined4  20002C18h                               
                            DAT_0003ced4:                 ;XREF[1,0]:   0003cd34
ram:0003ced4    ffff0000        undefined4  0000FFFFh                               
                            DAT_0003ced8:                 ;XREF[4,0]:   0003cd3e,0003cd8e,0003cde8,0003ce32
ram:0003ced8    e8300020        undefined4  200030E8h                               
                            PTR_LAB_0003cd30+1+1_0003cedc:;XREF[1,0]:   0003cdc2
ram:0003cedc    31cd0300        addr        LAB_0003cd30+1+1                        
                            ;************************************************************************************************
                            ;*                                           FUNCTION                                           *
                            ;************************************************************************************************
                            ;undefined8 FUN_0003cee0(ushort * param_1, undefined * param_2, char param_3)
          ;param_1       ushort *            r0                      
          ;param_2       undefined *         r1                      
          ;param_3       char                r2                      
          ;local_10      undefined2         -10                      ;XREF[1,0]:   0003cf0c
          ;local_14      undefined4         -14                      ;XREF[2,0]:   0003cf14,0003cf22
          ;local_18      undefined4         -18                      ;XREF[2,0]:   0003cf12,0003cf20
          ;local_1c      undefined4         -1c                      ;XREF[2,0]:   0003cf10,0003cf1c
          ;local_20      undefined4         -20                      ;XREF[2,1]:   0003cf0e,0003cf18,0003cf1a
                                                          ;XREF[6,0]:   0003cfe8,0003eaa2,0003ead6,0003f17a
                                                          ;             0003f1fe,0003f254
ram:0003cee0    30b5            push        {r4,r5,lr}                              
ram:0003cee2    85b0            sub         sp,#0x14                                
ram:0003cee4    0028            cmp         param_1,#0x0                            
ram:0003cee6    22d0            beq         LAB_0003cf2e                            
ram:0003cee8    0388            ldrh        r3,[param_1,#0x0]                       
ram:0003ceea    fe4c            ldr         r4,[DAT_0003d2e4]                       ;= 0000FFFFh
ram:0003ceec    a342            cmp         r3,r4                                   
ram:0003ceee    20d0            beq         LAB_0003cf32                            
ram:0003cef0    fd4b            ldr         r3,[DAT_0003d2e8]                       ;= 20002C30h
ram:0003cef2    1b78            ldrb        r3,[r3,#0x0]=>DAT_20002c30              
ram:0003cef4    002b            cmp         r3,#0x0                                 
ram:0003cef6    1cd0            beq         LAB_0003cf32                            
ram:0003cef8    fb4b            ldr         r3,[DAT_0003d2e8]                       ;= 20002C30h
ram:0003cefa    1025            movs        r5,#0x10                                
ram:0003cefc    5b1c            adds        r3,r3,#0x1                              
ram:0003cefe    1d70            strb        r5,[r3,#0x0]=>DAT_20002c31              
ram:0003cf00    5970            strb        param_2,[r3,#0x1]=>DAT_20002c32         
ram:0003cf02    0024            movs        r4,#0x0                                 
ram:0003cf04    0125            movs        r5,#0x1                                 
ram:0003cf06    9a70            strb        param_3,[r3,#0x2]=>DAT_20002c33         
ram:0003cf08    0322            movs        param_3,#0x3                            
ram:0003cf0a    6946            mov         param_2,sp                              
ram:0003cf0c    0a82            strh        param_3,[r1,#local_10+0x20]             
ram:0003cf0e    0094            str         r4,[sp,#0x0]=>local_20                  
ram:0003cf10    0194            str         r4,[sp,#local_1c+0x20]                  
ram:0003cf12    0294            str         r4,[sp,#local_18+0x20]                  
ram:0003cf14    0394            str         r4,[sp,#local_14+0x20]                  
ram:0003cf16    028a            ldrh        param_3,[param_1,#0x10]                 
ram:0003cf18    0a80            strh        param_3,[param_2,#0x0]=>local_20        
ram:0003cf1a    8d70            strb        r5,[r1,#local_20+0x22]                  
ram:0003cf1c    8c80            strh        r4,[r1,#local_1c+0x20]                  
ram:0003cf1e    04a9            add         param_2,sp,#0x10                        
ram:0003cf20    0291            str         param_2,[sp,#local_18+0x20]             
ram:0003cf22    0393            str         r3=>DAT_20002c31,[sp,#local_14+0x20]    
ram:0003cf24    0088            ldrh        param_1,[param_1,#0x0]                  
ram:0003cf26    6946            mov         param_2,sp                              
ram:0003cf28    a6df            svc         0xa6                                    
                            LAB_0003cf2a:                 ;XREF[4,0]:   0003cf30,0003cf34,0003d090,0003d094
ram:0003cf2a    05b0            add         sp,#0x14                                
ram:0003cf2c    30bd            pop         {r4,r5,pc}                              
                            LAB_0003cf2e:                 ;XREF[1,0]:   0003cee6
ram:0003cf2e    0e20            movs        param_1,#0xe                            
ram:0003cf30    fbe7            b           LAB_0003cf2a                            
                            LAB_0003cf32:                 ;XREF[2,0]:   0003ceee,0003cef6
ram:0003cf32    0820            movs        param_1,#0x8                            
ram:0003cf34    f9e7            b           LAB_0003cf2a                            
                            ;************************************************************************************************
                            ;*                                           FUNCTION                                           *
                            ;************************************************************************************************
                            ;undefined8 FUN_0003cf36(ushort * param_1, int param_2)
          ;param_1       ushort *            r0                      
          ;param_2       int                 r1                      
          ;local_18      undefined4         -18                      ;XREF[1,0]:   0003cf4c
          ;local_1c      undefined4         -1c                      ;XREF[2,1]:   0003cf44,0003cf46,0003cf48
          ;local_20      undefined2         -20                      ;XREF[1,0]:   0003cf68
          ;local_30      undefined2         -30                      ;XREF[2,0]:   0003cf72,0003cf9e
          ;local_34      undefined1         -34                      ;XREF[1,0]:   0003cf40
                                                          ;XREF[1,0]:   0003d0de
ram:0003cf36    f0b5            push        {r4,r5,r6,r7,lr}                        
ram:0003cf38    8bb0            sub         sp,#0x2c                                
ram:0003cf3a    0446            mov         r4,param_1                              
ram:0003cf3c    0227            movs        r7,#0x2                                 
ram:0003cf3e    6846            mov         param_1,sp                              
ram:0003cf40    0773            strb        r7,[r0,#local_34+0x40]                  
ram:0003cf42    0026            movs        r6,#0x0                                 
ram:0003cf44    0996            str         r6,[sp,#local_1c+0x40]                  
ram:0003cf46    8784            strh        r7,[r0,#local_1c+0x40]                  
ram:0003cf48    c684            strh        r6,[r0,#local_1c+0x42]                  
ram:0003cf4a    08a8            add         param_1,sp,#0x20                        
ram:0003cf4c    0a90            str         param_1,[sp,#local_18+0x40]             
ram:0003cf4e    0d46            mov         r5,param_2                              
ram:0003cf50    a18a            ldrh        param_2,[r4,#0x14]                      
ram:0003cf52    2088            ldrh        param_1,[r4,#0x0]                       
ram:0003cf54    09aa            add         r2,sp,#0x24                             
ram:0003cf56    a5df            svc         0xa5                                    
ram:0003cf58    0028            cmp         param_1,#0x0                            
ram:0003cf5a    04d0            beq         LAB_0003cf66                            
ram:0003cf5c    e16a            ldr         param_2,[r4,#0x2c]                      
ram:0003cf5e    0029            cmp         param_2,#0x0                            
ram:0003cf60    1ad0            beq         LAB_0003cf98                            
ram:0003cf62    8847            blx         param_2                                 
ram:0003cf64    18e0            b           LAB_0003cf98                            
                            LAB_0003cf66:                 ;XREF[1,0]:   0003cf5a
ram:0003cf66    6846            mov         param_1,sp                              
ram:0003cf68    008c            ldrh        param_1,[r0,#local_20+0x40]             
ram:0003cf6a    c007            lsls        param_1,param_1,#0x1f                   
ram:0003cf6c    c00f            lsrs        param_1,param_1,#0x1f                   
ram:0003cf6e    13d0            beq         LAB_0003cf98                            
ram:0003cf70    6846            mov         param_1,sp                              
ram:0003cf72    0682            strh        r6,[r0,#local_30+0x40]                  
ram:0003cf74    2088            ldrh        param_1,[r4,#0x0]                       
ram:0003cf76    03a9            add         param_2,sp,#0xc                         
ram:0003cf78    a8df            svc         0xa8                                    
ram:0003cf7a    0028            cmp         param_1,#0x0                            
ram:0003cf7c    13d1            bne         LAB_0003cfa6                            
ram:0003cf7e    a97e            ldrb        param_2,[r5,#0x1a]                      
ram:0003cf80    2846            mov         param_1,r5                              
ram:0003cf82    1b30            adds        param_1,#0x1b                           
ram:0003cf84    0122            movs        r2,#0x1                                 
ram:0003cf86    0b00            movs        r3,param_2                              
                                                          ; FWD[2,0]:   0003cf8c,0003f54c
ram:0003cf88    02f0e0fa        bl          __ARM_common_switch8                    ;= 09h
                                                                                    ;undefined __ARM_common_switch8(void)
                            DAT_0003cf8c:                 ;XREF[1,0]:   0003cf88
ram:0003cf8c    09              undefined1  09h                                     
ram:0003cf8d    43              ??          43h    C                                
ram:0003cf8e    0f              ??          0Fh                                     
ram:0003cf8f    1b              ??          1Bh                                     
ram:0003cf90    20              ??          20h                                     
ram:0003cf91    22              ??          22h    "                                
ram:0003cf92    24              ??          24h    $                                
ram:0003cf93    26              ??          26h    &                                
ram:0003cf94    3e              ??          3Eh    >                                
ram:0003cf95    28              ??          28h    (                                
ram:0003cf96    43              ??          43h    C                                
ram:0003cf97    00              ??          00h                                     
                            LAB_0003cf98:                 ;XREF[3,0]:   0003cf60,0003cf64,0003cf6e
ram:0003cf98    ff20            movs        param_1,#0xff                           
ram:0003cf9a    fe30            adds        param_1,#0xfe                           
ram:0003cf9c    6946            mov         param_2,sp                              
ram:0003cf9e    0882            strh        param_1,[r1,#local_30+0x40]             
ram:0003cfa0    2088            ldrh        param_1,[r4,#0x0]                       
ram:0003cfa2    03a9            add         param_2,sp,#0xc                         
ram:0003cfa4    a8df            svc         0xa8                                    
                            LAB_0003cfa6:                 ;XREF[3,0]:   0003cf7c,0003cfc0,0003cfec
ram:0003cfa6    0bb0            add         sp,#0x2c                                
ram:0003cfa8    f0bd            pop         {r4,r5,r6,r7,pc}                        
ram:0003cfaa    0096            str         r6,[sp,#0x0]                            
ram:0003cfac    0ae0            b           FUN_0003cfc4                            
                            ;************************************************************************************************
                            ;*                                           FUNCTION                                           *
                            ;************************************************************************************************
                            ;undefined8 FUN_0003cfae(undefined4 param_1, undefined * param_2)
          ;param_1       undefined4          r0                      
          ;param_2       undefined *         r1                      
                                                          ;XREF[1,0]:   0003cfca
ram:0003cfae    0622            movs        r2,#0x6                                 
ram:0003cfb0    19e0            b           LAB_0003cfe6                            
                            ;************************************************************************************************
                            ;*                                           FUNCTION                                           *
                            ;************************************************************************************************
                            ;undefined4 FUN_0003cfb2(undefined4 param_1, undefined4 param_2, undefined param_3, undefined param_4, undefined param_5, undefined1 param_6, undefined4 param_7)
          ;param_1       undefined4          r0                      
          ;param_2       undefined4          r1                      
          ;param_3       undefined           r2                      
          ;param_4       undefined           r3                      
          ;param_5       undefined            0                      
          ;param_6       undefined1           4                      ;XREF[1,0]:   0003cfb4
          ;param_7       undefined4           8                      ;XREF[1,0]:   0003cfb6
                                                          ;XREF[1,0]:   0003cfc8
ram:0003cfb2    6946            mov         param_2,sp                              
ram:0003cfb4    0a71            strb        param_3,[r1,#param_6]                   
ram:0003cfb6    0290            str         param_1,[sp,#param_7]                   
ram:0003cfb8    22e0            b           LAB_0003d000                            
                            LAB_0003cfba:                 ;XREF[2,0]:   0003d002,0003d010
ram:0003cfba    2046            mov         param_1,r4                              
ram:0003cfbc    9047            blx         param_3                                 
ram:0003cfbe    0020            movs        param_1,#0x0                            
ram:0003cfc0    f1e7            b           LAB_0003cfa6                            
ram:0003cfc2    0092            str         r2,[sp,#0x0]                            
                            ;************************************************************************************************
                            ;*                                           FUNCTION                                           *
                            ;************************************************************************************************
                            ;longlong FUN_0003cfc4(undefined4 param_1, undefined * param_2)
          ;param_1       undefined4          r0                      
          ;param_2       undefined *         r1                      
                                                          ;XREF[1,0]:   0003cfac
ram:0003cfc4    2b8b            ldrh        r3,[r5,#0x18]                           
ram:0003cfc6    022b            cmp         r3,#0x2                                 
ram:0003cfc8    f3d2            bcs         FUN_0003cfb2                            
ram:0003cfca    f0e7            b           FUN_0003cfae                            ;undefined8 FUN_0003cfae(undefined4 p...
ram:0003cfcc    0097            str         r7,[sp,#0x0]                            
ram:0003cfce    1de0            b           FUN_0003d00c                            
ram:0003cfd0    0320            movs        r0,#0x3                                 
ram:0003cfd2    1ae0            b           LAB_0003d00a                            
ram:0003cfd4    0420            movs        r0,#0x4                                 
ram:0003cfd6    18e0            b           LAB_0003d00a                            
ram:0003cfd8    0520            movs        r0,#0x5                                 
ram:0003cfda    16e0            b           LAB_0003d00a                            
ram:0003cfdc    298b            ldrh        r1,[r5,#0x18]                           
ram:0003cfde    0329            cmp         r1,#0x3                                 
ram:0003cfe0    05d2            bcs         LAB_0003cfee                            
ram:0003cfe2    0322            movs        r2,#0x3                                 
ram:0003cfe4    0821            movs        r1,#0x8                                 
                            LAB_0003cfe6:                 ;XREF[2,0]:   0003cfb0,0003d014
ram:0003cfe6    2046            mov         param_1,r4                              
ram:0003cfe8    fff77aff        bl          FUN_0003cee0                            ;undefined8 FUN_0003cee0(ushort * par...
ram:0003cfec    dbe7            b           LAB_0003cfa6                            
                            LAB_0003cfee:                 ;XREF[1,0]:   0003cfe0
ram:0003cfee    4178            ldrb        r1,[r0,#0x1]                            
ram:0003cff0    0278            ldrb        r2,[r0,#0x0]                            
ram:0003cff2    0802            lsls        r0,r1,#0x8                              
ram:0003cff4    1043            orrs        r0,r2                                   
ram:0003cff6    6946            mov         r1,sp                                   
ram:0003cff8    8880            strh        r0,[r1,#0x4]                            
ram:0003cffa    03d0            beq         FUN_0003d004                            
ram:0003cffc    0620            movs        r0,#0x6                                 
                            ;************************************************************************************************
                            ;*                                           FUNCTION                                           *
                            ;************************************************************************************************
                            ;undefined4 FUN_0003cffe(undefined4 param_1, undefined param_2, undefined param_3, undefined param_4, undefined4 param_5)
          ;param_1       undefined4          r0                      
          ;param_2       undefined           r1                      
          ;param_3       undefined           r2                      
          ;param_4       undefined           r3                      
          ;param_5       undefined4           0                      ;XREF[1,0]:   0003cffe
                                                          ;XREF[1,0]:   0003d006
ram:0003cffe    0090            str         param_1,[sp,#0x0]=>param_5              
                            LAB_0003d000:                 ;XREF[1,0]:   0003cfb8
ram:0003d000    a26a            ldr         param_3,[r4,#0x28]                      
ram:0003d002    dae7            b           LAB_0003cfba                            
                            ;************************************************************************************************
                            ;*                                           FUNCTION                                           *
                            ;************************************************************************************************
                            ;undefined4 FUN_0003d004(void)
                                                          ;XREF[1,0]:   0003cffa
ram:0003d004    0720            movs        r0,#0x7                                 
ram:0003d006    fae7            b           FUN_0003cffe                            
ram:0003d008    0920            movs        r0,#0x9                                 
                            LAB_0003d00a:                 ;XREF[3,0]:   0003cfd2,0003cfd6,0003cfda
ram:0003d00a    0090            str         r0,[sp,#0x0]                            
                            ;************************************************************************************************
                            ;*                                           FUNCTION                                           *
                            ;************************************************************************************************
                            ;undefined4 FUN_0003d00c(void)
                                                          ;XREF[1,0]:   0003cfce
ram:0003d00c    6946            mov         r1,sp                                   
ram:0003d00e    a26a            ldr         r2,[r4,#0x28]                           
ram:0003d010    d3e7            b           LAB_0003cfba                            
ram:0003d012    0322            movs        r2,#0x3                                 
ram:0003d014    e7e7            b           LAB_0003cfe6                            
                            ;************************************************************************************************
                            ;*                                           FUNCTION                                           *
                            ;************************************************************************************************
                            ;undefined4 * FUN_0003d016(undefined2 * param_1, int param_2)
          ;param_1       undefined2 *        r0                      
          ;param_2       int                 r1                      
          ;local_10      undefined4         -10                      ;XREF[1,0]:   0003d034
          ;local_1c      undefined4         -1c                      ;XREF[1,0]:   0003d038
          ;local_1e      undefined1         -1e                      ;XREF[1,0]:   0003d058
          ;local_20      undefined2         -20                      ;XREF[1,0]:   0003d03e
                                                          ;XREF[1,0]:   0003f088
ram:0003d016    30b5            push        {r4,r5,lr}                              
ram:0003d018    85b0            sub         sp,#0x14                                
ram:0003d01a    0d46            mov         r5,param_2                              
ram:0003d01c    0400            movs        r4,param_1                              
ram:0003d01e    38d0            beq         LAB_0003d092                            
ram:0003d020    002d            cmp         r5,#0x0                                 
ram:0003d022    36d0            beq         LAB_0003d092                            
ram:0003d024    6868            ldr         param_1,[r5,#0x4]                       
ram:0003d026    0028            cmp         param_1,#0x0                            
ram:0003d028    33d0            beq         LAB_0003d092                            
ram:0003d02a    0020            movs        param_1,#0x0                            
ram:0003d02c    c043            mvns        param_1,param_1                         
ram:0003d02e    af4b            ldr         r3,[PTR_DAT_0003d2ec]                   ;= 0003f594
ram:0003d030    2080            strh        param_1,[r4,#0x0]                       
                                                          ; FWD[4,0]:   0003f594,0003f598,0003f59c,0003f5a0
ram:0003d032    0fcb            ldmia       r3,{param_1,param_2,r2,r3}=>DAT_0003f594;= EABCD123h
                                                                                    ;= 1523785Fh
                                                                                    ;= 1212EFDEh
ram:0003d034    0493            str         r3,[sp,#local_10+0x20]                  
ram:0003d036    01ab            add         r3,sp,#0x4                              
ram:0003d038    07c3            stmia       r3!=>local_1c,{param_1,param_2,r2}      
ram:0003d03a    ad48            ldr         param_1,[DAT_0003d2f0]                  ;= 00001530h
ram:0003d03c    6946            mov         param_2,sp                              
ram:0003d03e    0880            strh        param_1,[param_2,#0x0]=>local_20        
ram:0003d040    891c            adds        param_2,param_2,#0x2                    
ram:0003d042    01a8            add         param_1,sp,#0x4                         
ram:0003d044    63df            svc         0x63                                    
ram:0003d046    0028            cmp         param_1,#0x0                            
ram:0003d048    22d1            bne         LAB_0003d090                            
ram:0003d04a    221d            adds        r2,r4,#0x4                              
ram:0003d04c    6946            mov         param_2,sp                              
ram:0003d04e    0120            movs        param_1,#0x1                            
ram:0003d050    a0df            svc         0xa0                                    
ram:0003d052    0028            cmp         param_1,#0x0                            
ram:0003d054    1cd1            bne         LAB_0003d090                            
ram:0003d056    6846            mov         param_1,sp                              
ram:0003d058    8078            ldrb        param_1,[r0,#local_1e+0x20]             
ram:0003d05a    a071            strb        param_1,[r4,#0x6]                       
ram:0003d05c    2046            mov         param_1,r4                              
ram:0003d05e    00f0cef8        bl          FUN_0003d1fe                            ;undefined2 FUN_0003d1fe(int param_1)
ram:0003d062    0028            cmp         param_1,#0x0                            
ram:0003d064    14d1            bne         LAB_0003d090                            
ram:0003d066    2046            mov         param_1,r4                              
ram:0003d068    00f055f9        bl          FUN_0003d316                            ;undefined2 FUN_0003d316(int param_1)
ram:0003d06c    0028            cmp         param_1,#0x0                            
ram:0003d06e    0fd1            bne         LAB_0003d090                            
ram:0003d070    2946            mov         param_2,r5                              
ram:0003d072    2046            mov         param_1,r4                              
ram:0003d074    00f002f9        bl          FUN_0003d27c                            ;undefined8 FUN_0003d27c(int param_1)
ram:0003d078    0028            cmp         param_1,#0x0                            
ram:0003d07a    09d1            bne         LAB_0003d090                            
ram:0003d07c    6868            ldr         param_1,[r5,#0x4]                       
ram:0003d07e    a062            str         param_1,[r4,#0x28]                      
ram:0003d080    a868            ldr         param_1,[r5,#0x8]                       
ram:0003d082    0028            cmp         param_1,#0x0                            
ram:0003d084    00d0            beq         LAB_0003d088                            
ram:0003d086    e062            str         param_1,[r4,#0x2c]                      
                            LAB_0003d088:                 ;XREF[1,0]:   0003d084
ram:0003d088    9749            ldr         param_2,[DAT_0003d2e8]                  ;= 20002C30h
ram:0003d08a    0120            movs        param_1,#0x1                            
ram:0003d08c    0870            strb        param_1,[param_2,#0x0]=>DAT_20002c30    
ram:0003d08e    0020            movs        param_1,#0x0                            
                            LAB_0003d090:                 ;XREF[5,0]:   0003d048,0003d054,0003d064,0003d06e
                                                          ;             0003d07a
ram:0003d090    4be7            b           LAB_0003cf2a                            
                            LAB_0003d092:                 ;XREF[3,0]:   0003d01e,0003d022,0003d028
ram:0003d092    0e20            movs        param_1,#0xe                            
ram:0003d094    49e7            b           LAB_0003cf2a                            
                            ;************************************************************************************************
                            ;*                                           FUNCTION                                           *
                            ;************************************************************************************************
                            ;undefined FUN_0003d096(ushort * param_1, short * param_2, uint param_3, undefined4 param_4)
          ;param_1       ushort *            r0                      
          ;param_2       short *             r1                      
          ;param_3       uint                r2                      
          ;param_4       undefined4          r3                      
          ;local_10      undefined4         -10                      ;XREF[1,0]:   0003d108
          ;local_14      undefined1         -14                      ;XREF[1,0]:   0003d104
          ;local_18      undefined4         -18                      ;XREF[1,0]:   0003d0fe
                                                          ;XREF[1,0]:   0003efd8
ram:0003d096    3eb5            push        {param_2,param_3,param_4,r4,r5,lr}      
ram:0003d098    0028            cmp         param_1,#0x0                            
ram:0003d09a    28d0            beq         LAB_0003d0ee                            
ram:0003d09c    0029            cmp         param_2,#0x0                            
ram:0003d09e    26d0            beq         LAB_0003d0ee                            
ram:0003d0a0    826a            ldr         param_3,[param_1,#0x28]                 
ram:0003d0a2    002a            cmp         param_3,#0x0                            
ram:0003d0a4    23d0            beq         LAB_0003d0ee                            
ram:0003d0a6    0a88            ldrh        param_3,[param_2,#0x0]                  
ram:0003d0a8    102a            cmp         param_3,#0x10                           
ram:0003d0aa    21d0            beq         LAB_0003d0f0                            
ram:0003d0ac    112a            cmp         param_3,#0x11                           
ram:0003d0ae    30d0            beq         LAB_0003d112                            
ram:0003d0b0    502a            cmp         param_3,#0x50                           
ram:0003d0b2    1fd0            beq         LAB_0003d0f4                            
ram:0003d0b4    512a            cmp         param_3,#0x51                           
ram:0003d0b6    1ad1            bne         LAB_0003d0ee                            
ram:0003d0b8    0446            mov         r4,param_1                              
ram:0003d0ba    0846            mov         param_1,param_2                         
ram:0003d0bc    891d            adds        param_2,param_2,#0x6                    
ram:0003d0be    0a78            ldrb        param_3,[param_2,#0x0]                  
ram:0003d0c0    022a            cmp         param_3,#0x2                            
ram:0003d0c2    14d1            bne         LAB_0003d0ee                            
ram:0003d0c4    4a88            ldrh        param_3,[param_2,#0x2]                  
ram:0003d0c6    238a            ldrh        param_4,[r4,#0x10]                      
ram:0003d0c8    9a42            cmp         param_3,param_4                         
ram:0003d0ca    10d1            bne         LAB_0003d0ee                            
ram:0003d0cc    807a            ldrb        param_1,[param_1,#0xa]                  
ram:0003d0ce    0428            cmp         param_1,#0x4                            
ram:0003d0d0    0dd0            beq         LAB_0003d0ee                            
ram:0003d0d2    0628            cmp         param_1,#0x6                            
ram:0003d0d4    0bd0            beq         LAB_0003d0ee                            
ram:0003d0d6    0528            cmp         param_1,#0x5                            
ram:0003d0d8    09d0            beq         LAB_0003d0ee                            
ram:0003d0da    891c            adds        param_2,param_2,#0x2                    
ram:0003d0dc    2046            mov         param_1,r4                              
ram:0003d0de    fff72aff        bl          FUN_0003cf36                            ;undefined8 FUN_0003cf36(ushort * par...
ram:0003d0e2    0028            cmp         param_1,#0x0                            
ram:0003d0e4    03d0            beq         LAB_0003d0ee                            
ram:0003d0e6    e16a            ldr         param_2,[r4,#0x2c]                      
ram:0003d0e8    0029            cmp         param_2,#0x0                            
ram:0003d0ea    00d0            beq         LAB_0003d0ee                            
ram:0003d0ec    8847            blx         param_2                                 
                            LAB_0003d0ee:                 ;XREF[12,0]:  0003d09a,0003d09e,0003d0a4,0003d0b6
                                                          ;             0003d0c2,0003d0ca,0003d0d0,0003d0d4
                                                          ;             0003d0d8,0003d0e4,0003d0ea,0003d0fa
ram:0003d0ee    3ebd            pop         {param_2,param_3,param_4,r4,r5,pc}      
                            LAB_0003d0f0:                 ;XREF[1,0]:   0003d0aa
ram:0003d0f0    8988            ldrh        param_2,[param_2,#0x4]                  
ram:0003d0f2    10e0            b           LAB_0003d116                            
                            LAB_0003d0f4:                 ;XREF[1,0]:   0003d0b2
ram:0003d0f4    ca88            ldrh        param_3,[param_2,#0x6]                  
ram:0003d0f6    0389            ldrh        param_4,[param_1,#0x8]                  
ram:0003d0f8    9a42            cmp         param_3,param_4                         
ram:0003d0fa    f8d1            bne         LAB_0003d0ee                            
ram:0003d0fc    0822            movs        param_3,#0x8                            
ram:0003d0fe    0092            str         param_3,[sp,#0x0]=>local_18             
ram:0003d100    8a7f            ldrb        param_3,[param_2,#0x1e]                 
ram:0003d102    6b46            mov         param_4,sp                              
ram:0003d104    1a71            strb        param_3,[r3,#local_14+0x18]             
ram:0003d106    2031            adds        param_2,#0x20                           
ram:0003d108    0291            str         param_2,[sp,#local_10+0x18]             
ram:0003d10a    826a            ldr         param_3,[param_1,#0x28]                 
ram:0003d10c    6946            mov         param_2,sp                              
ram:0003d10e    9047            blx         param_3                                 
ram:0003d110    3ebd            pop         {param_2,param_3,param_4,r4,r5,pc}      
                            LAB_0003d112:                 ;XREF[1,0]:   0003d0ae
ram:0003d112    0021            movs        param_2,#0x0                            
ram:0003d114    c943            mvns        param_2,param_2                         
                            LAB_0003d116:                 ;XREF[1,0]:   0003d0f2
ram:0003d116    0180            strh        param_2,[param_1,#0x0]                  
ram:0003d118    3ebd            pop         {param_2,param_3,param_4,r4,r5,pc}      
                            ;************************************************************************************************
                            ;*                                           FUNCTION                                           *
                            ;************************************************************************************************
                            ;undefined8 FUN_0003d11a(ushort * param_1, undefined * param_2)
          ;param_1       ushort *            r0                      
          ;param_2       undefined *         r1                      
          ;local_18      undefined2         -18                      ;XREF[3,0]:   0003d148,0003d158,0003d15e
          ;local_1c      undefined4         -1c                      ;XREF[2,0]:   0003d166,0003d172
          ;local_20      undefined4         -20                      ;XREF[2,0]:   0003d164,0003d174
          ;local_24      undefined4         -24                      ;XREF[2,0]:   0003d162,0003d16e
          ;local_28      undefined4         -28                      ;XREF[2,1]:   0003d160,0003d16a,0003d16c
ram:0003d11a    f0b5            push        {r4,r5,r6,r7,lr}                        
ram:0003d11c    85b0            sub         sp,#0x14                                
ram:0003d11e    0a46            mov         r2,param_2                              
ram:0003d120    0500            movs        r5,param_1                              
ram:0003d122    2dd0            beq         LAB_0003d180                            
ram:0003d124    2888            ldrh        param_1,[r5,#0x0]                       
ram:0003d126    6f49            ldr         param_2,[DAT_0003d2e4]                  ;= 0000FFFFh
ram:0003d128    8842            cmp         param_1,param_2                         
ram:0003d12a    2bd0            beq         LAB_0003d184                            
ram:0003d12c    6e48            ldr         param_1,[DAT_0003d2e8]                  ;= 20002C30h
ram:0003d12e    0078            ldrb        param_1,[param_1,#0x0]=>DAT_20002c30    
ram:0003d130    0028            cmp         param_1,#0x0                            
ram:0003d132    27d0            beq         LAB_0003d184                            
ram:0003d134    6c4c            ldr         r4,[DAT_0003d2e8]                       ;= 20002C30h
ram:0003d136    1020            movs        param_1,#0x10                           
ram:0003d138    641c            adds        r4,r4,#0x1                              
ram:0003d13a    2070            strb        param_1,[r4,#0x0]=>DAT_20002c31         
ram:0003d13c    0720            movs        param_1,#0x7                            
ram:0003d13e    6070            strb        param_1,[r4,#0x1]=>DAT_20002c32         
ram:0003d140    0127            movs        r7,#0x1                                 
ram:0003d142    a770            strb        r7,[r4,#0x2]=>DAT_20002c33              
ram:0003d144    0321            movs        param_2,#0x3                            
ram:0003d146    6846            mov         param_1,sp                              
ram:0003d148    0182            strh        param_2,[r0,#local_18+0x28]             
ram:0003d14a    0026            movs        r6,#0x0                                 
ram:0003d14c    e11c            adds        param_2,r4,#0x3                         
ram:0003d14e    1046            mov         param_1,r2                              
ram:0003d150    00f04cf8        bl          FUN_0003d1ec                            ;undefined4 FUN_0003d1ec(undefined4 p...
ram:0003d154    0146            mov         param_2,param_1                         
ram:0003d156    6846            mov         param_1,sp                              
ram:0003d158    008a            ldrh        param_1,[r0,#local_18+0x28]             
ram:0003d15a    0918            adds        param_2,param_2,param_1                 
ram:0003d15c    6846            mov         param_1,sp                              
ram:0003d15e    0182            strh        param_2,[r0,#local_18+0x28]             
ram:0003d160    0096            str         r6,[sp,#0x0]=>local_28                  
ram:0003d162    0196            str         r6,[sp,#local_24+0x28]                  
ram:0003d164    0296            str         r6,[sp,#local_20+0x28]                  
ram:0003d166    0396            str         r6,[sp,#local_1c+0x28]                  
ram:0003d168    298a            ldrh        param_2,[r5,#0x10]                      
ram:0003d16a    0180            strh        param_2,[param_1,#0x0]=>local_28        
ram:0003d16c    8770            strb        r7,[r0,#local_28+0x2a]                  
ram:0003d16e    8680            strh        r6,[r0,#local_24+0x28]                  
ram:0003d170    04a8            add         param_1,sp,#0x10                        
ram:0003d172    0394            str         r4=>DAT_20002c31,[sp,#local_1c+0x28]    
ram:0003d174    0290            str         param_1,[sp,#local_20+0x28]             
ram:0003d176    2888            ldrh        param_1,[r5,#0x0]                       
ram:0003d178    6946            mov         param_2,sp                              
ram:0003d17a    a6df            svc         0xa6                                    
                            ;************************************************************************************************
                            ;*                                           FUNCTION                                           *
                            ;************************************************************************************************
                            ;undefined FUN_0003d17c(void)
                                                          ;XREF[5,0]:   0003d182,0003d186,0003d1e2,0003d1e6
                                                          ;             0003d1ea
ram:0003d17c    05b0            add         sp,#0x14                                
ram:0003d17e    f0bd            pop         {r4,r5,r6,r7,pc}                        
                            LAB_0003d180:                 ;XREF[1,0]:   0003d122
ram:0003d180    0e20            movs        param_1,#0xe                            
ram:0003d182    fbe7            b           FUN_0003d17c                            
                            LAB_0003d184:                 ;XREF[2,0]:   0003d12a,0003d132
ram:0003d184    0820            movs        param_1,#0x8                            
ram:0003d186    f9e7            b           FUN_0003d17c                            
                            ;************************************************************************************************
                            ;*                                           FUNCTION                                           *
                            ;************************************************************************************************
                            ;undefined8 FUN_0003d188(ushort * param_1, undefined * param_2)
          ;param_1       ushort *            r0                      
          ;param_2       undefined *         r1                      
          ;local_18      undefined2         -18                      ;XREF[3,0]:   0003d1ae,0003d1be,0003d1c4
          ;local_1c      undefined4         -1c                      ;XREF[2,0]:   0003d1cc,0003d1d8
          ;local_20      undefined4         -20                      ;XREF[2,0]:   0003d1ca,0003d1da
          ;local_24      undefined4         -24                      ;XREF[2,0]:   0003d1c8,0003d1d4
          ;local_28      undefined4         -28                      ;XREF[2,1]:   0003d1c6,0003d1d0,0003d1d2
                                                          ;XREF[1,0]:   0003eb7e
ram:0003d188    f0b5            push        {r4,r5,r6,r7,lr}                        
ram:0003d18a    85b0            sub         sp,#0x14                                
ram:0003d18c    0a46            mov         r2,param_2                              
ram:0003d18e    0500            movs        r5,param_1                              
ram:0003d190    28d0            beq         LAB_0003d1e4                            
ram:0003d192    2888            ldrh        param_1,[r5,#0x0]                       
ram:0003d194    5349            ldr         param_2,[DAT_0003d2e4]                  ;= 0000FFFFh
ram:0003d196    8842            cmp         param_1,param_2                         
ram:0003d198    26d0            beq         LAB_0003d1e8                            
ram:0003d19a    5348            ldr         param_1,[DAT_0003d2e8]                  ;= 20002C30h
ram:0003d19c    0078            ldrb        param_1,[param_1,#0x0]=>DAT_20002c30    
ram:0003d19e    0028            cmp         param_1,#0x0                            
ram:0003d1a0    22d0            beq         LAB_0003d1e8                            
ram:0003d1a2    514c            ldr         r4,[DAT_0003d2e8]                       ;= 20002C30h
ram:0003d1a4    1120            movs        param_1,#0x11                           
ram:0003d1a6    641c            adds        r4,r4,#0x1                              
ram:0003d1a8    2070            strb        param_1,[r4,#0x0]=>DAT_20002c31         
ram:0003d1aa    0127            movs        r7,#0x1                                 
ram:0003d1ac    6846            mov         param_1,sp                              
ram:0003d1ae    0782            strh        r7,[r0,#local_18+0x28]                  
ram:0003d1b0    0026            movs        r6,#0x0                                 
ram:0003d1b2    611c            adds        param_2=>DAT_20002c32,r4,#0x1           
ram:0003d1b4    1046            mov         param_1,r2                              
ram:0003d1b6    00f019f8        bl          FUN_0003d1ec                            ;undefined4 FUN_0003d1ec(undefined4 p...
ram:0003d1ba    0146            mov         param_2,param_1                         
ram:0003d1bc    6846            mov         param_1,sp                              
ram:0003d1be    008a            ldrh        param_1,[r0,#local_18+0x28]             
ram:0003d1c0    0918            adds        param_2,param_2,param_1                 
ram:0003d1c2    6846            mov         param_1,sp                              
ram:0003d1c4    0182            strh        param_2,[r0,#local_18+0x28]             
ram:0003d1c6    0096            str         r6,[sp,#0x0]=>local_28                  
ram:0003d1c8    0196            str         r6,[sp,#local_24+0x28]                  
ram:0003d1ca    0296            str         r6,[sp,#local_20+0x28]                  
ram:0003d1cc    0396            str         r6,[sp,#local_1c+0x28]                  
ram:0003d1ce    298a            ldrh        param_2,[r5,#0x10]                      
ram:0003d1d0    0180            strh        param_2,[param_1,#0x0]=>local_28        
ram:0003d1d2    8770            strb        r7,[r0,#local_28+0x2a]                  
ram:0003d1d4    8680            strh        r6,[r0,#local_24+0x28]                  
ram:0003d1d6    04a8            add         param_1,sp,#0x10                        
ram:0003d1d8    0394            str         r4=>DAT_20002c31,[sp,#local_1c+0x28]    
ram:0003d1da    0290            str         param_1,[sp,#local_20+0x28]             
ram:0003d1dc    2888            ldrh        param_1,[r5,#0x0]                       
ram:0003d1de    6946            mov         param_2,sp                              
ram:0003d1e0    a6df            svc         0xa6                                    
ram:0003d1e2    cbe7            b           FUN_0003d17c                            
                            LAB_0003d1e4:                 ;XREF[1,0]:   0003d190
ram:0003d1e4    0e20            movs        param_1,#0xe                            
ram:0003d1e6    c9e7            b           FUN_0003d17c                            
                            LAB_0003d1e8:                 ;XREF[2,0]:   0003d198,0003d1a0
ram:0003d1e8    0820            movs        param_1,#0x8                            
ram:0003d1ea    c7e7            b           FUN_0003d17c                            
                            ;************************************************************************************************
                            ;*                                           FUNCTION                                           *
                            ;************************************************************************************************
                            ;undefined4 FUN_0003d1ec(undefined4 param_1, undefined * param_2)
          ;param_1       undefined4          r0                      
          ;param_2       undefined *         r1                      
                                                          ;XREF[2,0]:   0003d150,0003d1b6
ram:0003d1ec    0870            strb        param_1,[param_2,#0x0]                  
ram:0003d1ee    020a            lsrs        r2,param_1,#0x8                         
ram:0003d1f0    4a70            strb        r2,[param_2,#0x1]                       
ram:0003d1f2    020c            lsrs        r2,param_1,#0x10                        
ram:0003d1f4    8a70            strb        r2,[param_2,#0x2]                       
ram:0003d1f6    000e            lsrs        param_1,param_1,#0x18                   
ram:0003d1f8    c870            strb        param_1,[param_2,#0x3]                  
ram:0003d1fa    0420            movs        param_1,#0x4                            
ram:0003d1fc    7047            bx          lr                                      
                            ;************************************************************************************************
                            ;*                                           FUNCTION                                           *
                            ;************************************************************************************************
                            ;undefined2 FUN_0003d1fe(int param_1)
          ;param_1       int                 r0                      
          ;local_14      undefined4         -14                      ;XREF[1,0]:   0003d26c
          ;local_18      undefined2         -18                      ;XREF[1,0]:   0003d26a
          ;local_1a      undefined2         -1a                      ;XREF[1,0]:   0003d268
          ;local_1c      undefined2         -1c                      ;XREF[1,0]:   0003d264
          ;local_20      undefined4         -20                      ;XREF[1,0]:   0003d260
          ;local_24      undefined4         -24                      ;XREF[1,0]:   0003d25c
          ;local_26      undefined1         -26                      ;XREF[1,0]:   0003d228
          ;local_28      undefined2         -28                      ;XREF[1,0]:   0003d230
          ;local_2c      undefined4         -2c                      ;XREF[2,3]:   0003d236,0003d23a,0003d23e,0003d240,0003d250
          ;local_30      undefined4         -30                      ;XREF[1,0]:   0003d222
          ;local_34      undefined4         -34                      ;XREF[1,0]:   0003d220
          ;local_38      undefined4         -38                      ;XREF[1,0]:   0003d21e
          ;local_3c      undefined4         -3c                      ;XREF[1,0]:   0003d21c
          ;local_44      undefined4         -44                      ;XREF[1,0]:   0003d21a
          ;local_48      undefined1         -48                      ;XREF[2,0]:   0003d20e,0003d216
                                                          ;XREF[1,0]:   0003d05e
ram:0003d1fe    30b5            push        {r4,r5,lr}                              
ram:0003d200    8fb0            sub         sp,#0x3c                                
ram:0003d202    0546            mov         r5,param_1                              
ram:0003d204    1c21            movs        r1,#0x1c                                
ram:0003d206    6846            mov         param_1,sp                              
ram:0003d208    02f055f9        bl          FUN_0003f4b6                            ;undefined FUN_0003f4b6(undefined * p...
ram:0003d20c    6946            mov         r1,sp                                   
ram:0003d20e    0878            ldrb        param_1,[r1,#0x0]=>local_48             
ram:0003d210    0421            movs        r1,#0x4                                 
ram:0003d212    0843            orrs        param_1,r1                              
ram:0003d214    6946            mov         r1,sp                                   
ram:0003d216    0870            strb        param_1,[r1,#0x0]=>local_48             
ram:0003d218    0024            movs        r4,#0x0                                 
ram:0003d21a    0194            str         r4,[sp,#local_44+0x48]                  
ram:0003d21c    0394            str         r4,[sp,#local_3c+0x48]                  
ram:0003d21e    0494            str         r4,[sp,#local_38+0x48]                  
ram:0003d220    0594            str         r4,[sp,#local_34+0x48]                  
ram:0003d222    0694            str         r4,[sp,#local_30+0x48]                  
ram:0003d224    a879            ldrb        param_1,[r5,#0x6]                       
ram:0003d226    08a9            add         r1,sp,#0x20                             
ram:0003d228    8870            strb        param_1,[r1,#local_26+0x28]             
ram:0003d22a    3148            ldr         param_1,[DAT_0003d2f0]                  ;= 00001530h
ram:0003d22c    6946            mov         r1,sp                                   
ram:0003d22e    801c            adds        param_1,param_1,#0x2                    
ram:0003d230    0884            strh        param_1,[r1,#local_28+0x48]             
ram:0003d232    601c            adds        param_1,r4,#0x1                         
ram:0003d234    0007            lsls        param_1,param_1,#0x1c                   
ram:0003d236    0794            str         r4,[sp,#local_2c+0x48]                  
ram:0003d238    000f            lsrs        param_1,param_1,#0x1c                   
ram:0003d23a    0c77            strb        r4,[r1,#local_2c+0x48]                  
ram:0003d23c    1030            adds        param_1,#0x10                           
ram:0003d23e    4877            strb        param_1,[r1,#local_2c+0x49]             
ram:0003d240    8a7f            ldrb        r2,[r1,#local_2c+0x4a]                  
ram:0003d242    f920            movs        param_1,#0xf9                           
ram:0003d244    0240            ands        r2,param_1                              
ram:0003d246    921c            adds        r2,r2,#0x2                              
ram:0003d248    e720            movs        param_1,#0xe7                           
ram:0003d24a    0240            ands        r2,param_1                              
ram:0003d24c    0120            movs        param_1,#0x1                            
ram:0003d24e    0243            orrs        r2,param_1                              
ram:0003d250    8a77            strb        r2,[r1,#local_2c+0x4a]                  
ram:0003d252    1421            movs        r1,#0x14                                
ram:0003d254    09a8            add         param_1,sp,#0x24                        
ram:0003d256    02f02ef9        bl          FUN_0003f4b6                            ;undefined FUN_0003f4b6(undefined * p...
ram:0003d25a    08a8            add         param_1,sp,#0x20                        
ram:0003d25c    0990            str         param_1,[sp,#local_24+0x48]             
ram:0003d25e    07a8            add         param_1,sp,#0x1c                        
ram:0003d260    0a90            str         param_1,[sp,#local_20+0x48]             
ram:0003d262    6946            mov         r1,sp                                   
ram:0003d264    8c85            strh        r4,[r1,#local_1c+0x48]                  
ram:0003d266    1420            movs        param_1,#0x14                           
ram:0003d268    cc85            strh        r4,[r1,#local_1a+0x48]                  
ram:0003d26a    0886            strh        param_1,[r1,#local_18+0x48]             
ram:0003d26c    0d94            str         r4,[sp,#local_14+0x48]                  
ram:0003d26e    2b46            mov         r3,r5                                   
ram:0003d270    a888            ldrh        param_1,[r5,#0x4]                       
ram:0003d272    0833            adds        r3,#0x8                                 
ram:0003d274    09aa            add         r2,sp,#0x24                             
ram:0003d276    a2df            svc         0xa2                                    
                            LAB_0003d278:                 ;XREF[1,0]:   0003d396
ram:0003d278    0fb0            add         sp,#0x3c                                
ram:0003d27a    30bd            pop         {r4,r5,pc}                              
                            ;************************************************************************************************
                            ;*                                           FUNCTION                                           *
                            ;************************************************************************************************
                            ;undefined8 FUN_0003d27c(int param_1)
          ;param_1       int                 r0                      
          ;local_1c      undefined4         -1c                      ;XREF[1,0]:   0003d304
          ;local_20      undefined2         -20                      ;XREF[1,0]:   0003d302
          ;local_22      undefined2         -22                      ;XREF[1,0]:   0003d300
          ;local_24      undefined2         -24                      ;XREF[1,0]:   0003d2fe
          ;local_28      undefined4         -28                      ;XREF[1,0]:   0003d2fa
          ;local_2c      undefined4         -2c                      ;XREF[1,0]:   0003d2f6
          ;local_2e      undefined1         -2e                      ;XREF[1,0]:   0003d2a6
          ;local_30      undefined2         -30                      ;XREF[1,0]:   0003d2ae
          ;local_34      undefined4         -34                      ;XREF[2,3]:   0003d2ba,0003d2bc,0003d2c4,0003d2c6,0003d2d8
          ;local_38      undefined4         -38                      ;XREF[1,0]:   0003d2a0
          ;local_3c      undefined4         -3c                      ;XREF[1,0]:   0003d29e
          ;local_40      undefined4         -40                      ;XREF[1,0]:   0003d29c
          ;local_44      undefined4         -44                      ;XREF[1,0]:   0003d29a
          ;local_4c      undefined4         -4c                      ;XREF[1,0]:   0003d298
          ;local_50      undefined1         -50                      ;XREF[2,0]:   0003d28e,0003d294
                                                          ;XREF[1,0]:   0003d074
ram:0003d27c    f0b5            push        {r4,r5,r6,r7,lr}                        
ram:0003d27e    8fb0            sub         sp,#0x3c                                
ram:0003d280    0f46            mov         r7,r1                                   
ram:0003d282    0546            mov         r5,param_1                              
ram:0003d284    1c21            movs        r1,#0x1c                                
ram:0003d286    6846            mov         param_1,sp                              
ram:0003d288    02f015f9        bl          FUN_0003f4b6                            ;undefined FUN_0003f4b6(undefined * p...
ram:0003d28c    6846            mov         param_1,sp                              
ram:0003d28e    0178            ldrb        r1,[param_1,#0x0]=>local_50             
ram:0003d290    0226            movs        r6,#0x2                                 
ram:0003d292    3143            orrs        r1,r6                                   
ram:0003d294    0170            strb        r1,[param_1,#0x0]=>local_50             
ram:0003d296    0024            movs        r4,#0x0                                 
ram:0003d298    0194            str         r4,[sp,#local_4c+0x50]                  
ram:0003d29a    0394            str         r4,[sp,#local_44+0x50]                  
ram:0003d29c    0494            str         r4,[sp,#local_40+0x50]                  
ram:0003d29e    0594            str         r4,[sp,#local_3c+0x50]                  
ram:0003d2a0    0694            str         r4,[sp,#local_38+0x50]                  
ram:0003d2a2    a979            ldrb        r1,[r5,#0x6]                            
ram:0003d2a4    08a8            add         param_1,sp,#0x20                        
ram:0003d2a6    8170            strb        r1,[r0,#local_2e+0x30]                  
ram:0003d2a8    1149            ldr         r1,[DAT_0003d2f0]                       ;= 00001530h
ram:0003d2aa    6846            mov         param_1,sp                              
ram:0003d2ac    091d            adds        r1,r1,#0x4                              
ram:0003d2ae    0184            strh        r1,[r0,#local_30+0x50]                  
ram:0003d2b0    601c            adds        param_1,r4,#0x1                         
ram:0003d2b2    0107            lsls        r1,param_1,#0x1c                        
ram:0003d2b4    090f            lsrs        r1,r1,#0x1c                             
ram:0003d2b6    1031            adds        r1,#0x10                                
ram:0003d2b8    6846            mov         param_1,sp                              
ram:0003d2ba    0794            str         r4,[sp,#local_34+0x50]                  
ram:0003d2bc    0177            strb        r1,[r0,#local_34+0x50]                  
ram:0003d2be    0020            movs        param_1,#0x0                            
ram:0003d2c0    0146            mov         r1,param_1                              
ram:0003d2c2    6846            mov         param_1,sp                              
ram:0003d2c4    4177            strb        r1,[r0,#local_34+0x51]                  
ram:0003d2c6    817f            ldrb        r1,[r0,#local_34+0x52]                  
ram:0003d2c8    f920            movs        param_1,#0xf9                           
ram:0003d2ca    0140            ands        r1,param_1                              
ram:0003d2cc    891c            adds        r1,r1,#0x2                              
ram:0003d2ce    e720            movs        param_1,#0xe7                           
ram:0003d2d0    0140            ands        r1,param_1                              
ram:0003d2d2    0120            movs        param_1,#0x1                            
ram:0003d2d4    0143            orrs        r1,param_1                              
ram:0003d2d6    6846            mov         param_1,sp                              
ram:0003d2d8    8177            strb        r1,[r0,#local_34+0x52]                  
ram:0003d2da    1421            movs        r1,#0x14                                
ram:0003d2dc    09a8            add         param_1,sp,#0x24                        
ram:0003d2de    02f0eaf8        bl          FUN_0003f4b6                            ;undefined FUN_0003f4b6(undefined * p...
ram:0003d2e2    07e0            b           LAB_0003d2f4                            
                            DAT_0003d2e4:                 ;XREF[3,0]:   0003ceea,0003d126,0003d194
ram:0003d2e4    ffff0000        undefined4  0000FFFFh                               
                            DAT_0003d2e8:                 ;XREF[7,0]:   0003cef0,0003cef8,0003d088,0003d12c
                                                          ;             0003d134,0003d19a,0003d1a2
ram:0003d2e8    302c0020        undefined4  20002C30h                               
                            PTR_DAT_0003d2ec:             ;XREF[1,0]:   0003d02e
ram:0003d2ec    94f50300        addr        DAT_0003f594                            ;= EABCD123h
                            DAT_0003d2f0:                 ;XREF[3,0]:   0003d03a,0003d22a,0003d2a8
ram:0003d2f0    30150000        undefined4  00001530h                               
                            LAB_0003d2f4:                 ;XREF[1,0]:   0003d2e2
ram:0003d2f4    08a8            add         param_1,sp,#0x20                        
ram:0003d2f6    0990            str         param_1,[sp,#local_2c+0x50]             
ram:0003d2f8    07a8            add         param_1,sp,#0x1c                        
ram:0003d2fa    0a90            str         param_1,[sp,#local_28+0x50]             
ram:0003d2fc    6846            mov         param_1,sp                              
ram:0003d2fe    8685            strh        r6,[r0,#local_24+0x50]                  
ram:0003d300    c485            strh        r4,[r0,#local_22+0x50]                  
ram:0003d302    0686            strh        r6,[r0,#local_20+0x50]                  
ram:0003d304    0d97            str         r7,[sp,#local_1c+0x50]                  
ram:0003d306    2b46            mov         r3,r5                                   
ram:0003d308    a888            ldrh        param_1,[r5,#0x4]                       
ram:0003d30a    2033            adds        r3,#0x20                                
ram:0003d30c    09aa            add         r2,sp,#0x24                             
ram:0003d30e    6946            mov         r1,sp                                   
ram:0003d310    a2df            svc         0xa2                                    
ram:0003d312    0fb0            add         sp,#0x3c                                
ram:0003d314    f0bd            pop         {r4,r5,r6,r7,pc}                        
                            ;************************************************************************************************
                            ;*                                           FUNCTION                                           *
                            ;************************************************************************************************
                            ;undefined2 FUN_0003d316(int param_1)
          ;param_1       int                 r0                      
          ;local_14      undefined4         -14                      ;XREF[1,0]:   0003d38a
          ;local_18      undefined2         -18                      ;XREF[1,0]:   0003d388
          ;local_1a      undefined2         -1a                      ;XREF[1,0]:   0003d386
          ;local_1c      undefined2         -1c                      ;XREF[1,0]:   0003d382
          ;local_20      undefined4         -20                      ;XREF[1,0]:   0003d37e
          ;local_24      undefined4         -24                      ;XREF[1,0]:   0003d37a
          ;local_26      undefined1         -26                      ;XREF[1,0]:   0003d344
          ;local_28      undefined2         -28                      ;XREF[1,0]:   0003d34a
          ;local_2c      undefined4         -2c                      ;XREF[2,3]:   0003d350,0003d354,0003d358,0003d35a,0003d36e
          ;local_30      undefined4         -30                      ;XREF[1,0]:   0003d33e
          ;local_34      undefined4         -34                      ;XREF[1,0]:   0003d33c
          ;local_38      undefined4         -38                      ;XREF[1,0]:   0003d33a
          ;local_3c      undefined4         -3c                      ;XREF[1,0]:   0003d338
          ;local_44      undefined4         -44                      ;XREF[1,0]:   0003d336
          ;local_48      undefined1         -48                      ;XREF[2,0]:   0003d326,0003d332
                                                          ;XREF[1,0]:   0003d068
ram:0003d316    30b5            push        {r4,r5,lr}                              
ram:0003d318    8fb0            sub         sp,#0x3c                                
ram:0003d31a    0546            mov         r5,param_1                              
ram:0003d31c    1c21            movs        r1,#0x1c                                
ram:0003d31e    6846            mov         param_1,sp                              
ram:0003d320    02f0c9f8        bl          FUN_0003f4b6                            ;undefined FUN_0003f4b6(undefined * p...
ram:0003d324    6946            mov         r1,sp                                   
ram:0003d326    0878            ldrb        param_1,[r1,#0x0]=>local_48             
ram:0003d328    0821            movs        r1,#0x8                                 
ram:0003d32a    0843            orrs        param_1,r1                              
ram:0003d32c    1022            movs        r2,#0x10                                
ram:0003d32e    1043            orrs        param_1,r2                              
ram:0003d330    6946            mov         r1,sp                                   
ram:0003d332    0870            strb        param_1,[r1,#0x0]=>local_48             
ram:0003d334    0024            movs        r4,#0x0                                 
ram:0003d336    0194            str         r4,[sp,#local_44+0x48]                  
ram:0003d338    0394            str         r4,[sp,#local_3c+0x48]                  
ram:0003d33a    0494            str         r4,[sp,#local_38+0x48]                  
ram:0003d33c    0594            str         r4,[sp,#local_34+0x48]                  
ram:0003d33e    0694            str         r4,[sp,#local_30+0x48]                  
ram:0003d340    a879            ldrb        param_1,[r5,#0x6]                       
ram:0003d342    08a9            add         r1,sp,#0x20                             
ram:0003d344    8870            strb        param_1,[r1,#local_26+0x28]             
ram:0003d346    1448            ldr         param_1,[DAT_0003d398]                  ;= 00001531h
ram:0003d348    6946            mov         r1,sp                                   
ram:0003d34a    0884            strh        param_1,[r1,#local_28+0x48]             
ram:0003d34c    601c            adds        param_1,r4,#0x1                         
ram:0003d34e    0007            lsls        param_1,param_1,#0x1c                   
ram:0003d350    0794            str         r4,[sp,#local_2c+0x48]                  
ram:0003d352    000f            lsrs        param_1,param_1,#0x1c                   
ram:0003d354    0c77            strb        r4,[r1,#local_2c+0x48]                  
ram:0003d356    1030            adds        param_1,#0x10                           
ram:0003d358    4877            strb        param_1,[r1,#local_2c+0x49]             
ram:0003d35a    887f            ldrb        param_1,[r1,#local_2c+0x4a]             
ram:0003d35c    f921            movs        r1,#0xf9                                
ram:0003d35e    0840            ands        param_1,r1                              
ram:0003d360    801c            adds        param_1,param_1,#0x2                    
ram:0003d362    f721            movs        r1,#0xf7                                
ram:0003d364    0840            ands        param_1,r1                              
ram:0003d366    1043            orrs        param_1,r2                              
ram:0003d368    0121            movs        r1,#0x1                                 
ram:0003d36a    0843            orrs        param_1,r1                              
ram:0003d36c    6946            mov         r1,sp                                   
ram:0003d36e    8877            strb        param_1,[r1,#local_2c+0x4a]             
ram:0003d370    1421            movs        r1,#0x14                                
ram:0003d372    09a8            add         param_1,sp,#0x24                        
ram:0003d374    02f09ff8        bl          FUN_0003f4b6                            ;undefined FUN_0003f4b6(undefined * p...
ram:0003d378    08a8            add         param_1,sp,#0x20                        
ram:0003d37a    0990            str         param_1,[sp,#local_24+0x48]             
ram:0003d37c    07a8            add         param_1,sp,#0x1c                        
ram:0003d37e    0a90            str         param_1,[sp,#local_20+0x48]             
ram:0003d380    6946            mov         r1,sp                                   
ram:0003d382    8c85            strh        r4,[r1,#local_1c+0x48]                  
ram:0003d384    1720            movs        param_1,#0x17                           
ram:0003d386    cc85            strh        r4,[r1,#local_1a+0x48]                  
ram:0003d388    0886            strh        param_1,[r1,#local_18+0x48]             
ram:0003d38a    0d94            str         r4,[sp,#local_14+0x48]                  
ram:0003d38c    2b46            mov         r3,r5                                   
ram:0003d38e    a888            ldrh        param_1,[r5,#0x4]                       
ram:0003d390    1033            adds        r3,#0x10                                
ram:0003d392    09aa            add         r2,sp,#0x24                             
ram:0003d394    a2df            svc         0xa2                                    
ram:0003d396    6fe7            b           LAB_0003d278                            
                            DAT_0003d398:                 ;XREF[1,0]:   0003d346
ram:0003d398    31150000        undefined4  00001531h                               
                            ;************************************************************************************************
                            ;*                                           FUNCTION                                           *
                            ;************************************************************************************************
                            ;undefined FUN_0003d39c(int param_1)
          ;param_1       int                 r0                      
          ;local_10      undefined4         -10                      ;XREF[2,0]:   0003d3a4,0003d3ac
                                                          ;XREF[1,0]:   0003e10a
ram:0003d39c    31b5            push        {param_1,r4,r5,lr}                      
ram:0003d39e    054c            ldr         r4,[DAT_0003d3b4]                       ;= 000003E7h
ram:0003d3a0    04e0            b           LAB_0003d3ac                            
                            LAB_0003d3a2:                 ;XREF[1,0]:   0003d3b0
ram:0003d3a2    401e            subs        param_1,param_1,#0x1                    
ram:0003d3a4    0090            str         param_1,[sp,#0x0]=>local_10             
ram:0003d3a6    2046            mov         param_1,r4                              
ram:0003d3a8    fef7a6fe        bl          FUN_0003c0f8                            ;undefined FUN_0003c0f8(int param_1)
                            LAB_0003d3ac:                 ;XREF[1,0]:   0003d3a0
ram:0003d3ac    0098            ldr         param_1,[sp,#0x0]=>local_10             
ram:0003d3ae    0028            cmp         param_1,#0x0                            
ram:0003d3b0    f7d1            bne         LAB_0003d3a2                            
ram:0003d3b2    38bd            pop         {r3,r4,r5,pc}                           
                            DAT_0003d3b4:                 ;XREF[1,0]:   0003d39e
ram:0003d3b4    e7030000        undefined4  000003E7h                               
                            ;************************************************************************************************
                            ;*                                           FUNCTION                                           *
                            ;************************************************************************************************
                            ;undefined FUN_0003d3b8(int param_1)
          ;param_1       int                 r0                      
                                                          ;XREF[2,0]:   0003d4e0,0003d520
ram:0003d3b8    1822            movs        r2,#0x18                                
ram:0003d3ba    5043            muls        param_1,r2                              
ram:0003d3bc    854a            ldr         r2,[DAT_0003d5d4]                       ;= 20003104h
ram:0003d3be    0021            movs        r1,#0x0                                 
ram:0003d3c0    8018            adds        param_1,param_1,r2                      
ram:0003d3c2    0171            strb        r1,[param_1,#0x4]                       
ram:0003d3c4    8160            str         r1,[param_1,#0x8]                       
ram:0003d3c6    4161            str         r1,[param_1,#0x14]                      
ram:0003d3c8    0222            movs        r2,#0x2                                 
ram:0003d3ca    8161            str         r1,[param_1,#0x18]                      
ram:0003d3cc    0261            str         r2,[param_1,#0x10]                      
ram:0003d3ce    c160            str         r1,[param_1,#0xc]                       
ram:0003d3d0    7047            bx          lr                                      
                            ;************************************************************************************************
                            ;*                                           FUNCTION                                           *
                            ;************************************************************************************************
                            ;int FUN_0003d3d2(void)
                                                          ;XREF[2,0]:   0003d468,0003d4f0
ram:0003d3d2    70b5            push        {r4,r5,r6,lr}                           
ram:0003d3d4    7f4c            ldr         r4,[DAT_0003d5d4]                       ;= 20003104h
ram:0003d3d6    1822            movs        r2,#0x18                                
ram:0003d3d8    2178            ldrb        r1,[r4,#0x0]=>DAT_20003104              
ram:0003d3da    0f20            movs        r0,#0xf                                 
ram:0003d3dc    5143            muls        r1,r2                                   
ram:0003d3de    0a19            adds        r2,r1,r4                                
ram:0003d3e0    121d            adds        r2,r2,#0x4                              
ram:0003d3e2    7d49            ldr         r1,[DAT_0003d5d8]                       ;= 20002C38h
ram:0003d3e4    1678            ldrb        r6,[r2,#0x0]                            
ram:0003d3e6    1369            ldr         r3,[r2,#0x10]                           
ram:0003d3e8    4d68            ldr         r5,[r1,#0x4]=>DAT_20002c3c              
ram:0003d3ea    022e            cmp         r6,#0x2                                 
ram:0003d3ec    0ed0            beq         LAB_0003d40c                            
ram:0003d3ee    042e            cmp         r6,#0x4                                 
ram:0003d3f0    0bd1            bne         LAB_0003d40a                            
ram:0003d3f2    b006            lsls        r0,r6,#0x1a                             
ram:0003d3f4    0069            ldr         r0,[r0,#0x10]                           
ram:0003d3f6    81b2            uxth        r1,r0                                   
ram:0003d3f8    1846            mov         r0,r3                                   
ram:0003d3fa    02f02df8        bl          FUN_0003f458                            ;int FUN_0003f458(uint param_1, uint ...
ram:0003d3fe    4019            adds        r0,r0,r5                                
ram:0003d400    28df            svc         0x28                                    
                            LAB_0003d402:                 ;XREF[2,0]:   0003d428,0003d430
ram:0003d402    0028            cmp         r0,#0x0                                 
ram:0003d404    01d1            bne         LAB_0003d40a                            
ram:0003d406    0121            movs        r1,#0x1                                 
ram:0003d408    a170            strb        r1,[r4,#0x2]=>DAT_20003106              
                            LAB_0003d40a:                 ;XREF[2,0]:   0003d3f0,0003d404
ram:0003d40a    70bd            pop         {r4,r5,r6,pc}                           
                            LAB_0003d40c:                 ;XREF[1,0]:   0003d3ec
ram:0003d40c    a802            lsls        r0,r5,#0xa                              
ram:0003d40e    5568            ldr         r5,[r2,#0x4]                            
ram:0003d410    5169            ldr         r1,[r2,#0x14]                           
ram:0003d412    2d1a            subs        r5,r5,r0                                
ram:0003d414    0918            adds        r1,r1,r0                                
ram:0003d416    9268            ldr         r2,[r2,#0x8]                            
ram:0003d418    1818            adds        r0,r3,r0                                
ram:0003d41a    1018            adds        r0,r2,r0                                
ram:0003d41c    0122            movs        r2,#0x1                                 
ram:0003d41e    9202            lsls        r2,r2,#0xa                              
ram:0003d420    9542            cmp         r5,r2                                   
ram:0003d422    02d2            bcs         LAB_0003d42a                            
ram:0003d424    aa08            lsrs        r2,r5,#0x2                              
ram:0003d426    29df            svc         0x29                                    
ram:0003d428    ebe7            b           LAB_0003d402                            
                            LAB_0003d42a:                 ;XREF[1,0]:   0003d422
ram:0003d42a    ff22            movs        r2,#0xff                                
ram:0003d42c    0132            adds        r2,#0x1                                 
ram:0003d42e    29df            svc         0x29                                    
ram:0003d430    e7e7            b           LAB_0003d402                            
                            ;************************************************************************************************
                            ;*                                           FUNCTION                                           *
                            ;************************************************************************************************
                            ;int FUN_0003d432(char param_1, undefined4 * param_2, undefined4 param_3, undefined4 param_4, undefined4 param_5)
          ;param_1       char                r0                      
          ;param_2       undefined4 *        r1                      
          ;param_3       undefined4          r2                      
          ;param_4       undefined4          r3                      
          ;param_5       undefined4           0                      ;XREF[1,0]:   0003d436
                                                          ;XREF[2,0]:   0003d58c,0003d5a2
ram:0003d432    f8b5            push        {param_4,r4,r5,r6,r7,lr}                
ram:0003d434    674c            ldr         r4,[DAT_0003d5d4]                       ;= 20003104h
ram:0003d436    069e            ldr         r6,[sp,#param_5+0x18]                   
ram:0003d438    6578            ldrb        r5,[r4,#0x1]=>DAT_20003105              
ram:0003d43a    0a2d            cmp         r5,#0xa                                 
ram:0003d43c    1dd0            beq         LAB_0003d47a                            
ram:0003d43e    2778            ldrb        r7,[r4,#0x0]=>DAT_20003104              
ram:0003d440    7d19            adds        r5,r7,r5                                
ram:0003d442    edb2            uxtb        r5,r5                                   
ram:0003d444    0a2d            cmp         r5,#0xa                                 
ram:0003d446    01d3            bcc         LAB_0003d44c                            
ram:0003d448    0a3d            subs        r5,#0xa                                 
ram:0003d44a    edb2            uxtb        r5,r5                                   
                            LAB_0003d44c:                 ;XREF[1,0]:   0003d446
ram:0003d44c    1827            movs        r7,#0x18                                
ram:0003d44e    7d43            muls        r5,r7                                   
ram:0003d450    2d19            adds        r5,r5,r4                                
ram:0003d452    2871            strb        param_1,[r5,#0x4]                       
ram:0003d454    aa61            str         param_3,[r5,#0x18]                      
ram:0003d456    03c9            ldmia       param_2,{param_1,param_2}               
ram:0003d458    ee60            str         r6,[r5,#0xc]                            
ram:0003d45a    ab60            str         param_4,[r5,#0x8]                       
ram:0003d45c    6961            str         param_2,[r5,#0x14]                      
ram:0003d45e    2861            str         param_1,[r5,#0x10]                      
ram:0003d460    a178            ldrb        param_2,[r4,#0x2]=>DAT_20003106         
ram:0003d462    0020            movs        param_1,#0x0                            
ram:0003d464    0029            cmp         param_2,#0x0                            
ram:0003d466    04d1            bne         LAB_0003d472                            
ram:0003d468    fff7b3ff        bl          FUN_0003d3d2                            ;int FUN_0003d3d2(void)
ram:0003d46c    1128            cmp         param_1,#0x11                           
ram:0003d46e    00d1            bne         LAB_0003d472                            
ram:0003d470    0020            movs        param_1,#0x0                            
                            LAB_0003d472:                 ;XREF[2,0]:   0003d466,0003d46e
ram:0003d472    6178            ldrb        param_2,[r4,#0x1]=>DAT_20003105         
ram:0003d474    491c            adds        param_2,param_2,#0x1                    
ram:0003d476    6170            strb        param_2,[r4,#0x1]=>DAT_20003105         
ram:0003d478    f8bd            pop         {param_4,r4,r5,r6,r7,pc}                
                            LAB_0003d47a:                 ;XREF[1,0]:   0003d43c
ram:0003d47a    0420            movs        param_1,#0x4                            
ram:0003d47c    f8bd            pop         {param_4,r4,r5,r6,r7,pc}                
                            ;************************************************************************************************
                            ;*                                           FUNCTION                                           *
                            ;************************************************************************************************
                            ;undefined FUN_0003d47e(int param_1)
          ;param_1       int                 r0                      
                                                          ;XREF[1,0]:   0003c210
ram:0003d47e    f8b5            push        {r3,r4,r5,r6,r7,lr}                     
ram:0003d480    544c            ldr         r4,[DAT_0003d5d4]                       ;= 20003104h
ram:0003d482    0022            movs        r2,#0x0                                 
ram:0003d484    a178            ldrb        r1,[r4,#0x2]=>DAT_20003106              
ram:0003d486    0129            cmp         r1,#0x1                                 
ram:0003d488    3fd1            bne         LAB_0003d50a                            
ram:0003d48a    0023            movs        r3,#0x0                                 
ram:0003d48c    a370            strb        r3,[r4,#0x2]=>DAT_20003106              
ram:0003d48e    0646            mov         r6,param_1                              
ram:0003d490    2146            mov         r1,r4                                   
ram:0003d492    0878            ldrb        param_1,[r1,#0x0]=>DAT_20003104         
ram:0003d494    1827            movs        r7,#0x18                                
ram:0003d496    0546            mov         r5,param_1                              
ram:0003d498    7843            muls        param_1,r7                              
ram:0003d49a    4118            adds        r1,param_1,r1                           
ram:0003d49c    022e            cmp         r6,#0x2                                 
ram:0003d49e    04d0            beq         LAB_0003d4aa                            
ram:0003d4a0    032e            cmp         r6,#0x3                                 
ram:0003d4a2    32d1            bne         LAB_0003d50a                            
ram:0003d4a4    091d            adds        r1,r1,#0x4                              
ram:0003d4a6    0d20            movs        param_1,#0xd                            
ram:0003d4a8    2de0            b           LAB_0003d506                            
                            LAB_0003d4aa:                 ;XREF[1,0]:   0003d49e
ram:0003d4aa    4b48            ldr         param_1,[DAT_0003d5d8]                  ;= 20002C38h
ram:0003d4ac    4668            ldr         r6,[param_1,#0x4]=>DAT_20002c3c         
ram:0003d4ae    761c            adds        r6,r6,#0x1                              
ram:0003d4b0    4660            str         r6,[param_1,#0x4]=>DAT_20002c3c         
ram:0003d4b2    8968            ldr         r1,[r1,#0x8]                            
ram:0003d4b4    b602            lsls        r6,r6,#0xa                              
ram:0003d4b6    8e42            cmp         r6,r1                                   
ram:0003d4b8    14d3            bcc         LAB_0003d4e4                            
ram:0003d4ba    4360            str         r3,[param_1,#0x4]=>DAT_20002c3c         
ram:0003d4bc    6078            ldrb        param_1,[r4,#0x1]=>DAT_20003105         
ram:0003d4be    401e            subs        param_1,param_1,#0x1                    
ram:0003d4c0    6070            strb        param_1,[r4,#0x1]=>DAT_20003105         
ram:0003d4c2    681c            adds        param_1,r5,#0x1                         
ram:0003d4c4    c0b2            uxtb        param_1,param_1                         
ram:0003d4c6    2070            strb        param_1,[r4,#0x0]=>DAT_20003104         
ram:0003d4c8    0a28            cmp         param_1,#0xa                            
ram:0003d4ca    01d3            bcc         LAB_0003d4d0                            
ram:0003d4cc    0a38            subs        param_1,#0xa                            
ram:0003d4ce    2070            strb        param_1,[r4,#0x0]=>DAT_20003104         
                            LAB_0003d4d0:                 ;XREF[1,0]:   0003d4ca
ram:0003d4d0    1820            movs        param_1,#0x18                           
ram:0003d4d2    6843            muls        param_1,r5                              
ram:0003d4d4    0119            adds        r1,param_1,r4                           
ram:0003d4d6    091d            adds        r1,r1,#0x4                              
ram:0003d4d8    1046            mov         param_1,r2                              
ram:0003d4da    00f06bf8        bl          FUN_0003d5b4                            ;undefined FUN_0003d5b4(undefined4 pa...
ram:0003d4de    2846            mov         param_1,r5                              
ram:0003d4e0    fff76aff        bl          FUN_0003d3b8                            ;undefined FUN_0003d3b8(int param_1)
                            LAB_0003d4e4:                 ;XREF[1,0]:   0003d4b8
ram:0003d4e4    6078            ldrb        param_1,[r4,#0x1]=>DAT_20003105         
ram:0003d4e6    0028            cmp         param_1,#0x0                            
ram:0003d4e8    0fd0            beq         LAB_0003d50a                            
ram:0003d4ea    a078            ldrb        param_1,[r4,#0x2]=>DAT_20003106         
ram:0003d4ec    0028            cmp         param_1,#0x0                            
ram:0003d4ee    0cd1            bne         LAB_0003d50a                            
ram:0003d4f0    fff76fff        bl          FUN_0003d3d2                            ;int FUN_0003d3d2(void)
ram:0003d4f4    0028            cmp         param_1,#0x0                            
ram:0003d4f6    08d0            beq         LAB_0003d50a                            
ram:0003d4f8    1128            cmp         param_1,#0x11                           
ram:0003d4fa    06d0            beq         LAB_0003d50a                            
ram:0003d4fc    2178            ldrb        r1,[r4,#0x0]=>DAT_20003104              
ram:0003d4fe    1822            movs        r2,#0x18                                
ram:0003d500    5143            muls        r1,r2                                   
ram:0003d502    0919            adds        r1,r1,r4                                
ram:0003d504    091d            adds        r1,r1,#0x4                              
                            LAB_0003d506:                 ;XREF[1,0]:   0003d4a8
ram:0003d506    00f055f8        bl          FUN_0003d5b4                            ;undefined FUN_0003d5b4(undefined4 pa...
                            LAB_0003d50a:                 ;XREF[6,0]:   0003d488,0003d4a2,0003d4e8,0003d4ee
                                                          ;             0003d4f6,0003d4fa
ram:0003d50a    f8bd            pop         {r3,r4,r5,r6,r7,pc}                     
                            ;************************************************************************************************
                            ;*                                           FUNCTION                                           *
                            ;************************************************************************************************
                            ;undefined4 FUN_0003d50c(void)
                                                          ;XREF[1,0]:   0003e056
ram:0003d50c    70b5            push        {r4,r5,r6,lr}                           
ram:0003d50e    0024            movs        r4,#0x0                                 
ram:0003d510    314e            ldr         r6,[DAT_0003d5d8]                       ;= 20002C38h
ram:0003d512    3048            ldr         r0,[DAT_0003d5d4]                       ;= 20003104h
ram:0003d514    7460            str         r4,[r6,#0x4]=>DAT_20002c3c              
ram:0003d516    0470            strb        r4,[r0,#0x0]=>DAT_20003104              
ram:0003d518    4470            strb        r4,[r0,#0x1]=>DAT_20003105              
ram:0003d51a    8470            strb        r4,[r0,#0x2]=>DAT_20003106              
ram:0003d51c    2546            mov         r5,r4                                   
                            LAB_0003d51e:                 ;XREF[1,0]:   0003d528
ram:0003d51e    2846            mov         r0,r5                                   
ram:0003d520    fff74aff        bl          FUN_0003d3b8                            ;undefined FUN_0003d3b8(int param_1)
ram:0003d524    6d1c            adds        r5,r5,#0x1                              
ram:0003d526    0a2d            cmp         r5,#0xa                                 
ram:0003d528    f9d3            bcc         LAB_0003d51e                            
ram:0003d52a    2b49            ldr         r1,[DAT_0003d5d8]                       ;= 20002C38h
ram:0003d52c    3460            str         r4,[r6,#0x0]=>DAT_20002c38              
ram:0003d52e    0020            movs        r0,#0x0                                 
ram:0003d530    0831            adds        r1,#0x8                                 
ram:0003d532    7460            str         r4,[r6,#0x4]=>DAT_20002c3c              
                            LAB_0003d534:                 ;XREF[1,0]:   0003d53c
ram:0003d534    8200            lsls        r2,r0,#0x2                              
ram:0003d536    401c            adds        r0,r0,#0x1                              
                                                          ; FWD[2,0]:   20002c40,20002c44
ram:0003d538    8c50            str         r4,[r1,r2]=>DAT_20002c40                
ram:0003d53a    0228            cmp         r0,#0x2                                 
ram:0003d53c    fad3            bcc         LAB_0003d534                            
ram:0003d53e    0020            movs        r0,#0x0                                 
ram:0003d540    70bd            pop         {r4,r5,r6,pc}                           
                            ;************************************************************************************************
                            ;*                                           FUNCTION                                           *
                            ;************************************************************************************************
                            ;undefined4 FUN_0003d542(int * param_1, int * param_2)
          ;param_1       int *               r0                      
          ;param_2       int *               r1                      
                                                          ;XREF[2,0]:   0003e06a,0003e526
ram:0003d542    10b5            push        {r4,lr}                                 
ram:0003d544    244b            ldr         r3,[DAT_0003d5d8]                       ;= 20002C38h
ram:0003d546    1a68            ldr         r2,[r3,#0x0]=>DAT_20002c38              
ram:0003d548    022a            cmp         r2,#0x2                                 
ram:0003d54a    09d0            beq         LAB_0003d560                            
ram:0003d54c    0a60            str         r2,[param_2,#0x0]                       
ram:0003d54e    1c46            mov         r4,r3                                   
ram:0003d550    9100            lsls        param_2,r2,#0x2                         
ram:0003d552    0834            adds        r4,#0x8                                 
ram:0003d554    0068            ldr         param_1,[param_1,#0x0]                  
ram:0003d556    6050            str         param_1,[r4,param_2]=>DAT_20002c40      
ram:0003d558    521c            adds        r2,r2,#0x1                              
ram:0003d55a    0020            movs        param_1,#0x0                            
ram:0003d55c    1a60            str         r2,[r3,#0x0]=>DAT_20002c38              
ram:0003d55e    10bd            pop         {r4,pc}                                 
                            LAB_0003d560:                 ;XREF[1,0]:   0003d54a
ram:0003d560    0420            movs        param_1,#0x4                            
ram:0003d562    10bd            pop         {r4,pc}                                 
                            ;************************************************************************************************
                            ;*                                           FUNCTION                                           *
                            ;************************************************************************************************
                            ;int FUN_0003d564(undefined4 * param_1, uint param_2, undefined4 param_3, int param_4)
          ;param_1       undefined4 *        r0                      
          ;param_2       uint                r1                      
          ;param_3       undefined4          r2                      
          ;param_4       int                 r3                      
          ;local_18      undefined4         -18                      ;XREF[1,0]:   0003d58a
                                                          ;XREF[3,0]:   0003df5a,0003e4a8,0003e686
ram:0003d564    f8b5            push        {param_4,r4,r5,r6,r7,lr}                
ram:0003d566    0746            mov         r7,param_1                              
ram:0003d568    1d46            mov         r5,param_4                              
ram:0003d56a    1646            mov         r6,param_3                              
ram:0003d56c    0c46            mov         r4,param_2                              
ram:0003d56e    0846            mov         param_1,param_2                         
ram:0003d570    00f01af8        bl          FUN_0003d5a8                            ;undefined4 FUN_0003d5a8(uint param_1)
ram:0003d574    0028            cmp         param_1,#0x0                            
ram:0003d576    0cd0            beq         LAB_0003d592                            
ram:0003d578    6019            adds        param_1,r4,r5                           
ram:0003d57a    00f015f8        bl          FUN_0003d5a8                            ;undefined4 FUN_0003d5a8(uint param_1)
ram:0003d57e    0028            cmp         param_1,#0x0                            
ram:0003d580    07d0            beq         LAB_0003d592                            
ram:0003d582    3346            mov         param_4,r6                              
ram:0003d584    2246            mov         param_3,r4                              
ram:0003d586    3946            mov         param_2,r7                              
ram:0003d588    0220            movs        param_1,#0x2                            
ram:0003d58a    0095            str         r5,[sp,#0x0]=>local_18                  
ram:0003d58c    fff751ff        bl          FUN_0003d432                            ;int FUN_0003d432(char param_1, undef...
ram:0003d590    f8bd            pop         {param_4,r4,r5,r6,r7,pc}                
                            LAB_0003d592:                 ;XREF[2,0]:   0003d576,0003d580
ram:0003d592    1020            movs        param_1,#0x10                           
ram:0003d594    f8bd            pop         {param_4,r4,r5,r6,r7,pc}                
                            ;************************************************************************************************
                            ;*                                           FUNCTION                                           *
                            ;************************************************************************************************
                            ;undefined FUN_0003d596(undefined4 * param_1, undefined4 param_2)
          ;param_1       undefined4 *        r0                      
          ;param_2       undefined4          r1                      
          ;local_8       undefined4          -8                      ;XREF[1,0]:   0003d5a0
                                                          ;XREF[4,0]:   0003df40,0003e3e8,0003e40e,0003e48c
ram:0003d596    08b5            push        {r3,lr}                                 
ram:0003d598    0b46            mov         r3,param_2                              
ram:0003d59a    0022            movs        r2,#0x0                                 
ram:0003d59c    0146            mov         param_2,param_1                         
ram:0003d59e    0420            movs        param_1,#0x4                            
ram:0003d5a0    0092            str         r2,[sp,#0x0]=>local_8                   
ram:0003d5a2    fff746ff        bl          FUN_0003d432                            ;int FUN_0003d432(char param_1, undef...
ram:0003d5a6    08bd            pop         {r3,pc}                                 
                            ;************************************************************************************************
                            ;*                                           FUNCTION                                           *
                            ;************************************************************************************************
                            ;undefined4 FUN_0003d5a8(uint param_1)
          ;param_1       uint                r0                      
                                                          ;XREF[2,0]:   0003d570,0003d57a
ram:0003d5a8    8007            lsls        param_1,param_1,#0x1e                   
ram:0003d5aa    01d0            beq         LAB_0003d5b0                            
ram:0003d5ac    0020            movs        param_1,#0x0                            
ram:0003d5ae    7047            bx          lr                                      
                            LAB_0003d5b0:                 ;XREF[1,0]:   0003d5aa
ram:0003d5b0    0120            movs        param_1,#0x1                            
ram:0003d5b2    7047            bx          lr                                      
                            ;************************************************************************************************
                            ;*                                           FUNCTION                                           *
                            ;************************************************************************************************
                            ;undefined FUN_0003d5b4(undefined4 param_1, undefined * param_2)
          ;param_1       undefined4          r0                      
          ;param_2       undefined *         r1                      
          ;local_10      undefined4         -10                      ;XREF[1,0]:   0003d5c6
                                                          ;XREF[2,0]:   0003d4da,0003d506
ram:0003d5b4    38b5            push        {r3,r4,r5,lr}                           
ram:0003d5b6    0c46            mov         r4,param_2                              
ram:0003d5b8    e268            ldr         r2,[r4,#0xc]                            
ram:0003d5ba    074b            ldr         r3,[DAT_0003d5d8]                       ;= 20002C38h
ram:0003d5bc    9200            lsls        r2,r2,#0x2                              
ram:0003d5be    0833            adds        r3,#0x8                                 
ram:0003d5c0    9d58            ldr         r5,[r3,r2]=>DAT_20002c40                
ram:0003d5c2    0978            ldrb        param_2,[param_2,#0x0]                  
ram:0003d5c4    6268            ldr         r2,[r4,#0x4]                            
ram:0003d5c6    0092            str         r2,[sp,#0x0]=>local_10                  
ram:0003d5c8    0246            mov         r2,param_1                              
ram:0003d5ca    2046            mov         param_1,r4                              
ram:0003d5cc    0c30            adds        param_1,#0xc                            
ram:0003d5ce    6369            ldr         r3,[r4,#0x14]                           
ram:0003d5d0    a847            blx         r5                                      
ram:0003d5d2    38bd            pop         {r3,r4,r5,pc}                           
                            DAT_0003d5d4:                 ;XREF[5,0]:   0003d3bc,0003d3d4,0003d434,0003d480
                                                          ;             0003d512
ram:0003d5d4    04310020        undefined4  20003104h                               
                            DAT_0003d5d8:                 ;XREF[6,0]:   0003d3e2,0003d4aa,0003d510,0003d52a
                                                          ;             0003d544,0003d5ba
ram:0003d5d8    382c0020        undefined4  20002C38h                               
                            ;************************************************************************************************
                            ;*                                           FUNCTION                                           *
                            ;************************************************************************************************
                            ;undefined FUN_0003d5dc(void)
                                                          ;XREF[70,0]:  0003c208,0003c230,0003c242,0003c25a
                                                          ;             0003c276,0003c288,0003c2ce,0003c2e6
                                                          ;             0003c302,0003c33a,0003c356,0003c3b2
                                                          ;             0003c3e6,0003c42a,0003c4ae,0003c538
                                                          ;             0003c55c,0003c57a,0003c5a0,0003d67c
                                                          ;             0003d6c2,0003d8ea,0003de92,0003decc
                                                          ;             0003dee0,0003df4c,0003df66,0003e036
                                                          ;             0003e094,0003e0cc,0003e11a,0003e12a
                                                          ;             0003e13a,0003e380,0003e3b6,0003e3ce
                                                          ;             0003e3f4,0003e41a,0003e498,0003e56a
                                                          ;             0003e582,0003e79e,0003ea92,0003eaae
                                                          ;             0003eae2,0003eb8a,0003eb9a,0003ebbc
                                                          ;             0003ebd2,0003ebf8,0003ed7a,0003edfc
                                                          ;             0003eeee,0003ef22,0003eff0,0003f054
                                                          ;             0003f06c,0003f094,0003f0cc,0003f186
                                                          ;             0003f1c4,0003f260,0003f2b6,0003f2c6
                                                          ;             0003f2e6,0003f30a,0003f37c,0003f3a6
                                                          ;             0003f41c,0003f43c
ram:0003d5dc    bff34f8f        dsb         0xf                                     
ram:0003d5e0    0349            ldr         r1,[DAT_0003d5f0]                       ;= E000ED00h
ram:0003d5e2    0248            ldr         r0,[DAT_0003d5ec]                       ;= 05FA0004h
ram:0003d5e4    c860            str         r0,[r1,#offset DAT_e000ed0c &0xff]      
ram:0003d5e6    bff34f8f        dsb         0xf                                     
                            LAB_0003d5ea:                 ;XREF[1,0]:   0003d5ea
ram:0003d5ea    fee7            b           LAB_0003d5ea                            
                            DAT_0003d5ec:                 ;XREF[1,0]:   0003d5e2
ram:0003d5ec    0400fa05        undefined4  05FA0004h                               
                            DAT_0003d5f0:                 ;XREF[1,0]:   0003d5e0
ram:0003d5f0    00ed00e0        undefined4  E000ED00h                               
                            ;************************************************************************************************
                            ;*                                           FUNCTION                                           *
                            ;************************************************************************************************
                            ;undefined4 FUN_0003d5f4(undefined2 param_1, short param_2, uint param_3)
          ;param_1       undefined2          r0                      
          ;param_2       short               r1                      
          ;param_3       uint                r2                      
                                                          ;XREF[1,0]:   0003c41e
ram:0003d5f4    30b5            push        {r4,r5,lr}                              
ram:0003d5f6    cb00            lsls        r3,param_2,#0x3                         
ram:0003d5f8    0833            adds        r3,#0x8                                 
ram:0003d5fa    9db2            uxth        r5,r3                                   
ram:0003d5fc    9307            lsls        r3,param_3,#0x1e                        
ram:0003d5fe    0024            movs        r4,#0x0                                 
ram:0003d600    002b            cmp         r3,#0x0                                 
ram:0003d602    01d0            beq         LAB_0003d608                            
ram:0003d604    0720            movs        param_1,#0x7                            
ram:0003d606    30bd            pop         {r4,r5,pc}                              
                            LAB_0003d608:                 ;XREF[1,0]:   0003d602
ram:0003d608    564b            ldr         r3,[DAT_0003d764]                       ;= 20002C48h
ram:0003d60a    9a60            str         param_3,[r3,#0x8]=>DAT_20002c50         
ram:0003d60c    5219            adds        param_3,param_3,r5                      
ram:0003d60e    da60            str         param_3,[r3,#0xc]=>DAT_20002c54         
ram:0003d610    5c70            strb        r4,[r3,#0x1]=>DAT_20002c49              
ram:0003d612    1c70            strb        r4,[r3,#0x0]=>DAT_20002c48              
ram:0003d614    5880            strh        param_1,[r3,#0x2]=>DAT_20002c4a         
ram:0003d616    9980            strh        param_2,[r3,#0x4]=>DAT_20002c4c         
ram:0003d618    0020            movs        param_1,#0x0                            
ram:0003d61a    30bd            pop         {r4,r5,pc}                              
                            ;************************************************************************************************
                            ;*                                           FUNCTION                                           *
                            ;************************************************************************************************
                            ;undefined4 FUN_0003d61c(undefined4 * param_1, uint param_2, undefined4 param_3)
          ;param_1       undefined4 *        r0                      
          ;param_2       uint                r1                      
          ;param_3       undefined4          r2                      
          ;local_18      undefined4         -18                      ;XREF[1,0]:   0003d6d0
          ;local_20      undefined4         -20                      ;XREF[1,0]:   0003d6d4
          ;local_28      undefined1         -28                      ;XREF[2,0]:   0003d62e,0003d6b2
                                                          ;XREF[2,0]:   0003deaa,0003f44e
ram:0003d61c    f7b5            push        {param_1,param_2,param_3,r4,r5,r6,r7,lr}
ram:0003d61e    514c            ldr         r4,[DAT_0003d764]                       ;= 20002C48h
ram:0003d620    82b0            sub         sp,#0x8                                 
ram:0003d622    6088            ldrh        param_1,[r4,#0x2]=>DAT_20002c4a         
ram:0003d624    0f46            mov         r7,param_2                              
ram:0003d626    8142            cmp         param_2,param_1                         
ram:0003d628    6cd8            bhi         LAB_0003d704                            
ram:0003d62a    0020            movs        param_1,#0x0                            
ram:0003d62c    6946            mov         param_2,sp                              
ram:0003d62e    0870            strb        param_1,[param_2,#0x0]=>local_28        
ram:0003d630    4e49            ldr         param_2,[DAT_0003d76c]                  ;= E000ED00h
ram:0003d632    4d4e            ldr         r6,[DAT_0003d768]                       ;= 0000FFFFh
ram:0003d634    4868            ldr         param_1,[param_2,#offset DAT_e000ed04...
ram:0003d636    c005            lsls        param_1,param_1,#0x17                   
ram:0003d638    c00d            lsrs        param_1,param_1,#0x17                   
ram:0003d63a    16d0            beq         LAB_0003d66a                            
ram:0003d63c    1038            subs        param_1,#0x10                           
ram:0003d63e    07d5            bpl         LAB_0003d650                            
ram:0003d640    0207            lsls        param_3,param_1,#0x1c                   
ram:0003d642    120f            lsrs        param_3,param_3,#0x1c                   
ram:0003d644    083a            subs        param_3,#0x8                            
ram:0003d646    9208            lsrs        param_3,param_3,#0x2                    
ram:0003d648    9200            lsls        param_3,param_3,#0x2                    
ram:0003d64a    5118            adds        param_2,param_3,param_2                 
ram:0003d64c    c969            ldr         param_2,[param_2,#0x1c]                 
ram:0003d64e    04e0            b           LAB_0003d65a                            
                            LAB_0003d650:                 ;XREF[1,0]:   0003d63e
ram:0003d650    8108            lsrs        param_2,param_1,#0x2                    
ram:0003d652    474a            ldr         param_3,[DAT_0003d770]                  ;= E000E400h
ram:0003d654    8900            lsls        param_2,param_2,#0x2                    
ram:0003d656    8918            adds        param_2,param_2,param_3                 
ram:0003d658    0968            ldr         param_2,[param_2,#0x0]                  
                            LAB_0003d65a:                 ;XREF[1,0]:   0003d64e
ram:0003d65a    8007            lsls        param_1,param_1,#0x1e                   
ram:0003d65c    c00e            lsrs        param_1,param_1,#0x1b                   
ram:0003d65e    c140            lsrs        param_2,param_1                         
ram:0003d660    0806            lsls        param_1,param_2,#0x18                   
ram:0003d662    850f            lsrs        r5,param_1,#0x1e                        
ram:0003d664    012d            cmp         r5,#0x1                                 
ram:0003d666    01d1            bne         LAB_0003d66c                            
ram:0003d668    0ae0            b           LAB_0003d680                            
                            LAB_0003d66a:                 ;XREF[1,0]:   0003d63a
ram:0003d66a    0425            movs        r5,#0x4                                 
                            LAB_0003d66c:                 ;XREF[1,0]:   0003d666
ram:0003d66c    6846            mov         param_1,sp                              
ram:0003d66e    36df            svc         0x36                                    
ram:0003d670    0228            cmp         param_1,#0x2                            
ram:0003d672    0cd0            beq         LAB_0003d68e                            
ram:0003d674    0028            cmp         param_1,#0x0                            
ram:0003d676    03d0            beq         LAB_0003d680                            
ram:0003d678    0022            movs        param_3,#0x0                            
ram:0003d67a    1146            mov         param_2,param_3                         
ram:0003d67c    fff7aeff        bl          FUN_0003d5dc                            ;undefined FUN_0003d5dc(void)
                            LAB_0003d680:                 ;XREF[3,0]:   0003d668,0003d676,0003d690
ram:0003d680    2278            ldrb        param_3,[r4,#0x0]=>DAT_20002c48         
ram:0003d682    6078            ldrb        param_1,[r4,#0x1]=>DAT_20002c49         
ram:0003d684    a188            ldrh        param_2,[r4,#0x4]=>DAT_20002c4c         
ram:0003d686    8842            cmp         param_1,param_2                         
ram:0003d688    03da            bge         LAB_0003d692                            
ram:0003d68a    401c            adds        param_1,param_1,#0x1                    
ram:0003d68c    02e0            b           LAB_0003d694                            
                            LAB_0003d68e:                 ;XREF[1,0]:   0003d672
ram:0003d68e    72b6            cpsid       i                                       
ram:0003d690    f6e7            b           LAB_0003d680                            
                            LAB_0003d692:                 ;XREF[1,0]:   0003d688
ram:0003d692    0020            movs        param_1,#0x0                            
                            LAB_0003d694:                 ;XREF[1,0]:   0003d68c
ram:0003d694    c0b2            uxtb        param_1,param_1                         
ram:0003d696    9042            cmp         param_1,param_3                         
ram:0003d698    07d0            beq         LAB_0003d6aa                            
ram:0003d69a    6678            ldrb        r6,[r4,#0x1]=>DAT_20002c49              
ram:0003d69c    6078            ldrb        param_1,[r4,#0x1]=>DAT_20002c49         
ram:0003d69e    8842            cmp         param_1,param_2                         
ram:0003d6a0    01da            bge         LAB_0003d6a6                            
ram:0003d6a2    401c            adds        param_1,param_1,#0x1                    
ram:0003d6a4    00e0            b           LAB_0003d6a8                            
                            LAB_0003d6a6:                 ;XREF[1,0]:   0003d6a0
ram:0003d6a6    0020            movs        param_1,#0x0                            
                            LAB_0003d6a8:                 ;XREF[1,0]:   0003d6a4
ram:0003d6a8    6070            strb        param_1,[r4,#0x1]=>DAT_20002c49         
                            LAB_0003d6aa:                 ;XREF[1,0]:   0003d698
ram:0003d6aa    012d            cmp         r5,#0x1                                 
ram:0003d6ac    0bd0            beq         LAB_0003d6c6                            
ram:0003d6ae    62b6            cpsie       i                                       
ram:0003d6b0    6846            mov         param_1,sp                              
ram:0003d6b2    0078            ldrb        param_1=>local_28,[param_1,#0x0]        
ram:0003d6b4    37df            svc         0x37                                    
ram:0003d6b6    0228            cmp         param_1,#0x2                            
ram:0003d6b8    05d0            beq         LAB_0003d6c6                            
ram:0003d6ba    0028            cmp         param_1,#0x0                            
ram:0003d6bc    03d0            beq         LAB_0003d6c6                            
ram:0003d6be    0022            movs        param_3,#0x0                            
ram:0003d6c0    1146            mov         param_2,param_3                         
ram:0003d6c2    fff78bff        bl          FUN_0003d5dc                            ;undefined FUN_0003d5dc(void)
                            LAB_0003d6c6:                 ;XREF[3,0]:   0003d6ac,0003d6b8,0003d6bc
ram:0003d6c6    2848            ldr         param_1,[DAT_0003d768]                  ;= 0000FFFFh
ram:0003d6c8    8642            cmp         r6,param_1                              
ram:0003d6ca    19d0            beq         LAB_0003d700                            
ram:0003d6cc    a068            ldr         param_1,[r4,#0x8]=>DAT_20002c50         
ram:0003d6ce    f500            lsls        r5,r6,#0x3                              
ram:0003d6d0    0499            ldr         param_2,[sp,#local_18+0x28]             
ram:0003d6d2    4151            str         param_2,[param_1,r5]                    
ram:0003d6d4    0299            ldr         param_2,[sp,#local_20+0x28]             
ram:0003d6d6    0029            cmp         param_2,#0x0                            
ram:0003d6d8    0cd0            beq         LAB_0003d6f4                            
ram:0003d6da    002f            cmp         r7,#0x0                                 
ram:0003d6dc    0ad0            beq         LAB_0003d6f4                            
ram:0003d6de    6088            ldrh        param_1,[r4,#0x2]=>DAT_20002c4a         
ram:0003d6e0    3a46            mov         param_3,r7                              
ram:0003d6e2    4643            muls        r6,param_1                              
ram:0003d6e4    e068            ldr         param_1,[r4,#0xc]=>DAT_20002c54         
ram:0003d6e6    3018            adds        param_1,r6,param_1                      
ram:0003d6e8    01f0ccfe        bl          FUN_0003f484                            ;undefined FUN_0003f484(undefined4 * ...
ram:0003d6ec    a068            ldr         param_1,[r4,#0x8]=>DAT_20002c50         
ram:0003d6ee    2818            adds        param_1,r5,param_1                      
ram:0003d6f0    8780            strh        r7,[param_1,#0x4]                       
ram:0003d6f2    02e0            b           LAB_0003d6fa                            
                            LAB_0003d6f4:                 ;XREF[2,0]:   0003d6d8,0003d6dc
ram:0003d6f4    0021            movs        param_2,#0x0                            
ram:0003d6f6    2818            adds        param_1,r5,param_1                      
ram:0003d6f8    8180            strh        param_2,[param_1,#0x4]                  
                            LAB_0003d6fa:                 ;XREF[1,0]:   0003d6f2
ram:0003d6fa    0020            movs        param_1,#0x0                            
                            LAB_0003d6fc:                 ;XREF[2,0]:   0003d702,0003d706
ram:0003d6fc    05b0            add         sp,#0x14                                
ram:0003d6fe    f0bd            pop         {r4,r5,r6,r7,pc}                        
                            LAB_0003d700:                 ;XREF[1,0]:   0003d6ca
ram:0003d700    0420            movs        param_1,#0x4                            
ram:0003d702    fbe7            b           LAB_0003d6fc                            
                            LAB_0003d704:                 ;XREF[1,0]:   0003d628
ram:0003d704    0920            movs        param_1,#0x9                            
ram:0003d706    f9e7            b           LAB_0003d6fc                            
                            ;************************************************************************************************
                            ;*                                           FUNCTION                                           *
                            ;************************************************************************************************
                            ;undefined FUN_0003d708(undefined4 param_1, int param_2, uint param_3, undefined * param_4)
          ;param_1       undefined4          r0                      
          ;param_2       int                 r1                      
          ;param_3       uint                r2                      
          ;param_4       undefined *         r3                      
          ;local_8       undefined4          -8                      ;XREF[1,0]:   0003d710
          ;local_c       undefined2          -c                      ;XREF[1,0]:   0003d70e
          ;local_10      undefined4         -10                      ;XREF[1,0]:   0003d712
                                                          ;XREF[1,0]:   0003dee4
ram:0003d708    0eb5            push        {param_2,param_3,param_4,lr}            
ram:0003d70a    04e0            b           LAB_0003d716                            
                            LAB_0003d70c:                 ;XREF[1,0]:   0003d722
ram:0003d70c    6846            mov         param_1,sp                              
ram:0003d70e    8188            ldrh        param_2=>local_c,[param_1,#0x4]         
ram:0003d710    029a            ldr         param_3=>local_8,[sp,#0x8]              
ram:0003d712    0098            ldr         param_1=>local_10,[sp,#0x0]             
ram:0003d714    9047            blx         param_3                                 
                            LAB_0003d716:                 ;XREF[1,0]:   0003d70a
ram:0003d716    02aa            add         param_3,sp,#0x8                         
ram:0003d718    01a9            add         param_2,sp,#0x4                         
ram:0003d71a    6846            mov         param_1,sp                              
ram:0003d71c    00f003f8        bl          FUN_0003d726                            ;undefined4 FUN_0003d726(int * param_...
ram:0003d720    0028            cmp         param_1,#0x0                            
ram:0003d722    f3d0            beq         LAB_0003d70c                            
ram:0003d724    0ebd            pop         {param_2,param_3,param_4,pc}            
                            ;************************************************************************************************
                            ;*                                           FUNCTION                                           *
                            ;************************************************************************************************
                            ;undefined4 FUN_0003d726(int * param_1, undefined2 * param_2, undefined4 * param_3)
          ;param_1       int *               r0                      
          ;param_2       undefined2 *        r1                      
          ;param_3       undefined4 *        r2                      
                                                          ;XREF[1,0]:   0003d71c
ram:0003d726    70b5            push        {r4,r5,r6,lr}                           
ram:0003d728    0e4b            ldr         r3,[DAT_0003d764]                       ;= 20002C48h
ram:0003d72a    0524            movs        r4,#0x5                                 
ram:0003d72c    1d78            ldrb        r5,[r3,#0x0]=>DAT_20002c48              
ram:0003d72e    5e78            ldrb        r6,[r3,#0x1]=>DAT_20002c49              
ram:0003d730    ae42            cmp         r6,r5                                   
ram:0003d732    15d0            beq         LAB_0003d760                            
ram:0003d734    1d78            ldrb        r5,[r3,#0x0]=>DAT_20002c48              
ram:0003d736    1c78            ldrb        r4,[r3,#0x0]=>DAT_20002c48              
ram:0003d738    9e88            ldrh        r6,[r3,#0x4]=>DAT_20002c4c              
ram:0003d73a    b442            cmp         r4,r6                                   
ram:0003d73c    01da            bge         LAB_0003d742                            
ram:0003d73e    641c            adds        r4,r4,#0x1                              
ram:0003d740    00e0            b           LAB_0003d744                            
                            LAB_0003d742:                 ;XREF[1,0]:   0003d73c
ram:0003d742    0024            movs        r4,#0x0                                 
                            LAB_0003d744:                 ;XREF[1,0]:   0003d740
ram:0003d744    1c70            strb        r4,[r3,#0x0]=>DAT_20002c48              
ram:0003d746    5c88            ldrh        r4,[r3,#0x2]=>DAT_20002c4a              
ram:0003d748    de68            ldr         r6,[r3,#0xc]=>DAT_20002c54              
ram:0003d74a    6c43            muls        r4,r5                                   
ram:0003d74c    a419            adds        r4,r4,r6                                
ram:0003d74e    0460            str         r4,[param_1,#0x0]                       
ram:0003d750    9b68            ldr         r3,[r3,#0x8]=>DAT_20002c50              
ram:0003d752    e800            lsls        param_1,r5,#0x3                         
ram:0003d754    c418            adds        r4,param_1,r3                           
ram:0003d756    a488            ldrh        r4,[r4,#0x4]                            
ram:0003d758    0c80            strh        r4,[param_2,#0x0]                       
ram:0003d75a    1858            ldr         param_1,[r3,param_1]                    
ram:0003d75c    0024            movs        r4,#0x0                                 
ram:0003d75e    1060            str         param_1,[param_3,#0x0]                  
                            LAB_0003d760:                 ;XREF[1,0]:   0003d732
ram:0003d760    2046            mov         param_1,r4                              
ram:0003d762    70bd            pop         {r4,r5,r6,pc}                           
                            DAT_0003d764:                 ;XREF[3,0]:   0003d608,0003d61e,0003d728
ram:0003d764    482c0020        undefined4  20002C48h                               
                            DAT_0003d768:                 ;XREF[2,0]:   0003d632,0003d6c6
ram:0003d768    ffff0000        undefined4  0000FFFFh                               
                            DAT_0003d76c:                 ;XREF[1,0]:   0003d630
ram:0003d76c    00ed00e0        undefined4  E000ED00h                               
                            DAT_0003d770:                 ;XREF[1,0]:   0003d652
ram:0003d770    00e400e0        undefined4  E000E400h                               
                            ;************************************************************************************************
                            ;*                                           FUNCTION                                           *
                            ;************************************************************************************************
                            ;undefined FUN_0003d774(uint param_1, int param_2)
          ;param_1       uint                r0                      
          ;param_2       int                 r1                      
                                                          ;XREF[2,0]:   0003daf0,0003db04
ram:0003d774    8307            lsls        r3,param_1,#0x1e                        
ram:0003d776    ff22            movs        r2,#0xff                                
ram:0003d778    db0e            lsrs        r3,r3,#0x1b                             
ram:0003d77a    9a40            lsls        r2,r3                                   
ram:0003d77c    8907            lsls        param_2,param_2,#0x1e                   
ram:0003d77e    090e            lsrs        param_2,param_2,#0x18                   
ram:0003d780    9940            lsls        param_2,r3                              
ram:0003d782    0028            cmp         param_1,#0x0                            
ram:0003d784    0bda            bge         LAB_0003d79e                            
ram:0003d786    0007            lsls        param_1,param_1,#0x1c                   
ram:0003d788    000f            lsrs        param_1,param_1,#0x1c                   
ram:0003d78a    0838            subs        param_1,#0x8                            
ram:0003d78c    8308            lsrs        r3,param_1,#0x2                         
ram:0003d78e    fa48            ldr         param_1,[DAT_0003db78]                  ;= E000ED00h
ram:0003d790    9b00            lsls        r3,r3,#0x2                              
ram:0003d792    1b18            adds        r3,r3,param_1                           
ram:0003d794    d869            ldr         param_1,[r3,#0x1c]                      
ram:0003d796    9043            bics        param_1,r2                              
ram:0003d798    0843            orrs        param_1,param_2                         
ram:0003d79a    d861            str         param_1,[r3,#0x1c]                      
ram:0003d79c    7047            bx          lr                                      
                            LAB_0003d79e:                 ;XREF[1,0]:   0003d784
ram:0003d79e    8308            lsrs        r3,param_1,#0x2                         
ram:0003d7a0    f648            ldr         param_1,[DAT_0003db7c]                  ;= E000E400h
ram:0003d7a2    9b00            lsls        r3,r3,#0x2                              
ram:0003d7a4    1b18            adds        r3,r3,param_1                           
ram:0003d7a6    1868            ldr         param_1,[r3,#0x0]                       
ram:0003d7a8    9043            bics        param_1,r2                              
ram:0003d7aa    0843            orrs        param_1,param_2                         
ram:0003d7ac    1860            str         param_1,[r3,#0x0]                       
ram:0003d7ae    7047            bx          lr                                      
                            ;************************************************************************************************
                            ;*                                           FUNCTION                                           *
                            ;************************************************************************************************
                            ;undefined FUN_0003d7b0(void)
                                                          ;XREF[2,0]:   0003da80,0003de3e
ram:0003d7b0    70b5            push        {r4,r5,r6,lr}                           
ram:0003d7b2    0124            movs        r4,#0x1                                 
ram:0003d7b4    f249            ldr         r1,[DAT_0003db80]                       ;= E000E180h
ram:0003d7b6    6004            lsls        r0,r4,#0x11                             
ram:0003d7b8    0860            str         r0,[r1,#0x0]=>DAT_e000e180              
ram:0003d7ba    f249            ldr         r1,[DAT_0003db84]                       ;= 40011340h
ram:0003d7bc    4010            asrs        r0,r0,#0x1                              
ram:0003d7be    8860            str         r0,[r1,#0x8]=>DAT_40011348              
ram:0003d7c0    f049            ldr         r1,[DAT_0003db84]                       ;= 40011340h
ram:0003d7c2    4039            subs        r1,#0x40                                
ram:0003d7c4    8860            str         r0,[r1,#offset DAT_40011308 &0xff]      
ram:0003d7c6    f04d            ldr         r5,[DAT_0003db88]                       ;= 40011000h
ram:0003d7c8    6c60            str         r4,[r5,#offset DAT_40011004 &0xff]      
ram:0003d7ca    2f20            movs        r0,#0x2f                                
ram:0003d7cc    fef7a4fc        bl          FUN_0003c118                            ;undefined FUN_0003c118(int param_1)
ram:0003d7d0    ac60            str         r4,[r5,#offset DAT_40011008 &0xff]      
ram:0003d7d2    ee4d            ldr         r5,[DAT_0003db8c]                       ;= 20002C58h
ram:0003d7d4    0024            movs        r4,#0x0                                 
ram:0003d7d6    2f20            movs        r0,#0x2f                                
ram:0003d7d8    6c61            str         r4,[r5,#0x14]=>DAT_20002c6c             
ram:0003d7da    fef79dfc        bl          FUN_0003c118                            ;undefined FUN_0003c118(int param_1)
ram:0003d7de    2c71            strb        r4,[r5,#0x4]=>DAT_20002c5c              
ram:0003d7e0    70bd            pop         {r4,r5,r6,pc}                           
                            ;************************************************************************************************
                            ;*                                           FUNCTION                                           *
                            ;************************************************************************************************
                            ;undefined FUN_0003d7e2(int param_1)
          ;param_1       int                 r0                      
                                                          ;XREF[1,0]:   0003d9da
ram:0003d7e2    f0b5            push        {r4,r5,r6,r7,lr}                        
ram:0003d7e4    e94f            ldr         r7,[DAT_0003db8c]                       ;= 20002C58h
ram:0003d7e6    2821            movs        r1,#0x28                                
ram:0003d7e8    bc68            ldr         r4,[r7,#0x8]=>DAT_20002c60              
ram:0003d7ea    4143            muls        r1,param_1                              
ram:0003d7ec    0d19            adds        r5,r1,r4                                
ram:0003d7ee    3969            ldr         r1,[r7,#0x10]=>DAT_20002c68             
ram:0003d7f0    4a1c            adds        r2,r1,#0x1                              
ram:0003d7f2    09d0            beq         LAB_0003d808                            
ram:0003d7f4    2822            movs        r2,#0x28                                
ram:0003d7f6    4a43            muls        r2,r1                                   
ram:0003d7f8    1619            adds        r6,r2,r4                                
ram:0003d7fa    ab68            ldr         r3,[r5,#0x8]                            
ram:0003d7fc    b268            ldr         r2,[r6,#0x8]                            
ram:0003d7fe    9342            cmp         r3,r2                                   
ram:0003d800    04d8            bhi         LAB_0003d80c                            
ram:0003d802    d21a            subs        r2,r2,r3                                
ram:0003d804    b260            str         r2,[r6,#0x8]                            
ram:0003d806    6962            str         r1,[r5,#0x24]                           
                            LAB_0003d808:                 ;XREF[1,0]:   0003d7f2
ram:0003d808    3861            str         param_1,[r7,#0x10]=>DAT_20002c68        
ram:0003d80a    f0bd            pop         {r4,r5,r6,r7,pc}                        
                            LAB_0003d80c:                 ;XREF[1,0]:   0003d800
ram:0003d80c    0a46            mov         r2,r1                                   
ram:0003d80e    02e0            b           LAB_0003d816                            
                            LAB_0003d810:                 ;XREF[1,0]:   0003d824
ram:0003d810    0a46            mov         r2,r1                                   
ram:0003d812    796a            ldr         r1,[r7,#0x24]                           
ram:0003d814    9b1b            subs        r3,r3,r6                                
                            LAB_0003d816:                 ;XREF[1,0]:   0003d80e
ram:0003d816    4e1c            adds        r6,r1,#0x1                              
ram:0003d818    0bd0            beq         LAB_0003d832                            
ram:0003d81a    2826            movs        r6,#0x28                                
ram:0003d81c    4e43            muls        r6,r1                                   
ram:0003d81e    3719            adds        r7,r6,r4                                
ram:0003d820    be68            ldr         r6,[r7,#0x8]                            
ram:0003d822    9e42            cmp         r6,r3                                   
ram:0003d824    f4d3            bcc         LAB_0003d810                            
ram:0003d826    2826            movs        r6,#0x28                                
ram:0003d828    4e43            muls        r6,r1                                   
ram:0003d82a    3619            adds        r6,r6,r4                                
ram:0003d82c    b768            ldr         r7,[r6,#0x8]                            
ram:0003d82e    ff1a            subs        r7,r7,r3                                
ram:0003d830    b760            str         r7,[r6,#0x8]                            
                            LAB_0003d832:                 ;XREF[1,0]:   0003d818
ram:0003d832    ab60            str         r3,[r5,#0x8]                            
ram:0003d834    6962            str         r1,[r5,#0x24]                           
ram:0003d836    2821            movs        r1,#0x28                                
ram:0003d838    4a43            muls        r2,r1                                   
ram:0003d83a    1119            adds        r1,r2,r4                                
ram:0003d83c    4862            str         param_1,[r1,#0x24]                      
ram:0003d83e    f0bd            pop         {r4,r5,r6,r7,pc}                        
                            ;************************************************************************************************
                            ;*                                           FUNCTION                                           *
                            ;************************************************************************************************
                            ;undefined FUN_0003d840(int param_1)
          ;param_1       int                 r0                      
                                                          ;XREF[1,0]:   0003dd20
ram:0003d840    70b5            push        {r4,r5,r6,lr}                           
ram:0003d842    d24c            ldr         r4,[DAT_0003db8c]                       ;= 20002C58h
ram:0003d844    2269            ldr         r2,[r4,#0x10]=>DAT_20002c68             
ram:0003d846    a568            ldr         r5,[r4,#0x8]=>DAT_20002c60              
ram:0003d848    1346            mov         r3,r2                                   
ram:0003d84a    1146            mov         r1,r2                                   
ram:0003d84c    06e0            b           LAB_0003d85c                            
                            LAB_0003d84e:                 ;XREF[1,0]:   0003d85e
ram:0003d84e    8142            cmp         r1,param_1                              
ram:0003d850    07d0            beq         LAB_0003d862                            
ram:0003d852    0a46            mov         r2,r1                                   
ram:0003d854    2826            movs        r6,#0x28                                
ram:0003d856    7143            muls        r1,r6                                   
ram:0003d858    4919            adds        r1,r1,r5                                
ram:0003d85a    496a            ldr         r1,[r1,#0x24]                           
                            LAB_0003d85c:                 ;XREF[1,0]:   0003d84c
ram:0003d85c    4e1c            adds        r6,r1,#0x1                              
ram:0003d85e    f6d1            bne         LAB_0003d84e                            
                            LAB_0003d860:                 ;XREF[2,0]:   0003d864,0003d898
ram:0003d860    70bd            pop         {r4,r5,r6,pc}                           
                            LAB_0003d862:                 ;XREF[1,0]:   0003d850
ram:0003d862    002e            cmp         r6,#0x0                                 
ram:0003d864    fcd0            beq         LAB_0003d860                            
ram:0003d866    8a42            cmp         r2,r1                                   
ram:0003d868    0cd1            bne         LAB_0003d884                            
ram:0003d86a    2820            movs        param_1,#0x28                           
ram:0003d86c    4343            muls        r3,param_1                              
ram:0003d86e    5819            adds        param_1,r3,r5                           
ram:0003d870    406a            ldr         param_1,[param_1,#0x24]                 
ram:0003d872    2061            str         param_1,[r4,#0x10]=>DAT_20002c68        
ram:0003d874    401c            adds        param_1,param_1,#0x1                    
ram:0003d876    05d1            bne         LAB_0003d884                            
ram:0003d878    c34b            ldr         r3,[DAT_0003db88]                       ;= 40011000h
ram:0003d87a    0120            movs        param_1,#0x1                            
ram:0003d87c    9860            str         param_1,[r3,#offset DAT_40011008 &0xff] 
ram:0003d87e    0023            movs        r3,#0x0                                 
ram:0003d880    6361            str         r3,[r4,#0x14]=>DAT_20002c6c             
ram:0003d882    6071            strb        param_1,[r4,#0x5]=>DAT_20002c5d         
                            LAB_0003d884:                 ;XREF[2,0]:   0003d868,0003d876
ram:0003d884    2820            movs        param_1,#0x28                           
ram:0003d886    4143            muls        r1,param_1                              
ram:0003d888    4819            adds        param_1,r1,r5                           
ram:0003d88a    2823            movs        r3,#0x28                                
ram:0003d88c    8168            ldr         r1,[param_1,#0x8]                       
ram:0003d88e    5a43            muls        r2,r3                                   
ram:0003d890    406a            ldr         param_1,[param_1,#0x24]                 
ram:0003d892    5219            adds        r2,r2,r5                                
ram:0003d894    5062            str         param_1,[r2,#0x24]                      
ram:0003d896    421c            adds        r2,param_1,#0x1                         
ram:0003d898    e2d0            beq         LAB_0003d860                            
ram:0003d89a    2822            movs        r2,#0x28                                
ram:0003d89c    5043            muls        param_1,r2                              
ram:0003d89e    4019            adds        param_1,param_1,r5                      
ram:0003d8a0    8268            ldr         r2,[param_1,#0x8]                       
ram:0003d8a2    5118            adds        r1,r2,r1                                
ram:0003d8a4    8160            str         r1,[param_1,#0x8]                       
ram:0003d8a6    70bd            pop         {r4,r5,r6,pc}                           
                            ;************************************************************************************************
                            ;*                                           FUNCTION                                           *
                            ;************************************************************************************************
                            ;undefined FUN_0003d8a8(void)
                                                          ;XREF[1,0]:   0003da1a
ram:0003d8a8    f8b5            push        {r3,r4,r5,r6,r7,lr}                     
ram:0003d8aa    b84c            ldr         r4,[DAT_0003db8c]                       ;= 20002C58h
ram:0003d8ac    2569            ldr         r5,[r4,#0x10]=>DAT_20002c68             
ram:0003d8ae    681c            adds        r0,r5,#0x1                              
ram:0003d8b0    35d0            beq         LAB_0003d91e                            
ram:0003d8b2    b748            ldr         r0,[DAT_0003db90]                       ;= 40011500h
ram:0003d8b4    0026            movs        r6,#0x0                                 
ram:0003d8b6    4068            ldr         r0,[r0,#offset DAT_40011504 &0xff]      
ram:0003d8b8    6169            ldr         r1,[r4,#0x14]=>DAT_20002c6c             
ram:0003d8ba    401a            subs        r0,r0,r1                                
ram:0003d8bc    0702            lsls        r7,r0,#0x8                              
ram:0003d8be    3f0a            lsrs        r7,r7,#0x8                              
ram:0003d8c0    19e0            b           LAB_0003d8f6                            
                            LAB_0003d8c2:                 ;XREF[1,0]:   0003d8f8
ram:0003d8c2    2820            movs        r0,#0x28                                
ram:0003d8c4    4543            muls        r5,r0                                   
ram:0003d8c6    a068            ldr         r0,[r4,#0x8]=>DAT_20002c60              
ram:0003d8c8    2a18            adds        r2,r5,r0                                
ram:0003d8ca    9068            ldr         r0,[r2,#0x8]                            
ram:0003d8cc    b842            cmp         r0,r7                                   
ram:0003d8ce    14d8            bhi         LAB_0003d8fa                            
ram:0003d8d0    a369            ldr         r3,[r4,#0x18]=>DAT_20002c70             
ram:0003d8d2    3f1a            subs        r7,r7,r0                                
ram:0003d8d4    8619            adds        r6,r0,r6                                
ram:0003d8d6    556a            ldr         r5,[r2,#0x24]                           
ram:0003d8d8    002b            cmp         r3,#0x0                                 
ram:0003d8da    09d0            beq         LAB_0003d8f0                            
ram:0003d8dc    116a            ldr         r1,[r2,#0x20]                           
ram:0003d8de    d069            ldr         r0,[r2,#0x1c]                           
ram:0003d8e0    9847            blx         r3                                      
ram:0003d8e2    0028            cmp         r0,#0x0                                 
ram:0003d8e4    07d0            beq         LAB_0003d8f6                            
ram:0003d8e6    0022            movs        r2,#0x0                                 
ram:0003d8e8    1146            mov         r1,r2                                   
ram:0003d8ea    fff777fe        bl          FUN_0003d5dc                            ;undefined FUN_0003d5dc(void)
ram:0003d8ee    02e0            b           LAB_0003d8f6                            
                            LAB_0003d8f0:                 ;XREF[1,0]:   0003d8da
ram:0003d8f0    d169            ldr         r1,[r2,#0x1c]                           
ram:0003d8f2    106a            ldr         r0,[r2,#0x20]                           
ram:0003d8f4    8847            blx         r1                                      
                            LAB_0003d8f6:                 ;XREF[3,0]:   0003d8c0,0003d8e4,0003d8ee
ram:0003d8f6    681c            adds        r0,r5,#0x1                              
ram:0003d8f8    e3d1            bne         LAB_0003d8c2                            
                            LAB_0003d8fa:                 ;XREF[1,0]:   0003d8ce
ram:0003d8fa    a178            ldrb        r1,[r4,#0x2]=>DAT_20002c5a              
ram:0003d8fc    e078            ldrb        r0,[r4,#0x3]=>DAT_20002c5b              
ram:0003d8fe    8142            cmp         r1,r0                                   
ram:0003d900    06d1            bne         LAB_0003d910                            
ram:0003d902    401c            adds        r0,r0,#0x1                              
ram:0003d904    c0b2            uxtb        r0,r0                                   
ram:0003d906    e070            strb        r0,[r4,#0x3]=>DAT_20002c5b              
ram:0003d908    0228            cmp         r0,#0x2                                 
ram:0003d90a    01d1            bne         LAB_0003d910                            
ram:0003d90c    0020            movs        r0,#0x0                                 
ram:0003d90e    e070            strb        r0,[r4,#0x3]=>DAT_20002c5b              
                            LAB_0003d910:                 ;XREF[2,0]:   0003d900,0003d90a
ram:0003d910    9e49            ldr         r1,[DAT_0003db8c]                       ;= 20002C58h
ram:0003d912    0006            lsls        r0,r0,#0x18                             
ram:0003d914    800d            lsrs        r0,r0,#0x16                             
ram:0003d916    1c31            adds        r1=>DAT_20002c74,#0x1c                  
ram:0003d918    0e50            str         r6,[r1,r0]=>DAT_20002c74                
ram:0003d91a    00f0baf9        bl          FUN_0003dc92                            ;undefined FUN_0003dc92(void)
                            LAB_0003d91e:                 ;XREF[1,0]:   0003d8b0
ram:0003d91e    f8bd            pop         {r3,r4,r5,r6,r7,pc}                     
                            ;************************************************************************************************
                            ;*                                           FUNCTION                                           *
                            ;************************************************************************************************
                            ;undefined4 FUN_0003d920(int param_1)
          ;param_1       int                 r0                      
          ;local_18      undefined4         -18                      ;XREF[2,0]:   0003d92a,0003d9f8
                                                          ;XREF[2,0]:   0003da4a,0003da52
ram:0003d920    f8b5            push        {r3,r4,r5,r6,r7,lr}                     
ram:0003d922    0446            mov         r4,param_1                              
ram:0003d924    9948            ldr         param_1,[DAT_0003db8c]                  ;= 20002C58h
ram:0003d926    0027            movs        r7,#0x0                                 
ram:0003d928    0169            ldr         r1,[param_1,#0x10]=>DAT_20002c68        
ram:0003d92a    0091            str         r1,[sp,#0x0]=>local_18                  
ram:0003d92c    4678            ldrb        r6,[param_1,#0x1]=>DAT_20002c59         
ram:0003d92e    5ce0            b           LAB_0003d9ea                            
                            LAB_0003d930:                 ;XREF[1,0]:   0003d9f2
ram:0003d930    9648            ldr         param_1,[DAT_0003db8c]                  ;= 20002C58h
ram:0003d932    f100            lsls        r1,r6,#0x3                              
ram:0003d934    c268            ldr         r2,[param_1,#0xc]=>DAT_20002c64         
ram:0003d936    8d18            adds        r5,r1,r2                                
ram:0003d938    51e0            b           LAB_0003d9de                            
                            LAB_0003d93a:                 ;XREF[2,0]:   0003d9e0,0003d9e8
ram:0003d93a    601c            adds        param_1,r4,#0x1                         
ram:0003d93c    07d0            beq         LAB_0003d94e                            
ram:0003d93e    934a            ldr         r2,[DAT_0003db8c]                       ;= 20002C58h
ram:0003d940    2820            movs        param_1,#0x28                           
ram:0003d942    9268            ldr         r2,[r2,#0x8]=>DAT_20002c60              
ram:0003d944    6043            muls        param_1,r4                              
ram:0003d946    2146            mov         r1,r4                                   
ram:0003d948    8018            adds        param_1,param_1,r2                      
ram:0003d94a    446a            ldr         r4,[param_1,#0x24]                      
ram:0003d94c    24e0            b           LAB_0003d998                            
                            LAB_0003d94e:                 ;XREF[1,0]:   0003d93c
ram:0003d94e    2878            ldrb        param_1,[r5,#0x0]                       
ram:0003d950    1821            movs        r1,#0x18                                
ram:0003d952    4143            muls        r1,param_1                              
ram:0003d954    6a68            ldr         r2,[r5,#0x4]                            
ram:0003d956    401c            adds        param_1,param_1,#0x1                    
ram:0003d958    c0b2            uxtb        param_1,param_1                         
ram:0003d95a    5218            adds        r2,r2,r1                                
ram:0003d95c    2870            strb        param_1,[r5,#0x0]                       
ram:0003d95e    a978            ldrb        r1,[r5,#0x2]                            
ram:0003d960    8842            cmp         param_1,r1                              
ram:0003d962    00d1            bne         LAB_0003d966                            
ram:0003d964    2f70            strb        r7,[r5,#0x0]                            
                            LAB_0003d966:                 ;XREF[1,0]:   0003d962
ram:0003d966    894b            ldr         r3,[DAT_0003db8c]                       ;= 20002C58h
ram:0003d968    5168            ldr         r1,[r2,#0x4]                            
ram:0003d96a    2820            movs        param_1,#0x28                           
ram:0003d96c    9b68            ldr         r3,[r3,#0x8]=>DAT_20002c60              
ram:0003d96e    4843            muls        param_1,r1                              
ram:0003d970    c018            adds        param_1,param_1,r3                      
ram:0003d972    1368            ldr         r3,[r2,#0x0]                            
ram:0003d974    012b            cmp         r3,#0x1                                 
ram:0003d976    34d1            bne         LAB_0003d9e2                            
ram:0003d978    037e            ldrb        r3,[param_1,#0x18]                      
ram:0003d97a    002b            cmp         r3,#0x0                                 
ram:0003d97c    31d1            bne         LAB_0003d9e2                            
ram:0003d97e    9368            ldr         r3,[r2,#0x8]                            
ram:0003d980    c360            str         r3,[param_1,#0xc]                       
ram:0003d982    d368            ldr         r3,[r2,#0xc]                            
ram:0003d984    0361            str         r3,[param_1,#0x10]                      
ram:0003d986    1369            ldr         r3,[r2,#0x10]                           
ram:0003d988    4361            str         r3,[param_1,#0x14]                      
ram:0003d98a    5269            ldr         r2,[r2,#0x14]                           
ram:0003d98c    0262            str         r2,[param_1,#0x20]                      
ram:0003d98e    7f4a            ldr         r2,[DAT_0003db8c]                       ;= 20002C58h
ram:0003d990    5279            ldrb        r2,[r2,#0x5]=>DAT_20002c5d              
ram:0003d992    002a            cmp         r2,#0x0                                 
ram:0003d994    00d0            beq         LAB_0003d998                            
ram:0003d996    c760            str         r7,[param_1,#0xc]                       
                            LAB_0003d998:                 ;XREF[2,0]:   0003d94c,0003d994
ram:0003d998    7c4b            ldr         r3,[DAT_0003db8c]                       ;= 20002C58h
ram:0003d99a    c268            ldr         r2,[param_1,#0xc]                       
ram:0003d99c    5b69            ldr         r3,[r3,#0x14]=>DAT_20002c6c             
ram:0003d99e    9646            mov         lr,r2                                   
ram:0003d9a0    9c46            mov         r12,r3                                  
ram:0003d9a2    d31a            subs        r3,r2,r3                                
ram:0003d9a4    1a02            lsls        r2,r3,#0x8                              
ram:0003d9a6    7b4b            ldr         r3,[DAT_0003db94]                       ;= 007FFFFFh
ram:0003d9a8    120a            lsrs        r2,r2,#0x8                              
ram:0003d9aa    9a42            cmp         r2,r3                                   
ram:0003d9ac    02d2            bcs         LAB_0003d9b4                            
ram:0003d9ae    0369            ldr         r3,[param_1,#0x10]                      
ram:0003d9b0    d218            adds        r2,r2,r3                                
ram:0003d9b2    08e0            b           LAB_0003d9c6                            
                            LAB_0003d9b4:                 ;XREF[1,0]:   0003d9ac
ram:0003d9b4    7246            mov         r2,lr                                   
ram:0003d9b6    6346            mov         r3,r12                                  
ram:0003d9b8    9a1a            subs        r2,r3,r2                                
ram:0003d9ba    1202            lsls        r2,r2,#0x8                              
ram:0003d9bc    0369            ldr         r3,[param_1,#0x10]                      
ram:0003d9be    120a            lsrs        r2,r2,#0x8                              
ram:0003d9c0    9342            cmp         r3,r2                                   
ram:0003d9c2    02d9            bls         LAB_0003d9ca                            
ram:0003d9c4    9a1a            subs        r2,r3,r2                                
                            LAB_0003d9c6:                 ;XREF[1,0]:   0003d9b2
ram:0003d9c6    8260            str         r2,[param_1,#0x8]                       
ram:0003d9c8    00e0            b           LAB_0003d9cc                            
                            LAB_0003d9ca:                 ;XREF[1,0]:   0003d9c2
ram:0003d9ca    8760            str         r7,[param_1,#0x8]                       
                            LAB_0003d9cc:                 ;XREF[1,0]:   0003d9c8
ram:0003d9cc    c760            str         r7,[param_1,#0xc]                       
ram:0003d9ce    0122            movs        r2,#0x1                                 
ram:0003d9d0    0761            str         r7,[param_1,#0x10]                      
ram:0003d9d2    0276            strb        r2,[param_1,#0x18]                      
ram:0003d9d4    921e            subs        r2,r2,#0x2                              
ram:0003d9d6    4262            str         r2,[param_1,#0x24]                      
ram:0003d9d8    0846            mov         param_1,r1                              
ram:0003d9da    fff702ff        bl          FUN_0003d7e2                            ;undefined FUN_0003d7e2(int param_1)
                            LAB_0003d9de:                 ;XREF[1,0]:   0003d938
ram:0003d9de    601c            adds        param_1,r4,#0x1                         
ram:0003d9e0    abd1            bne         LAB_0003d93a                            
                            LAB_0003d9e2:                 ;XREF[2,0]:   0003d976,0003d97c
ram:0003d9e2    2878            ldrb        param_1,[r5,#0x0]                       
ram:0003d9e4    6978            ldrb        r1,[r5,#0x1]                            
ram:0003d9e6    8842            cmp         param_1,r1                              
ram:0003d9e8    a7d1            bne         LAB_0003d93a                            
                            LAB_0003d9ea:                 ;XREF[1,0]:   0003d92e
ram:0003d9ea    3046            mov         param_1,r6                              
ram:0003d9ec    761e            subs        r6,r6,#0x1                              
ram:0003d9ee    f6b2            uxtb        r6,r6                                   
ram:0003d9f0    0028            cmp         param_1,#0x0                            
ram:0003d9f2    9dd1            bne         LAB_0003d930                            
ram:0003d9f4    6548            ldr         param_1,[DAT_0003db8c]                  ;= 20002C58h
ram:0003d9f6    0169            ldr         r1,[param_1,#0x10]=>DAT_20002c68        
ram:0003d9f8    0098            ldr         param_1,[sp,#0x0]=>local_18             
ram:0003d9fa    8142            cmp         r1,param_1                              
ram:0003d9fc    01d0            beq         LAB_0003da02                            
ram:0003d9fe    0120            movs        param_1,#0x1                            
ram:0003da00    f8bd            pop         {r3,r4,r5,r6,r7,pc}                     
                            LAB_0003da02:                 ;XREF[1,0]:   0003d9fc
ram:0003da02    0020            movs        param_1,#0x0                            
ram:0003da04    f8bd            pop         {r3,r4,r5,r6,r7,pc}                     
                            ;************************************************************************************************
                            ;*                                           FUNCTION                                           *
                            ;************************************************************************************************
                            ;undefined FUNC_VT_0003da06(void)
                                                          ;XREF[0,1]:   0003c084
ram:0003da06    6449            ldr         r1,[DAT_0003db98]                       ;= 40011140h
ram:0003da08    0020            movs        r0,#0x0                                 
ram:0003da0a    0860            str         r0,[r1,#0x0]=>DAT_40011140              
ram:0003da0c    4860            str         r0,[r1,#0x4]=>DAT_40011144              
ram:0003da0e    8860            str         r0,[r1,#0x8]=>DAT_40011148              
ram:0003da10    c860            str         r0,[r1,#0xc]=>DAT_4001114c              
ram:0003da12    6149            ldr         r1,[DAT_0003db98]                       ;= 40011140h
ram:0003da14    4039            subs        r1=>DAT_40011100,#0x40                  
ram:0003da16    0860            str         r0,[r1,#0x0]=>DAT_40011100              
ram:0003da18    4860            str         r0,[r1,#offset DAT_40011104 &0xff]      
ram:0003da1a    45e7            b           FUN_0003d8a8                            ;undefined FUN_0003d8a8(void)
                            ;************************************************************************************************
                            ;*                                           FUNCTION                                           *
                            ;************************************************************************************************
                            ;undefined FUNC_VT_0003da1c(undefined4 param_1, uint param_2)
          ;param_1       undefined4          r0                      
          ;param_2       uint                r1                      
          ;local_18      undefined4         -18                      ;XREF[3,0]:   0003da24,0003da48,0003da50
          ;local_1c      undefined4         -1c                      ;XREF[2,0]:   0003da28,0003da40
          ;local_20      undefined4         -20                      ;XREF[1,0]:   0003da42
                                                          ;XREF[0,1]:   0003c090
ram:0003da1c    feb5            push        {param_2,r2,r3,r4,r5,r6,r7,lr}          
ram:0003da1e    0020            movs        param_1,#0x0                            
ram:0003da20    c043            mvns        param_1,param_1                         
ram:0003da22    5a4d            ldr         r5,[DAT_0003db8c]                       ;= 20002C58h
ram:0003da24    0290            str         param_1,[sp,#local_18+0x20]             
ram:0003da26    6869            ldr         param_1,[r5,#0x14]=>DAT_20002c6c        
ram:0003da28    0190            str         param_1,[sp,#local_1c+0x20]             
ram:0003da2a    6846            mov         param_1,sp                              
ram:0003da2c    2e69            ldr         r6,[r5,#0x10]=>DAT_20002c68             
ram:0003da2e    00f035f9        bl          FUN_0003dc9c                            ;undefined4 FUN_0003dc9c(int * param_1)
ram:0003da32    0746            mov         r7,param_1                              
ram:0003da34    00f04ff9        bl          FUN_0003dcd6                            ;undefined4 FUN_0003dcd6(void)
ram:0003da38    0446            mov         r4,param_1                              
ram:0003da3a    002f            cmp         r7,#0x0                                 
ram:0003da3c    08d0            beq         LAB_0003da50                            
ram:0003da3e    02aa            add         r2,sp,#0x8                              
ram:0003da40    0199            ldr         param_2,[sp,#local_1c+0x20]             
ram:0003da42    0098            ldr         param_1,[sp,#0x0]=>local_20             
ram:0003da44    00f08ff9        bl          FUN_0003dd66                            ;undefined FUN_0003dd66(uint param_1,...
ram:0003da48    0298            ldr         param_1,[sp,#local_18+0x20]             
ram:0003da4a    fff769ff        bl          FUN_0003d920                            ;undefined4 FUN_0003d920(int param_1)
ram:0003da4e    06e0            b           LAB_0003da5e                            
                            LAB_0003da50:                 ;XREF[1,0]:   0003da3c
ram:0003da50    0298            ldr         param_1,[sp,#local_18+0x20]             
ram:0003da52    fff765ff        bl          FUN_0003d920                            ;undefined4 FUN_0003d920(int param_1)
ram:0003da56    0028            cmp         param_1,#0x0                            
ram:0003da58    01d1            bne         LAB_0003da5e                            
ram:0003da5a    002c            cmp         r4,#0x0                                 
ram:0003da5c    02d0            beq         LAB_0003da64                            
                            LAB_0003da5e:                 ;XREF[2,0]:   0003da4e,0003da58
ram:0003da5e    3046            mov         param_1,r6                              
ram:0003da60    00f0aaf9        bl          FUN_0003ddb8                            ;undefined FUN_0003ddb8(void)
                            LAB_0003da64:                 ;XREF[1,0]:   0003da5c
ram:0003da64    0020            movs        param_1,#0x0                            
ram:0003da66    6871            strb        param_1,[r5,#0x5]=>DAT_20002c5d         
ram:0003da68    febd            pop         {param_2,r2,r3,r4,r5,r6,r7,pc}          
                            ;************************************************************************************************
                            ;*                                           FUNCTION                                           *
                            ;************************************************************************************************
                            ;undefined4 FUN_0003da6a(undefined4 param_1, int param_2, int param_3, uint param_4, undefined4 param_5)
          ;param_1       undefined4          r0                      
          ;param_2       int                 r1                      
          ;param_3       int                 r2                      
          ;param_4       uint                r3                      
          ;param_5       undefined4           0                      ;XREF[1,0]:   0003da86
          ;local_24      undefined4         -24                      ;XREF[1,0]:   0003dafc
                                                          ;XREF[1,0]:   0003c2f6
ram:0003da6a    ffb5            push        {param_1,param_2,param_3,param_4,r4,r...
ram:0003da6c    9807            lsls        param_1,param_4,#0x1e                   
ram:0003da6e    0024            movs        r4,#0x0                                 
ram:0003da70    81b0            sub         sp,#0x4                                 
ram:0003da72    1e46            mov         r6,param_4                              
ram:0003da74    1546            mov         r5,param_3                              
ram:0003da76    0f46            mov         r7,param_2                              
ram:0003da78    0028            cmp         param_1,#0x0                            
ram:0003da7a    0bd1            bne         LAB_0003da94                            
ram:0003da7c    002e            cmp         r6,#0x0                                 
ram:0003da7e    09d0            beq         LAB_0003da94                            
ram:0003da80    fff796fe        bl          FUN_0003d7b0                            ;undefined FUN_0003d7b0(void)
ram:0003da84    4149            ldr         param_2,[DAT_0003db8c]                  ;= 20002C58h
ram:0003da86    0a98            ldr         param_1,[sp,#param_5+0x28]              
ram:0003da88    8861            str         param_1,[param_2,#0x18]=>DAT_20002c70   
ram:0003da8a    0f70            strb        r7,[param_2,#0x0]=>DAT_20002c58         
ram:0003da8c    3246            mov         param_3,r6                              
ram:0003da8e    0020            movs        param_1,#0x0                            
ram:0003da90    8e60            str         r6,[param_2,#0x8]=>DAT_20002c60         
ram:0003da92    08e0            b           LAB_0003daa6                            
                            LAB_0003da94:                 ;XREF[2,0]:   0003da7a,0003da7e
ram:0003da94    0720            movs        param_1,#0x7                            
                            LAB_0003da96:                 ;XREF[1,0]:   0003db0e
ram:0003da96    05b0            add         sp,#0x14                                
ram:0003da98    f0bd            pop         {r4,r5,r6,r7,pc}                        
                            LAB_0003da9a:                 ;XREF[1,0]:   0003daa8
ram:0003da9a    2823            movs        param_4,#0x28                           
ram:0003da9c    4343            muls        param_4,param_1                         
ram:0003da9e    d450            str         r4,[param_3,param_4]                    
ram:0003daa0    9b18            adds        param_4,param_4,param_3                 
ram:0003daa2    1c76            strb        r4,[param_4,#0x18]                      
ram:0003daa4    401c            adds        param_1,param_1,#0x1                    
                            LAB_0003daa6:                 ;XREF[1,0]:   0003da92
ram:0003daa6    b842            cmp         param_1,r7                              
ram:0003daa8    f7db            blt         LAB_0003da9a                            
ram:0003daaa    2820            movs        param_1,#0x28                           
ram:0003daac    4743            muls        r7,param_1                              
ram:0003daae    bb19            adds        param_4,r7,r6                           
ram:0003dab0    0320            movs        param_1,#0x3                            
ram:0003dab2    4870            strb        param_1,[param_2,#0x1]=>DAT_20002c59    
ram:0003dab4    0f46            mov         r7,param_2                              
ram:0003dab6    1846            mov         param_1,param_4                         
ram:0003dab8    cb60            str         param_4,[param_2,#0xc]=>DAT_20002c64    
ram:0003daba    1946            mov         param_2,param_4                         
ram:0003dabc    1830            adds        param_1,#0x18                           
ram:0003dabe    0022            movs        param_3,#0x0                            
ram:0003dac0    1823            movs        param_4,#0x18                           
ram:0003dac2    2e46            mov         r6,r5                                   
ram:0003dac4    5e43            muls        r6,param_4                              
                            LAB_0003dac6:                 ;XREF[1,0]:   0003dad8
ram:0003dac6    d300            lsls        param_4,param_3,#0x3                    
ram:0003dac8    5b18            adds        param_4,param_4,param_2                 
ram:0003daca    1c70            strb        r4,[param_4,#0x0]                       
ram:0003dacc    5c70            strb        r4,[param_4,#0x1]                       
ram:0003dace    9d70            strb        r5,[param_4,#0x2]                       
ram:0003dad0    5860            str         param_1,[param_4,#0x4]                  
ram:0003dad2    3018            adds        param_1,r6,param_1                      
ram:0003dad4    521c            adds        param_3,param_3,#0x1                    
ram:0003dad6    032a            cmp         param_3,#0x3                            
ram:0003dad8    f5db            blt         LAB_0003dac6                            
ram:0003dada    0020            movs        param_1,#0x0                            
ram:0003dadc    c043            mvns        param_1,param_1                         
ram:0003dade    3861            str         param_1,[r7,#0x10]=>DAT_20002c68        
ram:0003dae0    bc70            strb        r4,[r7,#0x2]=>DAT_20002c5a              
ram:0003dae2    fc70            strb        r4,[r7,#0x3]=>DAT_20002c5b              
ram:0003dae4    0124            movs        r4,#0x1                                 
ram:0003dae6    2d48            ldr         param_1,[DAT_0003db9c]                  ;= E000E280h
ram:0003dae8    2405            lsls        r4,r4,#0x14                             
ram:0003daea    0460            str         r4,[param_1,#0x0]=>DAT_e000e280         
ram:0003daec    0321            movs        param_2,#0x3                            
ram:0003daee    1420            movs        param_1,#0x14                           
ram:0003daf0    fff740fe        bl          FUN_0003d774                            ;undefined FUN_0003d774(uint param_1,...
ram:0003daf4    2248            ldr         param_1,[DAT_0003db80]                  ;= E000E180h
ram:0003daf6    8038            subs        param_1,#0x80                           
ram:0003daf8    0460            str         r4,[param_1,#0x0]=>DAT_e000e100         
ram:0003dafa    254c            ldr         r4,[DAT_0003db90]                       ;= 40011500h
ram:0003dafc    0198            ldr         param_1,[sp,#local_24+0x28]             
ram:0003dafe    a060            str         param_1,[r4,#offset DAT_40011508 &0xff] 
ram:0003db00    0321            movs        param_2,#0x3                            
ram:0003db02    1120            movs        param_1,#0x11                           
ram:0003db04    fff736fe        bl          FUN_0003d774                            ;undefined FUN_0003d774(uint param_1,...
ram:0003db08    6068            ldr         param_1,[r4,#offset DAT_40011504 &0xff] 
ram:0003db0a    7861            str         param_1,[r7,#0x14]=>DAT_20002c6c        
ram:0003db0c    0020            movs        param_1,#0x0                            
ram:0003db0e    c2e7            b           LAB_0003da96                            
                            ;************************************************************************************************
                            ;*                                           FUNCTION                                           *
                            ;************************************************************************************************
                            ;undefined4 FUN_0003db10(int * param_1, undefined4 param_2, int param_3)
          ;param_1       int *               r0                      
          ;param_2       undefined4          r1                      
          ;param_3       int                 r2                      
                                                          ;XREF[2,0]:   0003cdc8,0003e55e
ram:0003db10    70b5            push        {r4,r5,r6,lr}                           
ram:0003db12    1e4c            ldr         r4,[DAT_0003db8c]                       ;= 20002C58h
ram:0003db14    a568            ldr         r5,[r4,#0x8]=>DAT_20002c60              
ram:0003db16    002d            cmp         r5,#0x0                                 
ram:0003db18    06d0            beq         LAB_0003db28                            
ram:0003db1a    002a            cmp         param_3,#0x0                            
ram:0003db1c    06d0            beq         LAB_0003db2c                            
ram:0003db1e    0028            cmp         param_1,#0x0                            
ram:0003db20    04d0            beq         LAB_0003db2c                            
ram:0003db22    0023            movs        r3,#0x0                                 
ram:0003db24    2478            ldrb        r4,[r4,#0x0]=>DAT_20002c58              
ram:0003db26    09e0            b           LAB_0003db3c                            
                            LAB_0003db28:                 ;XREF[1,0]:   0003db18
ram:0003db28    0820            movs        param_1,#0x8                            
ram:0003db2a    70bd            pop         {r4,r5,r6,pc}                           
                            LAB_0003db2c:                 ;XREF[2,0]:   0003db1c,0003db20
ram:0003db2c    0720            movs        param_1,#0x7                            
ram:0003db2e    70bd            pop         {r4,r5,r6,pc}                           
                            LAB_0003db30:                 ;XREF[1,0]:   0003db3e
ram:0003db30    2826            movs        r6,#0x28                                
ram:0003db32    5e43            muls        r6,r3                                   
ram:0003db34    ae59            ldr         r6,[r5,r6]                              
ram:0003db36    002e            cmp         r6,#0x0                                 
ram:0003db38    04d0            beq         LAB_0003db44                            
ram:0003db3a    5b1c            adds        r3,r3,#0x1                              
                            LAB_0003db3c:                 ;XREF[1,0]:   0003db26
ram:0003db3c    a342            cmp         r3,r4                                   
ram:0003db3e    f7db            blt         LAB_0003db30                            
ram:0003db40    0420            movs        param_1,#0x4                            
ram:0003db42    70bd            pop         {r4,r5,r6,pc}                           
                            LAB_0003db44:                 ;XREF[1,0]:   0003db38
ram:0003db44    2824            movs        r4,#0x28                                
ram:0003db46    0126            movs        r6,#0x1                                 
ram:0003db48    5c43            muls        r4,r3                                   
ram:0003db4a    2e51            str         r6,[r5,r4]                              
ram:0003db4c    6419            adds        r4,r4,r5                                
ram:0003db4e    e261            str         param_3,[r4,#0x1c]                      
ram:0003db50    6160            str         param_2,[r4,#0x4]                       
ram:0003db52    0360            str         r3,[param_1,#0x0]                       
ram:0003db54    0020            movs        param_1,#0x0                            
ram:0003db56    70bd            pop         {r4,r5,r6,pc}                           
                            ;************************************************************************************************
                            ;*                                           FUNCTION                                           *
                            ;************************************************************************************************
                            ;undefined4 FUN_0003db58(void)
                                                          ;XREF[2,0]:   0003dc00,0003dc66
ram:0003db58    0749            ldr         r1,[DAT_0003db78]                       ;= E000ED00h
ram:0003db5a    4868            ldr         r0,[r1,#offset DAT_e000ed04 &0xff]      
ram:0003db5c    c005            lsls        r0,r0,#0x17                             
ram:0003db5e    c00d            lsrs        r0,r0,#0x17                             
ram:0003db60    2cd0            beq         LAB_0003dbbc                            
ram:0003db62    1038            subs        r0,#0x10                                
ram:0003db64    1cd5            bpl         LAB_0003dba0                            
ram:0003db66    0207            lsls        r2,r0,#0x1c                             
ram:0003db68    120f            lsrs        r2,r2,#0x1c                             
ram:0003db6a    083a            subs        r2,#0x8                                 
ram:0003db6c    9208            lsrs        r2,r2,#0x2                              
ram:0003db6e    9200            lsls        r2,r2,#0x2                              
ram:0003db70    5118            adds        r1,r2,r1                                
ram:0003db72    c969            ldr         r1,[r1,#0x1c]                           
ram:0003db74    19e0            b           LAB_0003dbaa                            
ram:0003db76    0000            movs        r0,r0                                   
                            DAT_0003db78:                 ;XREF[2,0]:   0003d78e,0003db58
ram:0003db78    00ed00e0        undefined4  E000ED00h                               
                            DAT_0003db7c:                 ;XREF[1,0]:   0003d7a0
ram:0003db7c    00e400e0        undefined4  E000E400h                               
                            DAT_0003db80:                 ;XREF[2,0]:   0003d7b4,0003daf4
ram:0003db80    80e100e0        undefined4  E000E180h                               
                            DAT_0003db84:                 ;XREF[2,0]:   0003d7ba,0003d7c0
ram:0003db84    40130140        undefined4  40011340h                               
                            DAT_0003db88:                 ;XREF[2,0]:   0003d7c6,0003d878
ram:0003db88    00100140        undefined4  40011000h                               
                            DAT_0003db8c:                 ;XREF[15,0]:  0003d7d2,0003d7e4,0003d842,0003d8aa
                                                          ;             0003d910,0003d924,0003d930,0003d93e
                                                          ;             0003d966,0003d98e,0003d998,0003d9f4
                                                          ;             0003da22,0003da84,0003db12
ram:0003db8c    582c0020        undefined4  20002C58h                               
                            DAT_0003db90:                 ;XREF[2,0]:   0003d8b2,0003dafa
ram:0003db90    00150140        undefined4  40011500h                               
                            DAT_0003db94:                 ;XREF[1,0]:   0003d9a6
ram:0003db94    ffff7f00        undefined4  007FFFFFh                               
                            DAT_0003db98:                 ;XREF[2,0]:   0003da06,0003da12
ram:0003db98    40110140        undefined4  40011140h                               
                            DAT_0003db9c:                 ;XREF[1,0]:   0003dae6
ram:0003db9c    80e200e0        undefined4  E000E280h                               
                            LAB_0003dba0:                 ;XREF[1,0]:   0003db64
ram:0003dba0    8108            lsrs        r1,r0,#0x2                              
ram:0003dba2    b14a            ldr         r2,[DAT_0003de68]                       ;= E000E400h
ram:0003dba4    8900            lsls        r1,r1,#0x2                              
ram:0003dba6    8918            adds        r1,r1,r2                                
ram:0003dba8    0968            ldr         r1,[r1,#0x0]                            
                            LAB_0003dbaa:                 ;XREF[1,0]:   0003db74
ram:0003dbaa    8007            lsls        r0,r0,#0x1e                             
ram:0003dbac    c00e            lsrs        r0,r0,#0x1b                             
ram:0003dbae    c140            lsrs        r1,r0                                   
ram:0003dbb0    0806            lsls        r0,r1,#0x18                             
ram:0003dbb2    800f            lsrs        r0,r0,#0x1e                             
ram:0003dbb4    0128            cmp         r0,#0x1                                 
ram:0003dbb6    03d0            beq         LAB_0003dbc0                            
ram:0003dbb8    0328            cmp         r0,#0x3                                 
ram:0003dbba    03d0            beq         LAB_0003dbc4                            
                            LAB_0003dbbc:                 ;XREF[1,0]:   0003db60
ram:0003dbbc    0220            movs        r0,#0x2                                 
ram:0003dbbe    7047            bx          lr                                      
                            LAB_0003dbc0:                 ;XREF[1,0]:   0003dbb6
ram:0003dbc0    0020            movs        r0,#0x0                                 
ram:0003dbc2    7047            bx          lr                                      
                            LAB_0003dbc4:                 ;XREF[1,0]:   0003dbba
ram:0003dbc4    0120            movs        r0,#0x1                                 
ram:0003dbc6    7047            bx          lr                                      
                            ;************************************************************************************************
                            ;*                                           FUNCTION                                           *
                            ;************************************************************************************************
                            ;longlong FUN_0003dbc8(uint param_1, uint param_2, undefined4 param_3, undefined4 param_4)
          ;param_1       uint                r0                      
          ;param_2       uint                r1                      
          ;param_3       undefined4          r2                      
          ;param_4       undefined4          r3                      
          ;local_1c      undefined4         -1c                      ;XREF[2,0]:   0003dc08,0003dc28
          ;local_20      undefined4         -20                      ;XREF[1,0]:   0003dc2e
                                                          ;XREF[3,0]:   0003ce18,0003e3c2,0003e576
ram:0003dbc8    feb5            push        {param_2,param_3,param_4,r4,r5,r6,r7,lr}
ram:0003dbca    0446            mov         r4,param_1                              
ram:0003dbcc    a748            ldr         param_1,[DAT_0003de6c]                  ;= 20002C58h
ram:0003dbce    1746            mov         r7,param_3                              
ram:0003dbd0    8268            ldr         param_3,[param_1,#0x8]=>DAT_20002c60    
ram:0003dbd2    0d46            mov         r5,param_2                              
ram:0003dbd4    002a            cmp         param_3,#0x0                            
ram:0003dbd6    0cd0            beq         LAB_0003dbf2                            
ram:0003dbd8    0178            ldrb        param_2,[param_1,#0x0]=>DAT_20002c58    
ram:0003dbda    8c42            cmp         r4,param_2                              
ram:0003dbdc    01d2            bcs         LAB_0003dbe2                            
ram:0003dbde    052d            cmp         r5,#0x5                                 
ram:0003dbe0    01d2            bcs         LAB_0003dbe6                            
                            LAB_0003dbe2:                 ;XREF[1,0]:   0003dbdc
ram:0003dbe2    0720            movs        param_1,#0x7                            
ram:0003dbe4    febd            pop         {param_2,param_3,param_4,r4,r5,r6,r7,pc}
                            LAB_0003dbe6:                 ;XREF[1,0]:   0003dbe0
ram:0003dbe6    2146            mov         param_2,r4                              
ram:0003dbe8    2823            movs        param_4,#0x28                           
ram:0003dbea    5943            muls        param_2,param_4                         
ram:0003dbec    5358            ldr         param_4,[param_3,param_2]               
ram:0003dbee    012b            cmp         param_4,#0x1                            
ram:0003dbf0    01d0            beq         LAB_0003dbf6                            
                            LAB_0003dbf2:                 ;XREF[1,0]:   0003dbd6
ram:0003dbf2    0820            movs        param_1,#0x8                            
ram:0003dbf4    febd            pop         {param_2,param_3,param_4,r4,r5,r6,r7,pc}
                            LAB_0003dbf6:                 ;XREF[1,0]:   0003dbf0
ram:0003dbf6    8818            adds        param_1,param_2,param_3                 
ram:0003dbf8    4068            ldr         param_1,[param_1,#0x4]                  
ram:0003dbfa    0128            cmp         param_1,#0x1                            
ram:0003dbfc    1dd0            beq         LAB_0003dc3a                            
ram:0003dbfe    0026            movs        r6,#0x0                                 
                            LAB_0003dc00:                 ;XREF[1,0]:   0003dc3c
ram:0003dc00    fff7aaff        bl          FUN_0003db58                            ;undefined4 FUN_0003db58(void)
ram:0003dc04    c000            lsls        param_1,param_1,#0x3                    
ram:0003dc06    9949            ldr         param_2,[DAT_0003de6c]                  ;= 20002C58h
ram:0003dc08    0190            str         param_1,[sp,#local_1c+0x20]             
ram:0003dc0a    c968            ldr         param_2,[param_2,#0xc]=>DAT_20002c64    
ram:0003dc0c    4018            adds        param_1,param_1,param_2                 
ram:0003dc0e    6946            mov         param_2,sp                              
ram:0003dc10    00f018f9        bl          FUN_0003de44                            ;int FUN_0003de44(byte * param_1, uin...
ram:0003dc14    0028            cmp         param_1,#0x0                            
ram:0003dc16    12d0            beq         LAB_0003dc3e                            
ram:0003dc18    0121            movs        param_2,#0x1                            
ram:0003dc1a    4460            str         r4,[param_1,#0x4]                       
ram:0003dc1c    0160            str         param_2,[param_1,#0x0]                  
ram:0003dc1e    9449            ldr         param_2,[DAT_0003de70]                  ;= 40011500h
ram:0003dc20    4968            ldr         param_2,[param_2,#offset DAT_40011504...
ram:0003dc22    0830            adds        param_1,#0x8                            
ram:0003dc24    e2c0            stmia       param_1!,{param_2,r5,r6,r7}             
ram:0003dc26    9149            ldr         param_2,[DAT_0003de6c]                  ;= 20002C58h
ram:0003dc28    0198            ldr         param_1,[sp,#local_1c+0x20]             
ram:0003dc2a    c968            ldr         param_2,[param_2,#0xc]=>DAT_20002c64    
ram:0003dc2c    4118            adds        param_2,param_1,param_2                 
ram:0003dc2e    0098            ldr         param_1,[sp,#0x0]=>local_20             
ram:0003dc30    4870            strb        param_1,[param_2,#0x1]                  
ram:0003dc32    00f02ef8        bl          FUN_0003dc92                            ;undefined FUN_0003dc92(void)
ram:0003dc36    0020            movs        param_1,#0x0                            
ram:0003dc38    febd            pop         {param_2,param_3,param_4,r4,r5,r6,r7,pc}
                            LAB_0003dc3a:                 ;XREF[1,0]:   0003dbfc
ram:0003dc3a    2e46            mov         r6,r5                                   
ram:0003dc3c    e0e7            b           LAB_0003dc00                            
                            LAB_0003dc3e:                 ;XREF[1,0]:   0003dc16
ram:0003dc3e    0420            movs        param_1,#0x4                            
ram:0003dc40    febd            pop         {param_2,param_3,param_4,r4,r5,r6,r7,pc}
                            ;************************************************************************************************
                            ;*                                           FUNCTION                                           *
                            ;************************************************************************************************
                            ;undefined4 FUN_0003dc42(uint param_1, undefined4 param_2, undefined4 param_3, uint param_4)
          ;param_1       uint                r0                      
          ;param_2       undefined4          r1                      
          ;param_3       undefined4          r2                      
          ;param_4       uint                r3                      
          ;local_18      undefined4         -18                      ;XREF[1,0]:   0003dc82
                                                          ;XREF[4,0]:   0003cdd4,0003ce96,0003e3aa,0003e792
ram:0003dc42    f8b5            push        {param_4,r4,r5,r6,r7,lr}                
ram:0003dc44    894d            ldr         r5,[DAT_0003de6c]                       ;= 20002C58h
ram:0003dc46    0446            mov         r4,param_1                              
ram:0003dc48    a868            ldr         param_1,[r5,#0x8]=>DAT_20002c60         
ram:0003dc4a    0028            cmp         param_1,#0x0                            
ram:0003dc4c    09d0            beq         LAB_0003dc62                            
ram:0003dc4e    2978            ldrb        param_2,[r5,#0x0]=>DAT_20002c58         
ram:0003dc50    8c42            cmp         r4,param_2                              
ram:0003dc52    01d3            bcc         LAB_0003dc58                            
ram:0003dc54    0720            movs        param_1,#0x7                            
ram:0003dc56    f8bd            pop         {param_4,r4,r5,r6,r7,pc}                
                            LAB_0003dc58:                 ;XREF[1,0]:   0003dc52
ram:0003dc58    2821            movs        param_2,#0x28                           
ram:0003dc5a    6143            muls        param_2,r4                              
ram:0003dc5c    4058            ldr         param_1,[param_1,param_2]               
ram:0003dc5e    0128            cmp         param_1,#0x1                            
ram:0003dc60    01d0            beq         LAB_0003dc66                            
                            LAB_0003dc62:                 ;XREF[1,0]:   0003dc4c
ram:0003dc62    0820            movs        param_1,#0x8                            
ram:0003dc64    f8bd            pop         {param_4,r4,r5,r6,r7,pc}                
                            LAB_0003dc66:                 ;XREF[1,0]:   0003dc60
ram:0003dc66    fff777ff        bl          FUN_0003db58                            ;undefined4 FUN_0003db58(void)
ram:0003dc6a    c600            lsls        r6,param_1,#0x3                         
ram:0003dc6c    e868            ldr         param_1,[r5,#0xc]=>DAT_20002c64         
ram:0003dc6e    6946            mov         param_2,sp                              
ram:0003dc70    3018            adds        param_1,r6,param_1                      
ram:0003dc72    00f0e7f8        bl          FUN_0003de44                            ;int FUN_0003de44(byte * param_1, uin...
ram:0003dc76    0028            cmp         param_1,#0x0                            
ram:0003dc78    09d0            beq         LAB_0003dc8e                            
ram:0003dc7a    0221            movs        param_2,#0x2                            
ram:0003dc7c    12c0            stmia       param_1!,{param_2,r4}                   
ram:0003dc7e    e868            ldr         param_1,[r5,#0xc]=>DAT_20002c64         
ram:0003dc80    3118            adds        param_2,r6,param_1                      
ram:0003dc82    0098            ldr         param_1,[sp,#0x0]=>local_18             
ram:0003dc84    4870            strb        param_1,[param_2,#0x1]                  
ram:0003dc86    00f004f8        bl          FUN_0003dc92                            ;undefined FUN_0003dc92(void)
ram:0003dc8a    0020            movs        param_1,#0x0                            
ram:0003dc8c    f8bd            pop         {param_4,r4,r5,r6,r7,pc}                
                            LAB_0003dc8e:                 ;XREF[1,0]:   0003dc78
ram:0003dc8e    0420            movs        param_1,#0x4                            
ram:0003dc90    f8bd            pop         {param_4,r4,r5,r6,r7,pc}                
                            ;************************************************************************************************
                            ;*                                           FUNCTION                                           *
                            ;************************************************************************************************
                            ;undefined FUN_0003dc92(void)
                                                          ;XREF[3,0]:   0003d91a,0003dc32,0003dc86
ram:0003dc92    0120            movs        r0,#0x1                                 
ram:0003dc94    7749            ldr         r1,[DAT_0003de74]                       ;= E000E200h
ram:0003dc96    0005            lsls        r0,r0,#0x14                             
ram:0003dc98    0860            str         r0,[r1,#0x0]=>DAT_e000e200              
ram:0003dc9a    7047            bx          lr                                      
                            ;************************************************************************************************
                            ;*                                           FUNCTION                                           *
                            ;************************************************************************************************
                            ;undefined4 FUN_0003dc9c(int * param_1)
          ;param_1       int *               r0                      
                                                          ;XREF[1,0]:   0003da2e
ram:0003dc9c    10b5            push        {r4,lr}                                 
ram:0003dc9e    7349            ldr         r1,[DAT_0003de6c]                       ;= 20002C58h
ram:0003dca0    0023            movs        r3,#0x0                                 
ram:0003dca2    8a78            ldrb        r2,[r1,#0x2]=>DAT_20002c5a              
ram:0003dca4    cc78            ldrb        r4,[r1,#0x3]=>DAT_20002c5b              
ram:0003dca6    a242            cmp         r2,r4                                   
ram:0003dca8    12d0            beq         LAB_0003dcd0                            
ram:0003dcaa    521c            adds        r2,r2,#0x1                              
ram:0003dcac    d2b2            uxtb        r2,r2                                   
ram:0003dcae    8a70            strb        r2,[r1,#0x2]=>DAT_20002c5a              
ram:0003dcb0    022a            cmp         r2,#0x2                                 
ram:0003dcb2    00d1            bne         LAB_0003dcb6                            
ram:0003dcb4    8b70            strb        r3,[r1,#0x2]=>DAT_20002c5a              
                            LAB_0003dcb6:                 ;XREF[1,0]:   0003dcb2
ram:0003dcb6    8a78            ldrb        r2,[r1,#0x2]=>DAT_20002c5a              
ram:0003dcb8    6c4b            ldr         r3,[DAT_0003de6c]                       ;= 20002C58h
ram:0003dcba    9200            lsls        r2,r2,#0x2                              
ram:0003dcbc    1c33            adds        r3,#0x1c                                
ram:0003dcbe    9a58            ldr         r2,[r3,r2]=>DAT_20002c74                
ram:0003dcc0    0260            str         r2,[param_1,#0x0]                       
ram:0003dcc2    4869            ldr         param_1,[r1,#0x14]=>DAT_20002c6c        
ram:0003dcc4    1018            adds        param_1,r2,param_1                      
ram:0003dcc6    0002            lsls        param_1,param_1,#0x8                    
ram:0003dcc8    000a            lsrs        param_1,param_1,#0x8                    
ram:0003dcca    4861            str         param_1,[r1,#0x14]=>DAT_20002c6c        
ram:0003dccc    0120            movs        param_1,#0x1                            
ram:0003dcce    10bd            pop         {r4,pc}                                 
                            LAB_0003dcd0:                 ;XREF[1,0]:   0003dca8
ram:0003dcd0    0360            str         r3,[param_1,#0x0]                       
ram:0003dcd2    0020            movs        param_1,#0x0                            
ram:0003dcd4    10bd            pop         {r4,pc}                                 
                            ;************************************************************************************************
                            ;*                                           FUNCTION                                           *
                            ;************************************************************************************************
                            ;undefined4 FUN_0003dcd6(void)
          ;local_18      undefined4         -18                      ;XREF[2,0]:   0003dcdc,0003dd58
                                                          ;XREF[1,0]:   0003da34
ram:0003dcd6    f8b5            push        {r3,r4,r5,r6,r7,lr}                     
ram:0003dcd8    6448            ldr         r0,[DAT_0003de6c]                       ;= 20002C58h
ram:0003dcda    0169            ldr         r1,[r0,#0x10]=>DAT_20002c68             
ram:0003dcdc    0091            str         r1,[sp,#0x0]=>local_18                  
ram:0003dcde    4578            ldrb        r5,[r0,#0x1]=>DAT_20002c59              
ram:0003dce0    33e0            b           LAB_0003dd4a                            
                            LAB_0003dce2:                 ;XREF[1,0]:   0003dd52
ram:0003dce2    6248            ldr         r0,[DAT_0003de6c]                       ;= 20002C58h
ram:0003dce4    e900            lsls        r1,r5,#0x3                              
ram:0003dce6    c068            ldr         r0,[r0,#0xc]=>DAT_20002c64              
ram:0003dce8    0e18            adds        r6,r1,r0                                
ram:0003dcea    3478            ldrb        r4,[r6,#0x0]                            
ram:0003dcec    2ae0            b           LAB_0003dd44                            
                            LAB_0003dcee:                 ;XREF[1,0]:   0003dd48
ram:0003dcee    1820            movs        r0,#0x18                                
ram:0003dcf0    6043            muls        r0,r4                                   
ram:0003dcf2    7168            ldr         r1,[r6,#0x4]                            
ram:0003dcf4    641c            adds        r4,r4,#0x1                              
ram:0003dcf6    0818            adds        r0,r1,r0                                
ram:0003dcf8    b178            ldrb        r1,[r6,#0x2]                            
ram:0003dcfa    e4b2            uxtb        r4,r4                                   
ram:0003dcfc    a142            cmp         r1,r4                                   
ram:0003dcfe    00d1            bne         LAB_0003dd02                            
ram:0003dd00    0024            movs        r4,#0x0                                 
                            LAB_0003dd02:                 ;XREF[1,0]:   0003dcfe
ram:0003dd02    0168            ldr         r1,[r0,#0x0]                            
ram:0003dd04    0229            cmp         r1,#0x2                                 
ram:0003dd06    02d0            beq         LAB_0003dd0e                            
ram:0003dd08    0329            cmp         r1,#0x3                                 
ram:0003dd0a    1bd1            bne         LAB_0003dd44                            
ram:0003dd0c    13e0            b           LAB_0003dd36                            
                            LAB_0003dd0e:                 ;XREF[1,0]:   0003dd06
ram:0003dd0e    574a            ldr         r2,[DAT_0003de6c]                       ;= 20002C58h
ram:0003dd10    4068            ldr         r0,[r0,#0x4]                            
ram:0003dd12    2821            movs        r1,#0x28                                
ram:0003dd14    9268            ldr         r2,[r2,#0x8]=>DAT_20002c60              
ram:0003dd16    4143            muls        r1,r0                                   
ram:0003dd18    8f18            adds        r7,r1,r2                                
ram:0003dd1a    397e            ldrb        r1,[r7,#0x18]                           
ram:0003dd1c    0029            cmp         r1,#0x0                                 
ram:0003dd1e    11d0            beq         LAB_0003dd44                            
ram:0003dd20    fff78efd        bl          FUN_0003d840                            ;undefined FUN_0003d840(int param_1)
ram:0003dd24    0020            movs        r0,#0x0                                 
ram:0003dd26    3876            strb        r0,[r7,#0x18]                           
ram:0003dd28    0ce0            b           LAB_0003dd44                            
                            LAB_0003dd2a:                 ;XREF[1,0]:   0003dd40
ram:0003dd2a    2827            movs        r7,#0x28                                
ram:0003dd2c    7843            muls        r0,r7                                   
ram:0003dd2e    c018            adds        r0,r0,r3                                
ram:0003dd30    0276            strb        r2,[r0,#0x18]                           
ram:0003dd32    406a            ldr         r0,[r0,#0x24]                           
ram:0003dd34    03e0            b           LAB_0003dd3e                            
                            LAB_0003dd36:                 ;XREF[1,0]:   0003dd0c
ram:0003dd36    4d49            ldr         r1,[DAT_0003de6c]                       ;= 20002C58h
ram:0003dd38    0022            movs        r2,#0x0                                 
ram:0003dd3a    8b68            ldr         r3,[r1,#0x8]=>DAT_20002c60              
ram:0003dd3c    0869            ldr         r0,[r1,#0x10]=>DAT_20002c68             
                            LAB_0003dd3e:                 ;XREF[1,0]:   0003dd34
ram:0003dd3e    471c            adds        r7,r0,#0x1                              
ram:0003dd40    f3d1            bne         LAB_0003dd2a                            
ram:0003dd42    0861            str         r0,[r1,#0x10]=>DAT_20002c68             
                            LAB_0003dd44:                 ;XREF[4,0]:   0003dcec,0003dd0a,0003dd1e,0003dd28
ram:0003dd44    7078            ldrb        r0,[r6,#0x1]                            
ram:0003dd46    a042            cmp         r0,r4                                   
ram:0003dd48    d1d1            bne         LAB_0003dcee                            
                            LAB_0003dd4a:                 ;XREF[1,0]:   0003dce0
ram:0003dd4a    2846            mov         r0,r5                                   
ram:0003dd4c    6d1e            subs        r5,r5,#0x1                              
ram:0003dd4e    edb2            uxtb        r5,r5                                   
ram:0003dd50    0028            cmp         r0,#0x0                                 
ram:0003dd52    c6d1            bne         LAB_0003dce2                            
ram:0003dd54    4548            ldr         r0,[DAT_0003de6c]                       ;= 20002C58h
ram:0003dd56    0169            ldr         r1,[r0,#0x10]=>DAT_20002c68             
ram:0003dd58    0098            ldr         r0,[sp,#0x0]=>local_18                  
ram:0003dd5a    8142            cmp         r1,r0                                   
ram:0003dd5c    01d0            beq         LAB_0003dd62                            
ram:0003dd5e    0120            movs        r0,#0x1                                 
ram:0003dd60    f8bd            pop         {r3,r4,r5,r6,r7,pc}                     
                            LAB_0003dd62:                 ;XREF[1,0]:   0003dd5c
ram:0003dd62    0020            movs        r0,#0x0                                 
ram:0003dd64    f8bd            pop         {r3,r4,r5,r6,r7,pc}                     
                            ;************************************************************************************************
                            ;*                                           FUNCTION                                           *
                            ;************************************************************************************************
                            ;undefined FUN_0003dd66(uint param_1, int param_2, int * param_3)
          ;param_1       uint                r0                      
          ;param_2       int                 r1                      
          ;param_3       int *               r2                      
          ;local_1c      undefined4         -1c                      ;XREF[1,0]:   0003dd9a
                                                          ;XREF[1,0]:   0003da44
ram:0003dd66    f7b5            push        {param_1,param_2,param_3,r4,r5,r6,r7,lr}
ram:0003dd68    404c            ldr         r4,[DAT_0003de6c]                       ;= 20002C58h
ram:0003dd6a    0025            movs        r5,#0x0                                 
ram:0003dd6c    a768            ldr         r7,[r4,#0x8]=>DAT_20002c60              
ram:0003dd6e    2369            ldr         r3,[r4,#0x10]=>DAT_20002c68             
ram:0003dd70    1ee0            b           LAB_0003ddb0                            
                            LAB_0003dd72:                 ;XREF[1,0]:   0003ddb2
ram:0003dd72    2821            movs        param_2,#0x28                           
ram:0003dd74    5943            muls        param_2,r3                              
ram:0003dd76    c919            adds        param_2,param_2,r7                      
ram:0003dd78    8e68            ldr         r6,[param_2,#0x8]                       
ram:0003dd7a    8642            cmp         r6,param_1                              
ram:0003dd7c    02d9            bls         LAB_0003dd84                            
ram:0003dd7e    301a            subs        param_1,r6,param_1                      
ram:0003dd80    8860            str         param_1,[param_2,#0x8]                  
ram:0003dd82    17e0            b           LAB_0003ddb4                            
                            LAB_0003dd84:                 ;XREF[1,0]:   0003dd7c
ram:0003dd84    801b            subs        param_1,param_1,r6                      
ram:0003dd86    7519            adds        r5,r6,r5                                
ram:0003dd88    0026            movs        r6,#0x0                                 
ram:0003dd8a    8e60            str         r6,[param_2,#0x8]                       
ram:0003dd8c    0e76            strb        r6,[param_2,#0x18]                      
ram:0003dd8e    4e69            ldr         r6,[param_2,#0x14]                      
ram:0003dd90    9c46            mov         r12,r3                                  
ram:0003dd92    4b6a            ldr         r3,[param_2,#0x24]                      
ram:0003dd94    b646            mov         lr,r6                                   
ram:0003dd96    002e            cmp         r6,#0x0                                 
ram:0003dd98    0ad0            beq         LAB_0003ddb0                            
ram:0003dd9a    019e            ldr         r6,[sp,#local_1c+0x20]                  
ram:0003dd9c    7619            adds        r6,r6,r5                                
ram:0003dd9e    3602            lsls        r6,r6,#0x8                              
ram:0003dda0    360a            lsrs        r6,r6,#0x8                              
ram:0003dda2    ce60            str         r6,[param_2,#0xc]                       
ram:0003dda4    7646            mov         r6,lr                                   
ram:0003dda6    0e61            str         r6,[param_2,#0x10]                      
ram:0003dda8    1668            ldr         r6,[param_3,#0x0]                       
ram:0003ddaa    4e62            str         r6,[param_2,#0x24]                      
ram:0003ddac    6146            mov         param_2,r12                             
ram:0003ddae    1160            str         param_2,[param_3,#0x0]                  
                            LAB_0003ddb0:                 ;XREF[2,0]:   0003dd70,0003dd98
ram:0003ddb0    591c            adds        param_2,r3,#0x1                         
ram:0003ddb2    ded1            bne         LAB_0003dd72                            
                            LAB_0003ddb4:                 ;XREF[1,0]:   0003dd82
ram:0003ddb4    2361            str         r3,[r4,#0x10]=>DAT_20002c68             
ram:0003ddb6    febd            pop         {param_2,param_3,r3,r4,r5,r6,r7,pc}     
                            ;************************************************************************************************
                            ;*                                           FUNCTION                                           *
                            ;************************************************************************************************
                            ;undefined FUN_0003ddb8(void)
                                                          ;XREF[1,0]:   0003da60
ram:0003ddb8    f8b5            push        {r3,r4,r5,r6,r7,lr}                     
ram:0003ddba    2c48            ldr         r0=>DAT_20002c58,[DAT_0003de6c]         ;= 20002C58h
ram:0003ddbc    0169            ldr         r1,[r0,#0x10]=>DAT_20002c68             
ram:0003ddbe    4a1c            adds        r2,r1,#0x1                              
ram:0003ddc0    3dd0            beq         LAB_0003de3e                            
ram:0003ddc2    2822            movs        r2,#0x28                                
ram:0003ddc4    5143            muls        r1,r2                                   
ram:0003ddc6    8268            ldr         r2,[r0,#0x8]=>DAT_20002c60              
ram:0003ddc8    8918            adds        r1,r1,r2                                
ram:0003ddca    8e68            ldr         r6,[r1,#0x8]                            
ram:0003ddcc    2849            ldr         r1,[DAT_0003de70]                       ;= 40011500h
ram:0003ddce    4c68            ldr         r4,[r1,#offset DAT_40011504 &0xff]      
ram:0003ddd0    4769            ldr         r7,[r0,#0x14]=>DAT_20002c6c             
ram:0003ddd2    0079            ldrb        r0,[r0,#0x4]=>DAT_20002c5c              
ram:0003ddd4    e11b            subs        r1,r4,r7                                
ram:0003ddd6    0d02            lsls        r5,r1,#0x8                              
ram:0003ddd8    2d0a            lsrs        r5,r5,#0x8                              
ram:0003ddda    ed1c            adds        r5,r5,#0x3                              
ram:0003dddc    0028            cmp         r0,#0x0                                 
ram:0003ddde    15d1            bne         LAB_0003de0c                            
ram:0003dde0    0120            movs        r0,#0x1                                 
ram:0003dde2    254a            ldr         r2,[DAT_0003de78]                       ;= 40011340h
ram:0003dde4    0004            lsls        r0,r0,#0x10                             
ram:0003dde6    5060            str         r0,[r2,#0x4]=>DAT_40011344              
ram:0003dde8    234a            ldr         r2,[DAT_0003de78]                       ;= 40011340h
ram:0003ddea    403a            subs        r2,#0x40                                
ram:0003ddec    5060            str         r0,[r2,#offset DAT_40011304 &0xff]      
ram:0003ddee    2149            ldr         r1,[DAT_0003de74]                       ;= E000E200h
ram:0003ddf0    4000            lsls        r0,r0,#0x1                              
ram:0003ddf2    8031            adds        r1,#0x80                                
ram:0003ddf4    0860            str         r0,[r1,#0x0]=>DAT_e000e280              
ram:0003ddf6    2149            ldr         r1,[DAT_0003de7c]                       ;= E000E100h
ram:0003ddf8    0860            str         r0,[r1,#0x0]=>DAT_e000e100              
ram:0003ddfa    2149            ldr         r1=>DAT_40011000,[DAT_0003de80]         ;= 40011000h
ram:0003ddfc    0120            movs        r0,#0x1                                 
ram:0003ddfe    0860            str         r0,[r1,#0x0]=>DAT_40011000              
ram:0003de00    2f20            movs        r0,#0x2f                                
ram:0003de02    fef789f9        bl          FUN_0003c118                            ;undefined FUN_0003c118(int param_1)
ram:0003de06    1949            ldr         r1,[DAT_0003de6c]                       ;= 20002C58h
ram:0003de08    0120            movs        r0,#0x1                                 
ram:0003de0a    0871            strb        r0,[r1,#0x4]=>DAT_20002c5c              
                            LAB_0003de0c:                 ;XREF[1,0]:   0003ddde
ram:0003de0c    b542            cmp         r5,r6                                   
ram:0003de0e    00d2            bcs         LAB_0003de12                            
ram:0003de10    3546            mov         r5,r6                                   
                            LAB_0003de12:                 ;XREF[1,0]:   0003de0e
ram:0003de12    e819            adds        r0,r5,r7                                
ram:0003de14    0002            lsls        r0,r0,#0x8                              
ram:0003de16    1649            ldr         r1,[DAT_0003de70]                       ;= 40011500h
ram:0003de18    000a            lsrs        r0,r0,#0x8                              
ram:0003de1a    4031            adds        r1,#0x40                                
ram:0003de1c    0860            str         r0,[r1,#0x0]=>DAT_40011540              
ram:0003de1e    1449            ldr         r1,[DAT_0003de70]                       ;= 40011500h
ram:0003de20    4968            ldr         r1,[r1,#offset DAT_40011504 &0xff]      
ram:0003de22    001b            subs        r0,r0,r4                                
ram:0003de24    091b            subs        r1,r1,r4                                
ram:0003de26    0902            lsls        r1,r1,#0x8                              
ram:0003de28    090a            lsrs        r1,r1,#0x8                              
ram:0003de2a    0002            lsls        r0,r0,#0x8                              
ram:0003de2c    c91c            adds        r1,r1,#0x3                              
ram:0003de2e    000a            lsrs        r0,r0,#0x8                              
ram:0003de30    8142            cmp         r1,r0                                   
ram:0003de32    03d9            bls         LAB_0003de3c                            
ram:0003de34    0120            movs        r0,#0x1                                 
ram:0003de36    0f49            ldr         r1,[DAT_0003de74]                       ;= E000E200h
ram:0003de38    4004            lsls        r0,r0,#0x11                             
ram:0003de3a    0860            str         r0,[r1,#0x0]=>DAT_e000e200              
                            LAB_0003de3c:                 ;XREF[1,0]:   0003de32
ram:0003de3c    f8bd            pop         {r3,r4,r5,r6,r7,pc}                     
                            LAB_0003de3e:                 ;XREF[1,0]:   0003ddc0
ram:0003de3e    fff7b7fc        bl          FUN_0003d7b0                            ;undefined FUN_0003d7b0(void)
ram:0003de42    f8bd            pop         {r3,r4,r5,r6,r7,pc}                     
                            ;************************************************************************************************
                            ;*                                           FUNCTION                                           *
                            ;************************************************************************************************
                            ;int FUN_0003de44(byte * param_1, uint * param_2)
          ;param_1       byte *              r0                      
          ;param_2       uint *              r1                      
                                                          ;XREF[2,0]:   0003dc10,0003dc72
ram:0003de44    4278            ldrb        r2,[param_1,#0x1]                       
ram:0003de46    8378            ldrb        r3,[param_1,#0x2]                       
ram:0003de48    521c            adds        r2,r2,#0x1                              
ram:0003de4a    9342            cmp         r3,r2                                   
ram:0003de4c    00d1            bne         LAB_0003de50                            
ram:0003de4e    0022            movs        r2,#0x0                                 
                            LAB_0003de50:                 ;XREF[1,0]:   0003de4c
ram:0003de50    0378            ldrb        r3,[param_1,#0x0]                       
ram:0003de52    9342            cmp         r3,r2                                   
ram:0003de54    01d1            bne         LAB_0003de5a                            
ram:0003de56    0020            movs        param_1,#0x0                            
ram:0003de58    7047            bx          lr                                      
                            LAB_0003de5a:                 ;XREF[1,0]:   0003de54
ram:0003de5a    0a60            str         r2,[param_2,#0x0]                       
ram:0003de5c    4168            ldr         param_2,[param_1,#0x4]                  
ram:0003de5e    4078            ldrb        param_1,[param_1,#0x1]                  
ram:0003de60    1822            movs        r2,#0x18                                
ram:0003de62    5043            muls        param_1,r2                              
ram:0003de64    0818            adds        param_1,param_2,param_1                 
ram:0003de66    7047            bx          lr                                      
                            DAT_0003de68:                 ;XREF[1,0]:   0003dba2
ram:0003de68    00e400e0        undefined4  E000E400h                               
                            DAT_0003de6c:                 ;XREF[14,0]:  0003dbcc,0003dc06,0003dc26,0003dc44
                                                          ;             0003dc9e,0003dcb8,0003dcd8,0003dce2
                                                          ;             0003dd0e,0003dd36,0003dd54,0003dd68
                                                          ;             0003ddba,0003de06
ram:0003de6c    582c0020        undefined4  20002C58h                               
                            DAT_0003de70:                 ;XREF[4,0]:   0003dc1e,0003ddcc,0003de16,0003de1e
ram:0003de70    00150140        undefined4  40011500h                               
                            DAT_0003de74:                 ;XREF[3,0]:   0003dc94,0003ddee,0003de36
ram:0003de74    00e200e0        undefined4  E000E200h                               
                            DAT_0003de78:                 ;XREF[2,0]:   0003dde2,0003dde8
ram:0003de78    40130140        undefined4  40011340h                               
                            DAT_0003de7c:                 ;XREF[1,0]:   0003ddf6
ram:0003de7c    00e100e0        undefined4  E000E100h                               
                            DAT_0003de80:                 ;XREF[1,0]:   0003ddfa
ram:0003de80    00100140        undefined4  40011000h                               
                            ;************************************************************************************************
                            ;*                                           FUNCTION                                           *
                            ;************************************************************************************************
                            ;undefined FUN_0003de84(undefined * * param_1, int param_2)
          ;param_1       undefined * *       r0                      
          ;param_2       int                 r1                      
ram:0003de84    10b5            push        {r4,lr}                                 
ram:0003de86    0446            mov         r4,param_1                              
ram:0003de88    0829            cmp         param_2,#0x8                            
ram:0003de8a    04d0            beq         LAB_0003de96                            
ram:0003de8c    0022            movs        r2,#0x0                                 
ram:0003de8e    1146            mov         param_2,r2                              
ram:0003de90    1046            mov         param_1,r2                              
ram:0003de92    fff7a3fb        bl          FUN_0003d5dc                            ;undefined FUN_0003d5dc(void)
                            LAB_0003de96:                 ;XREF[1,0]:   0003de8a
ram:0003de96    2168            ldr         param_2,[r4,#0x0]                       
ram:0003de98    6068            ldr         param_1,[r4,#0x4]                       
ram:0003de9a    8847            blx         param_2                                 
ram:0003de9c    10bd            pop         {r4,pc}                                 
                            ;************************************************************************************************
                            ;*                                           FUNCTION                                           *
                            ;************************************************************************************************
                            ;undefined FUN_0003de9e(undefined4 param_1, undefined4 param_2)
          ;param_1       undefined4          r0                      
          ;param_2       undefined4          r1                      
          ;local_c       undefined4          -c                      ;XREF[1,0]:   0003dea0
          ;local_10      undefined4         -10                      ;XREF[1,0]:   0003dea2
ram:0003de9e    1cb5            push        {r2,r3,r4,lr}                           
ram:0003dea0    0191            str         param_2,[sp,#local_c+0x10]              
ram:0003dea2    0090            str         param_1,[sp,#0x0]=>local_10             
ram:0003dea4    024a            ldr         r2,[DAT_0003deb0]                       ;= 0003DE85h
ram:0003dea6    0821            movs        param_2,#0x8                            
ram:0003dea8    6846            mov         param_1,sp                              
ram:0003deaa    fff7b7fb        bl          FUN_0003d61c                            ;undefined4 FUN_0003d61c(undefined4 *...
ram:0003deae    1cbd            pop         {r2,r3,r4,pc}                           
                            DAT_0003deb0:                 ;XREF[1,0]:   0003dea4
ram:0003deb0    85de0300        undefined4  0003DE85h                               ;?  ->  0003de85
                            ;************************************************************************************************
                            ;*                                           FUNCTION                                           *
                            ;************************************************************************************************
                            ;undefined FUN_0003deb4(undefined4 param_1, int param_2, int param_3)
          ;param_1       undefined4          r0                      
          ;param_2       int                 r1                      
          ;param_3       int                 r2                      
ram:0003deb4    10b5            push        {r4,lr}                                 
ram:0003deb6    b948            ldr         param_1,[DAT_0003e19c]                  ;= 20002C7Ch
ram:0003deb8    0368            ldr         r3,[param_1,#0x0]=>DAT_20002c7c         
ram:0003deba    012b            cmp         r3,#0x1                                 
ram:0003debc    02d1            bne         LAB_0003dec4                            
ram:0003debe    0229            cmp         param_2,#0x2                            
ram:0003dec0    00d1            bne         LAB_0003dec4                            
ram:0003dec2    0160            str         param_2,[param_1,#0x0]=>DAT_20002c7c    
                            LAB_0003dec4:                 ;XREF[2,0]:   0003debc,0003dec0
ram:0003dec4    1000            movs        param_1,param_3                         
ram:0003dec6    03d0            beq         LAB_0003ded0                            
ram:0003dec8    0022            movs        param_3,#0x0                            
ram:0003deca    1146            mov         param_2,param_3                         
ram:0003decc    fff786fb        bl          FUN_0003d5dc                            ;undefined FUN_0003d5dc(void)
                            LAB_0003ded0:                 ;XREF[1,0]:   0003dec6
ram:0003ded0    10bd            pop         {r4,pc}                                 
                            ;************************************************************************************************
                            ;*                                           FUNCTION                                           *
                            ;************************************************************************************************
                            ;undefined FUN_0003ded2(int param_1, undefined4 param_2, uint param_3, undefined * param_4)
          ;param_1       int                 r0                      
          ;param_2       undefined4          r1                      
          ;param_3       uint                r2                      
          ;param_4       undefined *         r3                      
                                                          ;XREF[2,0]:   0003e080,0003e162
ram:0003ded2    10b5            push        {r4,lr}                                 
ram:0003ded4    b14c            ldr         r4,[DAT_0003e19c]                       ;= 20002C7Ch
                            LAB_0003ded6:                 ;XREF[1,0]:   0003def4
ram:0003ded6    48df            svc         0x48                                    
ram:0003ded8    0028            cmp         param_1,#0x0                            
ram:0003deda    03d0            beq         LAB_0003dee4                            
ram:0003dedc    0022            movs        param_3,#0x0                            
ram:0003dede    1146            mov         param_2,param_3                         
ram:0003dee0    fff77cfb        bl          FUN_0003d5dc                            ;undefined FUN_0003d5dc(void)
                            LAB_0003dee4:                 ;XREF[1,0]:   0003deda
ram:0003dee4    fff710fc        bl          FUN_0003d708                            ;undefined FUN_0003d708(undefined4 pa...
ram:0003dee8    2068            ldr         param_1,[r4,#0x0]=>DAT_20002c7c         
ram:0003deea    0228            cmp         param_1,#0x2                            
ram:0003deec    03d0            beq         LAB_0003def6                            
ram:0003deee    0328            cmp         param_1,#0x3                            
ram:0003def0    01d0            beq         LAB_0003def6                            
ram:0003def2    0428            cmp         param_1,#0x4                            
ram:0003def4    efd1            bne         LAB_0003ded6                            
                            LAB_0003def6:                 ;XREF[2,0]:   0003deec,0003def0
ram:0003def6    10bd            pop         {r4,pc}                                 
                            ;************************************************************************************************
                            ;*                                           FUNCTION                                           *
                            ;************************************************************************************************
                            ;int FUN_0003def8(int * param_1, undefined4 param_2, undefined4 param_3, int * param_4)
          ;param_1       int *               r0                      
          ;param_2       undefined4          r1                      
          ;param_3       undefined4          r2                      
          ;param_4       int *               r3                      
          ;local_10      undefined4         -10                      ;XREF[2,0]:   0003df08,0003df24
                                                          ;XREF[2,0]:   0003c38c,0003c3ca
ram:0003def8    38b5            push        {param_4,r4,r5,lr}                      
ram:0003defa    0068            ldr         param_1,[param_1,#0x0]                  
ram:0003defc    401c            adds        param_1,param_1,#0x1                    
ram:0003defe    19d0            beq         LAB_0003df34                            
ram:0003df00    0024            movs        r4,#0x0                                 
ram:0003df02    6846            mov         param_1,sp                              
ram:0003df04    00f052f9        bl          FUN_0003e1ac                            ;undefined FUN_0003e1ac(undefined4 * ...
ram:0003df08    0098            ldr         param_1,[sp,#0x0]=>local_10             
ram:0003df0a    0168            ldr         param_2,[param_1,#0x0]                  
ram:0003df0c    0129            cmp         param_2,#0x1                            
ram:0003df0e    10d1            bne         LAB_0003df32                            
ram:0003df10    8188            ldrh        param_2,[param_1,#0x4]                  
ram:0003df12    0029            cmp         param_2,#0x0                            
ram:0003df14    0ad0            beq         LAB_0003df2c                            
ram:0003df16    c168            ldr         param_2,[param_1,#0xc]                  
ram:0003df18    0320            movs        param_1,#0x3                            
ram:0003df1a    0003            lsls        param_1,param_1,#0xc                    
ram:0003df1c    8068            ldr         param_1,[param_1,#offset DAT_00003008...
ram:0003df1e    0022            movs        param_3,#0x0                            
ram:0003df20    00f04ef9        bl          FUN_0003e1c0                            ;uint FUN_0003e1c0(int param_1, uint ...
ram:0003df24    0099            ldr         param_2,[sp,#0x0]=>local_10             
ram:0003df26    8988            ldrh        param_2,[param_2,#0x4]                  
ram:0003df28    8142            cmp         param_2,param_1                         
ram:0003df2a    01d1            bne         LAB_0003df30                            
                            LAB_0003df2c:                 ;XREF[1,0]:   0003df14
ram:0003df2c    0124            movs        r4,#0x1                                 
ram:0003df2e    00e0            b           LAB_0003df32                            
                            LAB_0003df30:                 ;XREF[1,0]:   0003df2a
ram:0003df30    0024            movs        r4,#0x0                                 
                            LAB_0003df32:                 ;XREF[2,0]:   0003df0e,0003df2e
ram:0003df32    2046            mov         param_1,r4                              
                            LAB_0003df34:                 ;XREF[1,0]:   0003defe
ram:0003df34    38bd            pop         {param_4,r4,r5,pc}                      
                            ;************************************************************************************************
                            ;*                                           FUNCTION                                           *
                            ;************************************************************************************************
                            ;undefined FUN_0003df36(uint param_1)
          ;param_1       uint                r0                      
                                                          ;XREF[1,0]:   0003dfe2
ram:0003df36    10b5            push        {r4,lr}                                 
ram:0003df38    0446            mov         r4,param_1                              
ram:0003df3a    9848            ldr         param_1,[DAT_0003e19c]                  ;= 20002C7Ch
ram:0003df3c    2021            movs        r1,#0x20                                
ram:0003df3e    001d            adds        param_1,param_1,#0x4                    
ram:0003df40    fff729fb        bl          FUN_0003d596                            ;undefined FUN_0003d596(undefined4 * ...
ram:0003df44    0028            cmp         param_1,#0x0                            
ram:0003df46    03d0            beq         LAB_0003df50                            
ram:0003df48    0022            movs        r2,#0x0                                 
ram:0003df4a    1146            mov         r1,r2                                   
ram:0003df4c    fff746fb        bl          FUN_0003d5dc                            ;undefined FUN_0003d5dc(void)
                            LAB_0003df50:                 ;XREF[1,0]:   0003df46
ram:0003df50    9248            ldr         param_1,[DAT_0003e19c]                  ;= 20002C7Ch
ram:0003df52    0023            movs        r3,#0x0                                 
ram:0003df54    2022            movs        r2,#0x20                                
ram:0003df56    2146            mov         r1,r4                                   
ram:0003df58    001d            adds        param_1,param_1,#0x4                    
ram:0003df5a    fff703fb        bl          FUN_0003d564                            ;int FUN_0003d564(undefined4 * param_...
ram:0003df5e    0028            cmp         param_1,#0x0                            
ram:0003df60    03d0            beq         LAB_0003df6a                            
ram:0003df62    0022            movs        r2,#0x0                                 
ram:0003df64    1146            mov         r1,r2                                   
ram:0003df66    fff739fb        bl          FUN_0003d5dc                            ;undefined FUN_0003d5dc(void)
                            LAB_0003df6a:                 ;XREF[1,0]:   0003df60
ram:0003df6a    10bd            pop         {r4,pc}                                 
                            ;************************************************************************************************
                            ;*                                           FUNCTION                                           *
                            ;************************************************************************************************
                            ;undefined FUN_0003df6c(int param_1, undefined2 param_2, int param_3, int * param_4, int param_5, int param_6)
          ;param_1       int                 r0                      
          ;param_2       undefined2          r1                      
          ;param_3       int                 r2                      
          ;param_4       int *               r3                      
          ;param_5       int                  0                      ;XREF[3,0]:   0003dfb2,0003dfc4,0003e002
          ;param_6       int                  4                      ;XREF[1,0]:   0003dfda
          ;local_4       undefined4          -4                      ;XREF[3,0]:   0003dfbe,0003dfd4,0003dffe
          ;local_8       undefined4          -8                      ;XREF[3,0]:   0003dfc0,0003dfd0,0003dffa
          ;local_c       undefined2          -c                      ;XREF[1,0]:   0003df78
          ;local_10      undefined4         -10                      ;XREF[1,0]:   0003df7a
          ;local_28      undefined4         -28                      ;XREF[3,0]:   0003dfe8,0003e006,0003e044
                                                          ;XREF[8,0]:   0003e15e,0003e394,0003e43c,0003e474
                                                          ;             0003e4d2,0003e504,0003e7b2,0003ef82
ram:0003df6c    0fb4            push        {param_1,param_2,param_3,param_4}       
ram:0003df6e    f8b5            push        {param_4,r4,r5,r6,r7,lr}                
ram:0003df70    6846            mov         param_1,sp                              
ram:0003df72    00f01bf9        bl          FUN_0003e1ac                            ;undefined FUN_0003e1ac(undefined4 * ...
ram:0003df76    6846            mov         param_1,sp                              
ram:0003df78    818b            ldrh        param_2,[r0,#local_c+0x28]              
ram:0003df7a    069d            ldr         r5,[sp,#local_10+0x28]                  
ram:0003df7c    0122            movs        param_3,#0x1                            
ram:0003df7e    874c            ldr         r4,[DAT_0003e19c]                       ;= 20002C7Ch
ram:0003df80    ff23            movs        param_4,#0xff                           
ram:0003df82    8748            ldr         param_1=>DAT_200031f8,[DAT_0003e1a0]    ;= 200031F8h
ram:0003df84    002d            cmp         r5,#0x0                                 
ram:0003df86    13d0            beq         LAB_0003dfb0                            
ram:0003df88    012d            cmp         r5,#0x1                                 
ram:0003df8a    17d0            beq         LAB_0003dfbc                            
ram:0003df8c    032d            cmp         r5,#0x3                                 
ram:0003df8e    2bd0            beq         LAB_0003dfe8                            
ram:0003df90    0021            movs        param_2,#0x0                            
ram:0003df92    022d            cmp         r5,#0x2                                 
ram:0003df94    37d0            beq         LAB_0003e006                            
ram:0003df96    2a46            mov         param_3,r5                              
ram:0003df98    052d            cmp         r5,#0x5                                 
ram:0003df9a    46d0            beq         LAB_0003e02a                            
ram:0003df9c    042d            cmp         r5,#0x4                                 
ram:0003df9e    4ed0            beq         LAB_0003e03e                            
ram:0003dfa0    062a            cmp         param_3,#0x6                            
ram:0003dfa2    01d1            bne         LAB_0003dfa8                            
ram:0003dfa4    0420            movs        param_1,#0x4                            
                            LAB_0003dfa6:                 ;XREF[1,0]:   0003e03c
ram:0003dfa6    2060            str         param_1,[r4,#0x0]=>DAT_20002c7c         
                            LAB_0003dfa8:                 ;XREF[2,0]:   0003dfa2,0003dfe6
ram:0003dfa8    f8bc            pop         {param_4,r4,r5,r6,r7}                   
ram:0003dfaa    08bc            pop         {param_4}                               
ram:0003dfac    04b0            add         sp,#0x10                                
ram:0003dfae    1847            bx          param_4                                 
                            LAB_0003dfb0:                 ;XREF[1,0]:   0003df86
ram:0003dfb0    8180            strh        param_2,[param_1,#0x4]=>DAT_200031fc    
ram:0003dfb2    0a99            ldr         param_2,[sp,#param_5+0x28]              
ram:0003dfb4    8360            str         param_4,[param_1,#0x8]=>DAT_20003200    
ram:0003dfb6    0260            str         param_3,[param_1,#0x0]=>DAT_200031f8    
ram:0003dfb8    c160            str         param_2,[param_1,#0xc]=>DAT_20003204    
ram:0003dfba    10e0            b           LAB_0003dfde                            
                            LAB_0003dfbc:                 ;XREF[1,0]:   0003df8a
ram:0003dfbc    8180            strh        param_2,[param_1,#0x4]=>DAT_200031fc    
ram:0003dfbe    099d            ldr         r5,[sp,#local_4+0x28]                   
ram:0003dfc0    0899            ldr         param_2,[sp,#local_8+0x28]              
ram:0003dfc2    4919            adds        param_2,param_2,r5                      
ram:0003dfc4    0a9d            ldr         r5,[sp,#param_5+0x28]                   
ram:0003dfc6    4919            adds        param_2,param_2,r5                      
ram:0003dfc8    c160            str         param_2,[param_1,#0xc]=>DAT_20003204    
ram:0003dfca    a521            movs        param_2,#0xa5                           
ram:0003dfcc    8360            str         param_4,[param_1,#0x8]=>DAT_20003200    
ram:0003dfce    0160            str         param_2,[param_1,#0x0]=>DAT_200031f8    
ram:0003dfd0    0899            ldr         param_2,[sp,#local_8+0x28]              
ram:0003dfd2    0161            str         param_2,[param_1,#0x10]=>DAT_20003208   
ram:0003dfd4    0999            ldr         param_2,[sp,#local_4+0x28]              
ram:0003dfd6    8561            str         r5,[param_1,#0x18]=>DAT_20003210        
ram:0003dfd8    4161            str         param_2,[param_1,#0x14]=>DAT_2000320c   
ram:0003dfda    0b99            ldr         param_2,[sp,#param_6+0x28]              
ram:0003dfdc    c161            str         param_2,[param_1,#0x1c]=>DAT_20003214   
                            LAB_0003dfde:                 ;XREF[2,0]:   0003dfba,0003e020
ram:0003dfde    2260            str         param_3,[r4,#0x0]=>DAT_20002c7c         
                            LAB_0003dfe0:                 ;XREF[1,0]:   0003e04a
ram:0003dfe0    6f48            ldr         param_1=>DAT_200031f8,[DAT_0003e1a0]    ;= 200031F8h
ram:0003dfe2    fff7a8ff        bl          FUN_0003df36                            ;undefined FUN_0003df36(uint param_1)
ram:0003dfe6    dfe7            b           LAB_0003dfa8                            
                            LAB_0003dfe8:                 ;XREF[1,0]:   0003df8e
ram:0003dfe8    0099            ldr         param_2,[sp,#0x0]=>local_28             
ram:0003dfea    0b68            ldr         param_4,[param_2,#0x0]                  
ram:0003dfec    0360            str         param_4,[param_1,#0x0]=>DAT_200031f8    
ram:0003dfee    8b88            ldrh        param_4,[param_2,#0x4]                  
ram:0003dff0    8380            strh        param_4,[param_1,#0x4]=>DAT_200031fc    
ram:0003dff2    c968            ldr         param_2,[param_2,#0xc]                  
ram:0003dff4    c160            str         param_2,[param_1,#0xc]=>DAT_20003204    
ram:0003dff6    aa21            movs        param_2,#0xaa                           
ram:0003dff8    8160            str         param_2,[param_1,#0x8]=>DAT_20003200    
ram:0003dffa    0899            ldr         param_2,[sp,#local_8+0x28]              
ram:0003dffc    0161            str         param_2,[param_1,#0x10]=>DAT_20003208   
ram:0003dffe    0999            ldr         param_2,[sp,#local_4+0x28]              
ram:0003e000    4161            str         param_2,[param_1,#0x14]=>DAT_2000320c   
ram:0003e002    0a99            ldr         param_2,[sp,#param_5+0x28]              
ram:0003e004    0be0            b           LAB_0003e01e                            
                            LAB_0003e006:                 ;XREF[1,0]:   0003df94
ram:0003e006    009d            ldr         r5,[sp,#0x0]=>local_28                  
ram:0003e008    2e68            ldr         r6,[r5,#0x0]                            
ram:0003e00a    a52e            cmp         r6,#0xa5                                
ram:0003e00c    09d0            beq         LAB_0003e022                            
ram:0003e00e    0660            str         r6,[param_1,#0x0]=>DAT_200031f8         
ram:0003e010    ae88            ldrh        r6,[r5,#0x4]                            
ram:0003e012    8680            strh        r6,[param_1,#0x4]=>DAT_200031fc         
ram:0003e014    ed68            ldr         r5,[r5,#0xc]                            
ram:0003e016    c560            str         r5,[param_1,#0xc]=>DAT_20003204         
                            LAB_0003e018:                 ;XREF[1,0]:   0003e028
ram:0003e018    0161            str         param_2,[param_1,#0x10]=>DAT_20003208   
ram:0003e01a    8360            str         param_4,[param_1,#0x8]=>DAT_20003200    
ram:0003e01c    4161            str         param_2,[param_1,#0x14]=>DAT_2000320c   
                            LAB_0003e01e:                 ;XREF[1,0]:   0003e004
ram:0003e01e    8161            str         param_2,[param_1,#0x18]=>DAT_20003210   
ram:0003e020    dde7            b           LAB_0003dfde                            
                            LAB_0003e022:                 ;XREF[1,0]:   0003e00c
ram:0003e022    8180            strh        param_2,[param_1,#0x4]=>DAT_200031fc    
ram:0003e024    0360            str         param_4,[param_1,#0x0]=>DAT_200031f8    
ram:0003e026    c160            str         param_2,[param_1,#0xc]=>DAT_20003204    
ram:0003e028    f6e7            b           LAB_0003e018                            
                            LAB_0003e02a:                 ;XREF[1,0]:   0003df9a
ram:0003e02a    00f0b9fd        bl          FUN_0003eba0                            ;undefined4 FUN_0003eba0(undefined4 p...
ram:0003e02e    0028            cmp         param_1,#0x0                            
ram:0003e030    03d0            beq         LAB_0003e03a                            
ram:0003e032    0022            movs        param_3,#0x0                            
ram:0003e034    1146            mov         param_2,param_3                         
ram:0003e036    fff7d1fa        bl          FUN_0003d5dc                            ;undefined FUN_0003d5dc(void)
                            LAB_0003e03a:                 ;XREF[1,0]:   0003e030
ram:0003e03a    0320            movs        param_1,#0x3                            
ram:0003e03c    b3e7            b           LAB_0003dfa6                            
                            LAB_0003e03e:                 ;XREF[1,0]:   0003df9e
ram:0003e03e    8180            strh        param_2,[param_1,#0x4]=>DAT_200031fc    
ram:0003e040    0360            str         param_4,[param_1,#0x0]=>DAT_200031f8    
ram:0003e042    c160            str         param_2,[param_1,#0xc]=>DAT_20003204    
ram:0003e044    0099            ldr         param_2,[sp,#0x0]=>local_28             
ram:0003e046    8968            ldr         param_2,[param_2,#0x8]                  
ram:0003e048    8160            str         param_2,[param_1,#0x8]=>DAT_20003200    
ram:0003e04a    c9e7            b           LAB_0003dfe0                            
                            ;************************************************************************************************
                            ;*                                           FUNCTION                                           *
                            ;************************************************************************************************
                            ;undefined FUN_0003e04c(void)
          ;local_10      undefined4         -10                      ;XREF[1,0]:   0003e054
                                                          ;XREF[1,0]:   0003c30e
ram:0003e04c    0eb5            push        {r1,r2,r3,lr}                           
ram:0003e04e    554a            ldr         r2,[PTR_DAT_0003e1a4]                   ;= 0003f5a4
ram:0003e050    6b46            mov         r3,sp                                   
                                                          ; FWD[3,0]:   0003f5a4,0003f5a8,0003f5ac
ram:0003e052    07ca            ldmia       r2,{r0,r1,r2}=>DAT_0003f5a4             ;= 0003DEB5h
ram:0003e054    07c3            stmia       r3!=>local_10,{r0,r1,r2}                
ram:0003e056    fff759fa        bl          FUN_0003d50c                            ;undefined4 FUN_0003d50c(void)
ram:0003e05a    0028            cmp         r0,#0x0                                 
ram:0003e05c    07d1            bne         LAB_0003e06e                            
ram:0003e05e    4f49            ldr         r1,[DAT_0003e19c]                       ;= 20002C7Ch
ram:0003e060    ff20            movs        r0,#0xff                                
ram:0003e062    8002            lsls        r0,r0,#0xa                              
ram:0003e064    091d            adds        r1,r1,#0x4                              
ram:0003e066    4860            str         r0,[r1,#0x4]=>DAT_20002c84              
ram:0003e068    6846            mov         r0,sp                                   
ram:0003e06a    fff76afa        bl          FUN_0003d542                            ;undefined4 FUN_0003d542(int * param_...
                            LAB_0003e06e:                 ;XREF[1,0]:   0003e05c
ram:0003e06e    0ebd            pop         {r1,r2,r3,pc}                           
                            ;************************************************************************************************
                            ;*                                           FUNCTION                                           *
                            ;************************************************************************************************
                            ;int FUN_0003e070(undefined4 param_1, undefined4 param_2, uint param_3, undefined * param_4)
          ;param_1       undefined4          r0                      
          ;param_2       undefined4          r1                      
          ;param_3       uint                r2                      
          ;param_4       undefined *         r3                      
                                                          ;XREF[1,0]:   0003c3a6
ram:0003e070    10b5            push        {r4,lr}                                 
ram:0003e072    00f04bfa        bl          FUN_0003e50c                            ;longlong FUN_0003e50c(void)
ram:0003e076    0028            cmp         param_1,#0x0                            
ram:0003e078    05d1            bne         LAB_0003e086                            
ram:0003e07a    00f0bcff        bl          FUN_0003eff6                            ;int FUN_0003eff6(void)
ram:0003e07e    0446            mov         r4,param_1                              
ram:0003e080    fff727ff        bl          FUN_0003ded2                            ;undefined FUN_0003ded2(int param_1, ...
ram:0003e084    2046            mov         param_1,r4                              
                            LAB_0003e086:                 ;XREF[1,0]:   0003e078
ram:0003e086    10bd            pop         {r4,pc}                                 
                            ;************************************************************************************************
                            ;*                                           FUNCTION                                           *
                            ;************************************************************************************************
                            ;undefined FUN_0003e088(int param_1)
          ;param_1       int                 r0                      
                                                          ;XREF[1,0]:   0003c3ec
ram:0003e088    70b5            push        {r4,r5,r6,lr}                           
ram:0003e08a    11df            svc         0x11                                    
ram:0003e08c    0028            cmp         param_1,#0x0                            
ram:0003e08e    03d0            beq         LAB_0003e098                            
ram:0003e090    0022            movs        r2,#0x0                                 
ram:0003e092    1146            mov         r1,r2                                   
ram:0003e094    fff7a2fa        bl          FUN_0003d5dc                            ;undefined FUN_0003d5dc(void)
                            LAB_0003e098:                 ;XREF[1,0]:   0003e08e
ram:0003e098    4349            ldr         r1,[DAT_0003e1a8]                       ;= E000E100h
ram:0003e09a    0020            movs        param_1,#0x0                            
ram:0003e09c    0b68            ldr         r3,[r1,#0x0]=>DAT_e000e100              
ram:0003e09e    424c            ldr         r4,[DAT_0003e1a8]                       ;= E000E100h
ram:0003e0a0    0121            movs        r1,#0x1                                 
ram:0003e0a2    8034            adds        r4,#0x80                                
                            LAB_0003e0a4:                 ;XREF[1,0]:   0003e0ba
ram:0003e0a4    0a46            mov         r2,r1                                   
ram:0003e0a6    8240            lsls        r2,param_1                              
ram:0003e0a8    1a42            tst         r2,r3                                   
ram:0003e0aa    04d0            beq         LAB_0003e0b6                            
ram:0003e0ac    c506            lsls        r5,param_1,#0x1b                        
ram:0003e0ae    ed0e            lsrs        r5,r5,#0x1b                             
ram:0003e0b0    0a46            mov         r2,r1                                   
ram:0003e0b2    aa40            lsls        r2,r5                                   
ram:0003e0b4    2260            str         r2,[r4,#0x0]=>DAT_e000e180              
                            LAB_0003e0b6:                 ;XREF[1,0]:   0003e0aa
ram:0003e0b6    401c            adds        param_1,param_1,#0x1                    
ram:0003e0b8    2028            cmp         param_1,#0x20                           
ram:0003e0ba    f3d3            bcc         LAB_0003e0a4                            
ram:0003e0bc    0324            movs        r4,#0x3                                 
ram:0003e0be    2403            lsls        r4,r4,#0xc                              
ram:0003e0c0    a068            ldr         param_1,[r4,#offset DAT_00003008 &0xff] 
ram:0003e0c2    13df            svc         0x13                                    
ram:0003e0c4    0028            cmp         param_1,#0x0                            
ram:0003e0c6    03d0            beq         LAB_0003e0d0                            
ram:0003e0c8    0022            movs        r2,#0x0                                 
ram:0003e0ca    1146            mov         r1,r2                                   
ram:0003e0cc    fff786fa        bl          FUN_0003d5dc                            ;undefined FUN_0003d5dc(void)
                            LAB_0003e0d0:                 ;XREF[1,0]:   0003e0c6
ram:0003e0d0    a068            ldr         param_1,[r4,#offset DAT_00003008 &0xff] 
ram:0003e0d2    00f071f8        bl          FUN_0003e1b8                            ;undefined FUN_0003e1b8(undefined4 * ...
ram:0003e0d6    70bd            pop         {r4,r5,r6,pc}                           
                            ;************************************************************************************************
                            ;*                                           FUNCTION                                           *
                            ;************************************************************************************************
                            ;undefined4 FUN_0003e0d8(void)
          ;local_8       undefined4          -8                      ;XREF[1,0]:   0003e0e0
                                                          ;XREF[2,0]:   0003c312,0003c3d2
ram:0003e0d8    08b5            push        {r3,lr}                                 
ram:0003e0da    6846            mov         r0,sp                                   
ram:0003e0dc    00f066f8        bl          FUN_0003e1ac                            ;undefined FUN_0003e1ac(undefined4 * ...
ram:0003e0e0    0098            ldr         r0,[sp,#0x0]=>local_8                   
ram:0003e0e2    0168            ldr         r1,[r0,#0x0]                            
ram:0003e0e4    a529            cmp         r1,#0xa5                                
ram:0003e0e6    04d0            beq         LAB_0003e0f2                            
ram:0003e0e8    8068            ldr         r0,[r0,#0x8]                            
ram:0003e0ea    aa28            cmp         r0,#0xaa                                
ram:0003e0ec    01d0            beq         LAB_0003e0f2                            
ram:0003e0ee    0020            movs        r0,#0x0                                 
ram:0003e0f0    08bd            pop         {r3,pc}                                 
                            LAB_0003e0f2:                 ;XREF[2,0]:   0003e0e6,0003e0ec
ram:0003e0f2    0120            movs        r0,#0x1                                 
ram:0003e0f4    08bd            pop         {r3,pc}                                 
                            ;************************************************************************************************
                            ;*                                           FUNCTION                                           *
                            ;************************************************************************************************
                            ;undefined * FUN_0003e0f6(undefined4 param_1, undefined4 param_2, undefined4 param_3, undefined4 * param_4)
          ;param_1       undefined4          r0                      
          ;param_2       undefined4          r1                      
          ;param_3       undefined4          r2                      
          ;param_4       undefined4 *        r3                      
                                                          ;XREF[1,0]:   0003c32e
ram:0003e0f6    10b5            push        {r4,lr}                                 
ram:0003e0f8    00f0fcfb        bl          FUN_0003e8f4                            ;undefined * FUN_0003e8f4(undefined4 ...
ram:0003e0fc    0028            cmp         param_1,#0x0                            
ram:0003e0fe    03d1            bne         LAB_0003e108                            
ram:0003e100    00f0d6fb        bl          FUN_0003e8b0                            ;undefined * FUN_0003e8b0(undefined4 ...
ram:0003e104    0028            cmp         param_1,#0x0                            
ram:0003e106    1bd0            beq         LAB_0003e140                            
                            LAB_0003e108:                 ;XREF[1,0]:   0003e0fe
ram:0003e108    6420            movs        param_1,#0x64                           
ram:0003e10a    fff747f9        bl          FUN_0003d39c                            ;undefined FUN_0003d39c(int param_1)
ram:0003e10e    00f075fb        bl          FUN_0003e7fc                            ;undefined FUN_0003e7fc(undefined4 pa...
ram:0003e112    0028            cmp         param_1,#0x0                            
ram:0003e114    03d0            beq         LAB_0003e11e                            
ram:0003e116    0022            movs        param_3,#0x0                            
ram:0003e118    1146            mov         param_2,param_3                         
ram:0003e11a    fff75ffa        bl          FUN_0003d5dc                            ;undefined FUN_0003d5dc(void)
                            LAB_0003e11e:                 ;XREF[1,0]:   0003e114
ram:0003e11e    00f0e9fb        bl          FUN_0003e8f4                            ;undefined * FUN_0003e8f4(undefined4 ...
ram:0003e122    0028            cmp         param_1,#0x0                            
ram:0003e124    03d0            beq         LAB_0003e12e                            
ram:0003e126    0022            movs        param_3,#0x0                            
ram:0003e128    1146            mov         param_2,param_3                         
ram:0003e12a    fff757fa        bl          FUN_0003d5dc                            ;undefined FUN_0003d5dc(void)
                            LAB_0003e12e:                 ;XREF[1,0]:   0003e124
ram:0003e12e    00f09ffb        bl          FUN_0003e870                            ;undefined * FUN_0003e870(undefined4 ...
ram:0003e132    0400            movs        r4,param_1                              
ram:0003e134    03d0            beq         LAB_0003e13e                            
ram:0003e136    0022            movs        param_3,#0x0                            
ram:0003e138    1146            mov         param_2,param_3                         
ram:0003e13a    fff74ffa        bl          FUN_0003d5dc                            ;undefined FUN_0003d5dc(void)
                            LAB_0003e13e:                 ;XREF[1,0]:   0003e134
ram:0003e13e    2046            mov         param_1,r4                              
                            LAB_0003e140:                 ;XREF[1,0]:   0003e106
ram:0003e140    10bd            pop         {r4,pc}                                 
                            ;************************************************************************************************
                            ;*                                           FUNCTION                                           *
                            ;************************************************************************************************
                            ;undefined4 FUN_0003e142(void)
          ;local_c       undefined4          -c                      ;XREF[1,0]:   0003e154
          ;local_10      undefined4         -10                      ;XREF[1,0]:   0003e152
          ;local_20      undefined4         -20                      ;XREF[1,0]:   0003e15c
          ;local_24      undefined4         -24                      ;XREF[1,0]:   0003e158
          ;local_28      undefined4         -28                      ;XREF[1,0]:   0003e156
                                                          ;XREF[1,0]:   0003c34a
ram:0003e142    00b5            push        {lr}                                    
ram:0003e144    1749            ldr         r1,[PTR_DAT_0003e1a4]                   ;= 0003f5a4
ram:0003e146    89b0            sub         sp,#0x24                                
ram:0003e148    1822            movs        r2,#0x18                                
ram:0003e14a    0c31            adds        r1=>DAT_0003f5b0,#0xc                   ;= 02h
ram:0003e14c    02a8            add         r0,sp,#0x8                              
ram:0003e14e    01f099f9        bl          FUN_0003f484                            ;undefined FUN_0003f484(undefined4 * ...
ram:0003e152    0698            ldr         r0,[sp,#local_10+0x28]                  
ram:0003e154    0799            ldr         r1,[sp,#local_c+0x28]                   
ram:0003e156    0090            str         r0,[sp,#0x0]=>local_28                  
ram:0003e158    0191            str         r1,[sp,#local_24+0x28]                  
ram:0003e15a    02a8            add         r0,sp,#0x8                              
ram:0003e15c    0fc8            ldmia       r0=>local_20,{r0,r1,r2,r3}              
ram:0003e15e    fff705ff        bl          FUN_0003df6c                            ;undefined FUN_0003df6c(int param_1, ...
ram:0003e162    fff7b6fe        bl          FUN_0003ded2                            ;undefined FUN_0003ded2(int param_1, ...
ram:0003e166    0020            movs        r0,#0x0                                 
ram:0003e168    09b0            add         sp,#0x24                                
ram:0003e16a    00bd            pop         {pc}                                    
                            ;************************************************************************************************
                            ;*                                           FUNCTION                                           *
                            ;************************************************************************************************
                            ;undefined FUN_0003e16c(undefined4 * param_1, undefined4 param_2, undefined4 param_3, undefined4 * param_4)
          ;param_1       undefined4 *        r0                      
          ;param_2       undefined4          r1                      
          ;param_3       undefined4          r2                      
          ;param_4       undefined4 *        r3                      
          ;local_10      undefined4         -10                      ;XREF[1,0]:   0003e176
                                                          ;XREF[4,0]:   0003e802,0003e876,0003e8b6,0003e8fa
ram:0003e16c    38b5            push        {param_4,r4,r5,lr}                      
ram:0003e16e    0446            mov         r4,param_1                              
ram:0003e170    6846            mov         param_1,sp                              
ram:0003e172    00f01bf8        bl          FUN_0003e1ac                            ;undefined FUN_0003e1ac(undefined4 * ...
ram:0003e176    0098            ldr         param_1,[sp,#0x0]=>local_10             
ram:0003e178    0168            ldr         param_2,[param_1,#0x0]                  
ram:0003e17a    2160            str         param_2,[r4,#0x0]                       
ram:0003e17c    8188            ldrh        param_2,[param_1,#0x4]                  
ram:0003e17e    a180            strh        param_2,[r4,#0x4]                       
ram:0003e180    c168            ldr         param_2,[param_1,#0xc]                  
ram:0003e182    e160            str         param_2,[r4,#0xc]                       
ram:0003e184    8168            ldr         param_2,[param_1,#0x8]                  
ram:0003e186    a160            str         param_2,[r4,#0x8]                       
ram:0003e188    0169            ldr         param_2,[param_1,#0x10]                 
ram:0003e18a    2161            str         param_2,[r4,#0x10]                      
ram:0003e18c    4169            ldr         param_2,[param_1,#0x14]                 
ram:0003e18e    6161            str         param_2,[r4,#0x14]                      
ram:0003e190    8169            ldr         param_2,[param_1,#0x18]                 
ram:0003e192    a161            str         param_2,[r4,#0x18]                      
ram:0003e194    c069            ldr         param_1,[param_1,#0x1c]                 
ram:0003e196    e061            str         param_1,[r4,#0x1c]                      
ram:0003e198    38bd            pop         {param_4,r4,r5,pc}                      
ram:0003e19a    0000            movs        r0,r0                                   
                            DAT_0003e19c:                 ;XREF[6,0]:   0003deb6,0003ded4,0003df3a,0003df50
                                                          ;             0003df7e,0003e05e
ram:0003e19c    7c2c0020        undefined4  20002C7Ch                               
                            DAT_0003e1a0:                 ;XREF[2,0]:   0003df82,0003dfe0
ram:0003e1a0    f8310020        undefined4  200031F8h                               
                            PTR_DAT_0003e1a4:             ;XREF[2,0]:   0003e04e,0003e144
ram:0003e1a4    a4f50300        addr        DAT_0003f5a4                            ;= 0003DEB5h
                            DAT_0003e1a8:                 ;XREF[2,0]:   0003e098,0003e09e
ram:0003e1a8    00e100e0        undefined4  E000E100h                               
                            ;************************************************************************************************
                            ;*                                           FUNCTION                                           *
                            ;************************************************************************************************
                            ;undefined FUN_0003e1ac(undefined4 * param_1)
          ;param_1       undefined4 *        r0                      
                                                          ;XREF[4,0]:   0003df04,0003df72,0003e0dc,0003e172
ram:0003e1ac    0149            ldr         r1,[DAT_0003e1b4]                       ;= 0003FC00h
ram:0003e1ae    0160            str         r1,[param_1,#0x0]                       
ram:0003e1b0    7047            bx          lr                                      
ram:0003e1b2    0000            movs        r0,r0                                   
                            DAT_0003e1b4:                 ;XREF[1,0]:   0003e1ac
ram:0003e1b4    00fc0300        undefined4  0003FC00h                               
                            ;************************************************************************************************
                            ;*                                           FUNCTION                                           *
                            ;************************************************************************************************
                            ;undefined FUN_0003e1b8(undefined4 * param_1)
          ;param_1       undefined4 *        r0                      
                                                          ;XREF[1,0]:   0003e0d2
ram:0003e1b8    10b5            push        {r4,lr}                                 
ram:0003e1ba    fdf7bdff        bl          FUN_0003c138                            ;undefined FUN_0003c138(undefined4 * ...
ram:0003e1be    10bd            pop         {r4,pc}                                 
                            ;************************************************************************************************
                            ;*                                           FUNCTION                                           *
                            ;************************************************************************************************
                            ;uint FUN_0003e1c0(int param_1, uint param_2, ushort * param_3)
          ;param_1       int                 r0                      
          ;param_2       uint                r1                      
          ;param_3       ushort *            r2                      
                                                          ;XREF[4,0]:   0003c1b4,0003c1d0,0003df20,0003e9f8
ram:0003e1c0    10b5            push        {r4,lr}                                 
ram:0003e1c2    0446            mov         r4,param_1                              
ram:0003e1c4    002a            cmp         param_3,#0x0                            
ram:0003e1c6    02d0            beq         LAB_0003e1ce                            
ram:0003e1c8    1088            ldrh        param_1,[param_3,#0x0]                  
                            LAB_0003e1ca:                 ;XREF[1,0]:   0003e1d0
ram:0003e1ca    0022            movs        param_3,#0x0                            
ram:0003e1cc    10e0            b           LAB_0003e1f0                            
                            LAB_0003e1ce:                 ;XREF[1,0]:   0003e1c6
ram:0003e1ce    0a48            ldr         param_1,[DAT_0003e1f8]                  ;= 0000FFFFh
ram:0003e1d0    fbe7            b           LAB_0003e1ca                            
                            LAB_0003e1d2:                 ;XREF[1,0]:   0003e1f2
ram:0003e1d2    030a            lsrs        r3,param_1,#0x8                         
ram:0003e1d4    0002            lsls        param_1,param_1,#0x8                    
ram:0003e1d6    0343            orrs        r3,param_1                              
ram:0003e1d8    a05c            ldrb        param_1,[r4,param_3]                    
ram:0003e1da    5840            eors        param_1,r3                              
ram:0003e1dc    0306            lsls        r3,param_1,#0x18                        
ram:0003e1de    1b0f            lsrs        r3,r3,#0x1c                             
ram:0003e1e0    4340            eors        r3,param_1                              
ram:0003e1e2    1803            lsls        param_1,r3,#0xc                         
ram:0003e1e4    5840            eors        param_1,r3                              
ram:0003e1e6    83b2            uxth        r3,param_1                              
ram:0003e1e8    1806            lsls        param_1,r3,#0x18                        
ram:0003e1ea    c00c            lsrs        param_1,param_1,#0x13                   
ram:0003e1ec    5840            eors        param_1,r3                              
ram:0003e1ee    521c            adds        param_3,param_3,#0x1                    
                            LAB_0003e1f0:                 ;XREF[1,0]:   0003e1cc
ram:0003e1f0    8a42            cmp         param_3,param_2                         
ram:0003e1f2    eed3            bcc         LAB_0003e1d2                            
ram:0003e1f4    10bd            pop         {r4,pc}                                 
ram:0003e1f6    0000            movs        r0,r0                                   
                            DAT_0003e1f8:                 ;XREF[1,0]:   0003e1ce
ram:0003e1f8    ffff0000        undefined4  0000FFFFh                               
                            ;************************************************************************************************
                            ;*                                           FUNCTION                                           *
                            ;************************************************************************************************
                            ;undefined4 FUN_0003e1fc(void)
                                                          ;XREF[1,0]:   0003f034
ram:0003e1fc    4b48            ldr         r0,[DAT_0003e32c]                       ;= 20002C88h
ram:0003e1fe    0021            movs        r1,#0x0                                 
ram:0003e200    0170            strb        r1,[r0,#0x0]=>DAT_20002c88              
ram:0003e202    4c48            ldr         r0,[DAT_0003e334]                       ;= 20003338h
ram:0003e204    4a4a            ldr         r2,[DAT_0003e330]                       ;= 20003218h
ram:0003e206    0260            str         r2,[r0,#0x0]=>DAT_20003338              
ram:0003e208    8160            str         r1,[r0,#0x8]=>DAT_20003340              
ram:0003e20a    c160            str         r1,[r0,#0xc]=>DAT_20003344              
ram:0003e20c    0161            str         r1,[r0,#0x10]=>DAT_20003348             
ram:0003e20e    0822            movs        r2,#0x8                                 
ram:0003e210    4161            str         r1,[r0,#0x14]=>DAT_2000334c             
ram:0003e212    4260            str         r2,[r0,#0x4]=>DAT_2000333c              
ram:0003e214    8161            str         r1,[r0,#0x18]=>DAT_20003350             
ram:0003e216    0846            mov         r0,r1                                   
ram:0003e218    7047            bx          lr                                      
                            ;************************************************************************************************
                            ;*                                           FUNCTION                                           *
                            ;************************************************************************************************
                            ;undefined4 FUN_0003e21a(uint param_1, int * param_2)
          ;param_1       uint                r0                      
          ;param_2       int *               r1                      
                                                          ;XREF[1,0]:   0003eaf0
ram:0003e21a    10b5            push        {r4,lr}                                 
ram:0003e21c    0029            cmp         param_2,#0x0                            
ram:0003e21e    1dd0            beq         LAB_0003e25c                            
ram:0003e220    0022            movs        r2,#0x0                                 
ram:0003e222    0a60            str         r2,[param_2,#0x0]                       
ram:0003e224    434a            ldr         r2,[DAT_0003e334]                       ;= 20003338h
ram:0003e226    5368            ldr         r3,[r2,#0x4]=>DAT_2000333c              
ram:0003e228    002b            cmp         r3,#0x0                                 
ram:0003e22a    1bd0            beq         LAB_0003e264                            
ram:0003e22c    2028            cmp         param_1,#0x20                           
ram:0003e22e    17d8            bhi         LAB_0003e260                            
ram:0003e230    5b1e            subs        r3,r3,#0x1                              
ram:0003e232    5360            str         r3,[r2,#0x4]=>DAT_2000333c              
ram:0003e234    d068            ldr         param_1,[r2,#0xc]=>DAT_20003344         
ram:0003e236    2423            movs        r3,#0x24                                
ram:0003e238    401c            adds        param_1,param_1,#0x1                    
ram:0003e23a    d060            str         param_1,[r2,#0xc]=>DAT_20003344         
ram:0003e23c    1069            ldr         param_1,[r2,#0x10]=>DAT_20003348        
ram:0003e23e    1468            ldr         r4,[r2,#0x0]=>DAT_20003338              
ram:0003e240    4343            muls        r3,param_1                              
ram:0003e242    e318            adds        r3,r4,r3                                
ram:0003e244    0b60            str         r3,[param_2,#0x0]                       
ram:0003e246    0123            movs        r3,#0x1                                 
ram:0003e248    8340            lsls        r3,param_1                              
ram:0003e24a    9169            ldr         param_2,[r2,#0x18]=>DAT_20003350        
ram:0003e24c    401c            adds        param_1,param_1,#0x1                    
ram:0003e24e    1943            orrs        param_2,r3                              
ram:0003e250    4007            lsls        param_1,param_1,#0x1d                   
ram:0003e252    400f            lsrs        param_1,param_1,#0x1d                   
ram:0003e254    9161            str         param_2,[r2,#0x18]=>DAT_20003350        
ram:0003e256    1061            str         param_1,[r2,#0x10]=>DAT_20003348        
ram:0003e258    0020            movs        param_1,#0x0                            
ram:0003e25a    10bd            pop         {r4,pc}                                 
                            LAB_0003e25c:                 ;XREF[1,0]:   0003e21e
ram:0003e25c    0e20            movs        param_1,#0xe                            
ram:0003e25e    10bd            pop         {r4,pc}                                 
                            LAB_0003e260:                 ;XREF[1,0]:   0003e22e
ram:0003e260    0c20            movs        param_1,#0xc                            
ram:0003e262    10bd            pop         {r4,pc}                                 
                            LAB_0003e264:                 ;XREF[1,0]:   0003e22a
ram:0003e264    0420            movs        param_1,#0x4                            
ram:0003e266    10bd            pop         {r4,pc}                                 
                            ;************************************************************************************************
                            ;*                                           FUNCTION                                           *
                            ;************************************************************************************************
                            ;undefined4 FUN_0003e268(int param_1)
          ;param_1       int                 r0                      
                                                          ;XREF[2,0]:   0003ea86,0003eb42
ram:0003e268    f0b5            push        {r4,r5,r6,r7,lr}                        
ram:0003e26a    324a            ldr         r2,[DAT_0003e334]                       ;= 20003338h
ram:0003e26c    0646            mov         r6,param_1                              
ram:0003e26e    9168            ldr         r1,[r2,#0x8]=>DAT_20003340              
ram:0003e270    0029            cmp         r1,#0x0                                 
ram:0003e272    2bd0            beq         LAB_0003e2cc                            
ram:0003e274    5769            ldr         r7,[r2,#0x14]=>DAT_2000334c             
ram:0003e276    1020            movs        param_1,#0x10                           
ram:0003e278    791a            subs        r1,r7,r1                                
ram:0003e27a    4907            lsls        r1,r1,#0x1d                             
ram:0003e27c    490f            lsrs        r1,r1,#0x1d                             
ram:0003e27e    1468            ldr         r4,[r2,#0x0]=>DAT_20003338              
ram:0003e280    0b46            mov         r3,r1                                   
                            LAB_0003e282:                 ;XREF[1,0]:   0003e2a2
ram:0003e282    2425            movs        r5,#0x24                                
ram:0003e284    4d43            muls        r5,r1                                   
ram:0003e286    6519            adds        r5,r4,r5                                
ram:0003e288    b542            cmp         r5,r6                                   
ram:0003e28a    06d1            bne         LAB_0003e29a                            
ram:0003e28c    0124            movs        r4,#0x1                                 
ram:0003e28e    9569            ldr         r5,[r2,#0x18]=>DAT_20003350             
ram:0003e290    8c40            lsls        r4,r1                                   
ram:0003e292    6540            eors        r5,r4                                   
ram:0003e294    0020            movs        param_1,#0x0                            
ram:0003e296    9561            str         r5,[r2,#0x18]=>DAT_20003350             
ram:0003e298    04e0            b           LAB_0003e2a4                            
                            LAB_0003e29a:                 ;XREF[1,0]:   0003e28a
ram:0003e29a    491c            adds        r1,r1,#0x1                              
ram:0003e29c    4907            lsls        r1,r1,#0x1d                             
ram:0003e29e    490f            lsrs        r1,r1,#0x1d                             
ram:0003e2a0    8f42            cmp         r7,r1                                   
ram:0003e2a2    eed1            bne         LAB_0003e282                            
                            LAB_0003e2a4:                 ;XREF[1,0]:   0003e298
ram:0003e2a4    491c            adds        r1,r1,#0x1                              
ram:0003e2a6    4e07            lsls        r6,r1,#0x1d                             
ram:0003e2a8    760f            lsrs        r6,r6,#0x1d                             
ram:0003e2aa    9569            ldr         r5,[r2,#0x18]=>DAT_20003350             
ram:0003e2ac    0121            movs        r1,#0x1                                 
                            LAB_0003e2ae:                 ;XREF[1,0]:   0003e2ca
ram:0003e2ae    0c46            mov         r4,r1                                   
ram:0003e2b0    9c40            lsls        r4,r3                                   
ram:0003e2b2    2b46            mov         r3,r5                                   
ram:0003e2b4    2342            tst         r3,r4                                   
ram:0003e2b6    0ad1            bne         LAB_0003e2ce                            
ram:0003e2b8    9368            ldr         r3,[r2,#0x8]=>DAT_20003340              
ram:0003e2ba    002b            cmp         r3,#0x0                                 
ram:0003e2bc    07d0            beq         LAB_0003e2ce                            
ram:0003e2be    5b1e            subs        r3,r3,#0x1                              
ram:0003e2c0    9360            str         r3,[r2,#0x8]=>DAT_20003340              
ram:0003e2c2    5368            ldr         r3,[r2,#0x4]=>DAT_2000333c              
ram:0003e2c4    5b1c            adds        r3,r3,#0x1                              
ram:0003e2c6    5360            str         r3,[r2,#0x4]=>DAT_2000333c              
ram:0003e2c8    3346            mov         r3,r6                                   
ram:0003e2ca    f0e7            b           LAB_0003e2ae                            
                            LAB_0003e2cc:                 ;XREF[1,0]:   0003e272
ram:0003e2cc    0420            movs        param_1,#0x4                            
                            LAB_0003e2ce:                 ;XREF[2,0]:   0003e2b6,0003e2bc
ram:0003e2ce    f0bd            pop         {r4,r5,r6,r7,pc}                        
                            ;************************************************************************************************
                            ;*                                           FUNCTION                                           *
                            ;************************************************************************************************
                            ;undefined4 FUN_0003e2d0(undefined4 param_1)
          ;param_1       undefined4          r0                      
                                                          ;XREF[1,0]:   0003eb06
ram:0003e2d0    184a            ldr         r2,[DAT_0003e334]                       ;= 20003338h
ram:0003e2d2    2423            movs        r3,#0x24                                
ram:0003e2d4    117c            ldrb        r1,[r2,#0x10]=>DAT_20003348             
ram:0003e2d6    1268            ldr         r2,[r2,#0x0]=>DAT_20003338              
ram:0003e2d8    491e            subs        r1,r1,#0x1                              
ram:0003e2da    4907            lsls        r1,r1,#0x1d                             
ram:0003e2dc    490f            lsrs        r1,r1,#0x1d                             
ram:0003e2de    5943            muls        r1,r3                                   
ram:0003e2e0    2031            adds        r1,#0x20                                
ram:0003e2e2    5050            str         param_1,[r2,r1]                         
ram:0003e2e4    0020            movs        param_1,#0x0                            
ram:0003e2e6    7047            bx          lr                                      
                            ;************************************************************************************************
                            ;*                                           FUNCTION                                           *
                            ;************************************************************************************************
                            ;undefined4 FUN_0003e2e8(int * param_1, undefined4 * param_2)
          ;param_1       int *               r0                      
          ;param_2       undefined4 *        r1                      
                                                          ;XREF[1,0]:   0003eb14
ram:0003e2e8    70b5            push        {r4,r5,r6,lr}                           
ram:0003e2ea    0028            cmp         param_1,#0x0                            
ram:0003e2ec    1ad0            beq         LAB_0003e324                            
ram:0003e2ee    0029            cmp         param_2,#0x0                            
ram:0003e2f0    18d0            beq         LAB_0003e324                            
ram:0003e2f2    104a            ldr         r2,[DAT_0003e334]                       ;= 20003338h
ram:0003e2f4    d368            ldr         r3,[r2,#0xc]=>DAT_20003344              
ram:0003e2f6    002b            cmp         r3,#0x0                                 
ram:0003e2f8    16d0            beq         LAB_0003e328                            
ram:0003e2fa    5b1e            subs        r3,r3,#0x1                              
ram:0003e2fc    d360            str         r3,[r2,#0xc]=>DAT_20003344              
ram:0003e2fe    9368            ldr         r3,[r2,#0x8]=>DAT_20003340              
ram:0003e300    2426            movs        r6,#0x24                                
ram:0003e302    5b1c            adds        r3,r3,#0x1                              
ram:0003e304    9360            str         r3,[r2,#0x8]=>DAT_20003340              
ram:0003e306    5369            ldr         r3,[r2,#0x14]=>DAT_2000334c             
ram:0003e308    1568            ldr         r5,[r2,#0x0]=>DAT_20003338              
ram:0003e30a    1c46            mov         r4,r3                                   
ram:0003e30c    7343            muls        r3,r6                                   
ram:0003e30e    ee18            adds        r6,r5,r3                                
ram:0003e310    2033            adds        r3,#0x20                                
ram:0003e312    0660            str         r6,[param_1,#0x0]                       
ram:0003e314    e858            ldr         param_1,[r5,r3]                         
ram:0003e316    641c            adds        r4,r4,#0x1                              
ram:0003e318    0860            str         param_1,[param_2,#0x0]                  
ram:0003e31a    6007            lsls        param_1,r4,#0x1d                        
ram:0003e31c    400f            lsrs        param_1,param_1,#0x1d                   
ram:0003e31e    5061            str         param_1,[r2,#0x14]=>DAT_2000334c        
ram:0003e320    0020            movs        param_1,#0x0                            
ram:0003e322    70bd            pop         {r4,r5,r6,pc}                           
                            LAB_0003e324:                 ;XREF[2,0]:   0003e2ec,0003e2f0
ram:0003e324    0e20            movs        param_1,#0xe                            
ram:0003e326    70bd            pop         {r4,r5,r6,pc}                           
                            LAB_0003e328:                 ;XREF[1,0]:   0003e2f8
ram:0003e328    0420            movs        param_1,#0x4                            
ram:0003e32a    70bd            pop         {r4,r5,r6,pc}                           
                            DAT_0003e32c:                 ;XREF[1,0]:   0003e1fc
ram:0003e32c    882c0020        undefined4  20002C88h                               
                            DAT_0003e330:                 ;XREF[1,0]:   0003e204
ram:0003e330    18320020        undefined4  20003218h                               
                            DAT_0003e334:                 ;XREF[5,0]:   0003e202,0003e224,0003e26a,0003e2d0
                                                          ;             0003e2f2
ram:0003e334    38330020        undefined4  20003338h                               
                            ;************************************************************************************************
                            ;*                                           FUNCTION                                           *
                            ;************************************************************************************************
                            ;undefined FUN_0003e338(undefined4 param_1, int param_2, int param_3, undefined4 param_4)
          ;param_1       undefined4          r0                      
          ;param_2       int                 r1                      
          ;param_3       int                 r2                      
          ;param_4       undefined4          r3                      
ram:0003e338    70b5            push        {r4,r5,r6,lr}                           
ram:0003e33a    f94c            ldr         r4,[DAT_0003e720]                       ;= 20002C90h
ram:0003e33c    1e46            mov         r6,param_4                              
ram:0003e33e    a068            ldr         param_1,[r4,#0x8]=>DAT_20002c98         
ram:0003e340    1546            mov         r5,param_3                              
ram:0003e342    0229            cmp         param_2,#0x2                            
ram:0003e344    02d0            beq         LAB_0003e34c                            
ram:0003e346    0429            cmp         param_2,#0x4                            
ram:0003e348    16d1            bne         LAB_0003e378                            
ram:0003e34a    08e0            b           LAB_0003e35e                            
                            LAB_0003e34c:                 ;XREF[1,0]:   0003e344
ram:0003e34c    0528            cmp         param_1,#0x5                            
ram:0003e34e    13d1            bne         LAB_0003e378                            
ram:0003e350    a369            ldr         param_4,[r4,#0x18]=>DAT_20002ca8        
ram:0003e352    002b            cmp         param_4,#0x0                            
ram:0003e354    10d0            beq         LAB_0003e378                            
ram:0003e356    3246            mov         param_3,r6                              
ram:0003e358    2946            mov         param_2,r5                              
ram:0003e35a    0420            movs        param_1,#0x4                            
ram:0003e35c    0be0            b           LAB_0003e376                            
                            LAB_0003e35e:                 ;XREF[1,0]:   0003e34a
ram:0003e35e    0228            cmp         param_1,#0x2                            
ram:0003e360    0ad1            bne         LAB_0003e378                            
ram:0003e362    f048            ldr         param_1,[DAT_0003e724]                  ;= 200033A4h
ram:0003e364    4068            ldr         param_1,[param_1,#0x4]=>DAT_200033a8    
ram:0003e366    8047            blx         param_1                                 
ram:0003e368    0320            movs        param_1,#0x3                            
ram:0003e36a    a060            str         param_1,[r4,#0x8]=>DAT_20002c98         
ram:0003e36c    a369            ldr         param_4,[r4,#0x18]=>DAT_20002ca8        
ram:0003e36e    002b            cmp         param_4,#0x0                            
ram:0003e370    02d0            beq         LAB_0003e378                            
ram:0003e372    3246            mov         param_3,r6                              
ram:0003e374    2946            mov         param_2,r5                              
                            LAB_0003e376:                 ;XREF[1,0]:   0003e35c
ram:0003e376    9847            blx         param_4                                 
                            LAB_0003e378:                 ;XREF[5,0]:   0003e348,0003e34e,0003e354,0003e360
                                                          ;             0003e370
ram:0003e378    2800            movs        param_1,r5                              
ram:0003e37a    03d0            beq         LAB_0003e384                            
ram:0003e37c    0022            movs        param_3,#0x0                            
ram:0003e37e    1146            mov         param_2,param_3                         
ram:0003e380    fff72cf9        bl          FUN_0003d5dc                            ;undefined FUN_0003d5dc(void)
                            LAB_0003e384:                 ;XREF[1,0]:   0003e37a
ram:0003e384    70bd            pop         {r4,r5,r6,pc}                           
                            ;************************************************************************************************
                            ;*                                           FUNCTION                                           *
                            ;************************************************************************************************
                            ;undefined FUN_0003e386(undefined4 param_1, undefined2 param_2, int param_3, int * param_4)
          ;param_1       undefined4          r0                      
          ;param_2       undefined2          r1                      
          ;param_3       int                 r2                      
          ;param_4       int *               r3                      
          ;local_c       undefined4          -c                      ;XREF[1,0]:   0003e390
          ;local_10      undefined4         -10                      ;XREF[1,0]:   0003e392
ram:0003e386    4cb5            push        {param_3,param_4,r6,lr}                 
ram:0003e388    e54e            ldr         r6,[DAT_0003e720]                       ;= 20002C90h
ram:0003e38a    0120            movs        param_1,#0x1                            
ram:0003e38c    3070            strb        param_1,[r6,#0x0]=>DAT_20002c90         
ram:0003e38e    0520            movs        param_1,#0x5                            
ram:0003e390    0195            str         r5,[sp,#local_c+0x10]                   
ram:0003e392    0094            str         r4,[sp,#0x0]=>local_10                  
ram:0003e394    fff7eafd        bl          FUN_0003df6c                            ;undefined FUN_0003df6c(int param_1, ...
ram:0003e398    4cbd            pop         {param_3,param_4,r6,pc}                 
                            ;************************************************************************************************
                            ;*                                           FUNCTION                                           *
                            ;************************************************************************************************
                            ;int FUN_0003e39a(undefined4 param_1, undefined4 param_2, undefined4 param_3, uint param_4)
          ;param_1       undefined4          r0                      
          ;param_2       undefined4          r1                      
          ;param_3       undefined4          r2                      
          ;param_4       uint                r3                      
                                                          ;XREF[4,0]:   0003e626,0003e676,0003e6f0,0003e762
ram:0003e39a    10b5            push        {r4,lr}                                 
ram:0003e39c    e04c            ldr         r4,[DAT_0003e720]                       ;= 20002C90h
ram:0003e39e    2078            ldrb        param_1,[r4,#0x0]=>DAT_20002c90         
ram:0003e3a0    0028            cmp         param_1,#0x0                            
ram:0003e3a2    01d0            beq         LAB_0003e3a8                            
ram:0003e3a4    0820            movs        param_1,#0x8                            
ram:0003e3a6    10bd            pop         {r4,pc}                                 
                            LAB_0003e3a8:                 ;XREF[1,0]:   0003e3a2
ram:0003e3a8    2069            ldr         param_1,[r4,#0x10]=>DAT_20002ca0        
ram:0003e3aa    fff74afc        bl          FUN_0003dc42                            ;undefined4 FUN_0003dc42(uint param_1...
ram:0003e3ae    0028            cmp         param_1,#0x0                            
ram:0003e3b0    03d0            beq         LAB_0003e3ba                            
ram:0003e3b2    0022            movs        param_3,#0x0                            
ram:0003e3b4    1146            mov         param_2,param_3                         
ram:0003e3b6    fff711f9        bl          FUN_0003d5dc                            ;undefined FUN_0003d5dc(void)
                            LAB_0003e3ba:                 ;XREF[1,0]:   0003e3b0
ram:0003e3ba    0f21            movs        param_2,#0xf                            
ram:0003e3bc    0022            movs        param_3,#0x0                            
ram:0003e3be    8904            lsls        param_2,param_2,#0x12                   
ram:0003e3c0    2069            ldr         param_1,[r4,#0x10]=>DAT_20002ca0        
ram:0003e3c2    fff701fc        bl          FUN_0003dbc8                            ;longlong FUN_0003dbc8(uint param_1, ...
ram:0003e3c6    0400            movs        r4,param_1                              
ram:0003e3c8    03d0            beq         LAB_0003e3d2                            
ram:0003e3ca    0022            movs        param_3,#0x0                            
ram:0003e3cc    1146            mov         param_2,param_3                         
ram:0003e3ce    fff705f9        bl          FUN_0003d5dc                            ;undefined FUN_0003d5dc(void)
                            LAB_0003e3d2:                 ;XREF[1,0]:   0003e3c8
ram:0003e3d2    2046            mov         param_1,r4                              
ram:0003e3d4    10bd            pop         {r4,pc}                                 
                            ;************************************************************************************************
                            ;*                                           FUNCTION                                           *
                            ;************************************************************************************************
                            ;undefined FUN_0003e3d6(void)
                                                          ;XREF[1,2]:   0003e632,0003e5f0,0003e62e
ram:0003e3d6    d249            ldr         r1,[DAT_0003e720]                       ;= 20002C90h
ram:0003e3d8    10b5            push        {r4,lr}                                 
ram:0003e3da    d148            ldr         r0,[DAT_0003e720]                       ;= 20002C90h
ram:0003e3dc    2431            adds        r1,#0x24                                
ram:0003e3de    4161            str         r1=>DAT_20002cb4,[r0,#0x14]=>DAT_2000...
ram:0003e3e0    0221            movs        r1,#0x2                                 
ram:0003e3e2    8160            str         r1,[r0,#0x8]=>DAT_20002c98              
ram:0003e3e4    c168            ldr         r1,[r0,#0xc]=>DAT_20002c9c              
ram:0003e3e6    2430            adds        r0=>DAT_20002cb4,#0x24                  
ram:0003e3e8    fff7d5f8        bl          FUN_0003d596                            ;undefined FUN_0003d596(undefined4 * ...
ram:0003e3ec    0028            cmp         r0,#0x0                                 
ram:0003e3ee    03d0            beq         LAB_0003e3f8                            
ram:0003e3f0    0022            movs        r2,#0x0                                 
ram:0003e3f2    1146            mov         r1,r2                                   
ram:0003e3f4    fff7f2f8        bl          FUN_0003d5dc                            ;undefined FUN_0003d5dc(void)
                            LAB_0003e3f8:                 ;XREF[1,0]:   0003e3ee
ram:0003e3f8    10bd            pop         {r4,pc}                                 
                            ;************************************************************************************************
                            ;*                                           FUNCTION                                           *
                            ;************************************************************************************************
                            ;undefined LAB_0003e3fa+1(void)
                                                          ;XREF[0,2]:   0003e608,0003e73c
ram:0003e3fa    c949            ldr         r1,[DAT_0003e720]                       ;= 20002C90h
ram:0003e3fc    10b5            push        {r4,lr}                                 
ram:0003e3fe    c848            ldr         r0,[DAT_0003e720]                       ;= 20002C90h
ram:0003e400    1c31            adds        r1,#0x1c                                
ram:0003e402    4161            str         r1=>DAT_20002cac,[r0,#0x14]=>DAT_2000...
ram:0003e404    0221            movs        r1,#0x2                                 
ram:0003e406    8160            str         r1,[r0,#0x8]=>DAT_20002c98              
ram:0003e408    0921            movs        r1,#0x9                                 
ram:0003e40a    0903            lsls        r1,r1,#0xc                              
ram:0003e40c    1c30            adds        r0=>DAT_20002cac,#0x1c                  
ram:0003e40e    fff7c2f8        bl          FUN_0003d596                            ;undefined FUN_0003d596(undefined4 * ...
ram:0003e412    0028            cmp         r0,#0x0                                 
ram:0003e414    03d0            beq         LAB_0003e41e                            
ram:0003e416    0022            movs        r2,#0x0                                 
ram:0003e418    1146            mov         r1,r2                                   
ram:0003e41a    fff7dff8        bl          FUN_0003d5dc                            ;undefined FUN_0003d5dc(void)
                            LAB_0003e41e:                 ;XREF[1,0]:   0003e414
ram:0003e41e    10bd            pop         {r4,pc}                                 
                            ;************************************************************************************************
                            ;*                                           FUNCTION                                           *
                            ;************************************************************************************************
                            ;undefined LAB_0003e420+1(void)
                                                          ;XREF[0,2]:   0003e60c,0003e740
ram:0003e420    7047            bx          lr                                      
                            ;************************************************************************************************
                            ;*                                           FUNCTION                                           *
                            ;************************************************************************************************
                            ;undefined FUN_0003e422(void)
          ;local_c       undefined4          -c                      ;XREF[1,0]:   0003e432
          ;local_10      undefined4         -10                      ;XREF[1,0]:   0003e430
          ;local_20      undefined4         -20                      ;XREF[1,0]:   0003e43a
          ;local_24      undefined4         -24                      ;XREF[1,0]:   0003e436
          ;local_28      undefined4         -28                      ;XREF[1,0]:   0003e434
ram:0003e422    00b5            push        {lr}                                    
ram:0003e424    89b0            sub         sp,#0x24                                
ram:0003e426    1822            movs        r2,#0x18                                
ram:0003e428    bf49            ldr         r1=>DAT_0003f5c8,[PTR_DAT_0003e728]     ;= 04h
                                                                                    ;= 0003f5c8
ram:0003e42a    02a8            add         r0,sp,#0x8                              
ram:0003e42c    01f02af8        bl          FUN_0003f484                            ;undefined FUN_0003f484(undefined4 * ...
ram:0003e430    0698            ldr         r0,[sp,#local_10+0x28]                  
ram:0003e432    0799            ldr         r1,[sp,#local_c+0x28]                   
ram:0003e434    0090            str         r0,[sp,#0x0]=>local_28                  
ram:0003e436    0191            str         r1,[sp,#local_24+0x28]                  
ram:0003e438    02a8            add         r0,sp,#0x8                              
ram:0003e43a    0fc8            ldmia       r0=>local_20,{r0,r1,r2,r3}              
ram:0003e43c    fff796fd        bl          FUN_0003df6c                            ;undefined FUN_0003df6c(int param_1, ...
ram:0003e440    09b0            add         sp,#0x24                                
ram:0003e442    00bd            pop         {pc}                                    
                            ;************************************************************************************************
                            ;*                                           FUNCTION                                           *
                            ;************************************************************************************************
                            ;undefined4 FUN_0003e444(void)
          ;local_8       undefined4          -8                      ;XREF[2,0]:   0003e456,0003e46a
          ;local_c       undefined4          -c                      ;XREF[1,0]:   0003e468
          ;local_10      undefined4         -10                      ;XREF[1,0]:   0003e464
          ;local_14      undefined4         -14                      ;XREF[1,0]:   0003e460
          ;local_18      undefined4         -18                      ;XREF[2,0]:   0003e44e,0003e472
          ;local_1c      undefined4         -1c                      ;XREF[1,0]:   0003e46e
          ;local_20      undefined4         -20                      ;XREF[1,0]:   0003e46c
ram:0003e444    00b5            push        {lr}                                    
ram:0003e446    b649            ldr         r1,[DAT_0003e720]                       ;= 20002C90h
ram:0003e448    87b0            sub         sp,#0x1c                                
ram:0003e44a    4988            ldrh        r1,[r1,#0x2]=>DAT_20002c92              
ram:0003e44c    6a46            mov         r2,sp                                   
ram:0003e44e    1181            strh        r1,[r2,#local_18+0x20]                  
ram:0003e450    0321            movs        r1,#0x3                                 
ram:0003e452    0903            lsls        r1,r1,#0xc                              
ram:0003e454    8968            ldr         r1,[r1,#offset DAT_00003008 &0xff]      
ram:0003e456    0691            str         r1,[sp,#local_8+0x20]                   
ram:0003e458    b249            ldr         r1,[DAT_0003e724]                       ;= 200033A4h
ram:0003e45a    0120            movs        r0,#0x1                                 
ram:0003e45c    5039            subs        r1,#0x50                                
ram:0003e45e    4a68            ldr         r2,[r1,#0x4]=>DAT_20003358              
ram:0003e460    0392            str         r2,[sp,#local_14+0x20]                  
ram:0003e462    8a68            ldr         r2,[r1,#0x8]=>DAT_2000335c              
ram:0003e464    0492            str         r2,[sp,#local_10+0x20]                  
ram:0003e466    c968            ldr         r1,[r1,#0xc]=>DAT_20003360              
ram:0003e468    0591            str         r1,[sp,#local_c+0x20]                   
ram:0003e46a    069a            ldr         r2,[sp,#local_8+0x20]                   
ram:0003e46c    0091            str         r1,[sp,#0x0]=>local_20                  
ram:0003e46e    0192            str         r2,[sp,#local_1c+0x20]                  
ram:0003e470    02a9            add         r1,sp,#0x8                              
ram:0003e472    0ec9            ldmia       r1=>local_18,{r1,r2,r3}                 
ram:0003e474    fff77afd        bl          FUN_0003df6c                            ;undefined FUN_0003df6c(int param_1, ...
ram:0003e478    0020            movs        r0,#0x0                                 
                            LAB_0003e47a:                 ;XREF[1,0]:   0003e50a
ram:0003e47a    07b0            add         sp,#0x1c                                
ram:0003e47c    00bd            pop         {pc}                                    
                            ;************************************************************************************************
                            ;*                                           FUNCTION                                           *
                            ;************************************************************************************************
                            ;int FUN_0003e47e(void)
          ;local_14      undefined4         -14                      ;XREF[1,0]:   0003e4c8
          ;local_18      undefined4         -18                      ;XREF[1,0]:   0003e4c6
          ;local_24      undefined4         -24                      ;XREF[2,0]:   0003e4c2,0003e4d0
          ;local_28      undefined4         -28                      ;XREF[1,0]:   0003e4bc
          ;local_2c      undefined4         -2c                      ;XREF[1,0]:   0003e4cc
          ;local_30      undefined4         -30                      ;XREF[1,0]:   0003e4ca
                                                          ;XREF[0,2]:   0003e618,0003e748
ram:0003e47e    30b5            push        {r4,r5,lr}                              
ram:0003e480    a84c            ldr         r4,[DAT_0003e724]                       ;= 200033A4h
ram:0003e482    a748            ldr         r0,[DAT_0003e720]                       ;= 20002C90h
ram:0003e484    503c            subs        r4,#0x50                                
ram:0003e486    89b0            sub         sp,#0x24                                
ram:0003e488    2430            adds        r0=>DAT_20002cb4,#0x24                  
ram:0003e48a    e168            ldr         r1,[r4,#0xc]=>DAT_20003360              
ram:0003e48c    fff783f8        bl          FUN_0003d596                            ;undefined FUN_0003d596(undefined4 * ...
ram:0003e490    0028            cmp         r0,#0x0                                 
ram:0003e492    03d0            beq         LAB_0003e49c                            
ram:0003e494    0022            movs        r2,#0x0                                 
ram:0003e496    1146            mov         r1,r2                                   
ram:0003e498    fff7a0f8        bl          FUN_0003d5dc                            ;undefined FUN_0003d5dc(void)
                            LAB_0003e49c:                 ;XREF[1,0]:   0003e492
ram:0003e49c    a048            ldr         r0,[DAT_0003e720]                       ;= 20002C90h
ram:0003e49e    e268            ldr         r2,[r4,#0xc]=>DAT_20003360              
ram:0003e4a0    1c30            adds        r0,#0x1c                                
ram:0003e4a2    4168            ldr         r1,[r0,#0x4]=>DAT_20002cb0              
ram:0003e4a4    0023            movs        r3,#0x0                                 
ram:0003e4a6    0830            adds        r0=>DAT_20002cb4,#0x8                   
ram:0003e4a8    fff75cf8        bl          FUN_0003d564                            ;int FUN_0003d564(undefined4 * param_...
ram:0003e4ac    0500            movs        r5,r0                                   
ram:0003e4ae    12d1            bne         LAB_0003e4d6                            
ram:0003e4b0    1821            movs        r1,#0x18                                
ram:0003e4b2    02a8            add         r0,sp,#0x8                              
ram:0003e4b4    00f0ffff        bl          FUN_0003f4b6                            ;undefined FUN_0003f4b6(undefined * p...
ram:0003e4b8    0020            movs        r0,#0x0                                 
ram:0003e4ba    9949            ldr         r1,[DAT_0003e720]                       ;= 20002C90h
ram:0003e4bc    0290            str         r0,[sp,#local_28+0x30]                  
ram:0003e4be    4988            ldrh        r1,[r1,#0x2]=>DAT_20002c92              
ram:0003e4c0    6a46            mov         r2,sp                                   
ram:0003e4c2    9181            strh        r1,[r2,#local_24+0x30]                  
ram:0003e4c4    e168            ldr         r1,[r4,#0xc]=>DAT_20003360              
ram:0003e4c6    0691            str         r1,[sp,#local_18+0x30]                  
ram:0003e4c8    079a            ldr         r2,[sp,#local_14+0x30]                  
ram:0003e4ca    0091            str         r1,[sp,#0x0]=>local_30                  
ram:0003e4cc    0192            str         r2,[sp,#local_2c+0x30]                  
ram:0003e4ce    03a9            add         r1,sp,#0xc                              
ram:0003e4d0    0ec9            ldmia       r1=>local_24,{r1,r2,r3}                 
ram:0003e4d2    fff74bfd        bl          FUN_0003df6c                            ;undefined FUN_0003df6c(int param_1, ...
                            LAB_0003e4d6:                 ;XREF[1,0]:   0003e4ae
ram:0003e4d6    2846            mov         r0,r5                                   
ram:0003e4d8    09b0            add         sp,#0x24                                
ram:0003e4da    30bd            pop         {r4,r5,pc}                              
                            ;************************************************************************************************
                            ;*                                           FUNCTION                                           *
                            ;************************************************************************************************
                            ;undefined4 FUN_0003e4dc(void)
          ;local_8       undefined4          -8                      ;XREF[1,0]:   0003e4fa
          ;local_c       undefined4          -c                      ;XREF[1,0]:   0003e4f8
          ;local_10      undefined4         -10                      ;XREF[1,0]:   0003e4f4
          ;local_14      undefined4         -14                      ;XREF[1,0]:   0003e4f0
          ;local_18      undefined4         -18                      ;XREF[2,0]:   0003e4e6,0003e502
          ;local_1c      undefined4         -1c                      ;XREF[1,0]:   0003e4fe
          ;local_20      undefined4         -20                      ;XREF[1,0]:   0003e4fc
ram:0003e4dc    00b5            push        {lr}                                    
ram:0003e4de    9049            ldr         r1,[DAT_0003e720]                       ;= 20002C90h
ram:0003e4e0    87b0            sub         sp,#0x1c                                
ram:0003e4e2    4988            ldrh        r1,[r1,#0x2]=>DAT_20002c92              
ram:0003e4e4    6a46            mov         r2,sp                                   
ram:0003e4e6    1181            strh        r1,[r2,#local_18+0x20]                  
ram:0003e4e8    8e49            ldr         r1,[DAT_0003e724]                       ;= 200033A4h
ram:0003e4ea    0320            movs        r0,#0x3                                 
ram:0003e4ec    5039            subs        r1,#0x50                                
ram:0003e4ee    4a68            ldr         r2,[r1,#0x4]=>DAT_20003358              
ram:0003e4f0    0392            str         r2,[sp,#local_14+0x20]                  
ram:0003e4f2    8a68            ldr         r2,[r1,#0x8]=>DAT_2000335c              
ram:0003e4f4    0492            str         r2,[sp,#local_10+0x20]                  
ram:0003e4f6    c968            ldr         r1,[r1,#0xc]=>DAT_20003360              
ram:0003e4f8    0591            str         r1,[sp,#local_c+0x20]                   
ram:0003e4fa    069a            ldr         r2,[sp,#local_8+0x20]                   
ram:0003e4fc    0091            str         r1,[sp,#0x0]=>local_20                  
ram:0003e4fe    0192            str         r2,[sp,#local_1c+0x20]                  
ram:0003e500    02a9            add         r1,sp,#0x8                              
ram:0003e502    0ec9            ldmia       r1=>local_18,{r1,r2,r3}                 
ram:0003e504    fff732fd        bl          FUN_0003df6c                            ;undefined FUN_0003df6c(int param_1, ...
ram:0003e508    0020            movs        r0,#0x0                                 
ram:0003e50a    b6e7            b           LAB_0003e47a                            
                            ;************************************************************************************************
                            ;*                                           FUNCTION                                           *
                            ;************************************************************************************************
                            ;longlong FUN_0003e50c(void)
          ;local_18      undefined4         -18                      ;XREF[1,0]:   0003e516
                                                          ;XREF[1,0]:   0003e072
ram:0003e50c    3eb5            push        {r1,r2,r3,r4,r5,lr}                     
ram:0003e50e    864a            ldr         r2,[PTR_DAT_0003e728]                   ;= 0003f5c8
ram:0003e510    6b46            mov         r3,sp                                   
ram:0003e512    1832            adds        r2,#0x18                                
                                                          ; FWD[3,0]:   0003f5e0,0003f5e4,0003f5e8
ram:0003e514    07ca            ldmia       r2,{r0,r1,r2}=>DAT_0003f5e0             ;= 0003E339h
ram:0003e516    07c3            stmia       r3!=>local_18,{r0,r1,r2}                
ram:0003e518    814d            ldr         r5,[DAT_0003e720]                       ;= 20002C90h
ram:0003e51a    0024            movs        r4,#0x0                                 
ram:0003e51c    6c70            strb        r4,[r5,#0x1]=>DAT_20002c91              
ram:0003e51e    2946            mov         r1,r5                                   
ram:0003e520    6c80            strh        r4,[r5,#0x2]=>DAT_20002c92              
ram:0003e522    2431            adds        r1=>DAT_20002cb4,#0x24                  
ram:0003e524    6846            mov         r0,sp                                   
ram:0003e526    fff70cf8        bl          FUN_0003d542                            ;undefined4 FUN_0003d542(int * param_...
ram:0003e52a    0028            cmp         r0,#0x0                                 
ram:0003e52c    01d0            beq         LAB_0003e532                            
ram:0003e52e    ac60            str         r4,[r5,#0x8]=>DAT_20002c98              
ram:0003e530    3ebd            pop         {r1,r2,r3,r4,r5,pc}                     
                            LAB_0003e532:                 ;XREF[1,0]:   0003e52c
ram:0003e532    0320            movs        r0,#0x3                                 
ram:0003e534    7a49            ldr         r1,[DAT_0003e720]                       ;= 20002C90h
ram:0003e536    0003            lsls        r0,r0,#0xc                              
ram:0003e538    8068            ldr         r0,[r0,#offset DAT_00003008 &0xff]      
ram:0003e53a    2431            adds        r1,#0x24                                
ram:0003e53c    4860            str         r0,[r1,#0x4]=>DAT_20002cb8              
ram:0003e53e    2439            subs        r1,#0x24                                
ram:0003e540    0a46            mov         r2,r1                                   
ram:0003e542    526a            ldr         r2,[r2,#0x24]=>DAT_20002cb4             
ram:0003e544    ca61            str         r2,[r1,#0x1c]=>DAT_20002cac             
ram:0003e546    3b21            movs        r1,#0x3b                                
ram:0003e548    0903            lsls        r1,r1,#0xc                              
ram:0003e54a    091a            subs        r1,r1,r0                                
ram:0003e54c    4908            lsrs        r1,r1,#0x1                              
ram:0003e54e    4018            adds        r0,r0,r1                                
ram:0003e550    7349            ldr         r1,[DAT_0003e720]                       ;= 20002C90h
ram:0003e552    764a            ldr         r2,[DAT_0003e72c]                       ;= 0003E387h
ram:0003e554    1c31            adds        r1,#0x1c                                
ram:0003e556    4860            str         r0,[r1,#0x4]=>DAT_20002cb0              
ram:0003e558    7148            ldr         r0,[DAT_0003e720]                       ;= 20002C90h
ram:0003e55a    0021            movs        r1,#0x0                                 
ram:0003e55c    1030            adds        r0=>DAT_20002ca0,#0x10                  
ram:0003e55e    fff7d7fa        bl          FUN_0003db10                            ;undefined4 FUN_0003db10(int * param_...
ram:0003e562    0028            cmp         r0,#0x0                                 
ram:0003e564    03d0            beq         LAB_0003e56e                            
ram:0003e566    0022            movs        r2,#0x0                                 
ram:0003e568    1146            mov         r1,r2                                   
ram:0003e56a    fff737f8        bl          FUN_0003d5dc                            ;undefined FUN_0003d5dc(void)
                            LAB_0003e56e:                 ;XREF[1,0]:   0003e564
ram:0003e56e    0f21            movs        r1,#0xf                                 
ram:0003e570    0022            movs        r2,#0x0                                 
ram:0003e572    8904            lsls        r1,r1,#0x12                             
ram:0003e574    2869            ldr         r0,[r5,#0x10]=>DAT_20002ca0             
ram:0003e576    fff727fb        bl          FUN_0003dbc8                            ;longlong FUN_0003dbc8(uint param_1, ...
ram:0003e57a    0028            cmp         r0,#0x0                                 
ram:0003e57c    03d0            beq         LAB_0003e586                            
ram:0003e57e    0022            movs        r2,#0x0                                 
ram:0003e580    1146            mov         r1,r2                                   
ram:0003e582    fff72bf8        bl          FUN_0003d5dc                            ;undefined FUN_0003d5dc(void)
                            LAB_0003e586:                 ;XREF[1,0]:   0003e57c
ram:0003e586    0120            movs        r0,#0x1                                 
ram:0003e588    6c60            str         r4,[r5,#0x4]=>DAT_20002c94              
ram:0003e58a    a860            str         r0,[r5,#0x8]=>DAT_20002c98              
ram:0003e58c    0020            movs        r0,#0x0                                 
ram:0003e58e    3ebd            pop         {r1,r2,r3,r4,r5,pc}                     
                            ;************************************************************************************************
                            ;*                                           FUNCTION                                           *
                            ;************************************************************************************************
                            ;undefined FUN_0003e590(undefined4 param_1)
          ;param_1       undefined4          r0                      
                                                          ;XREF[1,0]:   0003f030
ram:0003e590    6349            ldr         r1,[DAT_0003e720]                       ;= 20002C90h
ram:0003e592    8861            str         param_1,[r1,#0x18]=>DAT_20002ca8        
ram:0003e594    7047            bx          lr                                      
                            ;************************************************************************************************
                            ;*                                           FUNCTION                                           *
                            ;************************************************************************************************
                            ;int FUN_0003e596(int param_1)
          ;param_1       int                 r0                      
                                                          ;XREF[1,0]:   0003f1ea
ram:0003e596    70b5            push        {r4,r5,r6,lr}                           
ram:0003e598    4268            ldr         r2,[param_1,#0x4]                       
ram:0003e59a    6248            ldr         param_1,[DAT_0003e724]                  ;= 200033A4h
ram:0003e59c    1468            ldr         r4,[r2,#0x0]                            
ram:0003e59e    5368            ldr         r3,[r2,#0x4]                            
ram:0003e5a0    9168            ldr         r1,[r2,#0x8]                            
ram:0003e5a2    5038            subs        param_1,#0x50                           
ram:0003e5a4    d268            ldr         r2,[r2,#0xc]                            
ram:0003e5a6    0460            str         r4,[param_1,#0x0]=>DAT_20003354         
ram:0003e5a8    4360            str         r3,[param_1,#0x4]=>DAT_20003358         
ram:0003e5aa    c260            str         r2,[param_1,#0xc]=>DAT_20003360         
ram:0003e5ac    8160            str         r1,[param_1,#0x8]=>DAT_2000335c         
ram:0003e5ae    0078            ldrb        param_1,[param_1,#0x0]=>DAT_20003354    
ram:0003e5b0    4407            lsls        r4,param_1,#0x1d                        
ram:0003e5b2    01d5            bpl         LAB_0003e5b8                            
ram:0003e5b4    8407            lsls        r4,param_1,#0x1e                        
ram:0003e5b6    05d1            bne         LAB_0003e5c4                            
                            LAB_0003e5b8:                 ;XREF[1,0]:   0003e5b2
ram:0003e5b8    9c07            lsls        r4,r3,#0x1e                             
ram:0003e5ba    03d1            bne         LAB_0003e5c4                            
ram:0003e5bc    8c07            lsls        r4,r1,#0x1e                             
ram:0003e5be    01d1            bne         LAB_0003e5c4                            
ram:0003e5c0    9407            lsls        r4,r2,#0x1e                             
ram:0003e5c2    01d0            beq         LAB_0003e5c8                            
                            LAB_0003e5c4:                 ;XREF[3,0]:   0003e5b6,0003e5ba,0003e5be
ram:0003e5c4    0620            movs        param_1,#0x6                            
ram:0003e5c6    70bd            pop         {r4,r5,r6,pc}                           
                            LAB_0003e5c8:                 ;XREF[1,0]:   0003e5c2
ram:0003e5c8    5b18            adds        r3,r3,r1                                
ram:0003e5ca    9a18            adds        r2,r3,r2                                
ram:0003e5cc    544d            ldr         r5,[DAT_0003e720]                       ;= 20002C90h
ram:0003e5ce    0f23            movs        r3,#0xf                                 
ram:0003e5d0    9b02            lsls        r3,r3,#0xa                              
ram:0003e5d2    ea60            str         r2,[r5,#0xc]=>DAT_20002c9c              
ram:0003e5d4    9942            cmp         r1,r3                                   
ram:0003e5d6    14d8            bhi         LAB_0003e602                            
ram:0003e5d8    524c            ldr         r4,[DAT_0003e724]                       ;= 200033A4h
ram:0003e5da    c107            lsls        r1,param_1,#0x1f                        
ram:0003e5dc    0dd0            beq         LAB_0003e5fa                            
ram:0003e5de    0320            movs        param_1,#0x3                            
ram:0003e5e0    0003            lsls        param_1,param_1,#0xc                    
ram:0003e5e2    8068            ldr         param_1,[param_1,#offset DAT_00003008...
ram:0003e5e4    3b21            movs        r1,#0x3b                                
ram:0003e5e6    0903            lsls        r1,r1,#0xc                              
ram:0003e5e8    081a            subs        param_1,r1,param_1                      
ram:0003e5ea    9042            cmp         param_1,r2                              
ram:0003e5ec    09d3            bcc         LAB_0003e602                            
ram:0003e5ee    5048            ldr         param_1,[DAT_0003e730]                  ;= 0003E3D7h
ram:0003e5f0    2060            str         param_1=>FUN_000...,[r4,#0x0]=>DAT_20...
ram:0003e5f2    5048            ldr         param_1,[DAT_0003e734]                  ;= 0003E423h
ram:0003e5f4    6060            str         param_1,[r4,#0x4]=>DAT_200033a8         
ram:0003e5f6    5048            ldr         param_1,[DAT_0003e738]                  ;= 0003E445h
ram:0003e5f8    0ee0            b           LAB_0003e618                            
                            LAB_0003e5fa:                 ;XREF[1,0]:   0003e5dc
ram:0003e5fa    0921            movs        r1,#0x9                                 
ram:0003e5fc    0903            lsls        r1,r1,#0xc                              
ram:0003e5fe    8a42            cmp         r2,r1                                   
ram:0003e600    01d9            bls         LAB_0003e606                            
                            LAB_0003e602:                 ;XREF[2,0]:   0003e5d6,0003e5ec
ram:0003e602    0c20            movs        param_1,#0xc                            
ram:0003e604    70bd            pop         {r4,r5,r6,pc}                           
                            LAB_0003e606:                 ;XREF[1,0]:   0003e600
ram:0003e606    4d49            ldr         r1,[PTR_LAB_0003e3fa+1+1_0003e73c]      ;= 0003e3fb
ram:0003e608    2160            str         r1=>LAB_0003e3fa...,[r4,#0x0]=>DAT_20...
ram:0003e60a    4d49            ldr         r1,[PTR_LAB_0003e420+1+1_0003e740]      ;= 0003e421
ram:0003e60c    6160            str         r1=>LAB_0003e420...,[r4,#0x4]=>DAT_20...
ram:0003e60e    8007            lsls        param_1,param_1,#0x1e                   
ram:0003e610    01d5            bpl         LAB_0003e616                            
ram:0003e612    4c48            ldr         param_1,[DAT_0003e744]                  ;= 0003E4DDh
ram:0003e614    00e0            b           LAB_0003e618                            
                            LAB_0003e616:                 ;XREF[1,0]:   0003e610
ram:0003e616    4c48            ldr         param_1,[PTR_FUN_0003e47e+1_0003e748]   ;= 0003e47f
                            LAB_0003e618:                 ;XREF[2,0]:   0003e5f8,0003e614
ram:0003e618    a060            str         param_1=>FUN_000...,[r4,#0x8]=>DAT_20...
ram:0003e61a    a868            ldr         param_1,[r5,#0x8]=>DAT_20002c98         
ram:0003e61c    0128            cmp         param_1,#0x1                            
ram:0003e61e    02d0            beq         LAB_0003e626                            
ram:0003e620    0826            movs        r6,#0x8                                 
                            LAB_0003e622:                 ;XREF[1,0]:   0003e634
ram:0003e622    3046            mov         param_1,r6                              
                            LAB_0003e624:                 ;XREF[1,0]:   0003e62c
ram:0003e624    70bd            pop         {r4,r5,r6,pc}                           
                            LAB_0003e626:                 ;XREF[1,0]:   0003e61e
ram:0003e626    fff7b8fe        bl          FUN_0003e39a                            ;int FUN_0003e39a(undefined4 param_1,...
ram:0003e62a    0600            movs        r6,param_1                              
ram:0003e62c    fad1            bne         LAB_0003e624                            
ram:0003e62e    2168            ldr         r1=>FUN_0003e3d6+1,[r4,#0x0]=>DAT_200...
ram:0003e630    e868            ldr         param_1,[r5,#0xc]=>DAT_20002c9c         
ram:0003e632    8847            blx         r1=>FUN_0003e3d6                        ;undefined FUN_0003e3d6(void)
ram:0003e634    f5e7            b           LAB_0003e622                            
                            ;************************************************************************************************
                            ;*                                           FUNCTION                                           *
                            ;************************************************************************************************
                            ;int FUN_0003e636(int param_1, undefined4 param_2, undefined4 param_3, uint param_4)
          ;param_1       int                 r0                      
          ;param_2       undefined4          r1                      
          ;param_3       undefined4          r2                      
          ;param_4       uint                r3                      
                                                          ;XREF[1,0]:   0003eb34
ram:0003e636    70b5            push        {r4,r5,r6,lr}                           
ram:0003e638    0500            movs        r5,param_1                              
ram:0003e63a    04d0            beq         LAB_0003e646                            
ram:0003e63c    287a            ldrb        param_1,[r5,#0x8]                       
ram:0003e63e    8007            lsls        param_1,param_1,#0x1e                   
ram:0003e640    03d0            beq         LAB_0003e64a                            
ram:0003e642    1020            movs        param_1,#0x10                           
ram:0003e644    70bd            pop         {r4,r5,r6,pc}                           
                            LAB_0003e646:                 ;XREF[1,0]:   0003e63a
ram:0003e646    0e20            movs        param_1,#0xe                            
ram:0003e648    70bd            pop         {r4,r5,r6,pc}                           
                            LAB_0003e64a:                 ;XREF[1,0]:   0003e640
ram:0003e64a    354c            ldr         r4,[DAT_0003e720]                       ;= 20002C90h
ram:0003e64c    a068            ldr         param_1,[r4,#0x8]=>DAT_20002c98         
ram:0003e64e    0328            cmp         param_1,#0x3                            
ram:0003e650    03d0            beq         LAB_0003e65a                            
ram:0003e652    0428            cmp         param_1,#0x4                            
ram:0003e654    01d0            beq         LAB_0003e65a                            
ram:0003e656    0528            cmp         param_1,#0x5                            
ram:0003e658    01d0            beq         LAB_0003e65e                            
                            LAB_0003e65a:                 ;XREF[2,0]:   0003e650,0003e654
ram:0003e65a    0820            movs        param_1,#0x8                            
ram:0003e65c    70bd            pop         {r4,r5,r6,pc}                           
                            LAB_0003e65e:                 ;XREF[1,0]:   0003e658
ram:0003e65e    6868            ldr         param_1,[r5,#0x4]                       
ram:0003e660    e168            ldr         param_2,[r4,#0xc]=>DAT_20002c9c         
ram:0003e662    8600            lsls        r6,param_1,#0x2                         
ram:0003e664    6068            ldr         param_1,[r4,#0x4]=>DAT_20002c94         
ram:0003e666    8019            adds        param_1,param_1,r6                      
ram:0003e668    8842            cmp         param_1,param_2                         
ram:0003e66a    04d9            bls         LAB_0003e676                            
ram:0003e66c    0020            movs        param_1,#0x0                            
ram:0003e66e    c043            mvns        param_1,param_1                         
ram:0003e670    6060            str         param_1,[r4,#0x4]=>DAT_20002c94         
ram:0003e672    0c20            movs        param_1,#0xc                            
                            LAB_0003e674:                 ;XREF[3,0]:   0003e67c,0003e68c,0003e698
ram:0003e674    70bd            pop         {r4,r5,r6,pc}                           
                            LAB_0003e676:                 ;XREF[1,0]:   0003e66a
ram:0003e676    fff790fe        bl          FUN_0003e39a                            ;int FUN_0003e39a(undefined4 param_1,...
ram:0003e67a    0028            cmp         param_1,#0x0                            
ram:0003e67c    fad1            bne         LAB_0003e674                            
ram:0003e67e    a968            ldr         param_2,[r5,#0x8]                       
ram:0003e680    3246            mov         param_3,r6                              
ram:0003e682    6368            ldr         param_4,[r4,#0x4]=>DAT_20002c94         
ram:0003e684    6069            ldr         param_1,[r4,#0x14]=>DAT_20002ca4        
ram:0003e686    fef76dff        bl          FUN_0003d564                            ;int FUN_0003d564(undefined4 * param_...
ram:0003e68a    0028            cmp         param_1,#0x0                            
ram:0003e68c    f2d1            bne         LAB_0003e674                            
ram:0003e68e    6168            ldr         param_2,[r4,#0x4]=>DAT_20002c94         
ram:0003e690    8919            adds        param_2,param_2,r6                      
ram:0003e692    6160            str         param_2,[r4,#0x4]=>DAT_20002c94         
ram:0003e694    e268            ldr         param_3,[r4,#0xc]=>DAT_20002c9c         
ram:0003e696    9142            cmp         param_2,param_3                         
ram:0003e698    ecd0            beq         LAB_0003e674                            
ram:0003e69a    0920            movs        param_1,#0x9                            
ram:0003e69c    70bd            pop         {r4,r5,r6,pc}                           
                            ;************************************************************************************************
                            ;*                                           FUNCTION                                           *
                            ;************************************************************************************************
                            ;int FUN_0003e69e(void)
ram:0003e69e    10b5            push        {r4,lr}                                 
ram:0003e6a0    1f4c            ldr         r4,[DAT_0003e720]                       ;= 20002C90h
ram:0003e6a2    0820            movs        r0,#0x8                                 
ram:0003e6a4    6168            ldr         r1,[r4,#0x4]=>DAT_20002c94              
ram:0003e6a6    0029            cmp         r1,#0x0                                 
ram:0003e6a8    00d0            beq         LAB_0003e6ac                            
                            LAB_0003e6aa:                 ;XREF[1,0]:   0003e6b0
ram:0003e6aa    10bd            pop         {r4,pc}                                 
                            LAB_0003e6ac:                 ;XREF[1,0]:   0003e6a8
ram:0003e6ac    a168            ldr         r1,[r4,#0x8]=>DAT_20002c98              
ram:0003e6ae    0429            cmp         r1,#0x4                                 
ram:0003e6b0    fbd1            bne         LAB_0003e6aa                            
ram:0003e6b2    1c48            ldr         r0,[DAT_0003e724]                       ;= 200033A4h
ram:0003e6b4    6178            ldrb        r1,[r4,#0x1]=>DAT_20002c91              
ram:0003e6b6    4038            subs        r0,#0x40                                
ram:0003e6b8    00f062f9        bl          FUN_0003e980                            ;undefined4 FUN_0003e980(ushort * par...
ram:0003e6bc    0028            cmp         r0,#0x0                                 
ram:0003e6be    02d0            beq         LAB_0003e6c6                            
ram:0003e6c0    0021            movs        r1,#0x0                                 
ram:0003e6c2    6170            strb        r1,[r4,#0x1]=>DAT_20002c91              
ram:0003e6c4    10bd            pop         {r4,pc}                                 
                            LAB_0003e6c6:                 ;XREF[1,0]:   0003e6be
ram:0003e6c6    0521            movs        r1,#0x5                                 
ram:0003e6c8    a160            str         r1,[r4,#0x8]=>DAT_20002c98              
ram:0003e6ca    10bd            pop         {r4,pc}                                 
                            ;************************************************************************************************
                            ;*                                           FUNCTION                                           *
                            ;************************************************************************************************
                            ;int FUN_0003e6cc(int param_1, undefined4 param_2, undefined4 param_3, uint param_4)
          ;param_1       int                 r0                      
          ;param_2       undefined4          r1                      
          ;param_3       undefined4          r2                      
          ;param_4       uint                r3                      
                                                          ;XREF[1,0]:   0003f240
ram:0003e6cc    f8b5            push        {param_4,r4,r5,r6,r7,lr}                
ram:0003e6ce    144c            ldr         r4,[DAT_0003e720]                       ;= 20002C90h
ram:0003e6d0    0746            mov         r7,param_1                              
ram:0003e6d2    a068            ldr         param_1,[r4,#0x8]=>DAT_20002c98         
ram:0003e6d4    0328            cmp         param_1,#0x3                            
ram:0003e6d6    04d0            beq         LAB_0003e6e2                            
ram:0003e6d8    0428            cmp         param_1,#0x4                            
ram:0003e6da    04d0            beq         LAB_0003e6e6                            
ram:0003e6dc    0825            movs        r5,#0x8                                 
                            LAB_0003e6de:                 ;XREF[1,0]:   0003e71c
ram:0003e6de    2846            mov         param_1,r5                              
ram:0003e6e0    f8bd            pop         {param_4,r4,r5,r6,r7,pc}                
                            LAB_0003e6e2:                 ;XREF[1,0]:   0003e6d6
ram:0003e6e2    0420            movs        param_1,#0x4                            
ram:0003e6e4    a060            str         param_1,[r4,#0x8]=>DAT_20002c98         
                            LAB_0003e6e6:                 ;XREF[1,0]:   0003e6da
ram:0003e6e6    6068            ldr         param_1,[r4,#0x4]=>DAT_20002c94         
ram:0003e6e8    0028            cmp         param_1,#0x0                            
ram:0003e6ea    01d0            beq         LAB_0003e6f0                            
ram:0003e6ec    0820            movs        param_1,#0x8                            
                            LAB_0003e6ee:                 ;XREF[1,0]:   0003e6f6
ram:0003e6ee    f8bd            pop         {param_4,r4,r5,r6,r7,pc}                
                            LAB_0003e6f0:                 ;XREF[1,0]:   0003e6ea
ram:0003e6f0    fff753fe        bl          FUN_0003e39a                            ;int FUN_0003e39a(undefined4 param_1,...
ram:0003e6f4    0500            movs        r5,param_1                              
ram:0003e6f6    fad1            bne         LAB_0003e6ee                            
ram:0003e6f8    7868            ldr         param_1,[r7,#0x4]                       
ram:0003e6fa    8600            lsls        r6,param_1,#0x2                         
ram:0003e6fc    6078            ldrb        param_1,[r4,#0x1]=>DAT_20002c91         
ram:0003e6fe    8119            adds        param_2,param_1,r6                      
ram:0003e700    4029            cmp         param_2,#0x40                           
ram:0003e702    01d9            bls         LAB_0003e708                            
ram:0003e704    0920            movs        param_1,#0x9                            
ram:0003e706    f8bd            pop         {param_4,r4,r5,r6,r7,pc}                
                            LAB_0003e708:                 ;XREF[1,0]:   0003e702
ram:0003e708    064a            ldr         param_3,[DAT_0003e724]                  ;= 200033A4h
ram:0003e70a    b968            ldr         param_2,[r7,#0x8]                       
ram:0003e70c    403a            subs        param_3,#0x40                           
ram:0003e70e    1018            adds        param_1,param_3,param_1                 
ram:0003e710    3246            mov         param_3,r6                              
ram:0003e712    00f0b7fe        bl          FUN_0003f484                            ;undefined FUN_0003f484(undefined4 * ...
ram:0003e716    6078            ldrb        param_1,[r4,#0x1]=>DAT_20002c91         
ram:0003e718    8019            adds        param_1,param_1,r6                      
ram:0003e71a    6070            strb        param_1,[r4,#0x1]=>DAT_20002c91         
ram:0003e71c    dfe7            b           LAB_0003e6de                            
ram:0003e71e    0000            movs        r0,r0                                   
                            DAT_0003e720:                 ;XREF[21,0]:  0003e33a,0003e388,0003e39c,0003e3d6
                                                          ;             0003e3da,0003e3fa,0003e3fe,0003e446
                                                          ;             0003e482,0003e49c,0003e4ba,0003e4de
                                                          ;             0003e518,0003e534,0003e550,0003e558
                                                          ;             0003e590,0003e5cc,0003e64a,0003e6a0
                                                          ;             0003e6ce
ram:0003e720    902c0020        undefined4  20002C90h                               
                            DAT_0003e724:                 ;XREF[8,0]:   0003e362,0003e458,0003e480,0003e4e8
                                                          ;             0003e59a,0003e5d8,0003e6b2,0003e708
ram:0003e724    a4330020        undefined4  200033A4h                               
                            PTR_DAT_0003e728:             ;XREF[2,0]:   0003e428,0003e50e
ram:0003e728    c8f50300        addr        DAT_0003f5c8                            ;= 04h
                            DAT_0003e72c:                 ;XREF[1,0]:   0003e552
ram:0003e72c    87e30300        undefined4  0003E387h                               ;?  ->  0003e387
                            DAT_0003e730:                 ;XREF[1,0]:   0003e5ee
ram:0003e730    d7e30300        undefined4  0003E3D7h                               ;?  ->  0003e3d7
                            DAT_0003e734:                 ;XREF[1,0]:   0003e5f2
ram:0003e734    23e40300        undefined4  0003E423h                               ;?  ->  0003e423
                            DAT_0003e738:                 ;XREF[1,0]:   0003e5f6
ram:0003e738    45e40300        undefined4  0003E445h                               ;?  ->  0003e445
                            PTR_LAB_0003e3fa+1+1_0003e73c:;XREF[1,0]:   0003e606
ram:0003e73c    fbe30300        addr        LAB_0003e3fa+1+1                        
                            PTR_LAB_0003e420+1+1_0003e740:;XREF[1,0]:   0003e60a
ram:0003e740    21e40300        addr        LAB_0003e420+1+1                        
                            DAT_0003e744:                 ;XREF[1,0]:   0003e612
ram:0003e744    dde40300        undefined4  0003E4DDh                               ;?  ->  0003e4dd
                            PTR_FUN_0003e47e+1_0003e748:  ;XREF[1,0]:   0003e616
ram:0003e748    7fe40300        addr        FUN_0003e47e+1                          
                            ;************************************************************************************************
                            ;*                                           FUNCTION                                           *
                            ;************************************************************************************************
                            ;int FUN_0003e74c(undefined4 param_1, undefined4 param_2, undefined4 param_3, uint param_4)
          ;param_1       undefined4          r0                      
          ;param_2       undefined4          r1                      
          ;param_3       undefined4          r2                      
          ;param_4       uint                r3                      
ram:0003e74c    10b5            push        {r4,lr}                                 
ram:0003e74e    8a4c            ldr         r4,[DAT_0003e978]                       ;= 20002C90h
ram:0003e750    a068            ldr         param_1,[r4,#0x8]=>DAT_20002c98         
ram:0003e752    0528            cmp         param_1,#0x5                            
ram:0003e754    13d1            bne         LAB_0003e77e                            
ram:0003e756    e168            ldr         param_2,[r4,#0xc]=>DAT_20002c9c         
ram:0003e758    6068            ldr         param_1,[r4,#0x4]=>DAT_20002c94         
ram:0003e75a    8842            cmp         param_1,param_2                         
ram:0003e75c    0fd1            bne         LAB_0003e77e                            
ram:0003e75e    0620            movs        param_1,#0x6                            
ram:0003e760    a060            str         param_1,[r4,#0x8]=>DAT_20002c98         
ram:0003e762    fff71afe        bl          FUN_0003e39a                            ;int FUN_0003e39a(undefined4 param_1,...
ram:0003e766    0028            cmp         param_1,#0x0                            
ram:0003e768    08d1            bne         LAB_0003e77c                            
ram:0003e76a    6069            ldr         param_1,[r4,#0x14]=>DAT_20002ca4        
ram:0003e76c    e168            ldr         param_2,[r4,#0xc]=>DAT_20002c9c         
ram:0003e76e    4068            ldr         param_1,[param_1,#0x4]                  
ram:0003e770    00f040f9        bl          FUN_0003e9f4                            ;undefined4 FUN_0003e9f4(int param_1,...
ram:0003e774    0028            cmp         param_1,#0x0                            
ram:0003e776    01d1            bne         LAB_0003e77c                            
ram:0003e778    0721            movs        param_2,#0x7                            
ram:0003e77a    a160            str         param_2,[r4,#0x8]=>DAT_20002c98         
                            LAB_0003e77c:                 ;XREF[2,0]:   0003e768,0003e776
ram:0003e77c    10bd            pop         {r4,pc}                                 
                            LAB_0003e77e:                 ;XREF[2,0]:   0003e754,0003e75c
ram:0003e77e    0820            movs        param_1,#0x8                            
ram:0003e780    10bd            pop         {r4,pc}                                 
                            ;************************************************************************************************
                            ;*                                           FUNCTION                                           *
                            ;************************************************************************************************
                            ;undefined4 FUN_0003e782(undefined4 param_1, undefined4 param_2, undefined4 param_3, uint param_4)
          ;param_1       undefined4          r0                      
          ;param_2       undefined4          r1                      
          ;param_3       undefined4          r2                      
          ;param_4       uint                r3                      
ram:0003e782    10b5            push        {r4,lr}                                 
ram:0003e784    7c48            ldr         param_1,[DAT_0003e978]                  ;= 20002C90h
ram:0003e786    8168            ldr         param_2,[param_1,#0x8]=>DAT_20002c98    
ram:0003e788    0729            cmp         param_2,#0x7                            
ram:0003e78a    01d0            beq         LAB_0003e790                            
ram:0003e78c    0820            movs        param_1,#0x8                            
ram:0003e78e    10bd            pop         {r4,pc}                                 
                            LAB_0003e790:                 ;XREF[1,0]:   0003e78a
ram:0003e790    0069            ldr         param_1,[param_1,#0x10]=>DAT_20002ca0   
ram:0003e792    fff756fa        bl          FUN_0003dc42                            ;undefined4 FUN_0003dc42(uint param_1...
ram:0003e796    0028            cmp         param_1,#0x0                            
ram:0003e798    03d0            beq         LAB_0003e7a2                            
ram:0003e79a    0022            movs        param_3,#0x0                            
ram:0003e79c    1146            mov         param_2,param_3                         
ram:0003e79e    fef71dff        bl          FUN_0003d5dc                            ;undefined FUN_0003d5dc(void)
                            LAB_0003e7a2:                 ;XREF[1,0]:   0003e798
ram:0003e7a2    7648            ldr         param_1,[DAT_0003e97c]                  ;= 200033A4h
ram:0003e7a4    8068            ldr         param_1,[param_1,#0x8]=>DAT_200033ac    
ram:0003e7a6    8047            blx         param_1                                 
ram:0003e7a8    10bd            pop         {r4,pc}                                 
                            ;************************************************************************************************
                            ;*                                           FUNCTION                                           *
                            ;************************************************************************************************
                            ;undefined FUN_0003e7aa(undefined4 param_1, undefined2 param_2, int param_3, int * param_4)
          ;param_1       undefined4          r0                      
          ;param_2       undefined2          r1                      
          ;param_3       int                 r2                      
          ;param_4       int *               r3                      
          ;local_c       undefined4          -c                      ;XREF[1,0]:   0003e7ae
          ;local_10      undefined4         -10                      ;XREF[1,0]:   0003e7b0
ram:0003e7aa    1cb5            push        {param_3,param_4,r4,lr}                 
ram:0003e7ac    0620            movs        param_1,#0x6                            
ram:0003e7ae    0195            str         r5,[sp,#local_c+0x10]                   
ram:0003e7b0    0094            str         r4,[sp,#0x0]=>local_10                  
ram:0003e7b2    fff7dbfb        bl          FUN_0003df6c                            ;undefined FUN_0003df6c(int param_1, ...
ram:0003e7b6    1cbd            pop         {param_3,param_4,r4,pc}                 
                            ;************************************************************************************************
                            ;*                                           FUNCTION                                           *
                            ;************************************************************************************************
                            ;undefined FUN_0003e7b8(int param_1, uint param_2, undefined4 param_3, int param_4)
          ;param_1       int                 r0                      
          ;param_2       uint                r1                      
          ;param_3       undefined4          r2                      
          ;param_4       int                 r3                      
                                                          ;XREF[3,0]:   0003e7da,0003e85e,0003e934
ram:0003e7b8    f8b5            push        {param_4,r4,r5,r6,r7,lr}                
ram:0003e7ba    1c46            mov         r4,param_4                              
ram:0003e7bc    1746            mov         r7,param_3                              
ram:0003e7be    0d46            mov         r5,param_2                              
ram:0003e7c0    0646            mov         r6,param_1                              
ram:0003e7c2    00f0c3f8        bl          FUN_0003e94c                            ;undefined * FUN_0003e94c(void)
ram:0003e7c6    0028            cmp         param_1,#0x0                            
ram:0003e7c8    17d0            beq         LAB_0003e7fa                            
ram:0003e7ca    0120            movs        param_1,#0x1                            
ram:0003e7cc    0003            lsls        param_1,param_1,#0xc                    
ram:0003e7ce    8542            cmp         r5,param_1                              
ram:0003e7d0    07d9            bls         LAB_0003e7e2                            
ram:0003e7d2    2346            mov         param_4,r4                              
ram:0003e7d4    291b            subs        param_2,r5,r4                           
ram:0003e7d6    301b            subs        param_1,r6,r4                           
ram:0003e7d8    1a46            mov         param_3,param_4                         
ram:0003e7da    fff7edff        bl          FUN_0003e7b8                            ;undefined FUN_0003e7b8(int param_1, ...
ram:0003e7de    0028            cmp         param_1,#0x0                            
ram:0003e7e0    0bd1            bne         LAB_0003e7fa                            
                            LAB_0003e7e2:                 ;XREF[1,0]:   0003e7d0
ram:0003e7e2    3a46            mov         param_3,r7                              
ram:0003e7e4    2946            mov         param_2,r5                              
ram:0003e7e6    3046            mov         param_1,r6                              
ram:0003e7e8    00f0bbf8        bl          FUN_0003e962                            ;undefined * FUN_0003e962(void)
ram:0003e7ec    0028            cmp         param_1,#0x0                            
ram:0003e7ee    04d1            bne         LAB_0003e7fa                            
ram:0003e7f0    3a46            mov         param_3,r7                              
ram:0003e7f2    2946            mov         param_2,r5                              
ram:0003e7f4    3046            mov         param_1,r6                              
ram:0003e7f6    00f0a9f8        bl          FUN_0003e94c                            ;undefined * FUN_0003e94c(void)
                            LAB_0003e7fa:                 ;XREF[3,0]:   0003e7c8,0003e7e0,0003e7ee
ram:0003e7fa    f8bd            pop         {param_4,r4,r5,r6,r7,pc}                
                            ;************************************************************************************************
                            ;*                                           FUNCTION                                           *
                            ;************************************************************************************************
                            ;undefined FUN_0003e7fc(undefined4 param_1, undefined4 param_2, undefined4 param_3, undefined4 * param_4)
          ;param_1       undefined4          r0                      
          ;param_2       undefined4          r1                      
          ;param_3       undefined4          r2                      
          ;param_4       undefined4 *        r3                      
          ;local_18      undefined4         -18                      ;XREF[2,0]:   0003e82c,0003e85c
          ;local_1c      undefined4         -1c                      ;XREF[2,0]:   0003e810,0003e868
          ;local_28      undefined4         -28                      ;XREF[4,0]:   0003e806,0003e81e,0003e834,0003e866
                                                          ;XREF[1,0]:   0003e10e
ram:0003e7fc    f0b5            push        {r4,r5,r6,r7,lr}                        
ram:0003e7fe    89b0            sub         sp,#0x24                                
ram:0003e800    6846            mov         param_1,sp                              
ram:0003e802    fff7b3fc        bl          FUN_0003e16c                            ;undefined FUN_0003e16c(undefined4 * ...
ram:0003e806    0498            ldr         param_1,[sp,#local_28+0x38]             
ram:0003e808    0028            cmp         param_1,#0x0                            
ram:0003e80a    2ad0            beq         LAB_0003e862                            
ram:0003e80c    0121            movs        param_2,#0x1                            
ram:0003e80e    0903            lsls        param_2,param_2,#0xc                    
ram:0003e810    079a            ldr         param_3,[sp,#local_1c+0x38]             
ram:0003e812    4018            adds        param_1,param_1,param_2                 
ram:0003e814    9042            cmp         param_1,param_3                         
ram:0003e816    26d9            bls         LAB_0003e866                            
ram:0003e818    501a            subs        param_1,param_3,param_2                 
ram:0003e81a    4508            lsrs        r5,param_1,#0x1                         
ram:0003e81c    1046            mov         param_1,param_3                         
ram:0003e81e    049a            ldr         param_3,[sp,#local_28+0x38]             
ram:0003e820    0c46            mov         r4,param_2                              
ram:0003e822    8718            adds        r7,param_1,param_3                      
ram:0003e824    0246            mov         param_3,param_1                         
ram:0003e826    6800            lsls        param_1,r5,#0x1                         
ram:0003e828    1618            adds        r6,param_3,param_1                      
ram:0003e82a    0019            adds        param_1,param_1,r4                      
ram:0003e82c    0890            str         param_1,[sp,#local_18+0x38]             
ram:0003e82e    0320            movs        param_1,#0x3                            
ram:0003e830    0003            lsls        param_1,param_1,#0xc                    
ram:0003e832    8068            ldr         param_1,[param_1,#offset DAT_00003008...
ram:0003e834    0499            ldr         param_2,[sp,#local_28+0x38]             
ram:0003e836    8842            cmp         param_1,param_2                         
ram:0003e838    0dd2            bcs         LAB_0003e856                            
ram:0003e83a    6119            adds        param_2,r4,r5                           
ram:0003e83c    0846            mov         param_1,param_2                         
ram:0003e83e    0422            movs        param_3,#0x4                            
ram:0003e840    00f08ff8        bl          FUN_0003e962                            ;undefined * FUN_0003e962(void)
ram:0003e844    0028            cmp         param_1,#0x0                            
ram:0003e846    0cd1            bne         LAB_0003e862                            
ram:0003e848    2146            mov         param_2,r4                              
ram:0003e84a    0422            movs        param_3,#0x4                            
ram:0003e84c    0846            mov         param_1,param_2                         
ram:0003e84e    00f088f8        bl          FUN_0003e962                            ;undefined * FUN_0003e962(void)
ram:0003e852    0028            cmp         param_1,#0x0                            
ram:0003e854    05d1            bne         LAB_0003e862                            
                            LAB_0003e856:                 ;XREF[1,0]:   0003e838
ram:0003e856    ba1b            subs        param_3,r7,r6                           
ram:0003e858    2b46            mov         param_4,r5                              
ram:0003e85a    3046            mov         param_1,r6                              
ram:0003e85c    0899            ldr         param_2,[sp,#local_18+0x38]             
ram:0003e85e    fff7abff        bl          FUN_0003e7b8                            ;undefined FUN_0003e7b8(int param_1, ...
                            LAB_0003e862:                 ;XREF[4,0]:   0003e80a,0003e846,0003e854,0003e86e
ram:0003e862    09b0            add         sp,#0x24                                
ram:0003e864    f0bd            pop         {r4,r5,r6,r7,pc}                        
                            LAB_0003e866:                 ;XREF[1,0]:   0003e816
ram:0003e866    049a            ldr         param_3,[sp,#local_28+0x38]             
ram:0003e868    0798            ldr         param_1,[sp,#local_1c+0x38]             
ram:0003e86a    00f07af8        bl          FUN_0003e962                            ;undefined * FUN_0003e962(void)
ram:0003e86e    f8e7            b           LAB_0003e862                            
                            ;************************************************************************************************
                            ;*                                           FUNCTION                                           *
                            ;************************************************************************************************
                            ;undefined * FUN_0003e870(undefined4 param_1, undefined4 param_2, undefined4 param_3, undefined4 * param_4)
          ;param_1       undefined4          r0                      
          ;param_2       undefined4          r1                      
          ;param_3       undefined4          r2                      
          ;param_4       undefined4 *        r3                      
          ;local_c       undefined4          -c                      ;XREF[1,0]:   0003e888
          ;local_14      undefined4         -14                      ;XREF[2,0]:   0003e87a,0003e890
          ;local_18      undefined4         -18                      ;XREF[2,0]:   0003e880,0003e886
          ;local_30      undefined4         -30                      ;XREF[1,0]:   0003e896
          ;local_34      undefined4         -34                      ;XREF[1,0]:   0003e88c
          ;local_38      undefined4         -38                      ;XREF[1,0]:   0003e892
                                                          ;XREF[1,0]:   0003e12e
ram:0003e870    00b5            push        {lr}                                    
ram:0003e872    8db0            sub         sp,#0x34                                
ram:0003e874    04a8            add         param_1,sp,#0x10                        
ram:0003e876    fff779fc        bl          FUN_0003e16c                            ;undefined FUN_0003e16c(undefined4 * ...
ram:0003e87a    0998            ldr         param_1,[sp,#local_14+0x38]             
ram:0003e87c    0028            cmp         param_1,#0x0                            
ram:0003e87e    0dd0            beq         LAB_0003e89c                            
ram:0003e880    0898            ldr         param_1,[sp,#local_18+0x38]             
ram:0003e882    0028            cmp         param_1,#0x0                            
ram:0003e884    0cd0            beq         LAB_0003e8a0                            
ram:0003e886    0899            ldr         param_2,[sp,#local_18+0x38]             
ram:0003e888    0b98            ldr         param_1,[sp,#local_c+0x38]              
                            LAB_0003e88a:                 ;XREF[1,0]:   0003e8ae
ram:0003e88a    4018            adds        param_1,param_1,param_2                 
ram:0003e88c    0190            str         param_1,[sp,#local_34+0x38]             
ram:0003e88e    0021            movs        param_2,#0x0                            
ram:0003e890    0998            ldr         param_1,[sp,#local_14+0x38]             
ram:0003e892    0091            str         param_2,[sp,#0x0]=>local_38             
ram:0003e894    8008            lsrs        param_1,param_1,#0x2                    
ram:0003e896    0290            str         param_1,[sp,#local_30+0x38]             
ram:0003e898    6846            mov         param_1,sp                              
ram:0003e89a    18df            svc         0x18                                    
                            LAB_0003e89c:                 ;XREF[3,0]:   0003e87e,0003e8be,0003e8e2
ram:0003e89c    0db0            add         sp,#0x34                                
ram:0003e89e    00bd            pop         {pc}                                    
                            LAB_0003e8a0:                 ;XREF[1,0]:   0003e884
ram:0003e8a0    0320            movs        param_1,#0x3                            
ram:0003e8a2    0003            lsls        param_1,param_1,#0xc                    
ram:0003e8a4    8068            ldr         param_1,[param_1,#offset DAT_00003008...
ram:0003e8a6    3b21            movs        param_2,#0x3b                           
ram:0003e8a8    0903            lsls        param_2,param_2,#0xc                    
ram:0003e8aa    091a            subs        param_2,param_2,param_1                 
ram:0003e8ac    4908            lsrs        param_2,param_2,#0x1                    
ram:0003e8ae    ece7            b           LAB_0003e88a                            
                            ;************************************************************************************************
                            ;*                                           FUNCTION                                           *
                            ;************************************************************************************************
                            ;undefined * FUN_0003e8b0(undefined4 param_1, undefined4 param_2, undefined4 param_3, undefined4 * param_4)
          ;param_1       undefined4          r0                      
          ;param_2       undefined4          r1                      
          ;param_3       undefined4          r2                      
          ;param_4       undefined4 *        r3                      
          ;local_c       undefined4          -c                      ;XREF[1,0]:   0003e8c8
          ;local_14      undefined4         -14                      ;XREF[2,0]:   0003e8ba,0003e8d6
          ;local_18      undefined4         -18                      ;XREF[2,0]:   0003e8c0,0003e8c6
          ;local_2c      undefined4         -2c                      ;XREF[1,0]:   0003e8dc
          ;local_30      undefined4         -30                      ;XREF[1,0]:   0003e8d2
          ;local_34      undefined4         -34                      ;XREF[1,0]:   0003e8d8
          ;local_38      undefined4         -38                      ;XREF[1,0]:   0003e8ce
                                                          ;XREF[1,0]:   0003e100
ram:0003e8b0    00b5            push        {lr}                                    
ram:0003e8b2    8db0            sub         sp,#0x34                                
ram:0003e8b4    04a8            add         param_1,sp,#0x10                        
ram:0003e8b6    fff759fc        bl          FUN_0003e16c                            ;undefined FUN_0003e16c(undefined4 * ...
ram:0003e8ba    0998            ldr         param_1,[sp,#local_14+0x38]             
ram:0003e8bc    0028            cmp         param_1,#0x0                            
ram:0003e8be    edd0            beq         LAB_0003e89c                            
ram:0003e8c0    0898            ldr         param_1,[sp,#local_18+0x38]             
ram:0003e8c2    0028            cmp         param_1,#0x0                            
ram:0003e8c4    0ed0            beq         LAB_0003e8e4                            
ram:0003e8c6    0899            ldr         param_2,[sp,#local_18+0x38]             
ram:0003e8c8    0b98            ldr         param_1,[sp,#local_c+0x38]              
                            LAB_0003e8ca:                 ;XREF[1,0]:   0003e8f2
ram:0003e8ca    4018            adds        param_1,param_1,param_2                 
ram:0003e8cc    0321            movs        param_2,#0x3                            
ram:0003e8ce    0091            str         param_2,[sp,#0x0]=>local_38             
ram:0003e8d0    0f21            movs        param_2,#0xf                            
ram:0003e8d2    0290            str         param_1,[sp,#local_30+0x38]             
ram:0003e8d4    8903            lsls        param_2,param_2,#0xe                    
ram:0003e8d6    0998            ldr         param_1,[sp,#local_14+0x38]             
ram:0003e8d8    0191            str         param_2=>MasterS...,[sp,#local_34+0x38] ;= 20003c40
ram:0003e8da    8008            lsrs        param_1,param_1,#0x2                    
ram:0003e8dc    0390            str         param_1,[sp,#local_2c+0x38]             
ram:0003e8de    6846            mov         param_1,sp                              
ram:0003e8e0    18df            svc         0x18                                    
ram:0003e8e2    dbe7            b           LAB_0003e89c                            
                            LAB_0003e8e4:                 ;XREF[1,0]:   0003e8c4
ram:0003e8e4    0320            movs        param_1,#0x3                            
ram:0003e8e6    0003            lsls        param_1,param_1,#0xc                    
ram:0003e8e8    8068            ldr         param_1,[param_1,#offset DAT_00003008...
ram:0003e8ea    3b21            movs        param_2,#0x3b                           
ram:0003e8ec    0903            lsls        param_2,param_2,#0xc                    
ram:0003e8ee    091a            subs        param_2,param_2,param_1                 
ram:0003e8f0    4908            lsrs        param_2,param_2,#0x1                    
ram:0003e8f2    eae7            b           LAB_0003e8ca                            
                            ;************************************************************************************************
                            ;*                                           FUNCTION                                           *
                            ;************************************************************************************************
                            ;undefined * FUN_0003e8f4(undefined4 param_1, undefined4 param_2, undefined4 param_3, undefined4 * param_4)
          ;param_1       undefined4          r0                      
          ;param_2       undefined4          r1                      
          ;param_3       undefined4          r2                      
          ;param_4       undefined4 *        r3                      
          ;local_14      undefined4         -14                      ;XREF[1,0]:   0003e944
          ;local_20      undefined4         -20                      ;XREF[1,0]:   0003e93e
          ;local_34      undefined4         -34                      ;XREF[1,0]:   0003e908
          ;local_40      undefined4         -40                      ;XREF[4,0]:   0003e8fe,0003e916,0003e926,0003e940
                                                          ;XREF[2,0]:   0003e0f8,0003e11e
ram:0003e8f4    30b5            push        {r4,r5,lr}                              
ram:0003e8f6    91b0            sub         sp,#0x44                                
ram:0003e8f8    6846            mov         param_1,sp                              
ram:0003e8fa    fff737fc        bl          FUN_0003e16c                            ;undefined FUN_0003e16c(undefined4 * ...
ram:0003e8fe    0498            ldr         param_1,[sp,#local_40+0x50]             
ram:0003e900    0028            cmp         param_1,#0x0                            
ram:0003e902    14d0            beq         LAB_0003e92e                            
ram:0003e904    0121            movs        param_2,#0x1                            
ram:0003e906    0903            lsls        param_2,param_2,#0xc                    
ram:0003e908    079a            ldr         param_3,[sp,#local_34+0x50]             
ram:0003e90a    4018            adds        param_1,param_1,param_2                 
ram:0003e90c    9042            cmp         param_1,param_3                         
ram:0003e90e    14d9            bls         LAB_0003e93a                            
ram:0003e910    501a            subs        param_1,param_3,param_2                 
ram:0003e912    4308            lsrs        param_4,param_1,#0x1                    
ram:0003e914    1046            mov         param_1,param_3                         
ram:0003e916    049a            ldr         param_3,[sp,#local_40+0x50]             
ram:0003e918    5c00            lsls        r4,param_4,#0x1                         
ram:0003e91a    8218            adds        param_3,param_1,param_3                 
ram:0003e91c    0019            adds        param_1,param_1,r4                      
ram:0003e91e    6118            adds        param_2,r4,param_2                      
ram:0003e920    0324            movs        r4,#0x3                                 
ram:0003e922    2403            lsls        r4,r4,#0xc                              
ram:0003e924    a468            ldr         r4,[r4,#offset DAT_00003008 &0xff]      
ram:0003e926    049d            ldr         r5,[sp,#local_40+0x50]                  
ram:0003e928    ac42            cmp         r4,r5                                   
ram:0003e92a    02d2            bcs         LAB_0003e932                            
ram:0003e92c    0e20            movs        param_1,#0xe                            
                            LAB_0003e92e:                 ;XREF[3,0]:   0003e902,0003e938,0003e94a
ram:0003e92e    11b0            add         sp,#0x44                                
ram:0003e930    30bd            pop         {r4,r5,pc}                              
                            LAB_0003e932:                 ;XREF[1,0]:   0003e92a
ram:0003e932    121a            subs        param_3,param_3,param_1                 
ram:0003e934    fff740ff        bl          FUN_0003e7b8                            ;undefined FUN_0003e7b8(int param_1, ...
ram:0003e938    f9e7            b           LAB_0003e92e                            
                            LAB_0003e93a:                 ;XREF[1,0]:   0003e90e
ram:0003e93a    0320            movs        param_1,#0x3                            
ram:0003e93c    0cab            add         param_4,sp,#0x30                        
ram:0003e93e    07c3            stmia       param_4!=>local_20,{param_1,param_2,p...
ram:0003e940    0498            ldr         param_1,[sp,#local_40+0x50]             
ram:0003e942    8008            lsrs        param_1,param_1,#0x2                    
ram:0003e944    0f90            str         param_1,[sp,#local_14+0x50]             
ram:0003e946    0ca8            add         param_1,sp,#0x30                        
ram:0003e948    18df            svc         0x18                                    
ram:0003e94a    f0e7            b           LAB_0003e92e                            
                            ;************************************************************************************************
                            ;*                                           FUNCTION                                           *
                            ;************************************************************************************************
                            ;undefined * FUN_0003e94c(void)
          ;local_c       undefined4          -c                      ;XREF[1,0]:   0003e954
          ;local_10      undefined4         -10                      ;XREF[1,0]:   0003e958
          ;local_14      undefined4         -14                      ;XREF[1,0]:   0003e950
          ;local_18      undefined4         -18                      ;XREF[1,0]:   0003e956
                                                          ;XREF[2,0]:   0003e7c2,0003e7f6
ram:0003e94c    1fb5            push        {r0,r1,r2,r3,r4,lr}                     
ram:0003e94e    0323            movs        r3,#0x3                                 
ram:0003e950    0190            str         r0,[sp,#local_14+0x18]                  
ram:0003e952    9008            lsrs        r0,r2,#0x2                              
ram:0003e954    0390            str         r0,[sp,#local_c+0x18]                   
ram:0003e956    0093            str         r3,[sp,#0x0]=>local_18                  
ram:0003e958    0291            str         r1,[sp,#local_10+0x18]                  
ram:0003e95a    6846            mov         r0,sp                                   
ram:0003e95c    18df            svc         0x18                                    
                            LAB_0003e95e:                 ;XREF[1,0]:   0003e974
ram:0003e95e    04b0            add         sp,#0x10                                
ram:0003e960    10bd            pop         {r4,pc}                                 
                            ;************************************************************************************************
                            ;*                                           FUNCTION                                           *
                            ;************************************************************************************************
                            ;undefined * FUN_0003e962(void)
          ;local_c       undefined4          -c                      ;XREF[1,0]:   0003e96a
          ;local_10      undefined4         -10                      ;XREF[1,0]:   0003e96e
          ;local_14      undefined4         -14                      ;XREF[1,0]:   0003e966
          ;local_18      undefined4         -18                      ;XREF[1,0]:   0003e96c
                                                          ;XREF[4,0]:   0003e7e8,0003e840,0003e84e,0003e86a
ram:0003e962    1fb5            push        {r0,r1,r2,r3,r4,lr}                     
ram:0003e964    0123            movs        r3,#0x1                                 
ram:0003e966    0190            str         r0,[sp,#local_14+0x18]                  
ram:0003e968    9008            lsrs        r0,r2,#0x2                              
ram:0003e96a    0390            str         r0,[sp,#local_c+0x18]                   
ram:0003e96c    0093            str         r3,[sp,#0x0]=>local_18                  
ram:0003e96e    0291            str         r1,[sp,#local_10+0x18]                  
ram:0003e970    6846            mov         r0,sp                                   
ram:0003e972    18df            svc         0x18                                    
ram:0003e974    f3e7            b           LAB_0003e95e                            
ram:0003e976    0000            movs        r0,r0                                   
                            DAT_0003e978:                 ;XREF[2,0]:   0003e74e,0003e784
ram:0003e978    902c0020        undefined4  20002C90h                               
                            DAT_0003e97c:                 ;XREF[1,0]:   0003e7a2
ram:0003e97c    a4330020        undefined4  200033A4h                               
                            ;************************************************************************************************
                            ;*                                           FUNCTION                                           *
                            ;************************************************************************************************
                            ;undefined4 FUN_0003e980(ushort * param_1, uint param_2)
          ;param_1       ushort *            r0                      
          ;param_2       uint                r1                      
                                                          ;XREF[1,0]:   0003e6b8
ram:0003e980    70b5            push        {r4,r5,r6,lr}                           
ram:0003e982    0025            movs        r5,#0x0                                 
ram:0003e984    0c29            cmp         param_2,#0xc                            
ram:0003e986    0ed3            bcc         LAB_0003e9a6                            
ram:0003e988    0446            mov         r4,param_1                              
ram:0003e98a    4318            adds        r3,param_1,param_2                      
ram:0003e98c    0089            ldrh        param_1,[param_1,#0x8]                  
ram:0003e98e    4100            lsls        param_2,param_1,#0x1                    
ram:0003e990    0919            adds        param_2,param_2,r4                      
ram:0003e992    581a            subs        param_1,r3,param_2                      
ram:0003e994    0a38            subs        param_1,#0xa                            
ram:0003e996    c2b2            uxtb        r2,param_1                              
ram:0003e998    1f48            ldr         param_1,[DAT_0003ea18]                  ;= 20002CBCh
ram:0003e99a    022a            cmp         r2,#0x2                                 
ram:0003e99c    0270            strb        r2,[param_1,#0x0]=>DAT_20002cbc         
ram:0003e99e    02d3            bcc         LAB_0003e9a6                            
ram:0003e9a0    0a31            adds        param_2,#0xa                            
ram:0003e9a2    8b42            cmp         r3,param_2                              
ram:0003e9a4    01d2            bcs         LAB_0003e9aa                            
                            LAB_0003e9a6:                 ;XREF[2,0]:   0003e986,0003e99e
ram:0003e9a6    0920            movs        param_1,#0x9                            
ram:0003e9a8    70bd            pop         {r4,r5,r6,pc}                           
                            LAB_0003e9aa:                 ;XREF[1,0]:   0003e9a4
ram:0003e9aa    1c48            ldr         param_1=>DAT_200033b0,[DAT_0003ea1c]    ;= 200033B0h
ram:0003e9ac    00f06afd        bl          FUN_0003f484                            ;undefined FUN_0003f484(undefined4 * ...
ram:0003e9b0    1b49            ldr         param_2,[DAT_0003ea20]                  ;= 10001080h
ram:0003e9b2    1c48            ldr         param_1,[DAT_0003ea24]                  ;= 0000FFFFh
ram:0003e9b4    0a88            ldrh        r2,[param_2,#0x0]=>DAT_10001080         
ram:0003e9b6    8242            cmp         r2,param_1                              
ram:0003e9b8    02d0            beq         LAB_0003e9c0                            
ram:0003e9ba    2388            ldrh        r3,[r4,#0x0]                            
ram:0003e9bc    9342            cmp         r3,r2                                   
ram:0003e9be    17d1            bne         LAB_0003e9f0                            
                            LAB_0003e9c0:                 ;XREF[1,0]:   0003e9b8
ram:0003e9c0    4988            ldrh        param_2,[param_2,#0x2]=>DAT_10001082    
ram:0003e9c2    8142            cmp         param_2,param_1                         
ram:0003e9c4    02d0            beq         LAB_0003e9cc                            
ram:0003e9c6    6088            ldrh        param_1,[r4,#0x2]                       
ram:0003e9c8    8842            cmp         param_1,param_2                         
ram:0003e9ca    11d1            bne         LAB_0003e9f0                            
                            LAB_0003e9cc:                 ;XREF[1,0]:   0003e9c4
ram:0003e9cc    154a            ldr         r2,[DAT_0003ea24]                       ;= 0000FFFFh
ram:0003e9ce    0323            movs        r3,#0x3                                 
ram:0003e9d0    521e            subs        r2,r2,#0x1                              
ram:0003e9d2    2089            ldrh        param_1,[r4,#0x8]                       
ram:0003e9d4    1b03            lsls        r3,r3,#0xc                              
                            LAB_0003e9d6:                 ;XREF[1,0]:   0003e9ea
ram:0003e9d6    a842            cmp         param_1,r5                              
ram:0003e9d8    0ad9            bls         LAB_0003e9f0                            
ram:0003e9da    6900            lsls        param_2,r5,#0x1                         
ram:0003e9dc    0919            adds        param_2,param_2,r4                      
ram:0003e9de    4989            ldrh        param_2,[param_2,#0xa]                  
ram:0003e9e0    9142            cmp         param_2,r2                              
ram:0003e9e2    03d0            beq         LAB_0003e9ec                            
ram:0003e9e4    9e89            ldrh        r6,[r3,#offset DAT_0000300c &0xff]      
ram:0003e9e6    6d1c            adds        r5,r5,#0x1                              
ram:0003e9e8    b142            cmp         param_2,r6                              
ram:0003e9ea    f4d1            bne         LAB_0003e9d6                            
                            LAB_0003e9ec:                 ;XREF[1,0]:   0003e9e2
ram:0003e9ec    0020            movs        param_1,#0x0                            
ram:0003e9ee    70bd            pop         {r4,r5,r6,pc}                           
                            LAB_0003e9f0:                 ;XREF[3,0]:   0003e9be,0003e9ca,0003e9d8
ram:0003e9f0    0b20            movs        param_1,#0xb                            
ram:0003e9f2    70bd            pop         {r4,r5,r6,pc}                           
                            ;************************************************************************************************
                            ;*                                           FUNCTION                                           *
                            ;************************************************************************************************
                            ;undefined4 FUN_0003e9f4(int param_1, uint param_2)
          ;param_1       int                 r0                      
          ;param_2       uint                r1                      
                                                          ;XREF[1,0]:   0003e770
ram:0003e9f4    10b5            push        {r4,lr}                                 
ram:0003e9f6    0022            movs        r2,#0x0                                 
ram:0003e9f8    fff7e2fb        bl          FUN_0003e1c0                            ;uint FUN_0003e1c0(int param_1, uint ...
ram:0003e9fc    074a            ldr         r2,[DAT_0003ea1c]                       ;= 200033B0h
ram:0003e9fe    5178            ldrb        param_2,[r2,#0x1]=>DAT_200033b1         
ram:0003ea00    1278            ldrb        r2,[r2,#0x0]=>DAT_200033b0              
ram:0003ea02    0902            lsls        param_2,param_2,#0x8                    
ram:0003ea04    1143            orrs        param_2,r2                              
ram:0003ea06    8842            cmp         param_1,param_2                         
ram:0003ea08    01d0            beq         LAB_0003ea0e                            
ram:0003ea0a    0b20            movs        param_1,#0xb                            
ram:0003ea0c    10bd            pop         {r4,pc}                                 
                            LAB_0003ea0e:                 ;XREF[1,0]:   0003ea08
ram:0003ea0e    0649            ldr         param_2,[DAT_0003ea28]                  ;= 20002C92h
ram:0003ea10    0880            strh        param_1,[param_2,#0x0]=>DAT_20002c92    
ram:0003ea12    0020            movs        param_1,#0x0                            
ram:0003ea14    10bd            pop         {r4,pc}                                 
ram:0003ea16    0000            movs        r0,r0                                   
                            DAT_0003ea18:                 ;XREF[1,0]:   0003e998
ram:0003ea18    bc2c0020        undefined4  20002CBCh                               
                            DAT_0003ea1c:                 ;XREF[2,0]:   0003e9aa,0003e9fc
ram:0003ea1c    b0330020        undefined4  200033B0h                               
                            DAT_0003ea20:                 ;XREF[1,0]:   0003e9b0
ram:0003ea20    80100010        undefined4  10001080h                               
                            DAT_0003ea24:                 ;XREF[2,0]:   0003e9b2,0003e9cc
ram:0003ea24    ffff0000        undefined4  0000FFFFh                               
                            DAT_0003ea28:                 ;XREF[1,0]:   0003ea0e
ram:0003ea28    922c0020        undefined4  20002C92h                               
                            ;************************************************************************************************
                            ;*                                           FUNCTION                                           *
                            ;************************************************************************************************
                            ;undefined4 FUN_0003ea2c(int param_1, int param_2)
          ;param_1       int                 r0                      
          ;param_2       int                 r1                      
                                                          ;XREF[4,0]:   0003eab8,0003f170,0003f1f4,0003f24a
ram:0003ea2c    0828            cmp         param_1,#0x8                            
ram:0003ea2e    0cd0            beq         LAB_0003ea4a                            
ram:0003ea30    04dc            bgt         LAB_0003ea3c                            
ram:0003ea32    0028            cmp         param_1,#0x0                            
ram:0003ea34    07d0            beq         LAB_0003ea46                            
ram:0003ea36    0628            cmp         param_1,#0x6                            
ram:0003ea38    0fd1            bne         LAB_0003ea5a                            
ram:0003ea3a    08e0            b           LAB_0003ea4e                            
                            LAB_0003ea3c:                 ;XREF[1,0]:   0003ea30
ram:0003ea3c    0b28            cmp         param_1,#0xb                            
ram:0003ea3e    0ad0            beq         LAB_0003ea56                            
ram:0003ea40    0c28            cmp         param_1,#0xc                            
ram:0003ea42    0ad1            bne         LAB_0003ea5a                            
ram:0003ea44    05e0            b           LAB_0003ea52                            
                            LAB_0003ea46:                 ;XREF[1,0]:   0003ea34
ram:0003ea46    0120            movs        param_1,#0x1                            
ram:0003ea48    7047            bx          lr                                      
                            LAB_0003ea4a:                 ;XREF[1,0]:   0003ea2e
ram:0003ea4a    0220            movs        param_1,#0x2                            
ram:0003ea4c    7047            bx          lr                                      
                            LAB_0003ea4e:                 ;XREF[1,0]:   0003ea3a
ram:0003ea4e    0320            movs        param_1,#0x3                            
ram:0003ea50    7047            bx          lr                                      
                            LAB_0003ea52:                 ;XREF[1,0]:   0003ea44
ram:0003ea52    0420            movs        param_1,#0x4                            
ram:0003ea54    7047            bx          lr                                      
                            LAB_0003ea56:                 ;XREF[1,0]:   0003ea3e
ram:0003ea56    0429            cmp         param_2,#0x4                            
ram:0003ea58    01d0            beq         LAB_0003ea5e                            
                            LAB_0003ea5a:                 ;XREF[2,0]:   0003ea38,0003ea42
ram:0003ea5a    0620            movs        param_1,#0x6                            
ram:0003ea5c    7047            bx          lr                                      
                            LAB_0003ea5e:                 ;XREF[1,0]:   0003ea58
ram:0003ea5e    0520            movs        param_1,#0x5                            
ram:0003ea60    7047            bx          lr                                      
                            ;************************************************************************************************
                            ;*                                           FUNCTION                                           *
                            ;************************************************************************************************
                            ;undefined FUN_0003ea62(int param_1, int param_2, int param_3)
          ;param_1       int                 r0                      
          ;param_2       int                 r1                      
          ;param_3       int                 r2                      
ram:0003ea62    70b5            push        {r4,r5,r6,lr}                           
ram:0003ea64    1546            mov         r5,param_3                              
ram:0003ea66    0a46            mov         param_3,param_2                         
ram:0003ea68    0328            cmp         param_1,#0x3                            
ram:0003ea6a    23d0            beq         LAB_0003eab4                            
ram:0003ea6c    0428            cmp         param_1,#0x4                            
ram:0003ea6e    20d1            bne         LAB_0003eab2                            
ram:0003ea70    fe4c            ldr         r4,[DAT_0003ee6c]                       ;= 20002CC0h
ram:0003ea72    0029            cmp         param_2,#0x0                            
ram:0003ea74    06d0            beq         LAB_0003ea84                            
ram:0003ea76    e088            ldrh        param_1,[r4,#0x6]=>DAT_20002cc6         
ram:0003ea78    fd49            ldr         param_2,[DAT_0003ee70]                  ;= 0000FFFFh
ram:0003ea7a    8842            cmp         param_1,param_2                         
ram:0003ea7c    19d0            beq         LAB_0003eab2                            
ram:0003ea7e    1321            movs        param_2,#0x13                           
ram:0003ea80    76df            svc         0x76                                    
ram:0003ea82    10e0            b           LAB_0003eaa6                            
                            LAB_0003ea84:                 ;XREF[1,0]:   0003ea74
ram:0003ea84    2846            mov         param_1,r5                              
ram:0003ea86    fff7effb        bl          FUN_0003e268                            ;undefined4 FUN_0003e268(int param_1)
ram:0003ea8a    0028            cmp         param_1,#0x0                            
ram:0003ea8c    03d0            beq         LAB_0003ea96                            
ram:0003ea8e    0022            movs        param_3,#0x0                            
ram:0003ea90    1146            mov         param_2,param_3                         
ram:0003ea92    fef7a3fd        bl          FUN_0003d5dc                            ;undefined FUN_0003d5dc(void)
                            LAB_0003ea96:                 ;XREF[1,0]:   0003ea8c
ram:0003ea96    e069            ldr         param_1,[r4,#0x1c]=>DAT_20002cdc        
ram:0003ea98    a842            cmp         param_1,r5                              
ram:0003ea9a    0ad1            bne         LAB_0003eab2                            
ram:0003ea9c    0122            movs        param_3,#0x1                            
ram:0003ea9e    0321            movs        param_2,#0x3                            
                            LAB_0003eaa0:                 ;XREF[1,0]:   0003eac0
ram:0003eaa0    f448            ldr         param_1,[DAT_0003ee74]                  ;= 200033D4h
ram:0003eaa2    fef71dfa        bl          FUN_0003cee0                            ;undefined8 FUN_0003cee0(ushort * par...
                            LAB_0003eaa6:                 ;XREF[1,0]:   0003ea82
ram:0003eaa6    0028            cmp         param_1,#0x0                            
ram:0003eaa8    03d0            beq         LAB_0003eab2                            
ram:0003eaaa    0022            movs        param_3,#0x0                            
ram:0003eaac    1146            mov         param_2,param_3                         
ram:0003eaae    fef795fd        bl          FUN_0003d5dc                            ;undefined FUN_0003d5dc(void)
                            LAB_0003eab2:                 ;XREF[4,0]:   0003ea6e,0003ea7c,0003ea9a,0003eaa8
ram:0003eab2    70bd            pop         {r4,r5,r6,pc}                           
                            LAB_0003eab4:                 ;XREF[1,0]:   0003ea6a
ram:0003eab4    0121            movs        param_2,#0x1                            
ram:0003eab6    1046            mov         param_1,param_3                         
ram:0003eab8    fff7b8ff        bl          FUN_0003ea2c                            ;undefined4 FUN_0003ea2c(int param_1,...
ram:0003eabc    0246            mov         param_3,param_1                         
ram:0003eabe    0121            movs        param_2,#0x1                            
ram:0003eac0    eee7            b           LAB_0003eaa0                            
                            ;************************************************************************************************
                            ;*                                           FUNCTION                                           *
                            ;************************************************************************************************
                            ;undefined FUN_0003eac2(ushort * param_1, int param_2, undefined4 param_3, uint param_4)
          ;param_1       ushort *            r0                      
          ;param_2       int                 r1                      
          ;param_3       undefined4          r2                      
          ;param_4       uint                r3                      
          ;local_1c      undefined4         -1c                      ;XREF[1,0]:   0003eb30
          ;local_20      undefined4         -20                      ;XREF[1,0]:   0003eb2c
          ;local_24      undefined4         -24                      ;XREF[1,0]:   0003eb26
          ;local_28      undefined4         -28                      ;XREF[4,0]:   0003eaec,0003eafc,0003eb04,0003eb28
ram:0003eac2    f0b5            push        {r4,r5,r6,r7,lr}                        
ram:0003eac4    0546            mov         r5,param_1                              
ram:0003eac6    0879            ldrb        param_1,[param_2,#0x4]                  
ram:0003eac8    0e46            mov         r6,param_2                              
ram:0003eaca    85b0            sub         sp,#0x14                                
ram:0003eacc    8107            lsls        param_2,param_1,#0x1e                   
ram:0003eace    0cd0            beq         LAB_0003eaea                            
ram:0003ead0    0322            movs        param_3,#0x3                            
ram:0003ead2    1146            mov         param_2,param_3                         
ram:0003ead4    2846            mov         param_1,r5                              
ram:0003ead6    fef703fa        bl          FUN_0003cee0                            ;undefined8 FUN_0003cee0(ushort * par...
ram:0003eada    0028            cmp         param_1,#0x0                            
ram:0003eadc    03d0            beq         LAB_0003eae6                            
ram:0003eade    0022            movs        param_3,#0x0                            
ram:0003eae0    1146            mov         param_2,param_3                         
ram:0003eae2    fef77bfd        bl          FUN_0003d5dc                            ;undefined FUN_0003d5dc(void)
                            LAB_0003eae6:                 ;XREF[6,0]:   0003eadc,0003eb22,0003eb60,0003eb6e
                                                          ;             0003eb7a,0003eb92
ram:0003eae6    05b0            add         sp,#0x14                                
ram:0003eae8    f0bd            pop         {r4,r5,r6,r7,pc}                        
                            LAB_0003eaea:                 ;XREF[1,0]:   0003eace
ram:0003eaea    e049            ldr         param_2,[DAT_0003ee6c]                  ;= 20002CC0h
ram:0003eaec    0090            str         param_1,[sp,#0x0]=>local_28             
ram:0003eaee    1831            adds        param_2=>DAT_20002cd8,#0x18             
ram:0003eaf0    fff793fb        bl          FUN_0003e21a                            ;undefined4 FUN_0003e21a(uint param_1...
ram:0003eaf4    0100            movs        param_2,param_1                         
ram:0003eaf6    11d1            bne         LAB_0003eb1c                            
ram:0003eaf8    dc4c            ldr         r4,[DAT_0003ee6c]                       ;= 20002CC0h
ram:0003eafa    b168            ldr         param_2,[r6,#0x8]                       
ram:0003eafc    009a            ldr         param_3,[sp,#0x0]=>local_28             
ram:0003eafe    a069            ldr         param_1,[r4,#0x18]=>DAT_20002cd8        
ram:0003eb00    00f0c0fc        bl          FUN_0003f484                            ;undefined FUN_0003f484(undefined4 * ...
ram:0003eb04    0098            ldr         param_1,[sp,#0x0]=>local_28             
ram:0003eb06    fff7e3fb        bl          FUN_0003e2d0                            ;undefined4 FUN_0003e2d0(undefined4 p...
ram:0003eb0a    0100            movs        param_2,param_1                         
ram:0003eb0c    06d1            bne         LAB_0003eb1c                            
ram:0003eb0e    2046            mov         param_1,r4                              
ram:0003eb10    6946            mov         param_2,sp                              
ram:0003eb12    1830            adds        param_1=>DAT_20002cd8,#0x18             
ram:0003eb14    fff7e8fb        bl          FUN_0003e2e8                            ;undefined4 FUN_0003e2e8(int * param_...
ram:0003eb18    0100            movs        param_2,param_1                         
ram:0003eb1a    03d0            beq         LAB_0003eb24                            
                            LAB_0003eb1c:                 ;XREF[3,0]:   0003eaf6,0003eb0c,0003eb52
ram:0003eb1c    2846            mov         param_1,r5                              
ram:0003eb1e    00f022fb        bl          FUN_0003f166                            ;undefined FUN_0003f166(ushort * para...
ram:0003eb22    e0e7            b           LAB_0003eae6                            
                            LAB_0003eb24:                 ;XREF[1,0]:   0003eb1a
ram:0003eb24    0420            movs        param_1,#0x4                            
ram:0003eb26    0190            str         param_1,[sp,#local_24+0x28]             
ram:0003eb28    0098            ldr         param_1,[sp,#0x0]=>local_28             
ram:0003eb2a    8008            lsrs        param_1,param_1,#0x2                    
ram:0003eb2c    0290            str         param_1,[sp,#local_20+0x28]             
ram:0003eb2e    a069            ldr         param_1,[r4,#0x18]=>DAT_20002cd8        
ram:0003eb30    0390            str         param_1,[sp,#local_1c+0x28]             
ram:0003eb32    01a8            add         param_1,sp,#0x4                         
ram:0003eb34    fff77ffd        bl          FUN_0003e636                            ;int FUN_0003e636(int param_1, undefi...
ram:0003eb38    0700            movs        r7,param_1                              
ram:0003eb3a    0bd0            beq         LAB_0003eb54                            
ram:0003eb3c    092f            cmp         r7,#0x9                                 
ram:0003eb3e    10d0            beq         LAB_0003eb62                            
ram:0003eb40    a069            ldr         param_1,[r4,#0x18]=>DAT_20002cd8        
ram:0003eb42    fff791fb        bl          FUN_0003e268                            ;undefined4 FUN_0003e268(int param_1)
ram:0003eb46    0100            movs        param_2,param_1                         
ram:0003eb48    02d0            beq         LAB_0003eb50                            
ram:0003eb4a    2846            mov         param_1,r5                              
ram:0003eb4c    00f00bfb        bl          FUN_0003f166                            ;undefined FUN_0003f166(ushort * para...
                            LAB_0003eb50:                 ;XREF[1,0]:   0003eb48
ram:0003eb50    3946            mov         param_2,r7                              
ram:0003eb52    e3e7            b           LAB_0003eb1c                            
                            LAB_0003eb54:                 ;XREF[1,0]:   0003eb3a
ram:0003eb54    3079            ldrb        param_1,[r6,#0x4]                       
ram:0003eb56    6169            ldr         param_2,[r4,#0x14]=>DAT_20002cd4        
ram:0003eb58    4018            adds        param_1,param_1,param_2                 
ram:0003eb5a    6061            str         param_1,[r4,#0x14]=>DAT_20002cd4        
ram:0003eb5c    a069            ldr         param_1,[r4,#0x18]=>DAT_20002cd8        
ram:0003eb5e    e061            str         param_1,[r4,#0x1c]=>DAT_20002cdc        
ram:0003eb60    c1e7            b           LAB_0003eae6                            
                            LAB_0003eb62:                 ;XREF[1,0]:   0003eb3e
ram:0003eb62    3079            ldrb        param_1,[r6,#0x4]                       
ram:0003eb64    6169            ldr         param_2,[r4,#0x14]=>DAT_20002cd4        
ram:0003eb66    4118            adds        param_2,param_1,param_2                 
ram:0003eb68    6161            str         param_2,[r4,#0x14]=>DAT_20002cd4        
ram:0003eb6a    6078            ldrb        param_1,[r4,#0x1]=>DAT_20002cc1         
ram:0003eb6c    0028            cmp         param_1,#0x0                            
ram:0003eb6e    bad0            beq         LAB_0003eae6                            
ram:0003eb70    6089            ldrh        param_1,[r4,#0xa]=>DAT_20002cca         
ram:0003eb72    401e            subs        param_1,param_1,#0x1                    
ram:0003eb74    0004            lsls        param_1,param_1,#0x10                   
ram:0003eb76    000c            lsrs        param_1,param_1,#0x10                   
ram:0003eb78    6081            strh        param_1,[r4,#0xa]=>DAT_20002cca         
ram:0003eb7a    b4d1            bne         LAB_0003eae6                            
ram:0003eb7c    2846            mov         param_1,r5                              
ram:0003eb7e    fef703fb        bl          FUN_0003d188                            ;undefined8 FUN_0003d188(ushort * par...
ram:0003eb82    0028            cmp         param_1,#0x0                            
ram:0003eb84    03d0            beq         LAB_0003eb8e                            
ram:0003eb86    0022            movs        param_3,#0x0                            
ram:0003eb88    1146            mov         param_2,param_3                         
ram:0003eb8a    fef727fd        bl          FUN_0003d5dc                            ;undefined FUN_0003d5dc(void)
                            LAB_0003eb8e:                 ;XREF[1,0]:   0003eb84
ram:0003eb8e    2089            ldrh        param_1,[r4,#0x8]=>DAT_20002cc8         
ram:0003eb90    6081            strh        param_1,[r4,#0xa]=>DAT_20002cca         
ram:0003eb92    a8e7            b           LAB_0003eae6                            
                            ;************************************************************************************************
                            ;*                                           FUNCTION                                           *
                            ;************************************************************************************************
                            ;undefined LAB_0003eb94+1(void)
                                                          ;XREF[0,2]:   0003f0ba,0003f28c
ram:0003eb94    10b5            push        {r4,lr}                                 
ram:0003eb96    0022            movs        r2,#0x0                                 
ram:0003eb98    1146            mov         r1,r2                                   
ram:0003eb9a    fef71ffd        bl          FUN_0003d5dc                            ;undefined FUN_0003d5dc(void)
ram:0003eb9e    10bd            pop         {r4,pc}                                 
                            ;************************************************************************************************
                            ;*                                           FUNCTION                                           *
                            ;************************************************************************************************
                            ;undefined4 FUN_0003eba0(undefined4 param_1, undefined4 param_2, undefined4 param_3, uint param_4)
          ;param_1       undefined4          r0                      
          ;param_2       undefined4          r1                      
          ;param_3       undefined4          r2                      
          ;param_4       uint                r3                      
                                                          ;XREF[1,0]:   0003e02a
ram:0003eba0    10b5            push        {r4,lr}                                 
ram:0003eba2    b24c            ldr         r4,[DAT_0003ee6c]                       ;= 20002CC0h
ram:0003eba4    0120            movs        param_1,#0x1                            
ram:0003eba6    2070            strb        param_1,[r4,#0x0]=>DAT_20002cc0         
ram:0003eba8    e088            ldrh        param_1,[r4,#0x6]=>DAT_20002cc6         
ram:0003ebaa    b149            ldr         param_2,[DAT_0003ee70]                  ;= 0000FFFFh
ram:0003ebac    8842            cmp         param_1,param_2                         
ram:0003ebae    08d0            beq         LAB_0003ebc2                            
ram:0003ebb0    1321            movs        param_2,#0x13                           
ram:0003ebb2    76df            svc         0x76                                    
ram:0003ebb4    0028            cmp         param_1,#0x0                            
ram:0003ebb6    19d0            beq         LAB_0003ebec                            
ram:0003ebb8    0022            movs        param_3,#0x0                            
ram:0003ebba    1146            mov         param_2,param_3                         
ram:0003ebbc    fef70efd        bl          FUN_0003d5dc                            ;undefined FUN_0003d5dc(void)
ram:0003ebc0    14e0            b           LAB_0003ebec                            
                            LAB_0003ebc2:                 ;XREF[1,0]:   0003ebae
ram:0003ebc2    a078            ldrb        param_1,[r4,#0x2]=>DAT_20002cc2         
ram:0003ebc4    0028            cmp         param_1,#0x0                            
ram:0003ebc6    11d0            beq         LAB_0003ebec                            
ram:0003ebc8    74df            svc         0x74                                    
ram:0003ebca    0028            cmp         param_1,#0x0                            
ram:0003ebcc    03d0            beq         LAB_0003ebd6                            
ram:0003ebce    0022            movs        param_3,#0x0                            
ram:0003ebd0    1146            mov         param_2,param_3                         
ram:0003ebd2    fef703fd        bl          FUN_0003d5dc                            ;undefined FUN_0003d5dc(void)
                            LAB_0003ebd6:                 ;XREF[1,0]:   0003ebcc
ram:0003ebd6    1520            movs        param_1,#0x15                           
ram:0003ebd8    00f08efa        bl          FUN_0003f0f8                            ;undefined FUN_0003f0f8(uint param_1)
ram:0003ebdc    1620            movs        param_1,#0x16                           
ram:0003ebde    00f08bfa        bl          FUN_0003f0f8                            ;undefined FUN_0003f0f8(uint param_1)
ram:0003ebe2    1720            movs        param_1,#0x17                           
ram:0003ebe4    00f088fa        bl          FUN_0003f0f8                            ;undefined FUN_0003f0f8(uint param_1)
ram:0003ebe8    0020            movs        param_1,#0x0                            
ram:0003ebea    a070            strb        param_1,[r4,#0x2]=>DAT_20002cc2         
                            LAB_0003ebec:                 ;XREF[3,0]:   0003ebb6,0003ebc0,0003ebc6
ram:0003ebec    fef7eff8        bl          FUN_0003cdce                            ;undefined FUN_0003cdce(undefined4 pa...
ram:0003ebf0    0028            cmp         param_1,#0x0                            
ram:0003ebf2    03d0            beq         LAB_0003ebfc                            
ram:0003ebf4    0022            movs        param_3,#0x0                            
ram:0003ebf6    1146            mov         param_2,param_3                         
ram:0003ebf8    fef7f0fc        bl          FUN_0003d5dc                            ;undefined FUN_0003d5dc(void)
                            LAB_0003ebfc:                 ;XREF[1,0]:   0003ebf2
ram:0003ebfc    0020            movs        param_1,#0x0                            
ram:0003ebfe    10bd            pop         {r4,pc}                                 
                            ;************************************************************************************************
                            ;*                                           FUNCTION                                           *
                            ;************************************************************************************************
                            ;undefined FUN_0003ec00(undefined4 param_1, uint * param_2)
          ;param_1       undefined4          r0                      
          ;param_2       uint *              r1                      
ram:0003ec00    70b5            push        {r4,r5,r6,lr}                           
ram:0003ec02    0a68            ldr         r2,[param_2,#0x0]                       
ram:0003ec04    0546            mov         r5,param_1                              
ram:0003ec06    0120            movs        param_1,#0x1                            
ram:0003ec08    984c            ldr         r4,[DAT_0003ee6c]                       ;= 20002CC0h
ram:0003ec0a    1300            movs        r3,r2                                   
                                                          ; FWD[2,0]:   0003ec10,0003f54c
ram:0003ec0c    00f09efc        bl          __ARM_common_switch8                    ;= 0Ah
                                                                                    ;undefined __ARM_common_switch8(void)
                            DAT_0003ec10:                 ;XREF[1,0]:   0003ec0c
ram:0003ec10    0a              undefined1  0Ah                                     
ram:0003ec11    2b              ??          2Bh    +                                
ram:0003ec12    30              ??          30h    0                                
ram:0003ec13    43              ??          43h    C                                
ram:0003ec14    06              ??          06h                                     
ram:0003ec15    13              ??          13h                                     
ram:0003ec16    20              ??          20h                                     
ram:0003ec17    7a              ??          7Ah    z                                
ram:0003ec18    7f              ??          7Fh                                    
ram:0003ec19    46              ??          46h    F                                
ram:0003ec1a    83              ??          83h                                     
ram:0003ec1b    12              ??          12h                                     
ram:0003ec1c    ff              ??          FFh                                     
ram:0003ec1d    f7              ??          F7h                                     
ram:0003ec1e    96              ??          96h                                     
ram:0003ec1f    fd              ??          FDh                                     
ram:0003ec20    04              ??          04h                                     
ram:0003ec21    21              ??          21h    !                                
ram:0003ec22    ff              ??          FFh                                     
ram:0003ec23    f7              ??          F7h                                     
ram:0003ec24    03              ??          03h                                     
ram:0003ec25    ff              ??          FFh                                     
ram:0003ec26    02              ??          02h                                     
ram:0003ec27    46              ??          46h    F                                
ram:0003ec28    04              ??          04h                                     
ram:0003ec29    21              ??          21h    !                                
ram:0003ec2a    2e              ??          2Eh    .                                
ram:0003ec2b    e0              ??          E0h                                     
ram:0003ec2c    00              ??          00h                                     
ram:0003ec2d    22              ??          22h    "                                
ram:0003ec2e    11              ??          11h                                     
ram:0003ec2f    46              ??          46h    F                                
ram:0003ec30    fe              ??          FEh                                     
ram:0003ec31    f7              ??          F7h                                     
ram:0003ec32    d4              ??          D4h                                     
ram:0003ec33    fc              ??          FCh                                     
ram:0003ec34    70              ??          70h    p                                
ram:0003ec35    bd              ??          BDh                                     
ram:0003ec36    ff              ??          FFh                                     
ram:0003ec37    f7              ??          F7h                                     
ram:0003ec38    b3              ??          B3h                                     
ram:0003ec39    ff              ??          FFh                                     
ram:0003ec3a    00              ??          00h                                     
ram:0003ec3b    28              ??          28h    (                                
ram:0003ec3c    03              ??          03h                                     
ram:0003ec3d    d0              ??          D0h                                     
ram:0003ec3e    00              ??          00h                                     
ram:0003ec3f    22              ??          22h    "                                
ram:0003ec40    11              ??          11h                                     
ram:0003ec41    46              ??          46h    F                                
ram:0003ec42    fe              ??          FEh                                     
ram:0003ec43    f7              ??          F7h                                     
ram:0003ec44    cb              ??          CBh                                     
ram:0003ec45    fc              ??          FCh                                     
ram:0003ec46    ff              ??          FFh                                     
ram:0003ec47    f7              ??          F7h                                     
ram:0003ec48    9c              ??          9Ch                                     
ram:0003ec49    fd              ??          FDh                                     
ram:0003ec4a    00              ??          00h                                     
ram:0003ec4b    28              ??          28h    (                                
ram:0003ec4c    08              ??          08h                                     
ram:0003ec4d    d1              ??          D1h                                     
ram:0003ec4e    70              ??          70h    p                                
ram:0003ec4f    bd              ??          BDh                                     
ram:0003ec50    ff              ??          FFh                                     
ram:0003ec51    f7              ??          F7h                                     
ram:0003ec52    a6              ??          A6h                                     
ram:0003ec53    ff              ??          FFh                                     
ram:0003ec54    00              ??          00h                                     
ram:0003ec55    28              ??          28h    (                                
ram:0003ec56    03              ??          03h                                     
ram:0003ec57    d0              ??          D0h                                     
ram:0003ec58    00              ??          00h                                     
ram:0003ec59    22              ??          22h    "                                
ram:0003ec5a    11              ??          11h                                     
ram:0003ec5b    46              ??          46h    F                                
ram:0003ec5c    fe              ??          FEh                                     
ram:0003ec5d    f7              ??          F7h                                     
ram:0003ec5e    be              ??          BEh                                     
ram:0003ec5f    fc              ??          FCh                                     
ram:0003ec60    ff              ??          FFh                                     
ram:0003ec61    f7              ??          F7h                                     
ram:0003ec62    a3              ??          A3h                                     
ram:0003ec63    fd              ??          FDh                                     
ram:0003ec64    70              ??          70h    p                                
ram:0003ec65    bd              ??          BDh                                     
ram:0003ec66    20              ??          20h                                     
ram:0003ec67    61              ??          61h    a                                
ram:0003ec68    88              ??          88h                                     
ram:0003ec69    68              ??          68h    h                                
ram:0003ec6a    00              ??          00h                                     
ram:0003ec6b    78              ??          78h    x                                
ram:0003ec6c    60              ??          60h    `                                
ram:0003ec6d    71              ??          71h    q                                
ram:0003ec6e    70              ??          70h    p                                
ram:0003ec6f    bd              ??          BDh                                     
ram:0003ec70    02              ??          02h                                     
ram:0003ec71    20              ??          20h                                     
ram:0003ec72    20              ??          20h                                     
ram:0003ec73    61              ??          61h    a                                
ram:0003ec74    88              ??          88h                                     
ram:0003ec75    68              ??          68h    h                                
ram:0003ec76    00              ??          00h                                     
ram:0003ec77    78              ??          78h    x                                
ram:0003ec78    01              ??          01h                                     
ram:0003ec79    28              ??          28h    (                                
ram:0003ec7a    f8              ??          F8h                                     
ram:0003ec7b    d1              ??          D1h                                     
ram:0003ec7c    ff              ??          FFh                                     
ram:0003ec7d    f7              ??          F7h                                     
ram:0003ec7e    0f              ??          0Fh                                     
ram:0003ec7f    fd              ??          FDh                                     
ram:0003ec80    02              ??          02h                                     
ram:0003ec81    21              ??          21h    !                                
ram:0003ec82    ff              ??          FFh                                     
ram:0003ec83    f7              ??          F7h                                     
ram:0003ec84    d3              ??          D3h                                     
ram:0003ec85    fe              ??          FEh                                     
ram:0003ec86    02              ??          02h                                     
ram:0003ec87    46              ??          46h    F                                
ram:0003ec88    02              ??          02h                                     
ram:0003ec89    21              ??          21h    !                                
ram:0003ec8a    28              ??          28h    (                                
ram:0003ec8b    46              ??          46h    F                                
ram:0003ec8c    fe              ??          FEh                                     
ram:0003ec8d    f7              ??          F7h                                     
ram:0003ec8e    28              ??          28h    (                                
ram:0003ec8f    f9              ??          F9h                                     
ram:0003ec90    00              ??          00h                                     
ram:0003ec91    28              ??          28h    (                                
ram:0003ec92    cb              ??          CBh                                     
ram:0003ec93    d1              ??          D1h                                     
ram:0003ec94    70              ??          70h    p                                
ram:0003ec95    bd              ??          BDh                                     
ram:0003ec96    03              ??          03h                                     
ram:0003ec97    20              ??          20h                                     
ram:0003ec98    20              ??          20h                                     
ram:0003ec99    61              ??          61h    a                                
ram:0003ec9a    70              ??          70h    p                                
ram:0003ec9b    bd              ??          BDh                                     
ram:0003ec9c    22              ??          22h    "                                
ram:0003ec9d    69              ??          69h    i                                
ram:0003ec9e    28              ??          28h    (                                
ram:0003ec9f    46              ??          46h    F                                
ram:0003eca0    01              ??          01h                                     
ram:0003eca1    2a              ??          2Ah    *                                
ram:0003eca2    04              ??          04h                                     
ram:0003eca3    d0              ??          D0h                                     
ram:0003eca4    02              ??          02h                                     
ram:0003eca5    2a              ??          2Ah    *                                
ram:0003eca6    05              ??          05h                                     
ram:0003eca7    d0              ??          D0h                                     
ram:0003eca8    03              ??          03h                                     
ram:0003eca9    2a              ??          2Ah    *                                
ram:0003ecaa    08              ??          08h                                     
ram:0003ecab    d1              ??          D1h                                     
ram:0003ecac    05              ??          05h                                     
ram:0003ecad    e0              ??          E0h                                     
ram:0003ecae    00              ??          00h                                     
ram:0003ecaf    f0              ??          F0h                                     
ram:0003ecb0    6d              ??          6Dh    m                                
ram:0003ecb1    fa              ??          FAh                                     
ram:0003ecb2    04              ??          04h                                     
ram:0003ecb3    e0              ??          E0h                                     
ram:0003ecb4    00              ??          00h                                     
ram:0003ecb5    f0              ??          F0h                                     
ram:0003ecb6    a8              ??          A8h                                     
ram:0003ecb7    fa              ??          FAh                                     
ram:0003ecb8    01              ??          01h                                     
ram:0003ecb9    e0              ??          E0h                                     
ram:0003ecba    ff              ??          FFh                                     
ram:0003ecbb    f7              ??          F7h                                     
ram:0003ecbc    02              ??          02h                                     
ram:0003ecbd    ff              ??          FFh                                     
ram:0003ecbe    20              ??          20h                                     
ram:0003ecbf    79              ??          79h    y                                
ram:0003ecc0    40              ??          40h    @                                
ram:0003ecc1    1c              ??          1Ch                                     
ram:0003ecc2    c0              ??          C0h                                     
ram:0003ecc3    b2              ??          B2h                                     
ram:0003ecc4    20              ??          20h                                     
ram:0003ecc5    71              ??          71h    q                                
ram:0003ecc6    81              ??          81h                                     
ram:0003ecc7    06              ??          06h                                     
ram:0003ecc8    e7              ??          E7h                                     
ram:0003ecc9    d1              ??          D1h                                     
ram:0003ecca    80              ??          80h                                     
ram:0003eccb    09              ??          09h                                     
ram:0003eccc    80              ??          80h                                     
ram:0003eccd    01              ??          01h                                     
ram:0003ecce    0f              ??          0Fh                                     
ram:0003eccf    d0              ??          D0h                                     
ram:0003ecd0    40              ??          40h    @                                
ram:0003ecd1    28              ??          28h    (                                
ram:0003ecd2    03              ??          03h                                     
ram:0003ecd3    d0              ??          D0h                                     
ram:0003ecd4    80              ??          80h                                     
ram:0003ecd5    28              ??          28h    (                                
ram:0003ecd6    0b              ??          0Bh                                     
ram:0003ecd7    d0              ??          D0h                                     
ram:0003ecd8    c0              ??          C0h                                     
ram:0003ecd9    28              ??          28h    (                                
ram:0003ecda    de              ??          DEh                                     
ram:0003ecdb    d1              ??          D1h                                     
ram:0003ecdc    15              ??          15h                                     
ram:0003ecdd    20              ??          20h                                     
ram:0003ecde    00              ??          00h                                     
ram:0003ecdf    f0              ??          F0h                                     
ram:0003ece0    10              ??          10h                                     
ram:0003ece1    fa              ??          FAh                                     
ram:0003ece2    16              ??          16h                                     
ram:0003ece3    20              ??          20h                                     
ram:0003ece4    00              ??          00h                                     
ram:0003ece5    f0              ??          F0h                                     
ram:0003ece6    0d              ??          0Dh                                     
ram:0003ece7    fa              ??          FAh                                     
ram:0003ece8    17              ??          17h                                     
ram:0003ece9    20              ??          20h                                     
ram:0003ecea    00              ??          00h                                     
ram:0003eceb    f0              ??          F0h                                     
ram:0003ecec    0a              ??          0Ah                                     
ram:0003eced    fa              ??          FAh                                     
ram:0003ecee    70              ??          70h    p                                
ram:0003ecef    bd              ??          BDh                                     
ram:0003ecf0    15              ??          15h                                     
ram:0003ecf1    20              ??          20h                                     
ram:0003ecf2    00              ??          00h                                     
ram:0003ecf3    f0              ??          F0h                                     
ram:0003ecf4    01              ??          01h                                     
ram:0003ecf5    fa              ??          FAh                                     
ram:0003ecf6    16              ??          16h                                     
ram:0003ecf7    20              ??          20h                                     
ram:0003ecf8    00              ??          00h                                     
ram:0003ecf9    f0              ??          F0h                                     
ram:0003ecfa    fe              ??          FEh                                     
ram:0003ecfb    f9              ??          F9h                                     
ram:0003ecfc    17              ??          17h                                     
ram:0003ecfd    20              ??          20h                                     
ram:0003ecfe    00              ??          00h                                     
ram:0003ecff    f0              ??          F0h                                     
ram:0003ed00    fb              ??          FBh                                     
ram:0003ed01    f9              ??          F9h                                     
ram:0003ed02    70              ??          70h    p                                
ram:0003ed03    bd              ??          BDh                                     
ram:0003ed04    60              ??          60h    `                                
ram:0003ed05    70              ??          70h    p                                
ram:0003ed06    88              ??          88h                                     
ram:0003ed07    88              ??          88h                                     
ram:0003ed08    20              ??          20h                                     
ram:0003ed09    81              ??          81h                                     
ram:0003ed0a    60              ??          60h    `                                
ram:0003ed0b    81              ??          81h                                     
ram:0003ed0c    70              ??          70h    p                                
ram:0003ed0d    bd              ??          BDh                                     
ram:0003ed0e    00              ??          00h                                     
ram:0003ed0f    20              ??          20h                                     
ram:0003ed10    60              ??          60h    `                                
ram:0003ed11    70              ??          70h    p                                
ram:0003ed12    20              ??          20h                                     
ram:0003ed13    81              ??          81h                                     
ram:0003ed14    70              ??          70h    p                                
ram:0003ed15    bd              ??          BDh                                     
ram:0003ed16    28              ??          28h    (                                
ram:0003ed17    46              ??          46h    F                                
ram:0003ed18    61              ??          61h    a                                
ram:0003ed19    69              ??          69h    i                                
ram:0003ed1a    fe              ??          FEh                                     
ram:0003ed1b    f7              ??          F7h                                     
ram:0003ed1c    fe              ??          FEh                                     
ram:0003ed1d    f9              ??          F9h                                     
ram:0003ed1e    b7              ??          B7h                                     
ram:0003ed1f    e7              ??          E7h                                     
                            ;************************************************************************************************
                            ;*                                           FUNCTION                                           *
                            ;************************************************************************************************
                            ;undefined FUN_0003ed20(undefined param_1)
          ;param_1       undefined           r0                      
          ;local_18      undefined4         -18                      ;XREF[1,0]:   0003ed3a
          ;local_24      undefined4         -24                      ;XREF[1,0]:   0003ed68
          ;local_4c      undefined4         -4c                      ;XREF[1,0]:   0003ed66
          ;local_4e      undefined1         -4e                      ;XREF[1,0]:   0003ed2c
          ;local_50      undefined2         -50                      ;XREF[1,0]:   0003ed30
          ;local_54      undefined4         -54                      ;XREF[1,0]:   0003ed44
          ;local_58      undefined2         -58                      ;XREF[1,0]:   0003ed40
          ;local_5c      undefined2         -5c                      ;XREF[1,0]:   0003ed3c
          ;local_80      undefined4         -80                      ;XREF[1,0]:   0003ed5a
          ;local_84      undefined2         -84                      ;XREF[1,0]:   0003ed56
          ;local_8a      undefined1         -8a                      ;XREF[1,0]:   0003ed52
          ;local_8b      undefined1         -8b                      ;XREF[1,0]:   0003ed50
                                                          ;XREF[3,0]:   0003edda,0003ee1c,0003ee2c
ram:0003ed20    70b5            push        {r4,r5,r6,lr}                           
ram:0003ed22    0646            mov         r6,param_1                              
ram:0003ed24    5348            ldr         param_1,[DAT_0003ee74]                  ;= 200033D4h
ram:0003ed26    a0b0            sub         sp,#0x80                                
ram:0003ed28    8079            ldrb        param_1,[param_1,#0x6]=>DAT_200033da    
ram:0003ed2a    10a9            add         r1,sp,#0x40                             
ram:0003ed2c    8870            strb        param_1,[r1,#local_4e+0x50]             
ram:0003ed2e    5248            ldr         param_1,[DAT_0003ee78]                  ;= 00001530h
ram:0003ed30    0880            strh        param_1,[r1,#0x0]=>local_50             
ram:0003ed32    0024            movs        r4,#0x0                                 
ram:0003ed34    3d20            movs        param_1,#0x3d                           
ram:0003ed36    0002            lsls        param_1,param_1,#0x8                    
ram:0003ed38    6946            mov         r1,sp                                   
ram:0003ed3a    1e94            str         r4,[sp,#local_18+0x90]                  
ram:0003ed3c    8886            strh        param_1,[r1,#local_5c+0x90]             
ram:0003ed3e    0225            movs        r5,#0x2                                 
ram:0003ed40    0d87            strh        r5,[r1,#local_58+0x90]                  
ram:0003ed42    1ea8            add         param_1,sp,#0x78                        
ram:0003ed44    0f90            str         param_1,[sp,#local_54+0x90]             
ram:0003ed46    3421            movs        r1,#0x34                                
ram:0003ed48    6846            mov         param_1,sp                              
ram:0003ed4a    00f0b4fb        bl          FUN_0003f4b6                            ;undefined FUN_0003f4b6(undefined * p...
ram:0003ed4e    6946            mov         r1,sp                                   
ram:0003ed50    4c71            strb        r4,[r1,#local_8b+0x90]                  
ram:0003ed52    8e71            strb        r6,[r1,#local_8a+0x90]                  
ram:0003ed54    0120            movs        param_1,#0x1                            
ram:0003ed56    8881            strh        param_1,[r1,#local_84+0x90]             
ram:0003ed58    10a8            add         param_1,sp,#0x40                        
ram:0003ed5a    0490            str         param_1,[sp,#local_80+0x90]             
ram:0003ed5c    3421            movs        r1,#0x34                                
ram:0003ed5e    11a8            add         param_1,sp,#0x44                        
ram:0003ed60    00f0a9fb        bl          FUN_0003f4b6                            ;undefined FUN_0003f4b6(undefined * p...
ram:0003ed64    0da8            add         param_1,sp,#0x34                        
ram:0003ed66    1195            str         r5,[sp,#local_4c+0x90]                  
ram:0003ed68    1b90            str         param_1,[sp,#local_24+0x90]             
ram:0003ed6a    11a9            add         r1,sp,#0x44                             
ram:0003ed6c    6846            mov         param_1,sp                              
ram:0003ed6e    fdf7c8fe        bl          FUN_0003cb02                            ;undefined * FUN_0003cb02(int * param...
ram:0003ed72    0028            cmp         param_1,#0x0                            
ram:0003ed74    03d0            beq         LAB_0003ed7e                            
ram:0003ed76    0022            movs        r2,#0x0                                 
ram:0003ed78    1146            mov         r1,r2                                   
ram:0003ed7a    fef72ffc        bl          FUN_0003d5dc                            ;undefined FUN_0003d5dc(void)
                            LAB_0003ed7e:                 ;XREF[1,0]:   0003ed74
ram:0003ed7e    20b0            add         sp,#0x80                                
ram:0003ed80    70bd            pop         {r4,r5,r6,pc}                           
                            ;************************************************************************************************
                            ;*                                           FUNCTION                                           *
                            ;************************************************************************************************
                            ;undefined FUN_0003ed82(void)
          ;local_1c      undefined4         -1c                      ;XREF[1,0]:   0003edc6
          ;local_20      undefined4         -20                      ;XREF[1,0]:   0003edc4
          ;local_24      undefined1         -24                      ;XREF[1,0]:   0003edd2
          ;local_28      undefined4         -28                      ;XREF[1,0]:   0003edd6
          ;local_2c      undefined1         -2c                      ;XREF[1,0]:   0003edca
          ;local_30      undefined4         -30                      ;XREF[1,0]:   0003edce
          ;local_34      undefined4         -34                      ;XREF[1,0]:   0003edb8
          ;local_38      undefined4         -38                      ;XREF[1,0]:   0003edb0
          ;local_3c      undefined4         -3c                      ;XREF[1,0]:   0003edae
          ;local_40      undefined4         -40                      ;XREF[1,0]:   0003edac
                                                          ;XREF[3,0]:   0003eecc,0003ef2c,0003f0ea
ram:0003ed82    f0b5            push        {r4,r5,r6,r7,lr}                        
ram:0003ed84    394c            ldr         r4,[DAT_0003ee6c]                       ;= 20002CC0h
ram:0003ed86    8bb0            sub         sp,#0x2c                                
ram:0003ed88    a078            ldrb        r0,[r4,#0x2]=>DAT_20002cc2              
ram:0003ed8a    0028            cmp         r0,#0x0                                 
ram:0003ed8c    43d1            bne         LAB_0003ee16                            
ram:0003ed8e    3948            ldr         r0,[DAT_0003ee74]                       ;= 200033D4h
ram:0003ed90    1821            movs        r1,#0x18                                
ram:0003ed92    1838            subs        r0=>DAT_200033bc,#0x18                  
ram:0003ed94    00f08ffb        bl          FUN_0003f4b6                            ;undefined FUN_0003f4b6(undefined * p...
ram:0003ed98    2046            mov         r0,r4                                   
ram:0003ed9a    364c            ldr         r4,[DAT_0003ee74]                       ;= 200033D4h
ram:0003ed9c    c078            ldrb        r0,[r0,#0x3]=>DAT_20002cc3              
ram:0003ed9e    183c            subs        r4,#0x18                                
ram:0003eda0    0025            movs        r5,#0x0                                 
ram:0003eda2    0126            movs        r6,#0x1                                 
ram:0003eda4    0028            cmp         r0,#0x0                                 
ram:0003eda6    40d0            beq         LAB_0003ee2a                            
ram:0003eda8    2746            mov         r7,r4                                   
ram:0003edaa    4837            adds        r7,#0x48                                
ram:0003edac    0095            str         r5,[sp,#0x0]=>local_40                  
ram:0003edae    0195            str         r5,[sp,#local_3c+0x40]                  
ram:0003edb0    0295            str         r5,[sp,#local_38+0x40]                  
ram:0003edb2    1022            movs        r2,#0x10                                
ram:0003edb4    6946            mov         r1,sp                                   
ram:0003edb6    f81d            adds        r0,r7,#0x7                              
ram:0003edb8    0395            str         r5,[sp,#local_34+0x40]                  
ram:0003edba    00f08efb        bl          FUN_0003f4da                            ;undefined FUN_0003f4da(int param_1, ...
ram:0003edbe    0028            cmp         r0,#0x0                                 
ram:0003edc0    2bd0            beq         LAB_0003ee1a                            
ram:0003edc2    f81d            adds        r0,r7,#0x7                              
ram:0003edc4    0890            str         r0,[sp,#local_20+0x40]                  
ram:0003edc6    0997            str         r7,[sp,#local_1c+0x40]                  
ram:0003edc8    6846            mov         r0,sp                                   
ram:0003edca    0675            strb        r6,[r0,#local_2c+0x40]                  
ram:0003edcc    09a8            add         r0,sp,#0x24                             
ram:0003edce    0490            str         r0,[sp,#local_30+0x40]                  
ram:0003edd0    6846            mov         r0,sp                                   
ram:0003edd2    0677            strb        r6,[r0,#local_24+0x40]                  
ram:0003edd4    08a8            add         r0,sp,#0x20                             
ram:0003edd6    0690            str         r0,[sp,#local_28+0x40]                  
ram:0003edd8    0420            movs        r0,#0x4                                 
ram:0003edda    fff7a1ff        bl          FUN_0003ed20                            ;undefined FUN_0003ed20(undefined par...
ram:0003edde    2570            strb        r5,[r4,#0x0]=>DAT_200033bc              
ram:0003ede0    0220            movs        r0,#0x2                                 
ram:0003ede2    2072            strb        r0,[r4,#0x8]=>DAT_200033c4              
ram:0003ede4    04a8            add         r0,sp,#0x10                             
ram:0003ede6    e060            str         r0,[r4,#0xc]=>DAT_200033c8              
                            LAB_0003ede8:                 ;XREF[1,0]:   0003ee36
ram:0003ede8    2820            movs        r0,#0x28                                
ram:0003edea    2082            strh        r0,[r4,#0x10]=>DAT_200033cc             
                            LAB_0003edec:                 ;XREF[1,0]:   0003ee28
ram:0003edec    2148            ldr         r0,[DAT_0003ee74]                       ;= 200033D4h
ram:0003edee    6582            strh        r5,[r4,#0x12]=>DAT_200033ce             
ram:0003edf0    1838            subs        r0=>DAT_200033bc,#0x18                  
ram:0003edf2    73df            svc         0x73                                    
ram:0003edf4    0028            cmp         r0,#0x0                                 
ram:0003edf6    03d0            beq         LAB_0003ee00                            
ram:0003edf8    0022            movs        r2,#0x0                                 
ram:0003edfa    1146            mov         r1,r2                                   
ram:0003edfc    fef7eefb        bl          FUN_0003d5dc                            ;undefined FUN_0003d5dc(void)
                            LAB_0003ee00:                 ;XREF[1,0]:   0003edf6
ram:0003ee00    1520            movs        r0,#0x15                                
ram:0003ee02    00f07ef9        bl          FUN_0003f102                            ;undefined FUN_0003f102(uint param_1)
ram:0003ee06    1620            movs        r0,#0x16                                
ram:0003ee08    00f07bf9        bl          FUN_0003f102                            ;undefined FUN_0003f102(uint param_1)
ram:0003ee0c    1720            movs        r0,#0x17                                
ram:0003ee0e    00f078f9        bl          FUN_0003f102                            ;undefined FUN_0003f102(uint param_1)
ram:0003ee12    1648            ldr         r0=>DAT_20002cc0,[DAT_0003ee6c]         ;= 20002CC0h
ram:0003ee14    8670            strb        r6,[r0,#0x2]=>DAT_20002cc2              
                            LAB_0003ee16:                 ;XREF[1,0]:   0003ed8c
ram:0003ee16    0bb0            add         sp,#0x2c                                
ram:0003ee18    f0bd            pop         {r4,r5,r6,r7,pc}                        
                            LAB_0003ee1a:                 ;XREF[1,0]:   0003edc0
ram:0003ee1a    0520            movs        r0,#0x5                                 
ram:0003ee1c    fff780ff        bl          FUN_0003ed20                            ;undefined FUN_0003ed20(undefined par...
ram:0003ee20    2670            strb        r6,[r4,#0x0]=>DAT_200033bc              
ram:0003ee22    6760            str         r7,[r4,#0x4]=>DAT_200033c0              
ram:0003ee24    2572            strb        r5,[r4,#0x8]=>DAT_200033c4              
ram:0003ee26    2582            strh        r5,[r4,#0x10]=>DAT_200033cc             
ram:0003ee28    e0e7            b           LAB_0003edec                            
                            LAB_0003ee2a:                 ;XREF[1,0]:   0003eda6
ram:0003ee2a    0620            movs        r0,#0x6                                 
ram:0003ee2c    fff778ff        bl          FUN_0003ed20                            ;undefined FUN_0003ed20(undefined par...
ram:0003ee30    2570            strb        r5,[r4,#0x0]=>DAT_200033bc              
ram:0003ee32    6560            str         r5,[r4,#0x4]=>DAT_200033c0              
ram:0003ee34    2572            strb        r5,[r4,#0x8]=>DAT_200033c4              
ram:0003ee36    d7e7            b           LAB_0003ede8                            
                            ;************************************************************************************************
                            ;*                                           FUNCTION                                           *
                            ;************************************************************************************************
                            ;undefined FUN_0003ee38(ushort * param_1, uint param_2)
          ;param_1       ushort *            r0                      
          ;param_2       uint                r1                      
          ;local_84      undefined4         -84                      ;XREF[1,0]:   0003ef78
          ;local_88      undefined4         -88                      ;XREF[2,0]:   0003ef5a,0003ef76
          ;local_8c      undefined4         -8c                      ;XREF[1,0]:   0003ef5e
          ;local_98      undefined4         -98                      ;XREF[1,0]:   0003ef80
          ;local_a4      undefined2         -a4                      ;XREF[1,0]:   0003efb6
          ;local_a8      undefined1         -a8                      ;XREF[1,0]:   0003efac
          ;local_ac      undefined4         -ac                      ;XREF[2,0]:   0003eef8,0003ef7c
          ;local_b0      undefined4         -b0                      ;XREF[1,0]:   0003ef7a
                                                          ;XREF[1,0]:   0003efde
ram:0003ee38    f0b5            push        {r4,r5,r6,r7,lr}                        
ram:0003ee3a    0546            mov         r5,param_1                              
ram:0003ee3c    0b4c            ldr         r4,[DAT_0003ee6c]                       ;= 20002CC0h
ram:0003ee3e    0088            ldrh        param_1,[param_1,#0x0]                  
ram:0003ee40    0027            movs        r7,#0x0                                 
ram:0003ee42    e688            ldrh        r6,[r4,#0x6]=>DAT_20002cc6              
ram:0003ee44    a7b0            sub         sp,#0x9c                                
ram:0003ee46    1728            cmp         param_1,#0x17                           
ram:0003ee48    1dd0            beq         LAB_0003ee86                            
ram:0003ee4a    30dc            bgt         LAB_0003eeae                            
ram:0003ee4c    1128            cmp         param_1,#0x11                           
ram:0003ee4e    51d0            beq         LAB_0003eef4                            
ram:0003ee50    1bdc            bgt         LAB_0003ee8a                            
ram:0003ee52    0228            cmp         param_1,#0x2                            
ram:0003ee54    70d0            beq         LAB_0003ef38                            
ram:0003ee56    1028            cmp         param_1,#0x10                           
ram:0003ee58    15d1            bne         LAB_0003ee86                            
ram:0003ee5a    1520            movs        param_1,#0x15                           
ram:0003ee5c    00f051f9        bl          FUN_0003f102                            ;undefined FUN_0003f102(uint param_1)
ram:0003ee60    1620            movs        param_1,#0x16                           
ram:0003ee62    00f04ef9        bl          FUN_0003f102                            ;undefined FUN_0003f102(uint param_1)
ram:0003ee66    1720            movs        param_1,#0x17                           
ram:0003ee68    08e0            b           LAB_0003ee7c                            
ram:0003ee6a    0000            movs        r0,r0                                   
                            DAT_0003ee6c:                 ;XREF[8,0]:   0003ea70,0003eaea,0003eaf8,0003eba2
                                                          ;             0003ec08,0003ed84,0003ee12,0003ee3c
ram:0003ee6c    c02c0020        undefined4  20002CC0h                               
                            DAT_0003ee70:                 ;XREF[2,0]:   0003ea78,0003ebaa
ram:0003ee70    ffff0000        undefined4  0000FFFFh                               
                            DAT_0003ee74:                 ;XREF[5,0]:   0003eaa0,0003ed24,0003ed8e,0003ed9a
                                                          ;             0003edec
ram:0003ee74    d4330020        undefined4  200033D4h                               
                            DAT_0003ee78:                 ;XREF[1,0]:   0003ed2e
ram:0003ee78    30150000        undefined4  00001530h                               
                            LAB_0003ee7c:                 ;XREF[1,0]:   0003ee68
ram:0003ee7c    00f041f9        bl          FUN_0003f102                            ;undefined FUN_0003f102(uint param_1)
ram:0003ee80    a888            ldrh        param_1,[r5,#0x4]                       
ram:0003ee82    e080            strh        param_1,[r4,#0x6]=>DAT_20002cc6         
ram:0003ee84    a770            strb        r7,[r4,#0x2]=>DAT_20002cc2              
                            LAB_0003ee86:                 ;XREF[12,0]:  0003ee48,0003ee58,0003ee96,0003eeba
                                                          ;             0003eec0,0003eed0,0003eed8,0003eede
                                                          ;             0003eee8,0003eef2,0003ef36,0003ef86
ram:0003ee86    27b0            add         sp,#0x9c                                
ram:0003ee88    f0bd            pop         {r4,r5,r6,r7,pc}                        
                            LAB_0003ee8a:                 ;XREF[1,0]:   0003ee50
ram:0003ee8a    f74c            ldr         r4,[DAT_0003f268]                       ;= 20003404h
ram:0003ee8c    2746            mov         r7,r4                                   
ram:0003ee8e    1837            adds        r7,#0x18                                
ram:0003ee90    1328            cmp         param_1,#0x13                           
ram:0003ee92    52d0            beq         LAB_0003ef3a                            
ram:0003ee94    1428            cmp         param_1,#0x14                           
ram:0003ee96    f6d1            bne         LAB_0003ee86                            
ram:0003ee98    e889            ldrh        param_1,[r5,#0xe]                       
ram:0003ee9a    628d            ldrh        r2,[r4,#0x2a]=>DAT_2000342e             
ram:0003ee9c    0021            movs        param_2,#0x0                            
ram:0003ee9e    9042            cmp         param_1,r2                              
ram:0003eea0    00d1            bne         LAB_0003eea4                            
ram:0003eea2    3946            mov         param_2,r7                              
                            LAB_0003eea4:                 ;XREF[1,0]:   0003eea0
ram:0003eea4    0023            movs        r3,#0x0                                 
ram:0003eea6    a888            ldrh        param_1,[r5,#0x4]                       
ram:0003eea8    e21d            adds        r2,r4,#0x7                              
ram:0003eeaa    82df            svc         0x82                                    
ram:0003eeac    1be0            b           LAB_0003eee6                            
                            LAB_0003eeae:                 ;XREF[1,0]:   0003ee4a
ram:0003eeae    5128            cmp         param_1,#0x51                           
ram:0003eeb0    6ed0            beq         LAB_0003ef90                            
ram:0003eeb2    0edc            bgt         LAB_0003eed2                            
ram:0003eeb4    1828            cmp         param_1,#0x18                           
ram:0003eeb6    7dd0            beq         LAB_0003efb4                            
ram:0003eeb8    1928            cmp         param_1,#0x19                           
ram:0003eeba    e4d1            bne         LAB_0003ee86                            
ram:0003eebc    a879            ldrb        param_1,[r5,#0x6]                       
ram:0003eebe    0028            cmp         param_1,#0x0                            
ram:0003eec0    e1d1            bne         LAB_0003ee86                            
ram:0003eec2    a770            strb        r7,[r4,#0x2]=>DAT_20002cc2              
ram:0003eec4    e068            ldr         param_1,[r4,#0xc]=>DAT_20002ccc         
ram:0003eec6    401e            subs        param_1,param_1,#0x1                    
ram:0003eec8    e060            str         param_1,[r4,#0xc]=>DAT_20002ccc         
ram:0003eeca    4fd0            beq         LAB_0003ef6c                            
ram:0003eecc    fff759ff        bl          FUN_0003ed82                            ;undefined FUN_0003ed82(void)
                            LAB_0003eed0:                 ;XREF[2,0]:   0003ef94,0003efa2
ram:0003eed0    d9e7            b           LAB_0003ee86                            
                            LAB_0003eed2:                 ;XREF[1,0]:   0003eeb2
ram:0003eed2    5228            cmp         param_1,#0x52                           
ram:0003eed4    76d0            beq         LAB_0003efc4                            
ram:0003eed6    5528            cmp         param_1,#0x55                           
ram:0003eed8    d5d1            bne         LAB_0003ee86                            
ram:0003eeda    a879            ldrb        param_1,[r5,#0x6]                       
ram:0003eedc    0028            cmp         param_1,#0x0                            
ram:0003eede    d2d1            bne         LAB_0003ee86                            
ram:0003eee0    1321            movs        param_2,#0x13                           
ram:0003eee2    3046            mov         param_1,r6                              
ram:0003eee4    76df            svc         0x76                                    
                            LAB_0003eee6:                 ;XREF[5,0]:   0003eeac,0003ef6a,0003ef8e,0003efbe
                                                          ;             0003efc8
ram:0003eee6    0028            cmp         param_1,#0x0                            
ram:0003eee8    cdd0            beq         LAB_0003ee86                            
ram:0003eeea    0022            movs        r2,#0x0                                 
ram:0003eeec    1146            mov         param_2,r2                              
ram:0003eeee    fef775fb        bl          FUN_0003d5dc                            ;undefined FUN_0003d5dc(void)
ram:0003eef2    c8e7            b           LAB_0003ee86                            
                            LAB_0003eef4:                 ;XREF[1,0]:   0003ee4e
ram:0003eef4    8020            movs        param_1,#0x80                           
ram:0003eef6    6946            mov         param_2,sp                              
ram:0003eef8    8880            strh        param_1,[r1,#local_ac+0xb0]             
ram:0003eefa    3220            movs        param_1,#0x32                           
ram:0003eefc    e060            str         param_1,[r4,#0xc]=>DAT_20002ccc         
ram:0003eefe    1520            movs        param_1,#0x15                           
ram:0003ef00    00f0fff8        bl          FUN_0003f102                            ;undefined FUN_0003f102(uint param_1)
ram:0003ef04    1620            movs        param_1,#0x16                           
ram:0003ef06    00f0fcf8        bl          FUN_0003f102                            ;undefined FUN_0003f102(uint param_1)
ram:0003ef0a    1720            movs        param_1,#0x17                           
ram:0003ef0c    00f0f9f8        bl          FUN_0003f102                            ;undefined FUN_0003f102(uint param_1)
ram:0003ef10    0123            movs        r3,#0x1                                 
ram:0003ef12    01aa            add         r2,sp,#0x4                              
ram:0003ef14    06a9            add         param_2,sp,#0x18                        
ram:0003ef16    e088            ldrh        param_1,[r4,#0x6]=>DAT_20002cc6         
ram:0003ef18    aadf            svc         0xaa                                    
ram:0003ef1a    0028            cmp         param_1,#0x0                            
ram:0003ef1c    03d0            beq         LAB_0003ef26                            
ram:0003ef1e    0022            movs        r2,#0x0                                 
ram:0003ef20    1146            mov         param_2,r2                              
ram:0003ef22    fef75bfb        bl          FUN_0003d5dc                            ;undefined FUN_0003d5dc(void)
                            LAB_0003ef26:                 ;XREF[1,0]:   0003ef1c
ram:0003ef26    2078            ldrb        param_1,[r4,#0x0]=>DAT_20002cc0         
ram:0003ef28    0028            cmp         param_1,#0x0                            
ram:0003ef2a    01d1            bne         LAB_0003ef30                            
ram:0003ef2c    fff729ff        bl          FUN_0003ed82                            ;undefined FUN_0003ed82(void)
                            LAB_0003ef30:                 ;XREF[1,0]:   0003ef2a
ram:0003ef30    0020            movs        param_1,#0x0                            
ram:0003ef32    c043            mvns        param_1,param_1                         
ram:0003ef34    e080            strh        param_1,[r4,#0x6]=>DAT_20002cc6         
ram:0003ef36    a6e7            b           LAB_0003ee86                            
                            LAB_0003ef38:                 ;XREF[1,0]:   0003ee54
ram:0003ef38    26e0            b           LAB_0003ef88                            
                            LAB_0003ef3a:                 ;XREF[1,0]:   0003ee92
ram:0003ef3a    0722            movs        r2,#0x7                                 
ram:0003ef3c    ca49            ldr         param_2,[DAT_0003f268]                  ;= 20003404h
ram:0003ef3e    10a8            add         param_1,sp,#0x40                        
ram:0003ef40    00f0a0fa        bl          FUN_0003f484                            ;undefined FUN_0003f484(undefined4 * ...
ram:0003ef44    1022            movs        r2,#0x10                                
ram:0003ef46    e11d            adds        param_2,r4,#0x7                         
ram:0003ef48    0ca8            add         param_1,sp,#0x30                        
ram:0003ef4a    00f09bfa        bl          FUN_0003f484                            ;undefined FUN_0003f484(undefined4 * ...
ram:0003ef4e    1c22            movs        r2,#0x1c                                
ram:0003ef50    3946            mov         param_2,r7                              
ram:0003ef52    12a8            add         param_1,sp,#0x48                        
ram:0003ef54    00f096fa        bl          FUN_0003f484                            ;undefined FUN_0003f484(undefined4 * ...
ram:0003ef58    0ca8            add         param_1,sp,#0x30                        
ram:0003ef5a    0a90            str         param_1,[sp,#local_88+0xb0]             
ram:0003ef5c    12a8            add         param_1,sp,#0x48                        
ram:0003ef5e    0990            str         param_1,[sp,#local_8c+0xb0]             
ram:0003ef60    06ab            add         r3,sp,#0x18                             
ram:0003ef62    c24a            ldr         r2,[DAT_0003f26c]                       ;= 20002CE0h
ram:0003ef64    8521            movs        param_2,#0x85                           
ram:0003ef66    3046            mov         param_1,r6                              
ram:0003ef68    7fdf            svc         0x7f                                    
ram:0003ef6a    bce7            b           LAB_0003eee6                            
                            LAB_0003ef6c:                 ;XREF[1,0]:   0003eeca
ram:0003ef6c    1822            movs        r2,#0x18                                
ram:0003ef6e    c049            ldr         param_2=>DAT_0003f5f8,[PTR_DAT_0003f270];= 05h
                                                                                    ;= 0003f5f8
ram:0003ef70    06a8            add         param_1,sp,#0x18                        
ram:0003ef72    00f087fa        bl          FUN_0003f484                            ;undefined FUN_0003f484(undefined4 * ...
ram:0003ef76    0a98            ldr         param_1,[sp,#local_88+0xb0]             
ram:0003ef78    0b99            ldr         param_2,[sp,#local_84+0xb0]             
ram:0003ef7a    0090            str         param_1,[sp,#0x0]=>local_b0             
ram:0003ef7c    0191            str         param_2,[sp,#local_ac+0xb0]             
ram:0003ef7e    06a8            add         param_1,sp,#0x18                        
ram:0003ef80    0fc8            ldmia       param_1=>local_98,{param_1,param_2,r2...
ram:0003ef82    fef7f3ff        bl          FUN_0003df6c                            ;undefined FUN_0003df6c(int param_1, ...
ram:0003ef86    7ee7            b           LAB_0003ee86                            
                            LAB_0003ef88:                 ;XREF[1,0]:   0003ef38
ram:0003ef88    0021            movs        param_2,#0x0                            
ram:0003ef8a    3046            mov         param_1,r6                              
ram:0003ef8c    67df            svc         0x67                                    
ram:0003ef8e    aae7            b           LAB_0003eee6                            
                            LAB_0003ef90:                 ;XREF[1,0]:   0003eeb0
ram:0003ef90    a979            ldrb        param_2,[r5,#0x6]                       
ram:0003ef92    0029            cmp         param_2,#0x0                            
ram:0003ef94    9cd0            beq         LAB_0003eed0                            
ram:0003ef96    a87a            ldrb        param_1,[r5,#0xa]                       
ram:0003ef98    0428            cmp         param_1,#0x4                            
ram:0003ef9a    03d0            beq         LAB_0003efa4                            
ram:0003ef9c    0628            cmp         param_1,#0x6                            
ram:0003ef9e    01d0            beq         LAB_0003efa4                            
ram:0003efa0    0528            cmp         param_1,#0x5                            
ram:0003efa2    95d1            bne         LAB_0003eed0                            
                            LAB_0003efa4:                 ;XREF[2,0]:   0003ef9a,0003ef9e
ram:0003efa4    0229            cmp         param_2,#0x2                            
ram:0003efa6    0bd0            beq         LAB_0003efc0                            
ram:0003efa8    0120            movs        param_1,#0x1                            
                            LAB_0003efaa:                 ;XREF[1,0]:   0003efc2
ram:0003efaa    6946            mov         param_2,sp                              
ram:0003efac    0872            strb        param_1,[r1,#local_a8+0xb0]             
ram:0003efae    ff20            movs        param_1,#0xff                           
ram:0003efb0    8330            adds        param_1,#0x83                           
ram:0003efb2    00e0            b           LAB_0003efb6                            
                            LAB_0003efb4:                 ;XREF[1,0]:   0003eeb6
ram:0003efb4    06e0            b           LAB_0003efc4                            
                            LAB_0003efb6:                 ;XREF[1,0]:   0003efb2
ram:0003efb6    8881            strh        param_1,[r1,#local_a4+0xb0]             
ram:0003efb8    02a9            add         param_2,sp,#0x8                         
ram:0003efba    3046            mov         param_1,r6                              
ram:0003efbc    a8df            svc         0xa8                                    
ram:0003efbe    92e7            b           LAB_0003eee6                            
                            LAB_0003efc0:                 ;XREF[1,0]:   0003efa6
ram:0003efc0    0220            movs        param_1,#0x2                            
ram:0003efc2    f2e7            b           LAB_0003efaa                            
                            LAB_0003efc4:                 ;XREF[2,0]:   0003eed4,0003efb4
ram:0003efc4    00f0a2f8        bl          FUN_0003f10c                            ;ulonglong FUN_0003f10c(undefined4 pa...
ram:0003efc8    8de7            b           LAB_0003eee6                            
                            ;************************************************************************************************
                            ;*                                           FUNCTION                                           *
                            ;************************************************************************************************
                            ;undefined8 FUN_0003efca(ushort * param_1, undefined4 param_2, uint param_3, uint param_4)
          ;param_1       ushort *            r0                      
          ;param_2       undefined4          r1                      
          ;param_3       uint                r2                      
          ;param_4       uint                r3                      
                                                          ;XREF[0,2]:   0003f024,0003f278
ram:0003efca    10b5            push        {r4,lr}                                 
ram:0003efcc    0446            mov         r4,param_1                              
ram:0003efce    fdf72fff        bl          FUN_0003ce30                            ;undefined FUN_0003ce30(ushort * para...
ram:0003efd2    a548            ldr         param_1,[DAT_0003f268]                  ;= 20003404h
ram:0003efd4    2146            mov         param_2,r4                              
ram:0003efd6    3038            subs        param_1,#0x30                           
ram:0003efd8    fef75df8        bl          FUN_0003d096                            ;undefined FUN_0003d096(ushort * para...
ram:0003efdc    2046            mov         param_1,r4                              
ram:0003efde    fff72bff        bl          FUN_0003ee38                            ;undefined FUN_0003ee38(ushort * para...
ram:0003efe2    2046            mov         param_1,r4                              
ram:0003efe4    fdf767fa        bl          FUN_0003c4b6                            ;undefined8 FUN_0003c4b6(ushort * par...
ram:0003efe8    10bd            pop         {r4,pc}                                 
                            ;************************************************************************************************
                            ;*                                           FUNCTION                                           *
                            ;************************************************************************************************
                            ;undefined FUN_0003efea(void)
                                                          ;XREF[0,2]:   0003f082,0003f284
ram:0003efea    10b5            push        {r4,lr}                                 
ram:0003efec    0022            movs        r2,#0x0                                 
ram:0003efee    1146            mov         r1,r2                                   
ram:0003eff0    fef7f4fa        bl          FUN_0003d5dc                            ;undefined FUN_0003d5dc(void)
ram:0003eff4    10bd            pop         {r4,pc}                                 
                            ;************************************************************************************************
                            ;*                                           FUNCTION                                           *
                            ;************************************************************************************************
                            ;int FUN_0003eff6(void)
          ;local_18      undefined4         -18                      ;XREF[1,0]:   0003f0ba
          ;local_1c      undefined4         -1c                      ;XREF[1,0]:   0003f0bc
          ;local_20      undefined1         -20                      ;XREF[1,0]:   0003f0b6
          ;local_22      undefined2         -22                      ;XREF[1,0]:   0003f0b4
          ;local_24      undefined1         -24                      ;XREF[1,0]:   0003f0b2
          ;local_28      undefined4         -28                      ;XREF[2,0]:   0003f082,0003f0ac
          ;local_2c      undefined4         -2c                      ;XREF[2,0]:   0003f07e,0003f0a6
          ;local_30      undefined4         -30                      ;XREF[3,2]:   0003f078,0003f07a,0003f0ae,0003f05a,0003f05e
                                                          ;XREF[1,0]:   0003e07a
ram:0003eff6    f0b5            push        {r4,r5,r6,r7,lr}                        
ram:0003eff8    9c4f            ldr         r7,[DAT_0003f26c]                       ;= 20002CE0h
ram:0003effa    0024            movs        r4,#0x0                                 
ram:0003effc    203f            subs        r7,#0x20                                
ram:0003effe    87b0            sub         sp,#0x1c                                
ram:0003f000    3c70            strb        r4,[r7,#0x0]=>DAT_20002cc0              
ram:0003f002    9c48            ldr         r0,[DAT_0003f274]                       ;= 50000754h
ram:0003f004    0325            movs        r5,#0x3                                 
ram:0003f006    3c61            str         r4,[r7,#0x10]=>DAT_20002cd0             
ram:0003f008    0560            str         r5,[r0,#0x0]=>DAT_50000754              
ram:0003f00a    001d            adds        r0,r0,#0x4                              
ram:0003f00c    0560            str         r5,[r0,#0x0]=>DAT_50000758              
ram:0003f00e    001d            adds        r0,r0,#0x4                              
ram:0003f010    0560            str         r5,[r0,#0x0]=>DAT_5000075c              
ram:0003f012    1520            movs        r0,#0x15                                
ram:0003f014    00f070f8        bl          FUN_0003f0f8                            ;undefined FUN_0003f0f8(uint param_1)
ram:0003f018    1620            movs        r0,#0x16                                
ram:0003f01a    00f06df8        bl          FUN_0003f0f8                            ;undefined FUN_0003f0f8(uint param_1)
ram:0003f01e    1720            movs        r0,#0x17                                
ram:0003f020    00f06af8        bl          FUN_0003f0f8                            ;undefined FUN_0003f0f8(uint param_1)
ram:0003f024    9448            ldr         r0=>FUN_0003efca+1,[PTR_FUN_0003efca+...;= 0003efcb
ram:0003f026    00f0dff9        bl          FUN_0003f3e8                            ;undefined4 FUN_0003f3e8(int param_1)
ram:0003f02a    0028            cmp         r0,#0x0                                 
ram:0003f02c    60d1            bne         LAB_0003f0f0                            
ram:0003f02e    9348            ldr         r0,[DAT_0003f27c]                       ;= 0003EA63h
ram:0003f030    fff7aefa        bl          FUN_0003e590                            ;undefined FUN_0003e590(undefined4 pa...
ram:0003f034    fff7e2f8        bl          FUN_0003e1fc                            ;undefined4 FUN_0003e1fc(void)
ram:0003f038    0028            cmp         r0,#0x0                                 
ram:0003f03a    59d1            bne         LAB_0003f0f0                            
ram:0003f03c    8a48            ldr         r0,[DAT_0003f268]                       ;= 20003404h
ram:0003f03e    fdf7c1f8        bl          FUN_0003c1c4                            ;undefined4 FUN_0003c1c4(undefined4 *...
ram:0003f042    0126            movs        r6,#0x1                                 
ram:0003f044    0028            cmp         r0,#0x0                                 
ram:0003f046    55d0            beq         LAB_0003f0f4                            
ram:0003f048    6846            mov         r0,sp                                   
ram:0003f04a    71df            svc         0x71                                    
ram:0003f04c    0028            cmp         r0,#0x0                                 
ram:0003f04e    03d0            beq         LAB_0003f058                            
ram:0003f050    0022            movs        r2,#0x0                                 
ram:0003f052    1146            mov         r1,r2                                   
ram:0003f054    fef7c2fa        bl          FUN_0003d5dc                            ;undefined FUN_0003d5dc(void)
                            LAB_0003f058:                 ;XREF[1,0]:   0003f04e
ram:0003f058    6946            mov         r1,sp                                   
ram:0003f05a    4878            ldrb        r0,[r1,#local_30+0x31]                  
ram:0003f05c    401c            adds        r0,r0,#0x1                              
ram:0003f05e    4870            strb        r0,[r1,#local_30+0x31]                  
ram:0003f060    0020            movs        r0,#0x0                                 
ram:0003f062    70df            svc         0x70                                    
ram:0003f064    0028            cmp         r0,#0x0                                 
ram:0003f066    03d0            beq         LAB_0003f070                            
ram:0003f068    0022            movs        r2,#0x0                                 
ram:0003f06a    1146            mov         r1,r2                                   
ram:0003f06c    fef7b6fa        bl          FUN_0003d5dc                            ;undefined FUN_0003d5dc(void)
                            LAB_0003f070:                 ;XREF[2,0]:   0003f066,0003f0f6
ram:0003f070    00f014f9        bl          FUN_0003f29c                            ;undefined FUN_0003f29c(void)
ram:0003f074    0620            movs        r0,#0x6                                 
ram:0003f076    6946            mov         r1,sp                                   
ram:0003f078    0094            str         r4,[sp,#0x0]=>local_30                  
ram:0003f07a    0880            strh        r0,[r1,#0x0]=>local_30                  
ram:0003f07c    8048            ldr         r0,[DAT_0003f280]                       ;= 0003EC01h
ram:0003f07e    0190            str         r0,[sp,#local_2c+0x30]                  
ram:0003f080    8048            ldr         r0,[PTR_FUN_0003efea+1_0003f284]        ;= 0003efeb
ram:0003f082    0290            str         r0=>FUN_0003efea+1,[sp,#local_28+0x30]  
ram:0003f084    7848            ldr         r0,[DAT_0003f268]                       ;= 20003404h
ram:0003f086    3038            subs        r0,#0x30                                
ram:0003f088    fdf7c5ff        bl          FUN_0003d016                            ;undefined4 * FUN_0003d016(undefined2...
ram:0003f08c    0028            cmp         r0,#0x0                                 
ram:0003f08e    03d0            beq         LAB_0003f098                            
ram:0003f090    0022            movs        r2,#0x0                                 
ram:0003f092    1146            mov         r1,r2                                   
ram:0003f094    fef7a2fa        bl          FUN_0003d5dc                            ;undefined FUN_0003d5dc(void)
                            LAB_0003f098:                 ;XREF[1,0]:   0003f08e
ram:0003f098    fdf739fa        bl          FUN_0003c50e                            ;undefined FUN_0003c50e(void)
ram:0003f09c    1c21            movs        r1,#0x1c                                
ram:0003f09e    6846            mov         r0,sp                                   
ram:0003f0a0    00f009fa        bl          FUN_0003f4b6                            ;undefined FUN_0003f4b6(undefined * p...
ram:0003f0a4    7848            ldr         r0,[DAT_0003f288]                       ;= 00000CCDh
ram:0003f0a6    0190            str         r0,[sp,#local_2c+0x30]                  
ram:0003f0a8    0120            movs        r0,#0x1                                 
ram:0003f0aa    8003            lsls        r0,r0,#0xe                              
ram:0003f0ac    0290            str         r0,[sp,#local_28+0x30]                  
ram:0003f0ae    0094            str         r4,[sp,#0x0]=>local_30                  
ram:0003f0b0    6846            mov         r0,sp                                   
ram:0003f0b2    0573            strb        r5,[r0,#local_24+0x30]                  
ram:0003f0b4    c481            strh        r4,[r0,#local_22+0x30]                  
ram:0003f0b6    0474            strb        r4,[r0,#local_20+0x30]                  
ram:0003f0b8    7448            ldr         r0,[PTR_LAB_0003eb94+1+1_0003f28c]      ;= 0003eb95
ram:0003f0ba    0690            str         r0=>LAB_0003eb94+1+1,[sp,#local_18+0x30]
ram:0003f0bc    0594            str         r4,[sp,#local_1c+0x30]                  
ram:0003f0be    6846            mov         r0,sp                                   
ram:0003f0c0    fdf761fe        bl          FUN_0003cd86                            ;undefined FUN_0003cd86(undefined4 * ...
ram:0003f0c4    0028            cmp         r0,#0x0                                 
ram:0003f0c6    03d0            beq         LAB_0003f0d0                            
ram:0003f0c8    0022            movs        r2,#0x0                                 
ram:0003f0ca    1146            mov         r1,r2                                   
ram:0003f0cc    fef786fa        bl          FUN_0003d5dc                            ;undefined FUN_0003d5dc(void)
                            LAB_0003f0d0:                 ;XREF[1,0]:   0003f0c6
ram:0003f0d0    6649            ldr         r1=>DAT_20002ce0,[DAT_0003f26c]         ;= 20002CE0h
ram:0003f0d2    e122            movs        r2,#0xe1                                
ram:0003f0d4    0878            ldrb        r0,[r1,#0x0]=>DAT_20002ce0              
ram:0003f0d6    3043            orrs        r0,r6                                   
ram:0003f0d8    1040            ands        r0,r2                                   
ram:0003f0da    0c30            adds        r0,#0xc                                 
ram:0003f0dc    df22            movs        r2,#0xdf                                
ram:0003f0de    1040            ands        r0,r2                                   
ram:0003f0e0    0870            strb        r0,[r1,#0x0]=>DAT_20002ce0              
ram:0003f0e2    0720            movs        r0,#0x7                                 
ram:0003f0e4    4870            strb        r0,[r1,#0x1]=>DAT_20002ce1              
ram:0003f0e6    1020            movs        r0,#0x10                                
ram:0003f0e8    8870            strb        r0,[r1,#0x2]=>DAT_20002ce2              
ram:0003f0ea    fff74afe        bl          FUN_0003ed82                            ;undefined FUN_0003ed82(void)
ram:0003f0ee    0020            movs        r0,#0x0                                 
                            LAB_0003f0f0:                 ;XREF[2,0]:   0003f02c,0003f03a
ram:0003f0f0    07b0            add         sp,#0x1c                                
ram:0003f0f2    f0bd            pop         {r4,r5,r6,r7,pc}                        
                            LAB_0003f0f4:                 ;XREF[1,0]:   0003f046
ram:0003f0f4    fe70            strb        r6,[r7,#0x3]=>DAT_20002cc3              
ram:0003f0f6    bbe7            b           LAB_0003f070                            
                            ;************************************************************************************************
                            ;*                                           FUNCTION                                           *
                            ;************************************************************************************************
                            ;undefined FUN_0003f0f8(uint param_1)
          ;param_1       uint                r0                      
                                                          ;XREF[6,0]:   0003ebd8,0003ebde,0003ebe4,0003f014
                                                          ;             0003f01a,0003f020
ram:0003f0f8    0121            movs        r1,#0x1                                 
ram:0003f0fa    8140            lsls        r1,param_1                              
ram:0003f0fc    6448            ldr         param_1,[DAT_0003f290]                  ;= 50000500h
ram:0003f0fe    8160            str         r1,[param_1,#offset DAT_50000508 &0xff] 
ram:0003f100    7047            bx          lr                                      
                            ;************************************************************************************************
                            ;*                                           FUNCTION                                           *
                            ;************************************************************************************************
                            ;undefined FUN_0003f102(uint param_1)
          ;param_1       uint                r0                      
                                                          ;XREF[9,0]:   0003ee02,0003ee08,0003ee0e,0003ee5c
                                                          ;             0003ee62,0003ee7c,0003ef00,0003ef06
                                                          ;             0003ef0c
ram:0003f102    0121            movs        r1,#0x1                                 
ram:0003f104    8140            lsls        r1,param_1                              
ram:0003f106    6248            ldr         param_1,[DAT_0003f290]                  ;= 50000500h
ram:0003f108    c160            str         r1,[param_1,#offset DAT_5000050c &0xff] 
ram:0003f10a    7047            bx          lr                                      
                            ;************************************************************************************************
                            ;*                                           FUNCTION                                           *
                            ;************************************************************************************************
                            ;ulonglong FUN_0003f10c(undefined4 param_1, uint param_2)
          ;param_1       undefined4          r0                      
          ;param_2       uint                r1                      
                                                          ;XREF[1,0]:   0003efc4
ram:0003f10c    70b5            push        {r4,r5,r6,lr}                           
ram:0003f10e    574c            ldr         r4,[DAT_0003f26c]                       ;= 20002CE0h
ram:0003f110    604d            ldr         r5,[DAT_0003f294]                       ;= 0000FFFFh
ram:0003f112    203c            subs        r4,#0x20                                
ram:0003f114    e088            ldrh        param_1,[r4,#0x6]=>DAT_20002cc6         
ram:0003f116    a842            cmp         param_1,r5                              
ram:0003f118    01d1            bne         LAB_0003f11e                            
ram:0003f11a    0820            movs        param_1,#0x8                            
                            LAB_0003f11c:                 ;XREF[3,0]:   0003f130,0003f13e,0003f156
ram:0003f11c    70bd            pop         {r4,r5,r6,pc}                           
                            LAB_0003f11e:                 ;XREF[1,0]:   0003f118
ram:0003f11e    e178            ldrb        param_2,[r4,#0x3]=>DAT_20002cc3         
ram:0003f120    0029            cmp         param_2,#0x0                            
ram:0003f122    1bd0            beq         LAB_0003f15c                            
ram:0003f124    5049            ldr         param_2,[DAT_0003f268]                  ;= 20003404h
ram:0003f126    0123            movs        r3,#0x1                                 
ram:0003f128    0822            movs        r2,#0x8                                 
ram:0003f12a    3431            adds        param_2,#0x34                           
ram:0003f12c    a9df            svc         0xa9                                    
ram:0003f12e    0028            cmp         param_1,#0x0                            
ram:0003f130    f4d1            bne         LAB_0003f11c                            
ram:0003f132    0223            movs        r3,#0x2                                 
ram:0003f134    0022            movs        r2,#0x0                                 
ram:0003f136    1146            mov         param_2,r2                              
ram:0003f138    e088            ldrh        param_1,[r4,#0x6]=>DAT_20002cc6         
ram:0003f13a    a9df            svc         0xa9                                    
ram:0003f13c    0028            cmp         param_1,#0x0                            
ram:0003f13e    edd1            bne         LAB_0003f11c                            
ram:0003f140    2a46            mov         r2,r5                                   
ram:0003f142    0c21            movs        param_2,#0xc                            
ram:0003f144    e088            ldrh        param_1,[r4,#0x6]=>DAT_20002cc6         
ram:0003f146    a7df            svc         0xa7                                    
ram:0003f148    5349            ldr         param_2,[DAT_0003f298]                  ;= 00003002h
ram:0003f14a    8842            cmp         param_1,param_2                         
ram:0003f14c    04d0            beq         LAB_0003f158                            
ram:0003f14e    0828            cmp         param_1,#0x8                            
ram:0003f150    02d0            beq         LAB_0003f158                            
ram:0003f152    891c            adds        param_2,param_2,#0x2                    
ram:0003f154    8842            cmp         param_1,param_2                         
ram:0003f156    e1d1            bne         LAB_0003f11c                            
                            LAB_0003f158:                 ;XREF[2,0]:   0003f14c,0003f150
ram:0003f158    0020            movs        param_1,#0x0                            
ram:0003f15a    70bd            pop         {r4,r5,r6,pc}                           
                            LAB_0003f15c:                 ;XREF[1,0]:   0003f122
ram:0003f15c    0023            movs        r3,#0x0                                 
ram:0003f15e    1a46            mov         r2,r3                                   
ram:0003f160    1946            mov         param_2,r3                              
ram:0003f162    a9df            svc         0xa9                                    
ram:0003f164    70bd            pop         {r4,r5,r6,pc}                           
                            ;************************************************************************************************
                            ;*                                           FUNCTION                                           *
                            ;************************************************************************************************
                            ;undefined FUN_0003f166(ushort * param_1, int param_2)
          ;param_1       ushort *            r0                      
          ;param_2       int                 r1                      
                                                          ;XREF[2,0]:   0003eb1e,0003eb4c
ram:0003f166    10b5            push        {r4,lr}                                 
ram:0003f168    0a46            mov         r2,param_2                              
ram:0003f16a    0446            mov         r4,param_1                              
ram:0003f16c    0321            movs        param_2,#0x3                            
ram:0003f16e    1046            mov         param_1,r2                              
ram:0003f170    fff75cfc        bl          FUN_0003ea2c                            ;undefined4 FUN_0003ea2c(int param_1,...
ram:0003f174    0246            mov         r2,param_1                              
ram:0003f176    0321            movs        param_2,#0x3                            
ram:0003f178    2046            mov         param_1,r4                              
ram:0003f17a    fdf7b1fe        bl          FUN_0003cee0                            ;undefined8 FUN_0003cee0(ushort * par...
ram:0003f17e    0028            cmp         param_1,#0x0                            
ram:0003f180    03d0            beq         LAB_0003f18a                            
ram:0003f182    0022            movs        r2,#0x0                                 
ram:0003f184    1146            mov         param_2,r2                              
ram:0003f186    fef729fa        bl          FUN_0003d5dc                            ;undefined FUN_0003d5dc(void)
                            LAB_0003f18a:                 ;XREF[1,0]:   0003f180
ram:0003f18a    10bd            pop         {r4,pc}                                 
                            ;************************************************************************************************
                            ;*                                           FUNCTION                                           *
                            ;************************************************************************************************
                            ;undefined FUN_0003f18c(ushort * param_1, int param_2)
          ;param_1       ushort *            r0                      
          ;param_2       int                 r1                      
          ;local_10      undefined4         -10                      ;XREF[1,0]:   0003f1b2
          ;local_14      undefined4         -14                      ;XREF[1,0]:   0003f1b4
          ;local_18      undefined4         -18                      ;XREF[1,0]:   0003f1ae
          ;local_1c      undefined4         -1c                      ;XREF[2,0]:   0003f19a,0003f1e6
          ;local_20      undefined4         -20                      ;XREF[2,0]:   0003f198,0003f1dc
          ;local_24      undefined4         -24                      ;XREF[2,0]:   0003f196,0003f1d4
          ;local_28      undefined4         -28                      ;XREF[2,0]:   0003f194,0003f1a4
ram:0003f18c    30b5            push        {r4,r5,lr}                              
ram:0003f18e    0546            mov         r5,param_1                              
ram:0003f190    87b0            sub         sp,#0x1c                                
ram:0003f192    0020            movs        param_1,#0x0                            
ram:0003f194    0090            str         param_1,[sp,#0x0]=>local_28             
ram:0003f196    0190            str         param_1,[sp,#local_24+0x28]             
ram:0003f198    0290            str         param_1,[sp,#local_20+0x28]             
ram:0003f19a    0390            str         param_1,[sp,#local_1c+0x28]             
ram:0003f19c    3348            ldr         param_1,[DAT_0003f26c]                  ;= 20002CE0h
ram:0003f19e    6a46            mov         r2,sp                                   
ram:0003f1a0    2038            subs        param_1,#0x20                           
ram:0003f1a2    4079            ldrb        param_1,[param_1,#0x5]=>DAT_20002cc5    
ram:0003f1a4    1070            strb        param_1,[r2,#0x0]=>local_28             
ram:0003f1a6    324a            ldr         r2,[PTR_DAT_0003f270]                   ;= 0003f5f8
ram:0003f1a8    0c3a            subs        r2,#0xc                                 
ram:0003f1aa    1068            ldr         param_1,[r2,#0x0]=>DAT_0003f5ec         ;= 00000003h
ram:0003f1ac    9268            ldr         r2,[r2,#0x8]=>DAT_0003f5f4              
ram:0003f1ae    0490            str         param_1,[sp,#local_18+0x28]             
ram:0003f1b0    6846            mov         param_1,sp                              
ram:0003f1b2    0692            str         r2,[sp,#local_10+0x28]                  
ram:0003f1b4    0590            str         param_1,[sp,#local_14+0x28]             
ram:0003f1b6    0879            ldrb        param_1,[param_2,#0x4]                  
ram:0003f1b8    0c28            cmp         param_1,#0xc                            
ram:0003f1ba    07d0            beq         LAB_0003f1cc                            
ram:0003f1bc    0322            movs        r2,#0x3                                 
ram:0003f1be    1ce0            b           LAB_0003f1fa                            
                            LAB_0003f1c0:                 ;XREF[1,0]:   0003f204
ram:0003f1c0    0022            movs        r2,#0x0                                 
ram:0003f1c2    1146            mov         param_2,r2                              
ram:0003f1c4    fef70afa        bl          FUN_0003d5dc                            ;undefined FUN_0003d5dc(void)
                            LAB_0003f1c8:                 ;XREF[2,0]:   0003f1f0,0003f206
ram:0003f1c8    07b0            add         sp,#0x1c                                
ram:0003f1ca    30bd            pop         {r4,r5,pc}                              
                            LAB_0003f1cc:                 ;XREF[1,0]:   0003f1ba
ram:0003f1cc    8c68            ldr         r4,[param_2,#0x8]                       
ram:0003f1ce    2046            mov         param_1,r4                              
ram:0003f1d0    00f09ff8        bl          FUN_0003f312                            ;uint FUN_0003f312(int param_1, undef...
ram:0003f1d4    0190            str         param_1,[sp,#local_24+0x28]             
ram:0003f1d6    201d            adds        param_1,r4,#0x4                         
ram:0003f1d8    00f09bf8        bl          FUN_0003f312                            ;uint FUN_0003f312(int param_1, undef...
ram:0003f1dc    0290            str         param_1,[sp,#local_20+0x28]             
ram:0003f1de    2046            mov         param_1,r4                              
ram:0003f1e0    0830            adds        param_1,#0x8                            
ram:0003f1e2    00f096f8        bl          FUN_0003f312                            ;uint FUN_0003f312(int param_1, undef...
ram:0003f1e6    0390            str         param_1,[sp,#local_1c+0x28]             
ram:0003f1e8    04a8            add         param_1,sp,#0x10                        
ram:0003f1ea    fff7d4f9        bl          FUN_0003e596                            ;int FUN_0003e596(int param_1)
ram:0003f1ee    0028            cmp         param_1,#0x0                            
ram:0003f1f0    ead0            beq         LAB_0003f1c8                            
ram:0003f1f2    0121            movs        param_2,#0x1                            
ram:0003f1f4    fff71afc        bl          FUN_0003ea2c                            ;undefined4 FUN_0003ea2c(int param_1,...
ram:0003f1f8    0246            mov         r2,param_1                              
                            LAB_0003f1fa:                 ;XREF[1,0]:   0003f1be
ram:0003f1fa    0121            movs        param_2,#0x1                            
ram:0003f1fc    2846            mov         param_1,r5                              
ram:0003f1fe    fdf76ffe        bl          FUN_0003cee0                            ;undefined8 FUN_0003cee0(ushort * par...
ram:0003f202    0028            cmp         param_1,#0x0                            
ram:0003f204    dcd1            bne         LAB_0003f1c0                            
ram:0003f206    dfe7            b           LAB_0003f1c8                            
ram:0003f208    feb5            push        {r1,r2,r3,r4,r5,r6,r7,lr}               
ram:0003f20a    0446            mov         r4,r0                                   
ram:0003f20c    0879            ldrb        r0,[r1,#0x4]                            
ram:0003f20e    8207            lsls        r2,r0,#0x1e                             
ram:0003f210    0ed0            beq         LAB_0003f230                            
ram:0003f212    8207            lsls        r2,r0,#0x1e                             
ram:0003f214    920f            lsrs        r2,r2,#0x1e                             
ram:0003f216    0423            movs        r3,#0x4                                 
ram:0003f218    9b1a            subs        r3,r3,r2                                
ram:0003f21a    0022            movs        r2,#0x0                                 
ram:0003f21c    1546            mov         r5,r2                                   
ram:0003f21e    04e0            b           LAB_0003f22a                            
                            ;************************************************************************************************
                            ;*                                           FUNCTION                                           *
                            ;************************************************************************************************
                            ;undefined FUN_0003f220(uint param_1, int param_2, uint param_3, uint param_4, undefined4 param_5, undefined4 param_6, undefined4 param_7)
          ;param_1       uint                r0                      
          ;param_2       int                 r1                      
          ;param_3       uint                r2                      
          ;param_4       uint                r3                      
          ;param_5       undefined4           0                      ;XREF[1,0]:   0003f232
          ;param_6       undefined4           4                      ;XREF[1,0]:   0003f23c
          ;param_7       undefined4           8                      ;XREF[1,0]:   0003f236
                                                          ;XREF[1,0]:   0003f22c
ram:0003f220    8e68            ldr         r6,[param_2,#0x8]                       
ram:0003f222    3554            strb        r5,[r6,param_1]                         
ram:0003f224    401c            adds        param_1,param_1,#0x1                    
ram:0003f226    c0b2            uxtb        param_1,param_1                         
ram:0003f228    521c            adds        param_3,param_3,#0x1                    
                            LAB_0003f22a:                 ;XREF[1,0]:   0003f21e
ram:0003f22a    9a42            cmp         param_3,param_4                         
ram:0003f22c    f8d3            bcc         FUN_0003f220                            
ram:0003f22e    0871            strb        param_1,[param_2,#0x4]                  
                            LAB_0003f230:                 ;XREF[1,0]:   0003f210
ram:0003f230    0120            movs        param_1,#0x1                            
ram:0003f232    0090            str         param_1,[sp,#0x0]=>param_5              
ram:0003f234    8868            ldr         param_1,[param_2,#0x8]                  
ram:0003f236    0290            str         param_1,[sp,#param_7]                   
ram:0003f238    0879            ldrb        param_1,[param_2,#0x4]                  
ram:0003f23a    8008            lsrs        param_1,param_1,#0x2                    
ram:0003f23c    0190            str         param_1,[sp,#param_6]                   
ram:0003f23e    6846            mov         param_1,sp                              
ram:0003f240    fff744fa        bl          FUN_0003e6cc                            ;int FUN_0003e6cc(int param_1, undefi...
ram:0003f244    0028            cmp         param_1,#0x0                            
ram:0003f246    0dd0            beq         LAB_0003f264                            
ram:0003f248    0221            movs        param_2,#0x2                            
ram:0003f24a    fff7effb        bl          FUN_0003ea2c                            ;undefined4 FUN_0003ea2c(int param_1,...
ram:0003f24e    0246            mov         param_3,param_1                         
ram:0003f250    0221            movs        param_2,#0x2                            
ram:0003f252    2046            mov         param_1,r4                              
ram:0003f254    fdf744fe        bl          FUN_0003cee0                            ;undefined8 FUN_0003cee0(ushort * par...
ram:0003f258    0028            cmp         param_1,#0x0                            
ram:0003f25a    03d0            beq         LAB_0003f264                            
ram:0003f25c    0022            movs        param_3,#0x0                            
ram:0003f25e    1146            mov         param_2,param_3                         
ram:0003f260    fef7bcf9        bl          FUN_0003d5dc                            ;undefined FUN_0003d5dc(void)
                            LAB_0003f264:                 ;XREF[2,0]:   0003f246,0003f25a
ram:0003f264    febd            pop         {param_2,param_3,param_4,r4,r5,r6,r7,pc}
ram:0003f266    0000            movs        r0,r0                                   
                            DAT_0003f268:                 ;XREF[6,0]:   0003ee8a,0003ef3c,0003efd2,0003f03c
                                                          ;             0003f084,0003f124
ram:0003f268    04340020        undefined4  20003404h                               
                            DAT_0003f26c:                 ;XREF[5,0]:   0003ef62,0003eff8,0003f0d0,0003f10e
                                                          ;             0003f19c
ram:0003f26c    e02c0020        undefined4  20002CE0h                               
                            PTR_DAT_0003f270:             ;XREF[2,0]:   0003ef6e,0003f1a6
ram:0003f270    f8f50300        addr        DAT_0003f5f8                            ;= 05h
                            DAT_0003f274:                 ;XREF[1,0]:   0003f002
ram:0003f274    54070050        undefined4  50000754h                               
                            PTR_FUN_0003efca+1_0003f278:  ;XREF[1,0]:   0003f024
ram:0003f278    cbef0300        addr        FUN_0003efca+1                          
                            DAT_0003f27c:                 ;XREF[1,0]:   0003f02e
ram:0003f27c    63ea0300        undefined4  0003EA63h                               ;?  ->  0003ea63
                            DAT_0003f280:                 ;XREF[1,0]:   0003f07c
ram:0003f280    01ec0300        undefined4  0003EC01h                               ;?  ->  0003ec01
                            PTR_FUN_0003efea+1_0003f284:  ;XREF[1,0]:   0003f080
ram:0003f284    ebef0300        addr        FUN_0003efea+1                          
                            DAT_0003f288:                 ;XREF[1,0]:   0003f0a4
ram:0003f288    cd0c0000        undefined4  00000CCDh                               
                            PTR_LAB_0003eb94+1+1_0003f28c:;XREF[1,0]:   0003f0b8
ram:0003f28c    95eb0300        addr        LAB_0003eb94+1+1                        
                            DAT_0003f290:                 ;XREF[2,0]:   0003f0fc,0003f106
ram:0003f290    00050050        undefined4  50000500h                               
                            DAT_0003f294:                 ;XREF[1,0]:   0003f110
ram:0003f294    ffff0000        undefined4  0000FFFFh                               
                            DAT_0003f298:                 ;XREF[1,0]:   0003f148
ram:0003f298    02300000        undefined4  00003002h                               
                            ;************************************************************************************************
                            ;*                                           FUNCTION                                           *
                            ;************************************************************************************************
                            ;undefined FUN_0003f29c(void)
          ;local_10      undefined1         -10                      ;XREF[1,0]:   0003f2a4
          ;local_12      undefined1         -12                      ;XREF[1,0]:   0003f2d2
          ;local_13      undefined1         -13                      ;XREF[1,0]:   0003f2d6
          ;local_18      undefined1         -18                      ;XREF[1,0]:   0003f2ce
          ;local_1c      undefined4         -1c                      ;XREF[2,1]:   0003f2f0,0003f2fa,0003f2fe
          ;local_20      undefined4         -20                      ;XREF[2,1]:   0003f2ea,0003f2f2,0003f2f6
                                                          ;XREF[1,0]:   0003f070
ram:0003f29c    10b5            push        {r4,lr}                                 
ram:0003f29e    86b0            sub         sp,#0x18                                
ram:0003f2a0    1120            movs        r0,#0x11                                
ram:0003f2a2    6946            mov         r1,sp                                   
ram:0003f2a4    0874            strb        r0,[r1,#local_10+0x20]                  
ram:0003f2a6    0c22            movs        r2,#0xc                                 
ram:0003f2a8    1fa1            adr         r1,[s_DigiLoom_DFU_0003f328]            ;= "DigiLoom DFU"
ram:0003f2aa    04a8            add         r0,sp,#0x10                             
ram:0003f2ac    7cdf            svc         0x7c                                    
ram:0003f2ae    0028            cmp         r0,#0x0                                 
ram:0003f2b0    03d0            beq         LAB_0003f2ba                            
ram:0003f2b2    0022            movs        r2,#0x0                                 
ram:0003f2b4    1146            mov         r1,r2                                   
ram:0003f2b6    fef791f9        bl          FUN_0003d5dc                            ;undefined FUN_0003d5dc(void)
                            LAB_0003f2ba:                 ;XREF[1,0]:   0003f2b0
ram:0003f2ba    02a8            add         r0,sp,#0x8                              
ram:0003f2bc    71df            svc         0x71                                    
ram:0003f2be    0028            cmp         r0,#0x0                                 
ram:0003f2c0    03d0            beq         LAB_0003f2ca                            
ram:0003f2c2    0022            movs        r2,#0x0                                 
ram:0003f2c4    1146            mov         r1,r2                                   
ram:0003f2c6    fef789f9        bl          FUN_0003d5dc                            ;undefined FUN_0003d5dc(void)
                            LAB_0003f2ca:                 ;XREF[1,0]:   0003f2c0
ram:0003f2ca    0024            movs        r4,#0x0                                 
ram:0003f2cc    6846            mov         r0,sp                                   
ram:0003f2ce    0472            strb        r4,[r0,#local_18+0x20]                  
ram:0003f2d0    1c21            movs        r1,#0x1c                                
ram:0003f2d2    8173            strb        r1,[r0,#local_12+0x20]                  
ram:0003f2d4    3d21            movs        r1,#0x3d                                
ram:0003f2d6    4173            strb        r1,[r0,#local_13+0x20]                  
ram:0003f2d8    02a9            add         r1,sp,#0x8                              
ram:0003f2da    2046            mov         r0,r4                                   
ram:0003f2dc    70df            svc         0x70                                    
ram:0003f2de    0028            cmp         r0,#0x0                                 
ram:0003f2e0    03d0            beq         LAB_0003f2ea                            
ram:0003f2e2    0022            movs        r2,#0x0                                 
ram:0003f2e4    1146            mov         r1,r2                                   
ram:0003f2e6    fef779f9        bl          FUN_0003d5dc                            ;undefined FUN_0003d5dc(void)
                            LAB_0003f2ea:                 ;XREF[1,0]:   0003f2e0
ram:0003f2ea    0094            str         r4,[sp,#0x0]=>local_20                  
ram:0003f2ec    0c21            movs        r1,#0xc                                 
ram:0003f2ee    6846            mov         r0,sp                                   
ram:0003f2f0    0194            str         r4,[sp,#local_1c+0x20]                  
ram:0003f2f2    0180            strh        r1,[r0,#0x0]=>local_20                  
ram:0003f2f4    1821            movs        r1,#0x18                                
ram:0003f2f6    4180            strh        r1,[r0,#local_20+0x22]                  
ram:0003f2f8    ff21            movs        r1,#0xff                                
ram:0003f2fa    8480            strh        r4,[r0,#local_1c+0x20]                  
ram:0003f2fc    9131            adds        r1,#0x91                                
ram:0003f2fe    c180            strh        r1,[r0,#local_1c+0x22]                  
ram:0003f300    7adf            svc         0x7a                                    
ram:0003f302    0028            cmp         r0,#0x0                                 
ram:0003f304    03d0            beq         LAB_0003f30e                            
ram:0003f306    0022            movs        r2,#0x0                                 
ram:0003f308    1146            mov         r1,r2                                   
ram:0003f30a    fef767f9        bl          FUN_0003d5dc                            ;undefined FUN_0003d5dc(void)
                            LAB_0003f30e:                 ;XREF[1,0]:   0003f304
ram:0003f30e    06b0            add         sp,#0x18                                
ram:0003f310    10bd            pop         {r4,pc}                                 
                            ;************************************************************************************************
                            ;*                                           FUNCTION                                           *
                            ;************************************************************************************************
                            ;uint FUN_0003f312(int param_1, undefined4 param_2, uint param_3)
          ;param_1       int                 r0                      
          ;param_2       undefined4          r1                      
          ;param_3       uint                r2                      
                                                          ;XREF[3,0]:   0003f1d0,0003f1d8,0003f1e2
ram:0003f312    10b5            push        {r4,lr}                                 
ram:0003f314    0446            mov         r4,param_1                              
ram:0003f316    00f0fcf8        bl          FUN_0003f512                            ;uint FUN_0003f512(int param_1, undef...
ram:0003f31a    0002            lsls        param_1,param_1,#0x8                    
ram:0003f31c    e178            ldrb        param_2,[r4,#0x3]                       
ram:0003f31e    000a            lsrs        param_1,param_1,#0x8                    
ram:0003f320    0906            lsls        param_2,param_2,#0x18                   
ram:0003f322    0843            orrs        param_1,param_2                         
ram:0003f324    10bd            pop         {r4,pc}                                 
ram:0003f326    0000            movs        r0,r0                                   
                            s_DigiLoom_DFU_0003f328:      ;XREF[1,0]:   0003f2a8
ram:0003f328    446967694...    ds          "DigiLoom DFU"                          
ram:0003f335    00              ??          00h                                     
ram:0003f336    00              ??          00h                                     
ram:0003f337    00              ??          00h                                     
                            ;************************************************************************************************
                            ;*                                           FUNCTION                                           *
                            ;************************************************************************************************
                            ;undefined LAB_0003f338+1(void)
                                                          ;XREF[0,1]:   0003f42c
ram:0003f338    10b5            push        {r4,lr}                                 
ram:0003f33a    0846            mov         r0,r1                                   
ram:0003f33c    1146            mov         r1,r2                                   
ram:0003f33e    fcf75fff        bl          FUN_0003c200                            ;undefined FUN_0003c200(void)
ram:0003f342    10bd            pop         {r4,pc}                                 
                            ;************************************************************************************************
                            ;*                                           FUNCTION                                           *
                            ;************************************************************************************************
                            ;undefined FUN_0003f344(void)
          ;local_18      undefined4         -18                      ;XREF[2,0]:   0003f388,0003f394
                                                          ;XREF[2,0]:   0003f422,0003f440
ram:0003f344    f8b5            push        {r3,r4,r5,r6,r7,lr}                     
ram:0003f346    384c            ldr         r4,[DAT_0003f428]                       ;= 20002CE8h
ram:0003f348    2078            ldrb        r0,[r4,#0x0]=>DAT_20002ce8              
ram:0003f34a    0028            cmp         r0,#0x0                                 
ram:0003f34c    37d0            beq         LAB_0003f3be                            
ram:0003f34e    2069            ldr         r0,[r4,#0x10]=>DAT_20002cf8             
ram:0003f350    0028            cmp         r0,#0x0                                 
ram:0003f352    07d0            beq         LAB_0003f364                            
ram:0003f354    0026            movs        r6,#0x0                                 
                            LAB_0003f356:                 ;XREF[1,0]:   0003f366
ram:0003f356    e068            ldr         r0,[r4,#0xc]=>DAT_20002cf4              
ram:0003f358    0028            cmp         r0,#0x0                                 
ram:0003f35a    05d0            beq         LAB_0003f368                            
ram:0003f35c    0025            movs        r5,#0x0                                 
                            LAB_0003f35e:                 ;XREF[2,0]:   0003f36a,0003f3bc
ram:0003f35e    002e            cmp         r6,#0x0                                 
ram:0003f360    04d0            beq         LAB_0003f36c                            
ram:0003f362    13e0            b           LAB_0003f38c                            
                            LAB_0003f364:                 ;XREF[1,0]:   0003f352
ram:0003f364    0126            movs        r6,#0x1                                 
ram:0003f366    f6e7            b           LAB_0003f356                            
                            LAB_0003f368:                 ;XREF[1,0]:   0003f35a
ram:0003f368    0125            movs        r5,#0x1                                 
ram:0003f36a    f8e7            b           LAB_0003f35e                            
                            LAB_0003f36c:                 ;XREF[2,0]:   0003f360,0003f3b8
ram:0003f36c    6846            mov         r0,sp                                   
ram:0003f36e    51df            svc         0x51                                    
ram:0003f370    0528            cmp         r0,#0x5                                 
ram:0003f372    06d0            beq         LAB_0003f382                            
ram:0003f374    0028            cmp         r0,#0x0                                 
ram:0003f376    06d0            beq         LAB_0003f386                            
ram:0003f378    0022            movs        r2,#0x0                                 
ram:0003f37a    1146            mov         r1,r2                                   
ram:0003f37c    fef72ef9        bl          FUN_0003d5dc                            ;undefined FUN_0003d5dc(void)
ram:0003f380    04e0            b           LAB_0003f38c                            
                            LAB_0003f382:                 ;XREF[1,0]:   0003f372
ram:0003f382    0126            movs        r6,#0x1                                 
ram:0003f384    02e0            b           LAB_0003f38c                            
                            LAB_0003f386:                 ;XREF[1,0]:   0003f376
ram:0003f386    2169            ldr         r1,[r4,#0x10]=>DAT_20002cf8             
ram:0003f388    0098            ldr         r0=>local_18,[sp,#0x0]                  
ram:0003f38a    8847            blx         r1                                      
                            LAB_0003f38c:                 ;XREF[3,0]:   0003f362,0003f380,0003f384
ram:0003f38c    002d            cmp         r5,#0x0                                 
ram:0003f38e    12d1            bne         LAB_0003f3b6                            
ram:0003f390    6088            ldrh        r0,[r4,#0x2]=>DAT_20002cea              
ram:0003f392    6946            mov         r1,sp                                   
ram:0003f394    0880            strh        r0,[r1,#0x0]=>local_18                  
ram:0003f396    a068            ldr         r0,[r4,#0x8]=>DAT_20002cf0              
ram:0003f398    61df            svc         0x61                                    
ram:0003f39a    0528            cmp         r0,#0x5                                 
ram:0003f39c    06d0            beq         LAB_0003f3ac                            
ram:0003f39e    0028            cmp         r0,#0x0                                 
ram:0003f3a0    06d0            beq         LAB_0003f3b0                            
ram:0003f3a2    0022            movs        r2,#0x0                                 
ram:0003f3a4    1146            mov         r1,r2                                   
ram:0003f3a6    fef719f9        bl          FUN_0003d5dc                            ;undefined FUN_0003d5dc(void)
ram:0003f3aa    04e0            b           LAB_0003f3b6                            
                            LAB_0003f3ac:                 ;XREF[1,0]:   0003f39c
ram:0003f3ac    0125            movs        r5,#0x1                                 
ram:0003f3ae    02e0            b           LAB_0003f3b6                            
                            LAB_0003f3b0:                 ;XREF[1,0]:   0003f3a0
ram:0003f3b0    e168            ldr         r1,[r4,#0xc]=>DAT_20002cf4              
ram:0003f3b2    a068            ldr         r0,[r4,#0x8]=>DAT_20002cf0              
ram:0003f3b4    8847            blx         r1                                      
                            LAB_0003f3b6:                 ;XREF[3,0]:   0003f38e,0003f3aa,0003f3ae
ram:0003f3b6    002e            cmp         r6,#0x0                                 
ram:0003f3b8    d8d0            beq         LAB_0003f36c                            
ram:0003f3ba    002d            cmp         r5,#0x0                                 
ram:0003f3bc    cfd0            beq         LAB_0003f35e                            
                            LAB_0003f3be:                 ;XREF[1,0]:   0003f34c
ram:0003f3be    f8bd            pop         {r3,r4,r5,r6,r7,pc}                     
                            ;************************************************************************************************
                            ;*                                           FUNCTION                                           *
                            ;************************************************************************************************
                            ;undefined8 FUN_0003f3c0(int param_1, undefined * param_2, undefined2 param_3, undefined4 param_4)
          ;param_1       int                 r0                      
          ;param_2       undefined *         r1                      
          ;param_3       undefined2          r2                      
          ;param_4       undefined4          r3                      
                                                          ;XREF[1,0]:   0003c24e
ram:0003f3c0    70b5            push        {r4,r5,r6,lr}                           
ram:0003f3c2    0029            cmp         param_2,#0x0                            
ram:0003f3c4    01d0            beq         LAB_0003f3ca                            
ram:0003f3c6    8c07            lsls        r4,param_2,#0x1e                        
ram:0003f3c8    01d0            beq         LAB_0003f3ce                            
                            LAB_0003f3ca:                 ;XREF[1,0]:   0003f3c4
ram:0003f3ca    0720            movs        param_1,#0x7                            
                            LAB_0003f3cc:                 ;XREF[1,0]:   0003f3de
ram:0003f3cc    70bd            pop         {r4,r5,r6,pc}                           
                            LAB_0003f3ce:                 ;XREF[1,0]:   0003f3c8
ram:0003f3ce    164c            ldr         r4,[DAT_0003f428]                       ;= 20002CE8h
ram:0003f3d0    0125            movs        r5,#0x1                                 
ram:0003f3d2    a160            str         param_2,[r4,#0x8]=>DAT_20002cf0         
ram:0003f3d4    6280            strh        param_3,[r4,#0x2]=>DAT_20002cea         
ram:0003f3d6    1549            ldr         param_2,[PTR_LAB_0003f338+1+1_0003f42c] ;= 0003f339
ram:0003f3d8    6360            str         param_4,[r4,#0x4]=>DAT_20002cec         
ram:0003f3da    10df            svc         0x10                                    
ram:0003f3dc    0028            cmp         param_1,#0x0                            
ram:0003f3de    f5d1            bne         LAB_0003f3cc                            
ram:0003f3e0    2570            strb        r5,[r4,#0x0]=>DAT_20002ce8              
ram:0003f3e2    1620            movs        param_1,#0x16                           
ram:0003f3e4    2edf            svc         0x2e                                    
ram:0003f3e6    70bd            pop         {r4,r5,r6,pc}                           
                            ;************************************************************************************************
                            ;*                                           FUNCTION                                           *
                            ;************************************************************************************************
                            ;undefined4 FUN_0003f3e8(int param_1)
          ;param_1       int                 r0                      
                                                          ;XREF[1,0]:   0003f026
ram:0003f3e8    0028            cmp         param_1,#0x0                            
ram:0003f3ea    03d0            beq         LAB_0003f3f4                            
ram:0003f3ec    0e49            ldr         r1,[DAT_0003f428]                       ;= 20002CE8h
ram:0003f3ee    c860            str         param_1,[r1,#0xc]=>DAT_20002cf4         
ram:0003f3f0    0020            movs        param_1,#0x0                            
ram:0003f3f2    7047            bx          lr                                      
                            LAB_0003f3f4:                 ;XREF[1,0]:   0003f3ea
ram:0003f3f4    0e20            movs        param_1,#0xe                            
ram:0003f3f6    7047            bx          lr                                      
                            ;************************************************************************************************
                            ;*                                           FUNCTION                                           *
                            ;************************************************************************************************
                            ;undefined4 FUN_0003f3f8(int param_1)
          ;param_1       int                 r0                      
                                                          ;XREF[1,0]:   0003c27c
ram:0003f3f8    0028            cmp         param_1,#0x0                            
ram:0003f3fa    03d0            beq         LAB_0003f404                            
ram:0003f3fc    0a49            ldr         r1,[DAT_0003f428]                       ;= 20002CE8h
ram:0003f3fe    0861            str         param_1,[r1,#0x10]=>DAT_20002cf8        
ram:0003f400    0020            movs        param_1,#0x0                            
ram:0003f402    7047            bx          lr                                      
                            LAB_0003f404:                 ;XREF[1,0]:   0003f3fa
ram:0003f404    0e20            movs        param_1,#0xe                            
ram:0003f406    7047            bx          lr                                      
                            ;************************************************************************************************
                            ;*                                           FUNCTION                                           *
                            ;************************************************************************************************
                            ;undefined FUNC_VT_0003f408(void)
                                                          ;XREF[0,1]:   0003c098
ram:0003f408    10b5            push        {r4,lr}                                 
ram:0003f40a    0748            ldr         r0,[DAT_0003f428]                       ;= 20002CE8h
ram:0003f40c    4068            ldr         r0,[r0,#0x4]=>DAT_20002cec              
ram:0003f40e    0028            cmp         r0,#0x0                                 
ram:0003f410    07d0            beq         LAB_0003f422                            
ram:0003f412    8047            blx         r0                                      
ram:0003f414    0028            cmp         r0,#0x0                                 
ram:0003f416    03d0            beq         LAB_0003f420                            
ram:0003f418    0022            movs        r2,#0x0                                 
ram:0003f41a    1146            mov         r1,r2                                   
ram:0003f41c    fef7def8        bl          FUN_0003d5dc                            ;undefined FUN_0003d5dc(void)
                            LAB_0003f420:                 ;XREF[1,0]:   0003f416
ram:0003f420    10bd            pop         {r4,pc}                                 
                            LAB_0003f422:                 ;XREF[1,0]:   0003f410
ram:0003f422    fff78fff        bl          FUN_0003f344                            ;undefined FUN_0003f344(void)
ram:0003f426    10bd            pop         {r4,pc}                                 
                            DAT_0003f428:                 ;XREF[5,0]:   0003f346,0003f3ce,0003f3ec,0003f3fc
                                                          ;             0003f40a
ram:0003f428    e82c0020        undefined4  20002CE8h                               
                            PTR_LAB_0003f338+1+1_0003f42c:;XREF[1,0]:   0003f3d6
ram:0003f42c    39f30300        addr        LAB_0003f338+1+1                        
                            ;************************************************************************************************
                            ;*                                           FUNCTION                                           *
                            ;************************************************************************************************
                            ;undefined LAB_0003f430+1(undefined4 param_1, int param_2)
          ;param_1       undefined4          r0                      
          ;param_2       int                 r1                      
                                                          ;XREF[0,2]:   0003f44a,0003f454
ram:0003f430    10b5            push        {r4,lr}                                 
ram:0003f432    0029            cmp         param_2,#0x0                            
ram:0003f434    04d0            beq         LAB_0003f440                            
ram:0003f436    0022            movs        r2,#0x0                                 
ram:0003f438    1146            mov         param_2,r2                              
ram:0003f43a    1046            mov         param_1,r2                              
ram:0003f43c    fef7cef8        bl          FUN_0003d5dc                            ;undefined FUN_0003d5dc(void)
                            LAB_0003f440:                 ;XREF[1,0]:   0003f434
ram:0003f440    fff780ff        bl          FUN_0003f344                            ;undefined FUN_0003f344(void)
ram:0003f444    10bd            pop         {r4,pc}                                 
                            ;************************************************************************************************
                            ;*                                           FUNCTION                                           *
                            ;************************************************************************************************
                            ;undefined LAB_0003f446+1(void)
                                                          ;XREF[0,1]:   0003c438
ram:0003f446    10b5            push        {r4,lr}                                 
ram:0003f448    0021            movs        r1,#0x0                                 
ram:0003f44a    024a            ldr         r2=>LAB_0003f430...,[PTR_LAB_0003f430...;= 0003f431
ram:0003f44c    0846            mov         r0,r1                                   
ram:0003f44e    fef7e5f8        bl          FUN_0003d61c                            ;undefined4 FUN_0003d61c(undefined4 *...
ram:0003f452    10bd            pop         {r4,pc}                                 
                            PTR_LAB_0003f430+1+1_0003f454:;XREF[1,0]:   0003f44a
ram:0003f454    31f40300        addr        LAB_0003f430+1+1                        
                            ;************************************************************************************************
                            ;*                                           FUNCTION                                           *
                            ;************************************************************************************************
                            ;int FUN_0003f458(uint param_1, uint param_2)
          ;param_1       uint                r0                      
          ;param_2       uint                r1                      
                                                          ;XREF[1,0]:   0003d3fa
ram:0003f458    30b5            push        {r4,r5,lr}                              
ram:0003f45a    0b46            mov         r3,param_2                              
ram:0003f45c    0146            mov         param_2,param_1                         
ram:0003f45e    0020            movs        param_1,#0x0                            
ram:0003f460    2022            movs        r2,#0x20                                
ram:0003f462    0124            movs        r4,#0x1                                 
ram:0003f464    09e0            b           LAB_0003f47a                            
                            LAB_0003f466:                 ;XREF[1,0]:   0003f480
ram:0003f466    0d46            mov         r5,param_2                              
ram:0003f468    d540            lsrs        r5,r2                                   
ram:0003f46a    9d42            cmp         r5,r3                                   
ram:0003f46c    05d3            bcc         LAB_0003f47a                            
ram:0003f46e    1d46            mov         r5,r3                                   
ram:0003f470    9540            lsls        r5,r2                                   
ram:0003f472    491b            subs        param_2,param_2,r5                      
ram:0003f474    2546            mov         r5,r4                                   
ram:0003f476    9540            lsls        r5,r2                                   
ram:0003f478    4019            adds        param_1,param_1,r5                      
                            LAB_0003f47a:                 ;XREF[2,0]:   0003f464,0003f46c
ram:0003f47a    1546            mov         r5,r2                                   
ram:0003f47c    521e            subs        r2,r2,#0x1                              
ram:0003f47e    002d            cmp         r5,#0x0                                 
ram:0003f480    f1dc            bgt         LAB_0003f466                            
ram:0003f482    30bd            pop         {r4,r5,pc}                              
                            ;************************************************************************************************
                            ;*                                           FUNCTION                                           *
                            ;************************************************************************************************
                            ;undefined FUN_0003f484(undefined4 * param_1, undefined4 * param_2, uint param_3)
          ;param_1       undefined4 *        r0                      
          ;param_2       undefined4 *        r1                      
          ;param_3       uint                r2                      
                                                          ;XREF[23,0]:  0003c1aa,0003c1ec,0003c48a,0003c638
                                                          ;             0003c668,0003c69c,0003c6d0,0003cc9e
                                                          ;             0003cd0c,0003cd90,0003cda4,0003ce80
                                                          ;             0003ceb0,0003d6e8,0003e14e,0003e42c
                                                          ;             0003e712,0003e9ac,0003eb00,0003ef40
                                                          ;             0003ef4a,0003ef54,0003ef72
ram:0003f484    0346            mov         r3,param_1                              
ram:0003f486    0b43            orrs        r3,param_2                              
ram:0003f488    9b07            lsls        r3,r3,#0x1e                             
ram:0003f48a    03d0            beq         LAB_0003f494                            
ram:0003f48c    09e0            b           LAB_0003f4a2                            
                            LAB_0003f48e:                 ;XREF[1,0]:   0003f496
ram:0003f48e    08c9            ldmia       param_2!,{r3}                           
ram:0003f490    121f            subs        param_3,param_3,#0x4                    
ram:0003f492    08c0            stmia       param_1!,{r3}                           
                            LAB_0003f494:                 ;XREF[1,0]:   0003f48a
ram:0003f494    042a            cmp         param_3,#0x4                            
ram:0003f496    fad2            bcs         LAB_0003f48e                            
ram:0003f498    03e0            b           LAB_0003f4a2                            
                            LAB_0003f49a:                 ;XREF[1,0]:   0003f4a4
ram:0003f49a    0b78            ldrb        r3,[param_2,#0x0]                       
ram:0003f49c    491c            adds        param_2,param_2,#0x1                    
ram:0003f49e    0370            strb        r3,[param_1,#0x0]                       
ram:0003f4a0    401c            adds        param_1,param_1,#0x1                    
                            LAB_0003f4a2:                 ;XREF[2,0]:   0003f48c,0003f498
ram:0003f4a2    521e            subs        param_3,param_3,#0x1                    
ram:0003f4a4    f9d2            bcs         LAB_0003f49a                            
ram:0003f4a6    7047            bx          lr                                      
                            ;************************************************************************************************
                            ;*                                           FUNCTION                                           *
                            ;************************************************************************************************
                            ;undefined FUN_0003f4a8(undefined * param_1, int param_2, undefined param_3)
          ;param_1       undefined *         r0                      
          ;param_2       int                 r1                      
          ;param_3       undefined           r2                      
                                                          ;XREF[2,0]:   0003f4b8,0003f4c4
ram:0003f4a8    d2b2            uxtb        param_3,param_3                         
ram:0003f4aa    01e0            b           LAB_0003f4b0                            
                            LAB_0003f4ac:                 ;XREF[1,0]:   0003f4b2
ram:0003f4ac    0270            strb        param_3,[param_1,#0x0]                  
ram:0003f4ae    401c            adds        param_1,param_1,#0x1                    
                            LAB_0003f4b0:                 ;XREF[1,0]:   0003f4aa
ram:0003f4b0    491e            subs        param_2,param_2,#0x1                    
ram:0003f4b2    fbd2            bcs         LAB_0003f4ac                            
ram:0003f4b4    7047            bx          lr                                      
                            ;************************************************************************************************
                            ;*                                           FUNCTION                                           *
                            ;************************************************************************************************
                            ;undefined FUN_0003f4b6(undefined * param_1, int param_2)
          ;param_1       undefined *         r0                      
          ;param_2       int                 r1                      
                                                          ;XREF[13,0]:  0003c71c,0003c7c4,0003d208,0003d256
                                                          ;             0003d288,0003d2de,0003d320,0003d374
                                                          ;             0003e4b4,0003ed4a,0003ed60,0003ed94
                                                          ;             0003f0a0
ram:0003f4b6    0022            movs        r2,#0x0                                 
ram:0003f4b8    f6e7            b           FUN_0003f4a8                            ;undefined FUN_0003f4a8(undefined * p...
                            ;************************************************************************************************
                            ;*                                           FUNCTION                                           *
                            ;************************************************************************************************
                            ;undefined * FUN_0003f4ba(undefined * param_1, undefined param_2, int param_3)
          ;param_1       undefined *         r0                      
          ;param_2       undefined           r1                      
          ;param_3       int                 r2                      
ram:0003f4ba    10b5            push        {r4,lr}                                 
ram:0003f4bc    1346            mov         r3,param_3                              
ram:0003f4be    0a46            mov         param_3,param_2                         
ram:0003f4c0    0446            mov         r4,param_1                              
ram:0003f4c2    1946            mov         param_2,r3                              
ram:0003f4c4    fff7f0ff        bl          FUN_0003f4a8                            ;undefined FUN_0003f4a8(undefined * p...
ram:0003f4c8    2046            mov         param_1,r4                              
ram:0003f4ca    10bd            pop         {r4,pc}                                 
                            ;************************************************************************************************
                            ;*                                           FUNCTION                                           *
                            ;************************************************************************************************
                            ;int FUN_0003f4cc(char * param_1)
          ;param_1       char *              r0                      
                                                          ;XREF[2,0]:   0003c774,0003c77e
ram:0003f4cc    421c            adds        r2,param_1,#0x1                         
                            LAB_0003f4ce:                 ;XREF[1,0]:   0003f4d4
ram:0003f4ce    0178            ldrb        r1,[param_1,#0x0]                       
ram:0003f4d0    401c            adds        param_1,param_1,#0x1                    
ram:0003f4d2    0029            cmp         r1,#0x0                                 
ram:0003f4d4    fbd1            bne         LAB_0003f4ce                            
ram:0003f4d6    801a            subs        param_1,param_1,r2                      
ram:0003f4d8    7047            bx          lr                                      
                            ;************************************************************************************************
                            ;*                                           FUNCTION                                           *
                            ;************************************************************************************************
                            ;undefined FUN_0003f4da(int param_1, int param_2, uint param_3)
          ;param_1       int                 r0                      
          ;param_2       int                 r1                      
          ;param_3       uint                r2                      
                                                          ;XREF[1,0]:   0003edba
ram:0003f4da    30b5            push        {r4,r5,lr}                              
ram:0003f4dc    0446            mov         r4,param_1                              
ram:0003f4de    0020            movs        param_1,#0x0                            
ram:0003f4e0    0346            mov         r3,param_1                              
ram:0003f4e2    00e0            b           LAB_0003f4e6                            
                            LAB_0003f4e4:                 ;XREF[1,0]:   0003f4f0
ram:0003f4e4    5b1c            adds        r3,r3,#0x1                              
                            LAB_0003f4e6:                 ;XREF[1,0]:   0003f4e2
ram:0003f4e6    9342            cmp         r3,param_3                              
ram:0003f4e8    03d2            bcs         LAB_0003f4f2                            
ram:0003f4ea    e05c            ldrb        param_1,[r4,r3]                         
ram:0003f4ec    cd5c            ldrb        r5,[param_2,r3]                         
ram:0003f4ee    401b            subs        param_1,param_1,r5                      
ram:0003f4f0    f8d0            beq         LAB_0003f4e4                            
                            LAB_0003f4f2:                 ;XREF[1,0]:   0003f4e8
ram:0003f4f2    30bd            pop         {r4,r5,pc}                              
                            ;************************************************************************************************
                            ;*                                           FUNCTION                                           *
                            ;************************************************************************************************
                            ;undefined FUN_0003f4f4(int param_1, int param_2, uint param_3)
          ;param_1       int                 r0                      
          ;param_2       int                 r1                      
          ;param_3       uint                r2                      
                                                          ;XREF[1,0]:   0003c5be
ram:0003f4f4    30b5            push        {r4,r5,lr}                              
ram:0003f4f6    0546            mov         r5,param_1                              
ram:0003f4f8    0020            movs        param_1,#0x0                            
ram:0003f4fa    0346            mov         r3,param_1                              
ram:0003f4fc    00e0            b           LAB_0003f500                            
                            LAB_0003f4fe:                 ;XREF[1,0]:   0003f50e
ram:0003f4fe    5b1c            adds        r3,r3,#0x1                              
                            LAB_0003f500:                 ;XREF[1,0]:   0003f4fc
ram:0003f500    9342            cmp         r3,param_3                              
ram:0003f502    05d2            bcs         LAB_0003f510                            
ram:0003f504    ec5c            ldrb        r4,[r5,r3]                              
ram:0003f506    c85c            ldrb        param_1,[param_2,r3]                    
ram:0003f508    201a            subs        param_1,r4,param_1                      
ram:0003f50a    01d1            bne         LAB_0003f510                            
ram:0003f50c    002c            cmp         r4,#0x0                                 
ram:0003f50e    f6d1            bne         LAB_0003f4fe                            
                            LAB_0003f510:                 ;XREF[2,0]:   0003f502,0003f50a
ram:0003f510    30bd            pop         {r4,r5,pc}                              
                            ;************************************************************************************************
                            ;*                                           FUNCTION                                           *
                            ;************************************************************************************************
                            ;uint FUN_0003f512(int param_1, undefined4 param_2, uint param_3)
          ;param_1       int                 r0                      
          ;param_2       undefined4          r1                      
          ;param_3       uint                r2                      
                                                          ;XREF[1,0]:   0003f316
ram:0003f512    001d            adds        param_1,param_1,#0x4                    
ram:0003f514    0321            movs        param_2,#0x3                            
                            LAB_0003f516:                 ;XREF[1,0]:   0003f520
ram:0003f516    401e            subs        param_1,param_1,#0x1                    
ram:0003f518    0378            ldrb        r3,[param_1,#0x0]                       
ram:0003f51a    1202            lsls        param_3,param_3,#0x8                    
ram:0003f51c    1a43            orrs        param_3,r3                              
ram:0003f51e    491e            subs        param_2,param_2,#0x1                    
ram:0003f520    f9d5            bpl         LAB_0003f516                            
ram:0003f522    1046            mov         param_1,param_3                         
ram:0003f524    7047            bx          lr                                      
ram:0003f526    0000            movs        r0,r0                                   
                            ;************************************************************************************************
                            ;*                                           FUNCTION                                           *
                            ;************************************************************************************************
                            ;undefined FUN_0003f528(void)
                                                          ;XREF[1,0]:   0003c0c4
ram:0003f528    064c            ldr         r4,[PTR_PTR_DAT_0003f544]               ;= 0003f610
ram:0003f52a    0125            movs        r5,#0x1                                 
ram:0003f52c    064e            ldr         r6,[PTR_DAT_0003f548]                   ;= 0003f630
ram:0003f52e    05e0            b           LAB_0003f53c                            
                            LAB_0003f530:                 ;XREF[1,0]:   0003f53e
ram:0003f530    2046            mov         r0,r4                                   
ram:0003f532    e368            ldr         r3,[r4,#0xc]=>->thunk_FUN_0003f56e      ;= 0003f566
                                                          ; FWD[5,0]:   0003f610,0003f614,0003f618,0003f630
                                                          ;             20002c00
ram:0003f534    07c8            ldmia       r0=>DAT_0003f630,{r0,r1,r2}=>PTR_DAT_...;= 0003f630
                                                                                    ;= 20002C00h
                                                                                    ;= 000000FCh
ram:0003f536    2b43            orrs        r3,r5                                   
ram:0003f538    9847            blx         r3=>thunk_FUN_0003f56e                  ;undefined thunk_FUN_0003f56e(undefin...
ram:0003f53a    1034            adds        r4,#0x10                                
                            LAB_0003f53c:                 ;XREF[1,0]:   0003f52e
ram:0003f53c    b442            cmp         r4,r6                                   
ram:0003f53e    f7d3            bcc         LAB_0003f530                            
ram:0003f540    fcf7c2fd        bl          thunk_FUN_0003c290                      ;undefined thunk_FUN_0003c290(void)
                            PTR_PTR_DAT_0003f544:         ;XREF[1,0]:   0003f528
ram:0003f544    10f60300        addr        PTR_DAT_0003f610                        ;= 0003f630
                            PTR_DAT_0003f548:             ;XREF[1,0]:   0003f52c
ram:0003f548    30f60300        addr        DAT_0003f630                            
                            ;************************************************************************************************
                            ;*                                           FUNCTION                                           *
                            ;************************************************************************************************
                            ;undefined __ARM_common_switch8(void)
                                                          ;XREF[2,0]:   0003cf88,0003ec0c
ram:0003f54c    30b4            push        {r4,r5}                                 
ram:0003f54e    7446            mov         r4,lr                                   
ram:0003f550    641e            subs        r4,r4,#0x1                              
ram:0003f552    2578            ldrb        r5,[r4,#0x0]                            
ram:0003f554    641c            adds        r4,r4,#0x1                              
ram:0003f556    ab42            cmp         r3,r5                                   
ram:0003f558    00d2            bcs         FUN_0003f55c                            
ram:0003f55a    1d46            mov         r5,r3                                   
                            ;************************************************************************************************
                            ;*                                           FUNCTION                                           *
                            ;************************************************************************************************
                            ;undefined FUN_0003f55c(void)
                                                          ;XREF[1,0]:   0003f558
ram:0003f55c    635d            ldrb        r3,[r4,r5]                              
ram:0003f55e    5b00            lsls        r3,r3,#0x1                              
ram:0003f560    e318            adds        r3,r4,r3                                
ram:0003f562    30bc            pop         {r4,r5}                                 
ram:0003f564    1847            bx          r3                                      
                            ;************************************************************************************************
                            ;*                                           FUNCTION                                           *
                            ;************************************************************************************************
                            ;undefined thunk_FUN_0003f56e(undefined4 * param_1, undefined4 * param_2, int param_3)
          ;param_1       undefined4 *        r0                      
          ;param_2       undefined4 *        r1                      
          ;param_3       int                 r2                      
                                                          ;XREF[2,0]:   0003f538,0003f61c
ram:0003f566    02e0            b           FUN_0003f56e                            
                            LAB_0003f568:                 ;XREF[1,0]:   0003f570
ram:0003f568    08c8            ldmia       param_1!,{r3}                           
ram:0003f56a    121f            subs        param_3,param_3,#0x4                    
ram:0003f56c    08c1            stmia       param_2!,{r3}                           
                            ;************************************************************************************************
                            ;*                                           FUNCTION                                           *
                            ;************************************************************************************************
                            ;undefined FUN_0003f56e(undefined4 * param_1, undefined4 * param_2, int param_3)
          ;param_1       undefined4 *        r0                      
          ;param_2       undefined4 *        r1                      
          ;param_3       int                 r2                      
                                                          ;XREF[1,0]:   0003f566
ram:0003f56e    002a            cmp         param_3,#0x0                            
ram:0003f570    fad1            bne         LAB_0003f568                            
ram:0003f572    7047            bx          lr                                      
ram:0003f574    7047            bx          lr                                      
ram:0003f576    0020            movs        r0,#0x0                                 
ram:0003f578    01e0            b           LAB_0003f57e                            
                            LAB_0003f57a:                 ;XREF[1,0]:   0003f580
ram:0003f57a    01c1            stmia       r1!,{r0}                                
ram:0003f57c    121f            subs        r2,r2,#0x4                              
                            LAB_0003f57e:                 ;XREF[1,0]:   0003f578
ram:0003f57e    002a            cmp         r2,#0x0                                 
ram:0003f580    fbd1            bne         LAB_0003f57a                            
ram:0003f582    7047            bx          lr                                      
                            DAT_0003f584:                 ;XREF[2,0]:   0003c21c,0003c434
ram:0003f584    02000000        undefined4  00000002h                               
                            DAT_0003f588:                 ;XREF[1,0]:   0003c21c
ram:0003f588    00000000        undefined4  00000000h                               
                            DAT_0003f58c:                 ;XREF[1,0]:   0003c21c
ram:0003f58c    00000000        undefined4  00000000h                               
                            DAT_0003f590:                 ;XREF[1,0]:   0003c21c
ram:0003f590    00000000        undefined4  00000000h                               
                            DAT_0003f594:                 ;XREF[2,0]:   0003d032,0003d2ec
ram:0003f594    23d1bcea        undefined4  EABCD123h                               
                            DAT_0003f598:                 ;XREF[1,0]:   0003d032
ram:0003f598    5f782315        undefined4  1523785Fh                               
                            DAT_0003f59c:                 ;XREF[1,0]:   0003d032
ram:0003f59c    deef1212        undefined4  1212EFDEh                               
                            DAT_0003f5a0:                 ;XREF[1,0]:   0003d032
ram:0003f5a0    00000000        undefined4  00000000h                               
                            DAT_0003f5a4:                 ;XREF[2,0]:   0003e052,0003e1a4
ram:0003f5a4    b5de0300        undefined4  0003DEB5h                               ;?  ->  0003deb5
                            DAT_0003f5a8:                 ;XREF[1,0]:   0003e052
ram:0003f5a8    00000000        undefined4  00000000h                               
                            DAT_0003f5ac:                 ;XREF[1,0]:   0003e052
ram:0003f5ac    00000000        undefined4  00000000h                               
                            DAT_0003f5b0:                 ;XREF[1,0]:   0003e14a
ram:0003f5b0    02              ??          02h                                     
ram:0003f5b1    00              ??          00h                                     
ram:0003f5b2    00              ??          00h                                     
ram:0003f5b3    00              ??          00h                                     
ram:0003f5b4    00              ??          00h                                     
ram:0003f5b5    00              ??          00h                                     
ram:0003f5b6    00              ??          00h                                     
ram:0003f5b7    00              ??          00h                                     
ram:0003f5b8    00              ??          00h                                     
ram:0003f5b9    00              ??          00h                                     
ram:0003f5ba    00              ??          00h                                     
ram:0003f5bb    00              ??          00h                                     
ram:0003f5bc    00              ??          00h                                     
ram:0003f5bd    00              ??          00h                                     
ram:0003f5be    00              ??          00h                                     
ram:0003f5bf    00              ??          00h                                     
ram:0003f5c0    00              ??          00h                                     
ram:0003f5c1    00              ??          00h                                     
ram:0003f5c2    00              ??          00h                                     
ram:0003f5c3    00              ??          00h                                     
ram:0003f5c4    00              ??          00h                                     
ram:0003f5c5    00              ??          00h                                     
ram:0003f5c6    00              ??          00h                                     
ram:0003f5c7    00              ??          00h                                     
                            DAT_0003f5c8:                 ;XREF[2,0]:   0003e428,0003e728
ram:0003f5c8    04              ??          04h                                     
ram:0003f5c9    00              ??          00h                                     
ram:0003f5ca    00              ??          00h                                     
ram:0003f5cb    00              ??          00h                                     
ram:0003f5cc    00              ??          00h                                     
ram:0003f5cd    00              ??          00h                                     
ram:0003f5ce    00              ??          00h                                     
ram:0003f5cf    00              ??          00h                                     
ram:0003f5d0    00              ??          00h                                     
ram:0003f5d1    00              ??          00h                                     
ram:0003f5d2    00              ??          00h                                     
ram:0003f5d3    00              ??          00h                                     
ram:0003f5d4    00              ??          00h                                     
ram:0003f5d5    00              ??          00h                                     
ram:0003f5d6    00              ??          00h                                     
ram:0003f5d7    00              ??          00h                                     
ram:0003f5d8    00              ??          00h                                     
ram:0003f5d9    00              ??          00h                                     
ram:0003f5da    00              ??          00h                                     
ram:0003f5db    00              ??          00h                                     
ram:0003f5dc    00              ??          00h                                     
ram:0003f5dd    00              ??          00h                                     
ram:0003f5de    00              ??          00h                                     
ram:0003f5df    00              ??          00h                                     
                            DAT_0003f5e0:                 ;XREF[1,0]:   0003e514
ram:0003f5e0    39e30300        undefined4  0003E339h                               ;?  ->  0003e339
                            DAT_0003f5e4:                 ;XREF[1,0]:   0003e514
ram:0003f5e4    00000000        undefined4  00000000h                               
                            DAT_0003f5e8:                 ;XREF[1,0]:   0003e514
ram:0003f5e8    00000000        undefined4  00000000h                               
                            DAT_0003f5ec:                 ;XREF[1,0]:   0003f1aa
ram:0003f5ec    03000000        undefined4  00000003h                               
ram:0003f5f0    00              ??          00h                                     
ram:0003f5f1    00              ??          00h                                     
ram:0003f5f2    00              ??          00h                                     
ram:0003f5f3    00              ??          00h                                     
                            DAT_0003f5f4:                 ;XREF[1,0]:   0003f1ac
ram:0003f5f4    00000000        undefined4  00000000h                               
                            DAT_0003f5f8:                 ;XREF[2,0]:   0003ef6e,0003f270
ram:0003f5f8    05              ??          05h                                     
ram:0003f5f9    00              ??          00h                                     
ram:0003f5fa    00              ??          00h                                     
ram:0003f5fb    00              ??          00h                                     
ram:0003f5fc    00              ??          00h                                     
ram:0003f5fd    00              ??          00h                                     
ram:0003f5fe    00              ??          00h                                     
ram:0003f5ff    00              ??          00h                                     
ram:0003f600    00              ??          00h                                     
ram:0003f601    00              ??          00h                                     
ram:0003f602    00              ??          00h                                     
ram:0003f603    00              ??          00h                                     
ram:0003f604    00              ??          00h                                     
ram:0003f605    00              ??          00h                                     
ram:0003f606    00              ??          00h                                     
ram:0003f607    00              ??          00h                                     
ram:0003f608    00              ??          00h                                     
ram:0003f609    00              ??          00h                                     
ram:0003f60a    00              ??          00h                                     
ram:0003f60b    00              ??          00h                                     
ram:0003f60c    00              ??          00h                                     
ram:0003f60d    00              ??          00h                                     
ram:0003f60e    00              ??          00h                                     
ram:0003f60f    00              ??          00h                                     
                            PTR_DAT_0003f610:             ;XREF[2,0]:   0003f534,0003f544
ram:0003f610    30f60300        addr        DAT_0003f630                            
                            DAT_0003f614:                 ;XREF[1,0]:   0003f534
ram:0003f614    002c0020        undefined4  20002C00h                               
                            DAT_0003f618:                 ;XREF[1,0]:   0003f534
ram:0003f618    fc000000        undefined4  000000FCh                               
                            PTR_thunk_FUN_0003f56e_0003...;XREF[1,0]:   0003f532
ram:0003f61c    66f50300        addr        thunk_FUN_0003f56e                      
ram:0003f620    2c              ??          2Ch    ,                                
ram:0003f621    f7              ??          F7h                                     
ram:0003f622    03              ??          03h                                     
ram:0003f623    00              ??          00h                                     
ram:0003f624    fc              ??          FCh                                     
ram:0003f625    2c              ??          2Ch    ,                                
ram:0003f626    00              ??          00h                                     
ram:0003f627    20              ??          20h                                     
ram:0003f628    44              ??          44h    D                                
ram:0003f629    0f              ??          0Fh                                     
ram:0003f62a    00              ??          00h                                     
ram:0003f62b    00              ??          00h                                     
ram:0003f62c    76              ??          76h    v                                ;?  ->  0003f576
ram:0003f62d    f5              ??          F5h                                     
ram:0003f62e    03              ??          03h                                     
ram:0003f62f    00              ??          00h                                     
                            DAT_0003f630:                 ;XREF[3,0]:   0003f534,0003f548,0003f610
ram:0003f630    00              ??          00h                                     
ram:0003f631    00              ??          00h                                     
ram:0003f632    00              ??          00h                                     
ram:0003f633    00              ??          00h                                     
ram:0003f634    00              ??          00h                                     
ram:0003f635    00              ??          00h                                     
ram:0003f636    00              ??          00h                                     
ram:0003f637    00              ??          00h                                     
ram:0003f638    00              ??          00h                                     
ram:0003f639    00              ??          00h                                     
ram:0003f63a    00              ??          00h                                     
ram:0003f63b    00              ??          00h                                     
ram:0003f63c    00              ??          00h                                     
ram:0003f63d    00              ??          00h                                     
ram:0003f63e    00              ??          00h                                     
ram:0003f63f    00              ??          00h                                     
ram:0003f640    00              ??          00h                                     
ram:0003f641    00              ??          00h                                     
ram:0003f642    00              ??          00h                                     
ram:0003f643    00              ??          00h                                     
ram:0003f644    00              ??          00h                                     
ram:0003f645    24              ??          24h    $                                
ram:0003f646    f4              ??          F4h                                     
ram:0003f647    00              ??          00h                                     
ram:0003f648    00              ??          00h                                     
ram:0003f649    00              ??          00h                                     
ram:0003f64a    00              ??          00h                                     
ram:0003f64b    00              ??          00h                                     
ram:0003f64c    00              ??          00h                                     
ram:0003f64d    00              ??          00h                                     
ram:0003f64e    00              ??          00h                                     
ram:0003f64f    00              ??          00h                                     
ram:0003f650    00              ??          00h                                     
ram:0003f651    00              ??          00h                                     
ram:0003f652    00              ??          00h                                     
ram:0003f653    00              ??          00h                                     
ram:0003f654    00              ??          00h                                     
ram:0003f655    00              ??          00h                                     
ram:0003f656    00              ??          00h                                     
ram:0003f657    00              ??          00h                                     
ram:0003f658    00              ??          00h                                     
ram:0003f659    00              ??          00h                                     
ram:0003f65a    00              ??          00h                                     
ram:0003f65b    00              ??          00h                                     
ram:0003f65c    00              ??          00h                                     
ram:0003f65d    00              ??          00h                                     
ram:0003f65e    00              ??          00h                                     
ram:0003f65f    00              ??          00h                                     
ram:0003f660    00              ??          00h                                     
ram:0003f661    00              ??          00h                                     
ram:0003f662    00              ??          00h                                     
ram:0003f663    00              ??          00h                                     
ram:0003f664    00              ??          00h                                     
ram:0003f665    00              ??          00h                                     
ram:0003f666    00              ??          00h                                     
ram:0003f667    00              ??          00h                                     
ram:0003f668    00              ??          00h                                     
ram:0003f669    00              ??          00h                                     
ram:0003f66a    00              ??          00h                                     
ram:0003f66b    00              ??          00h                                     
ram:0003f66c    00              ??          00h                                     
ram:0003f66d    00              ??          00h                                     
ram:0003f66e    00              ??          00h                                     
ram:0003f66f    00              ??          00h                                     
ram:0003f670    00              ??          00h                                     
ram:0003f671    00              ??          00h                                     
ram:0003f672    00              ??          00h                                     
ram:0003f673    00              ??          00h                                     
ram:0003f674    00              ??          00h                                     
ram:0003f675    00              ??          00h                                     
ram:0003f676    00              ??          00h                                     
ram:0003f677    00              ??          00h                                     
ram:0003f678    00              ??          00h                                     
ram:0003f679    00              ??          00h                                     
ram:0003f67a    00              ??          00h                                     
ram:0003f67b    00              ??          00h                                     
ram:0003f67c    00              ??          00h                                     
ram:0003f67d    00              ??          00h                                     
ram:0003f67e    00              ??          00h                                     
ram:0003f67f    00              ??          00h                                     
ram:0003f680    00              ??          00h                                     
ram:0003f681    00              ??          00h                                     
ram:0003f682    00              ??          00h                                     
ram:0003f683    00              ??          00h                                     
ram:0003f684    00              ??          00h                                     
ram:0003f685    00              ??          00h                                     
ram:0003f686    00              ??          00h                                     
ram:0003f687    00              ??          00h                                     
ram:0003f688    00              ??          00h                                     
ram:0003f689    00              ??          00h                                     
ram:0003f68a    00              ??          00h                                     
ram:0003f68b    00              ??          00h                                     
ram:0003f68c    00              ??          00h                                     
ram:0003f68d    00              ??          00h                                     
ram:0003f68e    00              ??          00h                                     
ram:0003f68f    00              ??          00h                                     
ram:0003f690    00              ??          00h                                     
ram:0003f691    00              ??          00h                                     
ram:0003f692    00              ??          00h                                     
ram:0003f693    00              ??          00h                                     
ram:0003f694    00              ??          00h                                     
ram:0003f695    00              ??          00h                                     
ram:0003f696    00              ??          00h                                     
ram:0003f697    00              ??          00h                                     
ram:0003f698    00              ??          00h                                     
ram:0003f699    00              ??          00h                                     
ram:0003f69a    00              ??          00h                                     
ram:0003f69b    00              ??          00h                                     
ram:0003f69c    00              ??          00h                                     
ram:0003f69d    00              ??          00h                                     
ram:0003f69e    00              ??          00h                                     
ram:0003f69f    00              ??          00h                                     
ram:0003f6a0    00              ??          00h                                     
ram:0003f6a1    00              ??          00h                                     
ram:0003f6a2    00              ??          00h                                     
ram:0003f6a3    00              ??          00h                                     
ram:0003f6a4    00              ??          00h                                     
ram:0003f6a5    00              ??          00h                                     
ram:0003f6a6    00              ??          00h                                     
ram:0003f6a7    00              ??          00h                                     
ram:0003f6a8    00              ??          00h                                     
ram:0003f6a9    00              ??          00h                                     
ram:0003f6aa    00              ??          00h                                     
ram:0003f6ab    00              ??          00h                                     
ram:0003f6ac    00              ??          00h                                     
ram:0003f6ad    00              ??          00h                                     
ram:0003f6ae    00              ??          00h                                     
ram:0003f6af    00              ??          00h                                     
ram:0003f6b0    00              ??          00h                                     
ram:0003f6b1    00              ??          00h                                     
ram:0003f6b2    00              ??          00h                                     
ram:0003f6b3    00              ??          00h                                     
ram:0003f6b4    00              ??          00h                                     
ram:0003f6b5    00              ??          00h                                     
ram:0003f6b6    00              ??          00h                                     
ram:0003f6b7    00              ??          00h                                     
ram:0003f6b8    00              ??          00h                                     
ram:0003f6b9    00              ??          00h                                     
ram:0003f6ba    00              ??          00h                                     
ram:0003f6bb    00              ??          00h                                     
ram:0003f6bc    00              ??          00h                                     
ram:0003f6bd    00              ??          00h                                     
ram:0003f6be    00              ??          00h                                     
ram:0003f6bf    00              ??          00h                                     
ram:0003f6c0    00              ??          00h                                     
ram:0003f6c1    00              ??          00h                                     
ram:0003f6c2    00              ??          00h                                     
ram:0003f6c3    00              ??          00h                                     
ram:0003f6c4    00              ??          00h                                     
ram:0003f6c5    00              ??          00h                                     
ram:0003f6c6    00              ??          00h                                     
ram:0003f6c7    00              ??          00h                                     
ram:0003f6c8    00              ??          00h                                     
ram:0003f6c9    00              ??          00h                                     
ram:0003f6ca    00              ??          00h                                     
ram:0003f6cb    00              ??          00h                                     
ram:0003f6cc    00              ??          00h                                     
ram:0003f6cd    00              ??          00h                                     
ram:0003f6ce    00              ??          00h                                     
ram:0003f6cf    00              ??          00h                                     
ram:0003f6d0    00              ??          00h                                     
ram:0003f6d1    00              ??          00h                                     
ram:0003f6d2    00              ??          00h                                     
ram:0003f6d3    00              ??          00h                                     
ram:0003f6d4    00              ??          00h                                     
ram:0003f6d5    00              ??          00h                                     
ram:0003f6d6    00              ??          00h                                     
ram:0003f6d7    00              ??          00h                                     
ram:0003f6d8    00              ??          00h                                     
ram:0003f6d9    00              ??          00h                                     
ram:0003f6da    00              ??          00h                                     
ram:0003f6db    00              ??          00h                                     
ram:0003f6dc    00              ??          00h                                     
ram:0003f6dd    00              ??          00h                                     
ram:0003f6de    00              ??          00h                                     
ram:0003f6df    00              ??          00h                                     
ram:0003f6e0    00              ??          00h                                     
ram:0003f6e1    00              ??          00h                                     
ram:0003f6e2    00              ??          00h                                     
ram:0003f6e3    00              ??          00h                                     
ram:0003f6e4    00              ??          00h                                     
ram:0003f6e5    00              ??          00h                                     
ram:0003f6e6    00              ??          00h                                     
ram:0003f6e7    00              ??          00h                                     
ram:0003f6e8    00              ??          00h                                     
ram:0003f6e9    00              ??          00h                                     
ram:0003f6ea    00              ??          00h                                     
ram:0003f6eb    00              ??          00h                                     
ram:0003f6ec    00              ??          00h                                     
ram:0003f6ed    00              ??          00h                                     
ram:0003f6ee    00              ??          00h                                     
ram:0003f6ef    00              ??          00h                                     
ram:0003f6f0    00              ??          00h                                     
ram:0003f6f1    00              ??          00h                                     
ram:0003f6f2    00              ??          00h                                     
ram:0003f6f3    00              ??          00h                                     
ram:0003f6f4    00              ??          00h                                     
ram:0003f6f5    00              ??          00h                                     
ram:0003f6f6    ff              ??          FFh                                     
ram:0003f6f7    ff              ??          FFh                                     
ram:0003f6f8    00              ??          00h                                     
ram:0003f6f9    00              ??          00h                                     
ram:0003f6fa    00              ??          00h                                     
ram:0003f6fb    00              ??          00h                                     
ram:0003f6fc    32              ??          32h    2                                
ram:0003f6fd    00              ??          00h                                     
ram:0003f6fe    00              ??          00h                                     
ram:0003f6ff    00              ??          00h                                     
ram:0003f700    00              ??          00h                                     
ram:0003f701    00              ??          00h                                     
ram:0003f702    00              ??          00h                                     
ram:0003f703    00              ??          00h                                     
ram:0003f704    00              ??          00h                                     
ram:0003f705    00              ??          00h                                     
ram:0003f706    00              ??          00h                                     
ram:0003f707    00              ??          00h                                     
ram:0003f708    00              ??          00h                                     
ram:0003f709    00              ??          00h                                     
ram:0003f70a    00              ??          00h                                     
ram:0003f70b    00              ??          00h                                     
ram:0003f70c    00              ??          00h                                     
ram:0003f70d    00              ??          00h                                     
ram:0003f70e    00              ??          00h                                     
ram:0003f70f    00              ??          00h                                     
ram:0003f710    00              ??          00h                                     
ram:0003f711    00              ??          00h                                     
ram:0003f712    00              ??          00h                                     
ram:0003f713    00              ??          00h                                     
ram:0003f714    00              ??          00h                                     
ram:0003f715    00              ??          00h                                     
ram:0003f716    00              ??          00h                                     
ram:0003f717    00              ??          00h                                     
ram:0003f718    00              ??          00h                                     
ram:0003f719    00              ??          00h                                     
ram:0003f71a    00              ??          00h                                     
ram:0003f71b    00              ??          00h                                     
ram:0003f71c    00              ??          00h                                     
ram:0003f71d    00              ??          00h                                     
ram:0003f71e    00              ??          00h                                     
ram:0003f71f    00              ??          00h                                     
ram:0003f720    00              ??          00h                                     
ram:0003f721    00              ??          00h                                     
ram:0003f722    00              ??          00h                                     
ram:0003f723    00              ??          00h                                     
ram:0003f724    00              ??          00h                                     
ram:0003f725    00              ??          00h                                     
ram:0003f726    00              ??          00h                                     
ram:0003f727    00              ??          00h                                     
ram:0003f728    00              ??          00h                                     
ram:0003f729    00              ??          00h                                     
ram:0003f72a    00              ??          00h                                     
ram:0003f72b    00              ??          00h                                     
